 Start         Length     Name                   Class
 0001:00000000 000000000H BEGTEXT                CODE 32-bit
 0002:00000000 000000000H DGROUP                 DATA 32-bit
 0003:00000000 000000000H .bss                   DATA 32-bit
 0004:00000000 000000000H .idata                 DATA 32-bit
 0005:00000000 000000000H .edata                 DATA 32-bit
 0006:00000000 000000000H .reloc                 DATA 32-bit
 0007:00000000 000000000H .rdata                 DATA 32-bit

  Address         Publics by Value

 0000:00072B10       _MoveWindow@24
 0000:00072B16       _GetWindowRect@8
 0000:00072B1C       _GetDesktopWindow@0
 0000:00072B22       _EndDialog@8
 0000:00072B28       _DialogBoxParamA@20
 0000:00072B2E       _SetWindowPos@28
 0000:00072B34       _GetClientRect@8
 0000:00072B3A       _EndPaint@8
 0000:00072B40       _BeginPaint@8
 0000:00072B46       _DefWindowProcA@16
 0000:00072B4C       _InSendMessage@0
 0000:00072B52       _OutputDebugStringA@4
 0000:00072B58       _OemToCharBuffA@12
 0000:00072B5E       _lstrlenA@4
 0000:00072B64       _AdjustWindowRect@12
 0000:00072B6A       _DeleteDC@4
 0000:00072B70       _GetDeviceCaps@8
 0000:00072B76       _CreateICA@16
 0000:00072B7C       _GetCaretPos@4
 0000:00072B82       _SetFocus@4
 0000:00072B88       _GetNextDlgTabItem@12
 0000:00072B8E       _GetParent@4
 0000:00072B94       _MessageBeep@4
 0000:00072B9A       _GetWindowLongA@8
 0000:00072BA0       _GetClassNameA@12
 0000:00072BA6       _DispatchMessageA@4
 0000:00072BAC       _TranslateMessage@4
 0000:00072BB2       _UpdateWindow@4
 0000:00072BB8       _ShowWindow@8
 0000:00072BBE       _CreateWindowExA@48
 0000:00072BC4       _GetVersion@0
 0000:00072BCA       _RegisterClassA@4
 0000:00072BD0       _LoadCursorA@8
 0000:00072BD6       _GetStockObject@4
 0000:00072BDC       _LoadIconA@8
 0000:00072BE2       _SetUnhandledExceptionFilter@4
 0000:00072BE8       _SetErrorMode@4
 0000:00072BEE       _ExitProcess@4
 0000:00072BF4       _GetSystemMetrics@4
 0000:00072BFA       _WinHelpA@16
 0000:00072C00       _timeKillEvent@4
 0000:00072C06       _timeSetEvent@20
 0000:00072C0C       _GetPrivateProfileIntA@16
 0000:00072C12       _ReleaseDC@8
 0000:00072C18       _GetDC@4
 0000:00072C1E       _AnimatePalette@16
 0000:00072C24       _DeleteObject@4
 0000:00072C2A       _CreatePalette@4
 0000:00072C30       _PeekMessageA@20
 0000:00072C36       _RealizePalette@4
 0000:00072C3C       _SelectPalette@12
 0000:00072C42       _mciGetErrorStringA@12
 0000:00072C48       _mciSendStringA@16
 0000:00072C4E       _GetVolumeInformationA@32
 0000:00072C54       _timeGetTime@0
 0000:00072C5A       _GetKeyState@4
 0000:00072C60       _FindNextFileA@8
 0000:00072C66       _FindFirstFileA@8
 0000:00072C6C       _FindClose@4
 0000:00072C72       _EnableWindow@8
 0000:00072C78       _SetWindowTextA@8
 0000:00072C7E       _SendMessageA@16
 0000:00072C84       _GetDlgItem@8
 0000:00072C8A       _DestroyWindow@4
 0000:00072C90       _CreateDialogParamA@20
 0000:00072C96       _MessageBoxA@16
 0000:00072C9C       _GetFocus@0
 0000:00072CA2       _SetDIBitsToDevice@48
 0000:00072CA8       _SetCursorPos@8
 0000:00072CAE       _ClientToScreen@8
 0000:00072CB4       _CreateCursor@28
 0000:00072CBA       _DestroyCursor@4
 0000:00072CC0       _SetCursor@4
 0000:00072CC6       _ShowCursor@4
 0000:00072CCC       _WritePrivateProfileStringA@16
 0000:00072CD2       _GetPrivateProfileStringA@24
 0000:00072CD8       _ExitThread
 0000:00072CDE       _CreateThread
 0000:00072CE4       _CreateEventA
 0000:00072CEA       _GetCurrentThread
 0000:00072CF0       _SetEvent
 0000:00072CF6       _WriteConsoleA
 0000:00072CFC       _SetConsoleMode
 0000:00072D02       _GetConsoleMode
 0000:00072D08       _ReadConsoleInputA
 0000:00072D0E       _RtlUnwind
 0000:00072D14       _VirtualFree
 0000:00072D1A       _TlsFree
 0000:00072D20       _TlsSetValue
 0000:00072D26       _TlsAlloc
 0000:00072D2C       _TlsGetValue
 0000:00072D32       _ReleaseMutex
 0000:00072D38       _WaitForSingleObject
 0000:00072D3E       _CreateMutexA
 0000:00072D44       _GetCurrentThreadId
 0000:00072D4A       _GetTimeZoneInformation
 0000:00072D50       _VirtualAlloc
 0000:00072D56       _GetLocalTime
 0000:00072D5C       _GetFileType
 0000:00072D62       _GetStdHandle
 0000:00072D68       _SetStdHandle
 0000:00072D6E       _CloseHandle
 0000:00072D74       _GetCurrentProcessId
 0000:00072D7A       _GetModuleHandleA
 0000:00072D80       _GetVersion
 0000:00072D86       _GetCommandLineA
 0000:00072D8C       _GetEnvironmentStrings
 0000:00072D92       _ExitProcess
 0000:00072D98       _GetCPInfo
 0000:00072D9E       _GetFullPathNameA
 0000:00072DA4       _AIL_file_size@4
 0000:00072DAA       _AIL_file_read@8
 0000:00072DB0       _AIL_mem_free_lock@4
 0000:00072DB6       _AIL_set_sequence_loop_count@8
 0000:00072DBC       _AIL_set_sequence_volume@12
 0000:00072DC2       _AIL_set_sample_volume@8
 0000:00072DC8       _AIL_set_sample_pan@8
 0000:00072DCE       _AIL_end_sequence@4
 0000:00072DD4       _AIL_end_sample@4
 0000:00072DDA       _AIL_start_sample@4
 0000:00072DE0       _AIL_set_sample_loop_count@8
 0000:00072DE6       _AIL_register_EOS_callback@8
 0000:00072DEC       _AIL_set_sample_file@12
 0000:00072DF2       _AIL_shutdown@0
 0000:00072DF8       _AIL_quick_shutdown@0
 0000:00072DFE       _AIL_allocate_sequence_handle@4
 0000:00072E04       _AIL_init_sample@4
 0000:00072E0A       _AIL_allocate_sample_handle@4
 0000:00072E10       _AIL_quick_handles@8
 0000:00072E16       _AIL_quick_startup@20
 0000:00072E1C       _AIL_set_preference@8
 0000:00072E22       _AIL_startup@0
 0000:00072E28       _GetModuleFileNameA
 0000:00072E2E       _GetProcAddress
 0000:00072E34       _LoadLibraryA
 0000:00072E3A       _GetActiveWindow
 0000:00072E40       _wsprintfA
 0000:00072E46       _SetConsoleCtrlHandler
 0000:00072E4C       _SetCurrentDirectoryA
 0000:00072E52       _GetDiskFreeSpaceA
 0000:00072E58       _DeleteFileA
 0000:00072E5E       _MoveFileA
 0000:00072E64       _WriteFile
 0000:00072E6A       _SetFilePointer
 0000:00072E70       _GetLastError
 0000:00072E76       _ReadFile
 0000:00072E7C       _CreateFileA
 0000:00072E82       _GetCurrentDirectoryA
 0000:00072E88       _GetFileAttributesA
 0000:00072E8E       _send@16
 0000:00072E94       _htonl@4
 0000:00072E9A       _WSAGetLastError@0
 0000:00072EA0       _recv@16
 0000:00072EA6       _ioctlsocket@12
 0000:00072EAC       _select@20
 0000:00072EB2       _closesocket@4
 0000:00072EB8       _connect@12
 0000:00072EBE       _gethostbyname@4
 0000:00072EC4       _htons@4
 0000:00072ECA       _setsockopt@20
 0000:00072ED0       _socket@12
 0000:00072ED6       _WSACleanup@0
 0000:00072EDC       _WSAStartup@8
 0001:00000003       ___begtext
 0001:00000010       W?HotkeyRequest$n()v
 0001:0000002C       W?Hotkey$n()v
 0001:0000005C       W?KArgList$n(pns)v
 0001:000003A8       W?KArray$n(pns)v
 0001:00000C48       W?size$:Array$n()us
 0001:00000CAD       W?elementSize$:Array$n()us
 0001:00000CFA       W?checkBounds$:Array$n(i)i
 0001:00000D27       W?calcAddress$:Array$n(i)pnv
 0001:00000E1D       W?resize$:Array$n(i)v
 0001:00000F4D       W?at$:Array$n(i)i
 0001:00000FD3       W?at$:Array$n(ii)v
 0001:00001068       W?at$:Array$n(iipnv)v
 0001:00001143       W?fill$:Array$n(iii)v
 0001:00001229       W?copy$:Array$n(i$MemID$$ii)v
 0001:00001326       W?copy$:Array$n(ipnvii)v
 0001:000013A9       W?insert$:Array$n(ii)v
 0001:000013F0       W?del$:Array$n(i)v
 0001:00001460       W?$dt:Array$n()_
 0001:00001468       W?$ct:Array$n()_
 0001:00001484       pmLock0
 0001:00001492       setupTossRet
 0001:000014ED       asm_fatal
 0001:000017BD       checkInt
 0001:000017DF       PushObject
 0001:000017FF       pmDoNew
 0001:00001A04       PushSelector
 0001:00001C76       Apop
 0001:00001C85       SetUpSend
 0001:00001CA5       CleanUpSend
 0001:00001CB5       Clear
 0001:00001CC3       SetupCheckInt
 0001:00001D1D       CheckArrays
 0001:00001D30       W?$ct:BufferStd$n(iipnuc)_
 0001:00001D57       W?$ct:BufferStd$n(rnx$0$)_
 0001:00001D80       W?$aa:BufferStd$n(rnx$0$)rn$0$
 0001:00001D90       W?Addr$:BufferStd$n.x(xixi)pnuc
 0001:00001DA8       W?IsNull$:BufferStd$n.x()i
 0001:00001DB8       W?Clear$:BufferStd$n.x(uc)v
 0001:00001DDC       W?$ct:BufferWin$n(iipnuc)_
 0001:00001E03       W?$ct:BufferWin$n(rnx$0$)_
 0001:00001E2C       W?$aa:BufferWin$n(rnx$0$)rn$0$
 0001:00001E3C       W?Addr$:BufferWin$n.x(xixi)pnuc
 0001:00001E58       W?IsNull$:BufferWin$n.x()i
 0001:00001E68       W?Clear$:BufferWin$n.x(uc)v
 0001:00002187       W?Clear$:Breakpoint$n()v
 0001:0000219D       W?Test$:Breakpoint$n()v
 0001:000021C9       W?AddOpcode$:OpcodeBreakpoint$n(uc)v
 0001:000021FE       W?Clear$:OpcodeBreakpoint$n()v
 0001:00002219       W?Set$:OpcodeBreakpoint$n(uce)v
 0001:0000224D       W?Triggered$:OpcodeBreakpoint$n()i
 0001:0000228B       W?Set$:StepOverSourceBreakpoint$n()v
 0001:000022A9       W?Triggered$:StepOverSourceBreakpoint$n()i
 0001:000022D1       W?Set$:PMIPStackBreakpoint$n(pns)v
 0001:000022DD       W?Triggered$:PMIPStackBreakpoint$n()i
 0001:000022F2       W?Set$:ScriptBreakpoint$n(uiuii)v
 0001:0000230B       W?Set$:ScriptBreakpoint$n(i)i
 0001:00002381       W?Triggered$:ScriptBreakpoint$n()i
 0001:000023AA       W?IsInMethod$:MethodBreakpoint$n()i
 0001:000023F5       W?Set$:MethodBreakpoint$n(i)i
 0001:00002453       W?Test$:MethodBreakpoint$n()v
 0001:000024A0       W?Set$:MemoryBreakpoint$n(i)i
 0001:0000252E       W?Test$:MemoryBreakpoint$n()v
 0001:000025CB       W?Set$:PropertyBreakpoint$n($ObjectID$$i)i
 0001:00002786       W?Test$:PropertyBreakpoint$n()v
 0001:00002934       W?Set$:KernelBreakpoint$n(i)i
 0001:000029C7       W?Triggered$:KernelBreakpoint$n()i
 0001:00002A07       W?$ct:Breakpoints$n()_
 0001:00002A13       W?Add$:Breakpoints$n(rn$Breakpoint$$)v
 0001:00002A60       W?Clear$:Breakpoints$n()v
 0001:00002AC8       W?HandleEvent$:Breakpoints$n(i)i
 0001:00002C22       W?Remove$:Breakpoints$n(rn$Breakpoint$$)v
 0001:00002C7E       W?Set$:Breakpoints$n(rn$Breakpoint$$i)v
 0001:00002CA6       W?SetPropertyBreakpoint$:Breakpoints$n($ObjectID$$i)v
 0001:00002CEA       W?StepOut$:Breakpoints$n()v
 0001:00002D20       W?StepSource$:Breakpoints$n()v
 0001:00002D3C       W?StepOverSource$:Breakpoints$n()v
 0001:00002D54       W?StepOver$:Breakpoints$n()v
 0001:00002E0D       W?Test$:Breakpoints$n()v
 0001:00002E34       W?Triggered$:Breakpoint$n()i
 0001:00002E38       W?Set$:Breakpoint$n(i)i
 0001:00002E3C       WriteUncompLine
 0001:00002EB3       WriteUncompLineNoSkip
 0001:00002EFA       WriteUncompLineBack
 0001:00002F23       WriteUncompLineBackNoSkip
 0001:00002F42       WriteUncompScaleLine
 0001:00002F81       WriteUncompScaleLineNoSkip
 0001:00002FEB       WriteUncompScaleLine2
 0001:00003052       WriteUncompScaleLine2Mirr
 0001:000030B9       Position
 0001:00003109       WriteCompSkipLine
 0001:00003205       WriteCompLine
 0001:000032C5       WriteCompSkipLineBack
 0001:000033CC       WriteCompLineBack
 0001:000034BA       WriteWholeCompSkipLine
 0001:00003560       W?ValidateControlTable$n($MemID$$iiipnai)v
 0001:000036E2       W?ValidateControlTable$n(iiipnai)v
 0001:00003734       W?ValidateView$n($MemID$$ipnai)v
 0001:0000381E       W?CheckView$n($MemID$$)i
 0001:0000391C       W?ValidateViews$n(pnai)v
 0001:00003975       W?$ct:CelObj$n(rnx$0$)_
 0001:00003A01       W?$ra:CelObj$n.x(rnx$0$)i
 0001:00003A9F       W?SearchCache$:CelObj$n.x($Bitmap$$pni)i
 0001:00003B33       W?FindReplacementEntryInCache$:CelObj$n.x()i
 0001:00003B97       W?PutCopyInCache$:CelObj$n()v
 0001:00003BEF       W?DeleteStaticData$:CelObj$n()v
 0001:00003BF0       W?SubmitPalette$:CelObj$n()v
 0001:00003C53       W?Draw$:CelObj$n(rnx$Buffer$$rnx$ScreenItem$$rnx$SOL_Rect$$)v
 0001:0000425D       W?DrawTo$:CelObj$n(rnx$Buffer$$rnx$SOL_Rect$$$SOL_Point$$x$Ratio$$x$5$)v
 0001:000044BC       W?AnalyzeForRemap$:CelObjView$n()i
 0001:000045F6       W?AnalyzeUncompForRemap$:CelObjView$n()i
 0001:0000466A       W?AnalyzeForSkip$:CelObjPic$n()i
 0001:00004727       W?AnalyzeUncompForSkip$:CelObjPic$n()i
 0001:0000477D       W?ScaleTables$:CelObj$n(rnx$Ratio$$rnx$2$)v
 0001:000049D6       W?DoTable$:CelObj$n(pnirnx$Ratio$$)v
 0001:00004A85       W?ReadPix$:CelObj$n(iii)uc
 0001:00004B94       W?ReadLineSpan$:CelObj$n(i)$SOL_Rect$$
 0001:00004C7D       W?CompareLinkArray$n(pnxvpnxv)i
 0001:00004CA4       W?GetFirstLink$:CelObj$n()s
 0001:00004D80       W?GetNextLink$:CelObj$n(i)s
 0001:00004E88       W?GetLinkPoint$:CelObj$n(ii)s
 0001:00004F93       W?ResPointer$:CelObjView$n()pnuc
 0001:00004FDD       W?Draw$:CelObjView$n(rnx$Buffer$$rnx$ScreenItem$$rnx$SOL_Rect$$i)v
 0001:00005025       W?Draw$:CelObjView$n(rnx$Buffer$$rnx$SOL_Rect$$$SOL_Point$$i)v
 0001:000050A4       W?Draw$:CelObjView$n(rnx$Buffer$$rnx$SOL_Rect$$$SOL_Point$$ix$Ratio$$x$5$)v
 0001:00005128       W?$ct:CelObjView$n(iii)_
 0001:0000550D       W?$ct:CelObjMem$n($MemID$$)_
 0001:00005658       W?ResPointer$:CelObjMem$n()pnuc
 0001:0000570C       W?Draw$:CelObjMem$n(rnx$Buffer$$rnx$ScreenItem$$rnx$SOL_Rect$$i)v
 0001:0000570C       W?Draw$:CelObjPic$n(rnx$Buffer$$rnx$ScreenItem$$rnx$SOL_Rect$$i)v
 0001:00005731       W?Draw$:CelObjMem$n(rnx$Buffer$$rnx$SOL_Rect$$$SOL_Point$$ix$Ratio$$x$5$)v
 0001:00005790       W?Draw$:CelObjPic$n(rnx$Buffer$$rnx$SOL_Rect$$$SOL_Point$$i)v
 0001:00005790       W?Draw$:CelObjMem$n(rnx$Buffer$$rnx$SOL_Rect$$$SOL_Point$$i)v
 0001:000057EA       W?$ct:CelObjColor$n(ucii)_
 0001:0000585D       W?Draw$:CelObjColor$n(rnx$Buffer$$rnx$ScreenItem$$rnx$SOL_Rect$$i)v
 0001:0000587E       W?Draw$:CelObjColor$n(rnx$Buffer$$rnx$SOL_Rect$$)v
 0001:000058DE       W?Draw$:CelObjColor$n(rnx$Buffer$$rnx$SOL_Rect$$$SOL_Point$$i)v
 0001:00005903       W?ResPointer$:CelObjColor$n()pnuc
 0001:0000592A       W?$ct:CelObjPic$n(ii)_
 0001:00005C4A       W?$ct:CelObjPic$n(rnx$0$)_
 0001:00005C99       W?ResPointer$:CelObjPic$n()pnuc
 0001:00005CC8       W?$Wda03100$:CelObjArrayItem$:CelObjArray$:CelObj$n(ui)pnv
 0001:00005CE0       W?$dt:Ratio$n()_
 0001:00005CE8       W?$dt:CelObjArray$:CelObj$n()_
 0001:00005CFC       W?$ct:CelObjArray$:CelObj$n()_
 0001:00005D14       W?$dt:CelObjView$n()_
 0001:00005D50       W?$dt:CelObjMem$n()_
 0001:00005D8C       W?$dt:CelObjPic$n()_
 0001:00005DC8       W?$dt:CelObjColor$n()_
 0001:00005E04       W?$ct:CelObjColor$n(rnx$0$)_
 0001:00005E24       W?$dt:CelObjArrayItem$:CelObjArray$:CelObj$n()_
 0001:00005E44       W?Duplicate$:CelObjColor$n.x()pn$CelObj$$
 0001:00005E6C       W?Duplicate$:CelObjPic$n.x()pn$CelObj$$
 0001:00005E8C       W?Duplicate$:CelObjMem$n.x()pn$CelObj$$
 0001:00005EB4       W?$ct:CelObjMem$n(rnx$0$)_
 0001:00005ED4       W?Duplicate$:CelObjView$n.x()pn$CelObj$$
 0001:00005EFC       W?$ct:CelObjView$n(rnx$0$)_
 0001:00005F1C       W?$ct:CelObjArrayItem$:CelObjArray$:CelObj$n()_
 0001:00005F30       W?$dt:CelObj$n()_
 0001:00005F38       W?$ct:Ratio$n()_
 0001:00005F4C       W?DrawHzFlip$:CelObj$n(rnx$Buffer$$rnx$SOL_Rect$$x$SOL_Point$$)v
 0001:000061E6       W?DrawNoFlip$:CelObj$n(rnx$Buffer$$rnx$SOL_Rect$$x$SOL_Point$$)v
 0001:0000644B       W?DrawUncompNoFlip$:CelObj$n(rnx$Buffer$$rnx$SOL_Rect$$x$SOL_Point$$)v
 0001:00006571       W?DrawUncompHzFlip$:CelObj$n(rnx$Buffer$$rnx$SOL_Rect$$x$SOL_Point$$)v
 0001:000066A2       W?ScaleDraw$:CelObj$n(rnx$Buffer$$rnx$Ratio$$rnx$3$rnx$SOL_Rect$$rnx$SOL_Point$$)v
 0001:00006ACC       W?ScaleDrawUncomp$:CelObj$n(rnx$Buffer$$rnx$Ratio$$rnx$3$rnx$SOL_Rect$$rnx$SOL_Point$$)v
 0001:00006CE8       W?DrawHzFlipMap$:CelObj$n(rnx$Buffer$$rnx$SOL_Rect$$x$SOL_Point$$)v
 0001:00006FF4       W?DrawNoFlipMap$:CelObj$n(rnx$Buffer$$rnx$SOL_Rect$$x$SOL_Point$$)v
 0001:000072D4       W?DrawUncompNoFlipMap$:CelObj$n(rnx$Buffer$$rnx$SOL_Rect$$x$SOL_Point$$)v
 0001:0000741C       W?DrawUncompHzFlipMap$:CelObj$n(rnx$Buffer$$rnx$SOL_Rect$$x$SOL_Point$$)v
 0001:00007570       W?ScaleDrawMap$:CelObj$n(rnx$Buffer$$rnx$Ratio$$rnx$3$rnx$SOL_Rect$$rnx$SOL_Point$$)v
 0001:000079C4       W?ScaleDrawUncompMap$:CelObj$n(rnx$Buffer$$rnx$Ratio$$rnx$3$rnx$SOL_Rect$$rnx$SOL_Point$$)v
 0001:00007D30       W?DrawHzFlipNoMD$:CelObj$n(rnx$Buffer$$rnx$SOL_Rect$$x$SOL_Point$$)v
 0001:00007EC1       W?DrawNoFlipNoMD$:CelObj$n(rnx$Buffer$$rnx$SOL_Rect$$x$SOL_Point$$)v
 0001:00008042       W?DrawUncompNoFlipNoMD$:CelObj$n(rnx$Buffer$$rnx$SOL_Rect$$x$SOL_Point$$)v
 0001:00008132       W?DrawUncompNoFlipNoMDNoSkip$:CelObj$n(rnx$Buffer$$rnx$SOL_Rect$$x$SOL_Point$$)v
 0001:00008233       W?DrawUncompHzFlipNoMD$:CelObj$n(rnx$Buffer$$rnx$SOL_Rect$$x$SOL_Point$$)v
 0001:0000833C       W?DrawUncompHzFlipNoMDNoSkip$:CelObj$n(rnx$Buffer$$rnx$SOL_Rect$$x$SOL_Point$$)v
 0001:00008445       W?ScaleDrawNoMD$:CelObj$n(rnx$Buffer$$rnx$Ratio$$rnx$3$rnx$SOL_Rect$$rnx$SOL_Point$$)v
 0001:0000879F       W?ScaleDrawUncompNoMD$:CelObj$n(rnx$Buffer$$rnx$Ratio$$rnx$3$rnx$SOL_Rect$$rnx$SOL_Point$$)v
 0001:00008FE8       W?$ct:ConfigMgr$n(pnxaipnpna)_
 0001:00009017       W?ReadCommandLine$:ConfigMgr$n(pnxaipnpna)v
 0001:0000920C       W?FindConfigFile$:ConfigMgr$n(pnapnxa)i
 0001:000092BA       W?IsFlag$:ConfigMgr$n(a)$Flag$:1$
 0001:000092E1       W?ShowUsage$:ConfigMgr$n.x()v
 0001:00009405       W?ReadFile$:ConfigMgr$n()v
 0001:000094BF       W?Tokenize$:ConfigMgr$n(pna)i
 0001:00009549       W?GetNum$:ConfigMgr$n(pnaii)i
 0001:00009615       W?Get$:ConfigMgr$n(pnai)pna
 0001:00009645       W?Get$:ConfigMgr$n($MemType$$i)pna
 0001:00009677       W?GetBool$:ConfigMgr$n(pnai)i
 0001:0000974A       W?GetBool$:ConfigMgr$n($MemType$$i)i
 0001:000097FB       W?Str$:ConfigMgr$n($Flag$:1$)pna
 0001:0000980F       W?Get$:ConfigMgr$n($Flag$:1$)i
 0001:00009823       W?Arg$:ConfigMgr$n($Flag$:1$)i
 0001:00009837       W?Val$:ConfigMgr$n($Flag$:1$)i
 0001:0000984B       W?GetNTokens$:ConfigMgr$n(pna)i
 0001:00009869       W?GetNTokens$:ConfigMgr$n($MemType$$)i
 0001:00009887       W?AddTokenToFront$:ConfigMgr$n(pnapna)v
 0001:0000994F       W?GetEntry$:ConfigMgr$n(pna)pn$ConfigEntry$$
 0001:00009993       W?Claimed$:ConfigMgr$n(pna)i
 0001:000099AD       W?GetEntry$:ConfigMgr$n($MemType$$)pn$ConfigEntry$$
 0001:000099D6       W?GetLine$:ConfigMgr$n(pna)pna
 0001:00009A72       W?KGetConfig$n(pns)v
 0001:00009DBD       W?$ct:FlagEntry$n(apna)_
 0001:00009DDD       W?Usage$:FlagEntry$n(pna)v
 0001:00009E00       W?$ct:ConfigEntry$n(pna$MemType$$pna)_
 0001:00009E25       W?$dt:ConfigEntry$n()_
 0001:00009E3D       W?Claim$:ConfigEntry$n(pnaii)i
 0001:00009EAD       W?Get$:ConfigEntry$n(i)pna
 0001:00009EE8       W?$Wda0247$:ConfigEntry$n(ui)pnv
 0001:00009F00       W?$dt:CritErrHandler$n()_
 0001:00009F40       W?$ct:CritErrHandler$n()_
 0001:00009F54       W?$ct:CritErrHandlerWin$n()_
 0001:00009F70       W?$dt:CritErrHandlerWin$n()_
 0001:00009FB4       W?$ct:CursorWin$n()_
 0001:0000A086       W?$dt:CursorWin$n()_
 0001:0000A0CC       W?Set$:CursorWin$n(iii)v
 0001:0000A820       W?ForcePos$:CursorWin$n($SOL_Point$$)v
 0001:0000A836       W?Hide$:CursorWin$n()v
 0001:0000A836       W?Show$:CursorWin$n()v
 0001:0000A836       W?UnHide$:CursorWin$n()v
 0001:0000A837       W?DeviceMovedTo$:CursorWin$n(rnx$SOL_Point$$)v
 0001:0000A911       W?SetRestrictRect$:CursorWin$n(rnx$SOL_Rect$$)v
 0001:0000AA2B       W?ClearRestrictRect$:CursorWin$n()v
 0001:0000AA46       W?$ct:CursorWinClr$n(rnx$BufferWin$$)_
 0001:0000AD9E       W?$dt:CursorWinClr$n()_
 0001:0000ADE4       W?Set$:CursorWinClr$n(iii)v
 0001:0000B06A       W?SetDevice$:CursorWinClr$n(rn$PointerDevice$$)v
 0001:0000B0B8       W?ForcePos$:CursorWinClr$n($SOL_Point$$)v
 0001:0000B13A       W?GonnaPaint$:CursorWinClr$n($SOL_Rect$$)v
 0001:0000B1C2       W?PaintStarting$:CursorWinClr$n()v
 0001:0000B297       W?DonePainting$:CursorWinClr$n()v
 0001:0000B34A       W?DeviceMovedTo$:CursorWinClr$n(rnx$SOL_Point$$)v
 0001:0000B377       W?Hide$:CursorWinClr$n()v
 0001:0000B3B6       W?UnHide$:CursorWinClr$n()v
 0001:0000B409       W?Show$:CursorWinClr$n()v
 0001:0000B458       W?RevealCursor$:CursorWinClr$n()v
 0001:0000B5FB       W?Move$:CursorWinClr$n()v
 0001:0000BA5A       W?Paint$:CursorWinClr$n(rnx$Info$:1$rnx$2:1$)v
 0001:0000BC46       W?Copy$:CursorWinClr$n(rnx$Info$:1$rnx$2:1$)v
 0001:0000BE42       W?DrawToHardware$:CursorWinClr$n(rnx$Info$:1$)v
 0001:0000C052       W?ReadVideo$:CursorWinClr$n(rnx$Info$:1$)v
 0001:0000C068       W?ReadVideoFromVMAP$:CursorWinClr$n(rnx$Info$:1$)v
 0001:0000C088       W?SetRestrictRect$:CursorWinClr$n(rnx$SOL_Rect$$)v
 0001:0000C168       W?ClearRestrictRect$:CursorWinClr$n()v
 0001:0000C1A8       W?$dt:Rgb24$n()_
 0001:0000C1B0       W?GetHideCount$:CursorWinClr$n()i
 0001:0000C1B8       W?Get$:CursorWinClr$n()rn$Bitmap$$
 0001:0000C1C0       W?GetHideCount$:CursorWin$n()i
 0001:0000C1C8       W?SetDevice$:CursorWin$n(rn$PointerDevice$$)v
 0001:0000C1CC       W?DonePainting$:CursorWin$n()v
 0001:0000C1D0       W?PaintStarting$:CursorWin$n()v
 0001:0000C1D4       W?GonnaPaint$:CursorWin$n($SOL_Rect$$)v
 0001:0000C1D8       W?Get$:CursorWin$n()rn$Bitmap$$
 0001:0000C1E0       W?$ct:Rgb24$n()_
 0001:0000CB00       Debug
 0001:0000E09E       W?FindObject$n(pna)$ObjectID$$
 0001:0000E16F       W?FindSelector$n($ObjectID$$pnarnus)i
 0001:0000E257       W?ToggleDebug$n()v
 0001:0000E295       W?EnterDebug$n()v
 0001:0000E2AD       W?DebugOn$n()v
 0001:0000E2C5       W?ExitThroughDebug$n()v
 0001:0000E2D5       W?KSetDebug$n(pns)v
 0001:0000E302       W?KInspectObject$n(pns)v
 0001:0000E338       W?RegisterKernelCall$n(i)v
 0001:0000E5C5       ResetDebugInfo
 0001:0000E5CE       PushDebugInfo
 0001:0000E649       PopDebugInfo
 0001:0000E6B1       W?$dt:SCIDebugger$n()_
 0001:0000E708       W?ShowDebugInfo$n()v
 0001:0000E9C8       W?OpcodeStr$n()pna
 0001:0000EADF       W?ShowMemID$n($MemID$$uirnpn$EventWindow$$ui)v
 0001:0000EDE2       W?ShowObject$n($ObjectID$$rnpn$EventWindow$$i)v
 0001:0000F006       W?CycleDisplayMode$n()v
 0001:0000F03C       W?FormatNumber$n(si)pna
 0001:0000F1AC       W?InputPropertyName$n($ObjectID$$rnuspna)i
 0001:0000F201       W?InputValue$n(ipnapnarnipnui)$IV_Type$$
 0001:0000F8E6       W?ShowResources$n()v
 0001:0000F95A       W?ShowMemoryStats$n()v
 0001:0000FB4F       W?ShowFreeMemory$n()v
 0001:0000FB76       W?ShowObjects$n(i)v
 0001:0000FD43       W?ShowKernelCalls$n()v
 0001:0000FDE3       W?ShowMemoryList$n()v
 0001:0000FEEB       W?ShowTexts$n()v
 0001:0001012E       W?$ct:DebugMenus$n()_
 0001:00010140       W?HandleEvent$:DebugMenus$n(rn$SOL_Event$$)i
 0001:0001017E       W?Add$:DebugMenus$n(pn$DebugMenu$$)v
 0001:000101AA       W?Delete$:DebugMenus$n()v
 0001:000101E3       W?Hide$:DebugMenus$n()v
 0001:00010207       W?Show$:DebugMenus$n()v
 0001:0001022B       W?Toggle$:DebugMenus$n()v
 0001:00010259       W?$ct:DebugMenu$n(pnapn$DebugMenuItem$$)_
 0001:00010280       W?$dt:DebugMenu$n()_
 0001:000102BF       W?HandleEvent$:DebugMenu$n(rn$SOL_Event$$i)i
 0001:0001032B       W?Claim$:DebugMenu$n(rn$SOL_Event$$i)i
 0001:0001038C       W?Hide$:DebugMenu$n()v
 0001:000103B2       W?Show$:DebugMenu$n()v
 0001:000104F9       W?$ct:DebugMenuItem$n(pnausius)_
 0001:0001052E       W?$ct:DebugMenuItem$n(pnapn$DebugMenuCmd$$)_
 0001:00010552       W?$ct:DebugMenuItem$n(pnauspn$DebugMenu$$)_
 0001:00010576       W?$ct:DebugMenuItem$n(i)_
 0001:00010595       W?Claim$:DebugMenuItem$n(rn$SOL_Event$$i)i
 0001:0001061B       W?ShowStr$:DebugMenuItem$n(rn$TextID$$)v
 0001:00010644       W?$ct:DebugMenuCmd$n(iusus)_
 0001:00010677       W?$ct:DebugMenuCmd$n(uspn$DebugMenu$$)_
 0001:00010693       W?$ct:DebugMenuCmd$n(i)_
 0001:000106B1       W?Claim$:DebugMenuCmd$n(rn$SOL_Event$$i)i
 0001:000107CE       W?KCreateTextBitmap$n(pns)v
 0001:00011F45       W?$ct:EditClass$n(s)_
 0001:00013789       W?$ct:EditClass$n($TextID$$$1$ii)_
 0001:00013C6A       W?$dt:EditClass$n()_
 0001:00013DC8       W?Show$:EditClass$n(i)v
 0001:00013F0C       W?Hide$:EditClass$n(i)v
 0001:00013F97       W?GetLineIndices$:EditClass$n()v
 0001:000141A4       W?HandleEvent$:EditClass$n()i
 0001:000142B8       W?EditText$:EditClass$n(rn$SOL_Event$$)i
 0001:00014983       W?UpdateFontMgr$:EditClass$n()v
 0001:000149BC       W?DrawCursor$:EditClass$n()v
 0001:00014B30       W?EraseCursor$:EditClass$n()v
 0001:00014B9F       W?FlashCursor$:EditClass$n()v
 0001:00014C25       W?SetFlash$:EditClass$n()v
 0001:00014C41       W?InvertRect$:EditClass$n(rn$SOL_Rect$$iaa)v
 0001:00014CAE       W?SetCursor$:EditClass$n(i)v
 0001:00014D24       W?Highlight$:EditClass$n(i)v
 0001:00014F40       W?KEdit$n(pns)v
 0001:00015432       W?GetInput$n(pnapnai)i
 0001:0001557F       W?MsgBox$n(pnapnae)i
 0001:00015708       W?KDialog$n(pns)v
 0001:00015B00       W?$dt:SOL_List$n()_
 0001:00015B08       W?$ct:SOL_List$n()_
 0001:00015B7C       W?KFileIO$n(pns)v
 0001:000163EC       W?KDeviceInfo$n(pns)v
 0001:000165B9       W?AddSlash$n(pna)pna
 0001:000165F3       W?FullPath$n(pnapnxa)pna
 0001:00016651       W?Creat$n(pnxaui)i
 0001:0001667E       W?Open$n(pnxaui)i
 0001:000166A7       W?ReadMemID$n(i$MemID$$i)i
 0001:00016704       W?Read$n(ipnvi)i
 0001:0001672B       W?Write$n(ipnvi)i
 0001:0001674E       W?Close$n(i)i
 0001:00016776       W?Rename$n(pnxapnxa)i
 0001:00016798       W?ReadString$n(pnaii)pna
 0001:000167F5       W?Unlink$n(pnxa)i
 0001:0001681D       W?FileLength$n(i)ul
 0001:0001685A       W?LSeek$n(ili)l
 0001:00016880       W?GetCWD$n(pna)pna
 0001:00016896       W?FirstFile$n(pnxauipn$find_t$$)i
 0001:000168F1       W?NextFile$n(pn$find_t$$)i
 0001:00016932       W?ExistsDriveAB$n(i)i
 0001:0001694B       W?ExistDrive$n(a)i
 0001:000169B4       W?ResetDisk$n()v
 0001:000169B9       W?RGetFreeSpace$n(a)ul
 0001:00016A1E       W?Exists$n(pnxa)i
 0001:00016A9A       W?IsDriveAOrB$n(pnxa)i
 0001:00016AE5       W?OpenFileInPath$n(pnauipna)i
 0001:00016BD4       W?RemoveTrailingSlash$n(pna)pna
 0001:00016E00       W?$ct:DrawList$n()_
 0001:00016E0B       W?$dt:DrawList$n()_
 0001:00016E31       W?Add$:DrawList$n(pn$ScreenItem$$rn$SOL_Rect$$)i
 0001:00016ECA       W?Pack$:DrawList$n()v
 0001:00016EF8       W?Delete$:DrawList$n(i)v
 0001:00016F4A       W?Sort$:DrawList$n()v
 0001:00016FE4       W?$ct:EventMgr$n()_
 0001:0001701C       W?$dt:EventMgr$n()_
 0001:0001705E       W?Bump$:EventMgr$n.x(rni)v
 0001:00017073       W?Flush$:EventMgr$n(us)v
 0001:000170BD       W?FlushKeyboard$:EventMgr$n()v
 0001:000170BE       W?Get$:EventMgr$n(pn$SOL_Event$$us)i
 0001:00017172       W?Handle$:EventMgr$n(pn$SOL_Event$$)v
 0001:00017173       W?IsAvail$:EventMgr$n.x(pn$SOL_Event$$us)i
 0001:000171F4       W?Post$:EventMgr$n(pn$SOL_Event$$)v
 0001:0001725C       W?PostCommand$:EventMgr$n(i)v
 0001:00017295       W?PostWinCmd$:EventMgr$n(ii)v
 0001:000172D7       W?StillDown$:EventMgr$n.x()i
 0001:000172FA       W?Wait$:EventMgr$n(us)$SOL_Event$$
 0001:00017349       W?$aa:EventObjectID$n(rnx$SOL_Event$$)rn$0$
 0001:00017ABE       W?$ct:SOL_Event$n()_
 0001:00017AF2       W?$ct:SOL_Event$n(rnx$0$)_
 0001:00017B1E       W?$ct:SOL_Event$n($EventObjectID$$)_
 0001:00018117       W?$aa:SOL_Event$n(rnx$0$)rn$0$
 0001:00018166       W?MakeNull$:SOL_Event$n()v
 0001:000181D4       W?MapKeyToDir$:SOL_Event$n()pn$1$
 0001:000181EC       W?KGetEvent$n(pns)v
 0001:0001825A       W?KMapKeyToDir$n(pns)v
 0001:000182B0       W?GetModifiers$:EventMgr$n()us
 0001:000182B4       W?$ct:EventMgrWin$n()_
 0001:000182FA       W?Get$:EventMgrWin$n(pn$SOL_Event$$us)i
 0001:0001831D       W?GetModifiers$:EventMgrWin$n()us
 0001:00018373       W?Handle$:EventMgrWin$n(pn$SOL_Event$$)v
 0001:00018448       W?$dt:KbdMgrWin$n()_
 0001:00018484       W?$ct:KbdMgrWin$n()_
 0001:0001849C       W?Modifiers$:KbdMgrWin$n()us
 0001:000184B0       W?Get$:KbdMgrWin$n(pn$SOL_Event$$)i
 0001:000184B8       W?LockStatus$:KbdWin$n()us
 0001:000184BC       W?FlushKeyboard$:EventMgrWin$n()v
 0001:000184C0       W?$dt:EventMgrWin$n()_
 0001:00018504       W?InitExceptions$:SCIIBM$n()v
 0001:00018527       AsmPanicReturn
 0001:000185AC       W?BuildFBM$:FontMgr$n(rn$Bitmap$$rn$SOL_Rect$$$MemID$$iiiiii)$4$
 0001:00018B5C       W?BuildFBM$:FontMgr$n(iirn$SOL_Rect$$$MemID$$iiiiiiii)$3$
 0001:00018E3A       W?TitledFBM$:FontMgr$n(iirn$SOL_Rect$$$MemID$$iiiiii$3$iiii)$3$
 0001:0001926E       W?DeleteFBM$:FontMgr$n($MemID$$)v
 0001:0001928E       W?ResizeBitMap$:FontMgr$n($SOL_Rect$$i)v
 0001:00019578       W?SetFont$:FontMgr$n(i)v
 0001:0001958F       W?StringWidth$:FontMgr$n($MemID$$)i
 0001:0001963A       W?TextSize$:FontMgr$n($MemID$$irn$SOL_Rect$$i)v
 0001:000198DD       W?TextCount$:FontMgr$n($MemID$$irn$SOL_Rect$$i)i
 0001:00019919       W?TextCount$:FontMgr$n($MemID$$iirn$SOL_Rect$$i)i
 0001:00019A0B       W?Erase$:FontMgr$n(rn$SOL_Rect$$i)v
 0001:00019B28       W?Frame$:FontMgr$n(rn$SOL_Rect$$iuci)v
 0001:00019CC7       W?InvertRect$:FontMgr$n($MemID$$i$SOL_Rect$$aai)v
 0001:00019E05       W?ClearChar$:FontMgr$n(uc)v
 0001:00019E75       W?BuildFontTable$:FontMgr$n(i)v
 0001:0001A03E       W?TextDimensions$:FontMgr$n(iirnirni)v
 0001:0001A17C       W?TextWidth$:FontMgr$n($MemID$$ii)i
 0001:0001A1D3       W?CharWidth$:FontMgr$n(uci)uc
 0001:0001A217       W?CharHeight$:FontMgr$n(uci)uc
 0001:0001A261       W?DrawTextBox$:FontMgr$n()v
 0001:0001A395       W?DrawText$:FontMgr$n(ii)v
 0001:0001A4D0       W?DownOneLine$:FontMgr$n(uiuii)v
 0001:0001A655       W?UpOneLine$:FontMgr$n(uiuiuii)v
 0001:0001A7DF       W?DrawChar$:FontMgr$n(uc)v
 0001:0001A93A       W?GetLongest$:FontMgr$n(pnii)us
 0001:0001ABD3       W?KInvertRect$n(pns)v
 0001:0001AC54       W?KText$n(pns)v
 0001:0001AF37       W?KFont$n(pns)v
 0001:0001AFC4       W?.tdctor$:FontMgr$n()rn$1$
 0001:0001B04C       W?ValidateBitmap$n($MemID$$)v
 0001:0001B04D       W?DrawView$n(iii$MemID$$iiiii)v
 0001:0001B1A7       W?KMorphOn$n(pns)v
 0001:0001B1B4       W?KFrameOut$n(pns)v
 0001:0001B282       W?KAddScreenItem$n(pns)v
 0001:0001B38D       W?KAddLine$n(pns)v
 0001:0001B490       W?KAddPolygon$n(pns)v
 0001:0001B70C       W?KBitmap$n(pns)v
 0001:0001E9B8       W?RemapBitmap$n($MemID$$$ObjectID$$)v
 0001:0001EC6E       W?KDeleteScreenItem$n(pns)v
 0001:0001ED64       W?KDeleteLine$n(pns)v
 0001:0001EE05       W?KDeletePolygon$n(pns)v
 0001:0001EE3A       W?KUpdateScreenItem$n(pns)v
 0001:0001F073       W?KUpdateLine$n(pns)v
 0001:0001F1CB       W?KUpdatePolygon$n(pns)v
 0001:0001F40E       W?KAddMagnify$n(pns)v
 0001:0001F4B9       W?KDeleteMagnify$n(pns)v
 0001:0001F6E2       W?KAddPlane$n(pns)v
 0001:0001F76C       W?KDeletePlane$n(pns)v
 0001:0001F789       W?KUpdatePlane$n(pns)v
 0001:0001F7EE       W?KAddPicAt$n(pns)v
 0001:0001F884       W?KRepaintPlane$n(pns)v
 0001:0001F8FE       W?KGetHighPlanePri$n(pns)v
 0001:0001F919       W?KGetHighItemPri$n(pns)v
 0001:0001F93A       W?KCelHigh$n(pns)v
 0001:0001F9AA       W?KCelWide$n(pns)v
 0001:0001F9FD       W?KNumLoops$n(pns)v
 0001:0001FAD0       W?GetNumLoops$n($MemID$$)i
 0001:0001FAEC       W?KNumCels$n(pns)v
 0001:0001FC4E       W?GetNumCels$n($MemID$$i)i
 0001:0001FCA5       W?KShakeScreen$n(pns)v
 0001:0001FCCA       W?KPriority$n(pns)v
 0001:0001FCCB       W?KIsOnMe$n(pns)v
 0001:0001FE29       W?KSetNowSeen$n(pns)v
 0001:0002065E       W?KObjectIntersect$n(pns)v
 0001:00020893       W?BuildHeader$n(pnuciiiiiiiii)v
 0001:00020926       W?BuildLineBitmap$n(iiiiuciiirn$SOL_Rect$$)$MemID$$
 0001:00020AFB       W?BuildPolygonBitmap$n($SOL_ListID$$uciiirn$SOL_Rect$$i)$MemID$$
 0001:0002141B       W?KMovePlaneItems$n(pns)v
 0001:0002174B       W?KBaseLineSpan$n(pns)v
 0001:000219E4       W?KCelInfo$n(pns)v
 0001:00021A6C       W?AddLinkedBitmap$n($ObjectID$$$1$i)i
 0001:000222A0       W?KCelLink$n(pns)v
 0001:0002236C       W?$dt:GraphicsMgr$n()_
 0001:000223B1       W?$ct:GraphicsMgr$n(ii)_
 0001:0002247D       W?UpdateScreenItem$:GraphicsMgr$n(pn$ScreenItem$$)v
 0001:000224FC       W?DeleteScreenItem$:GraphicsMgr$n(pn$ScreenItem$$i)v
 0001:00022562       W?DeleteScreenItem$:GraphicsMgr$n(pn$ScreenItem$$)v
 0001:00022599       W?UpdatePlane$:GraphicsMgr$n(pn$SOL_Plane$$)v
 0001:0002266E       W?DeletePlane$:GraphicsMgr$n(i)v
 0001:00022699       W?DeletePlane$:GraphicsMgr$n(pn$SOL_Plane$$)v
 0001:000226F4       W?PalMorphFrameOut$:GraphicsMgr$n(pnapn$PlaneShowStyle$$)v
 0001:00022CA8       W?FrameOut$:GraphicsMgr$n(i$SOL_Rect$$)v
 0001:00022EDC       W?DrawEraseList$:GraphicsMgr$n(rnx$RectList$$rnx$SOL_Plane$$)v
 0001:00022FC6       W?DrawScreenItemList$:GraphicsMgr$n(rn$DrawList$$)v
 0001:0002305F       W?NewScreenDim$:GraphicsMgr$n(ii)v
 0001:00023094       W?IsOnMe$:GraphicsMgr$n(rn$ScreenItem$$rnx$SOL_Plane$$rnx$SOL_Point$$i)i
 0001:000232CA       W?MergeToShowList$:GraphicsMgr$n(rnx$SOL_Rect$$rn$RectList$$i)v
 0001:0002343D       W?MovieFrameOut$:GraphicsMgr$n($SOL_Rect$$)v
 0001:00023475       W?NowSeen$:GraphicsMgr$n(iirn$SOL_Rect$$)i
 0001:000234BC       W?$ct:GraphicsMgrWin$n(ii)_
 0001:0002375F       W?$dt:GraphicsMgrWin$n()_
 0001:0002383D       W?AlterVMAP$:GraphicsMgrWin$n(pnx$SOLPalette$$pnx$2$ipna)v
 0001:00023B09       W?ShowBits$:GraphicsMgrWin$n()v
 0001:00023C64       W?ShowRect$:GraphicsMgrWin$n(pnx$SOL_Rect$$pnuc)v
 0001:00023CF6       W?SetVideoForSpeed$:GraphicsMgrWin$n()v
 0001:00023CF6       W?SetVideoForMovies$:GraphicsMgrWin$n()v
 0001:00023CF6       W?PlayMovie$:GraphicsMgrWin$n(pnaiii)v
 0001:00023CF7       W?TimingTest$:GraphicsMgrWin$n()v
 0001:00023E9B       W?Repaint$:GraphicsMgrWin$n(rnx$SOL_Rect$$)v
 0001:00023EC4       W?ResizeVmap$:GraphicsMgrWin$n(ii)v
 0001:00023EC5       W?KIsHiRes$n(pns)v
 0001:00023EF7       W?SCursorClr$:GraphicsMgrWin$n()v
 0001:00023FD1       W?SCursorWin$:GraphicsMgrWin$n()v
 0001:0002408A       W?PutMovieRect$n(pnucpnucipn$SOL_Rect$$pn$SOL_Point$$)v
 0001:00024116       W?PutMovieRectBlack$n(pnucpnucipn$SOL_Rect$$pn$SOL_Point$$)v
 0001:000241B0       W?PutMovieRectDbl$n(pnucpnucipn$SOL_Rect$$pn$SOL_Point$$)v
 0001:0002423C       W?PutMovieRectDblBlack$n(pnucpnucipn$SOL_Rect$$pn$SOL_Point$$)v
 0001:000242D8       W?$dt:PaletteMgrTrue$n()_
 0001:000242EC       W?UpdateScreen$:GraphicsMgrWin$n()v
 0001:00024318       W?TrueColor$:GraphicsMgrWin$n.x()i
 0001:00024320       W?CurrBuffer$:GraphicsMgrWin$n()pn$Buffer$$
 0001:0002432C       W?CalcLists$:GraphicsMgrWin$n(pnpn$DrawList$$pnpn$RectList$$rn$SOL_Rect$$)v
 0001:00024358       W?PriMap$:GraphicsMgrWin$n()rn$Buffer$$
 0001:00024364       W?GCursor$:GraphicsMgrWin$n()rn$SOL_Cursor$$
 0001:00024370       W?GPalette$:GraphicsMgrWin$n()rn$PaletteMgr$$
 0001:0002437C       W?ClearLastScreen$:GraphicsMgrWin$n()v
 0001:00024380       W?ShakeScreen$:GraphicsMgrWin$n(ii)v
 0001:00024384       W?VisibleScreen$:GraphicsMgrWin$n()rn$Screen$$
 0001:00024390       W?ScreenCount$:GraphicsMgrWin$n.x()i
 0001:00024398       W?UpdateHardware$:PaletteMgrTWin$n()i
 0001:000243C0       W?$dt:PaletteMgrTWin$n()_
 0001:00024410       W?$ct:PaletteMgrTWin$n()_
 0001:00024434       W?UpdateHardware$:PaletteMgrIWin$n()i
 0001:0002445C       W?$dt:PaletteMgrIWin$n()_
 0001:000244AC       W?$ct:PaletteMgrIWin$n()_
 0001:000244D0       W?VaryPause$:PaletteMgrIndex$n()v
 0001:000244E0       W?VaryPercent$:PaletteMgrIndex$n.x()i
 0001:000244F4       W?CycleMap$:PaletteMgrIndex$n.x()pnxuc
 0001:00024500       W?Next$:PaletteMgrIndex$n.x()rnx$SOLPalette$$
 0001:0002450C       W?Source$:PaletteMgrIndex$n.x()rnx$SOLPalette$$
 0001:00024518       W?Current$:PaletteMgrIndex$n.x()rnx$SOLPalette$$
 0001:000245C5       W?KIntegrityChecking$n(pns)v
 0001:000246C1       W?IntegrityChecking$n(ipnae)v
 0001:000248C7       W?CheckIntegrityRequest$n()v
 0001:000248E3       W?KCheckIntegrity$n(pns)v
 0001:000249E3       W?CheckIntegrity$n(pnae)i
 0001:00024B00       W?InstallServer$n(pn()vi)v
 0001:00024B00       W?DisposeServer$n(pn()v)v
 0001:00024B04       W?MapToDir$:KbdMgr$n.x(pn$SOL_Event$$)v
 0001:00024B7C       W?HandleKey$:KbdMgrWin$n(uiusl)i
 0001:00024C3F       W?KeyEvent$:KbdMgrWin$n(us)v
 0001:00024C80       W?Get$:KbdWin$n()us
 0001:00024C83       W?Modifiers$:KbdWin$n()us
 0001:00024CD8       W?Reset$:KbdWin$n()v
 0001:00024CDC       W?KDummy$n(pns)v
 0001:00024CE0       InitLanguage
 0001:00024E94       W?DrawThin$:SOL_Line$n(ucii$MemID$$i)v
 0001:000251E5       W?DrawThick$:SOL_Line$n(uciii$MemID$$i)v
 0001:00025650       W?at$:SOL_List$n(i)us
 0001:000256FA       W?addAfter$:SOL_List$n(usus)i
 0001:000257BD       W?addBefore$:SOL_List$n(usus)i
 0001:00025877       W?addToFront$:SOL_List$n(us)v
 0001:0002591C       W?addToEnd$:SOL_List$n(us)v
 0001:000259C7       W?moveToFront$:SOL_List$n(us)i
 0001:00025A7B       W?moveToEnd$:SOL_List$n(us)i
 0001:00025B28       W?del$:SOL_List$n(us)i
 0001:00025BE0       W?sortByValue$:SOL_List$n(i)v
 0001:00025CED       W?sortByProperty$:SOL_List$n(ii)v
 0001:00025FF0       W?indexOf$:SOL_List$n(us)i
 0001:000260AC       W?lock$:SOL_List$n()v
 0001:000260D9       W?unlock$:SOL_List$n()v
 0001:00026168       W?KList$n(pns)v
 0001:00027620       W?KLongInt$n(pns)v
 0001:00027BB0       W?$ct:LZSS$n()_
 0001:00027C2C       W?$dt:LZSS$n()_
 0001:00027C6C       W?InitTree$:LZSS$n()v
 0001:00027CA4       W?InsertNode$:LZSS$n(s)v
 0001:00027E1A       W?DeleteNode$:LZSS$n(s)v
 0001:00027F5A       W?Encode$:LZSS$n(pnalpna)l
 0001:000281D1       W?Decode$:LZSS$n(pnalpnal)l
 0001:00028348       W?$ct:MagnifyView$n($ObjectID$$pn$0$)_
 0001:00029864       W?$dt:MagnifyView$n()_
 0001:000298E3       W?FillData$:MagnifyView$n($SOL_Point$$)v
 0001:00029A73       W?Update$:MagnifyView$n()v
 0001:0002A1A0       W?sqrt$n(ul)ui
 0001:0002A1DF       W?LCGRandom$n()ul
 0001:0002A205       W?LCGRandomA$n()ul
 0001:0002A22B       W?KAbs$n(pns)v
 0001:0002A23F       W?KSqrt$n(pns)v
 0001:0002A25F       W?KMulDiv$n(pns)v
 0001:0002A30D       W?KGetAngle$n(pns)v
 0001:0002A35F       W?KGetDistance$n(pns)v
 0001:0002A3DB       W?KSinMult$n(pns)v
 0001:0002A406       W?KCosMult$n(pns)v
 0001:0002A41D       W?KSinDiv$n(pns)v
 0001:0002A45C       W?KCosDiv$n(pns)v
 0001:0002A487       W?KATan$n(pns)v
 0001:0002A4AE       W?KRandom$n(pns)v
 0001:0002A52B       W?KRandomA$n(pns)v
 0001:0002A5A8       W?KReadNumber$n(pns)v
 0001:0002A5BD       W?RPtToAngle$n(pn$SOL_Point$$pn$1$)i
 0001:0002A5E4       W?ScaledSin$n(i)l
 0001:0002A698       W?ScaledCos$n(i)l
 0001:0002A714       W?ATan$n(iiii)i
 0001:0002A86C       W?Attrs$:MemID$n.x()ui
 0001:0002A888       W?GetMemType$:MemID$n.x()$MemType$$
 0001:0002A8A4       W?GetMemTypeStr$:MemID$n.x()pnxa
 0001:0002A8C4       W?Clear$:MemID$n.x()v
 0001:0002A8D7       W?Critical$:MemID$n.x(i)v
 0001:0002A902       W?Fill$:MemID$n.x(uc)v
 0001:0002A93F       W?Lock$:MemID$n.x()pnv
 0001:0002A95F       W?Unlock$:MemID$n.x()pnv
 0001:0002A97F       W?SetDiscardable$:MemID$n.x()v
 0001:0002A9F5       W?SetNotDiscardable$:MemID$n.x()v
 0001:0002AA6B       W?Realloc$:MemID$n.x(ui)pnv
 0001:0002AAA0       W?Read$:MemID$n.x(i)i
 0001:0002AAD4       W?Read$:MemID$n.x(iuiui)i
 0001:0002AAFF       W?Load$:MemID$n($MemType$$pnaui$ReservedHandle$$)i
 0001:0002ABB0       W?Size$:MemID$n.x()ui
 0001:0002ABD5       W?SetChecksum$:MemID$n.x(i)v
 0001:0002AC38       W?CheckHeap$n(pnai)v
 0001:0002AC6D       W?_ValidateMemID$n($MemID$$pnai)v
 0001:0002AD84       W?DescribePrevMemID$n($MemID$$)v
 0001:0002ADF2       W?$ct:MemoryMgr$n()_
 0001:0002AE5A       W?Init$:MemoryMgr$n(ui)v
 0001:0002B08A       W?GetNewDescriptor$:MemoryMgr$n($ReservedHandle$$)us
 0001:0002B1BE       W?GetMoreDescriptors$:MemoryMgr$n(ui)v
 0001:0002B1D7       W?FreeDescriptor$:MemoryMgr$n(us)v
 0001:0002B263       W?Alloc$:MemoryMgr$n(uiuiuipn$MemClient$$a$ReservedHandle$$)us
 0001:0002B4AE       W?Free$:MemoryMgr$n(us)v
 0001:0002B75A       W?FreeMemory$:MemoryMgr$n()ui
 0001:0002B76C       W?TotalMemory$:MemoryMgr$n()ui
 0001:0002B7AC       W?Purge$:MemoryMgr$n(ui)us
 0001:0002B7AC       W?GetHandle$:MemoryMgr$n(pnv)us
 0001:0002B7AC       W?Split$:MemoryMgr$n(usiuiuipn$MemClient$$)us
 0001:0002B7AF       W?Pack$:MemoryMgr$n(ui)ui
 0001:0002B7B4       W?Lock$:MemoryMgr$n(us)pnv
 0001:0002B84F       W?Unlock$:MemoryMgr$n(us)pnv
 0001:0002B8E2       W?Realloc$:MemoryMgr$n(usui)v
 0001:0002BA2A       W?$aa:Descriptor$n(rnx$SaveDescriptor$$)rn$0$
 0001:0002BA4B       W?KPurge$n(pns)v
 0001:0002BA8C       W?KMemoryInfo$n(pns)v
 0001:0002BBB2       W?NotValid$:MemoryMgr$n(us)v
 0001:0002BC48       W?$dt:MemoryMgr$n()_
 0001:0002BC50       W?CheckVolatile$:MemoryMgr$n(i)ui
 0001:0002BC76       W?VolatileMethod$:MemoryMgr$n(pna)v
 0001:0002BCAB       W?IntegrityChecking$:MemoryMgr$n()v
 0001:0002BCAC       W?CheckIntegrity$:MemoryMgr$n(pna)i
 0001:0002BD8A       W?ICError$:MemoryMgr$n(pnaus)xi
 0001:0002BDEC       W?ICListError$:MemoryMgr$n(pnaus)xi
 0001:0002BE4C       W?WriteSignature$:MemoryMgr$n(us)v
 0001:0002BE4C       W?EraseSignature$:MemoryMgr$n(us)v
 0001:0002BE4D       W?CheckSignatures$:MemoryMgr$n()i
 0001:0002BE69       W?CheckChecksums$:MemoryMgr$n()i
 0001:0002BE69       W?CheckFree$:MemoryMgr$n()i
 0001:0002BE69       W?CheckLists$:MemoryMgr$n()i
 0001:0002BE69       W?CheckChecksum$:MemoryMgr$n(us)i
 0001:0002BE6E       W?SetChecksum$:MemoryMgr$n(usi)v
 0001:0002BE6E       W?SetChecksum$:MemoryMgr$n(pnvi)v
 0001:0002BE6F       W?MemoryBitMap$:MemoryMgr$n()us
 0001:0002BFEC       W?FillMemBM$:MemoryMgr$n(pnapnauiucii)v
 0001:0002C054       W?FillIndex$:MemoryMgr$n(pnaiuci)v
 0001:0002C270       W?KMarkMemory$n(pns)v
 0001:0002C353       W?ShowBitmaps$:MemoryMgr$n()v
 0001:0002C5A5       W?ShowText$:MemoryMgr$n(ii)v
 0001:0002C6B8       W?GetSysMemAvail$:MemoryMgrWin$n()ui
 0001:0002C6BE       W?GetSysMem$:MemoryMgrWin$n(ui)pna
 0001:0002C708       W?$dt:MemoryMgrWin$n()_
 0001:0002C7AE       W?GetConvMem$:MemoryMgrWin$n(ui)pna
 0001:0002C7AE       W?AllocWinMem$n(ii)pnv
 0001:0002C7AE       W?GetConvMemAvail$:MemoryMgrWin$n()ui
 0001:0002C7B0       W?FreeConvMem$:MemoryMgrWin$n(pna)v
 0001:0002C7B1       W?GetWindowsMemory$n()v
 0001:0002C7BF       W?FreeWinMem$n(pnvi)v
 0001:0002C7C0       W?BaseMem$n()i
 0001:0002C816       W?ExtendedMem$n()i
 0001:0002C840       W?$ct:MemoryMgrWin$n()_
 0001:0002C860       W?GetMemTypeFromStr$n(pnxa)$MemType$$
 0001:0002C876       W?GetSCITypeFromStr$n(pnxa)$MemType$$
 0001:0002C88C       W?GetMemTypeStr$n($MemType$$)pnxa
 0001:0002C8A4       W?GetSCIMemTypeStr$n($MemType$$)pnxa
 0001:0002C8BC       W?AddStat$:MemTypes$n($MemType$$uiiiii)v
 0001:0002C978       W?ClearStats$:MemTypes$n()v
 0001:0002CA66       W?FindMemTypeDesc$:MemTypes$n($MemType$$)pn$MemTypeDesc$$
 0001:0002CA8D       W?GetTypeFromStr$:MemTypes$n(pnxa)$MemType$$
 0001:0002CAC9       W?GetSCITypeFromStr$:MemTypes$n(pnxa)$MemType$$
 0001:0002CB05       W?GetMemTypeStr$:MemTypes$n($MemType$$)pnxa
 0001:0002CB40       W?GetSCIMemTypeStr$:MemTypes$n($MemType$$)pnxa
 0001:0002CB7B       W?Compare$:MemTypes$n(pnxvpnxv)i
 0001:0002CB8A       W?MakeStatsStr$:MemTypes$n()$TextID$$
 0001:0002CEDB       W?GetMemTypeStr$:MemoryMgr$n(us)pnxa
 0001:0002CF54       W?MakeMemTypeDspStr$:MemoryMgr$n()$TextID$$
 0001:0002D025       W?TotalType$:MemoryMgr$n($MemType$$)i
 0001:0002D097       W?MakeMemIDListStr$:MemoryMgr$n(ipnii)$TextID$$
 0001:0002D190       W?KMessage$n(pns)v
 0001:0002DBB1       W?Init$:MsgStack$n(usucucucuc)v
 0001:0002DBE7       W?Push$:MsgStack$n(ucucucuc)v
 0001:0002DC4A       W?Top$:MsgStack$n()$MsgEntry$$
 0001:0002DC80       W?Pop$:MsgStack$n()i
 0001:0002DC96       W?IncSeq$:MsgStack$n()v
 0001:0002DCA2       W?$ct:MsgStackStack$n()_
 0001:0002DCC1       W?Push$:MsgStackStack$n(rn$MsgStack$$)v
 0001:0002DD3B       W?Pop$:MsgStackStack$n()$MsgStack$$
 0001:0002DDD0       W?$ct:MsgStackID$n(rnx$0$)_
 0001:0002DDE4       W?$ct:MsgStackID$n()_
 0001:0002DDF0       W?KBaseSetter$n(pns)v
 0001:0002ED34       W?KCelRect$n(pns)v
 0001:0002F1EE       W?KDirLoop$n(pns)v
 0001:0002F214       W?KInitBresen$n(pns)v
 0001:0002FC7C       W?KDoBresen$n(pns)v
 0001:00030E81       W?KSetJump$n(pns)v
 0001:00031043       W?KCantBeHere$n(pns)v
 0001:0003164E       W?KHaveMouse$n(pns)v
 0001:00031675       W?KSetCursor$n(pns)v
 0001:000317BB       W?KVibrateMouse$n(pns)v
 0001:000317F9       W?KSetHotRectangles$n(pns)v
 0001:00031871       W?SetupHotRectangles$:SOL_Mouse$n(i$MemID$$)v
 0001:000318AE       W?CheckHotRectangles$:SOL_Mouse$n(rn$SOL_Point$$)v
 0001:00031978       W?KSetVideoMode$n(pns)v
 0001:000319CC       W?KShowMovie$n(pns)v
 0001:00031B60       AviOpen
 0001:00031CEE       AviSetPalette
 0001:00031DB7       AviClose
 0001:00031E45       AviPut
 0001:000322A8       AviPutDouble
 0001:00032577       AviPlay
 0001:00032780       AviWaitEvent
 0001:0003286A       AviStop
 0001:000328C5       AviPause
 0001:0003291C       AviCue
 0001:00032969       AviSeek
 0001:000329D1       AviNotify
 0001:000329E1       W?InitMovie$n()v
 0001:000329E1       W?TermMovie$n()v
 0001:000329E2       AviResume
 0001:00032A3B       AviGetLength
 0001:00032A96       AviGetPosition
 0001:00032ADD       AviGetFramesSkipped
 0001:00032AF1       AviGetStatus
 0001:00032B00       W?$ct:MsgMgr$n()_
 0001:00032B2E       W?Init$:MsgMgr$n()v
 0001:00032BAF       W?AddFatalStr$:MsgMgr$n(pna)v
 0001:00032C1D       W?AddPMIP$:MsgMgr$n(pna)v
 0001:00032C66       W?AddSrcLoc$:MsgMgr$n(pnapnai)v
 0001:00032C92       W?Alert$:MsgMgr$n(ie)i
 0001:00032CCA       W?Alert$:MsgMgr$n(pnae)i
 0001:00032CEA       W?Alert$:MsgMgr$n(apnaiie)i
 0001:00032D2A       W?Alert$:MsgMgr$n(apnaipnae)i
 0001:00032D54       W?AlertOutput$:MsgMgr$n(pna)i
 0001:00032D6A       W?Dump$:MsgMgr$n(pnae)v
 0001:00032DD2       W?Fatal$:MsgMgr$n(ie)v
 0001:00032E0B       W?Fatal$:MsgMgr$n(pnae)v
 0001:00032E2B       W?Fatal$:MsgMgr$n(apnaiie)v
 0001:00032E73       W?Fatal$:MsgMgr$n(apnaipnae)v
 0001:00032E9D       W?print$n(ipnae)v
 0001:00032EEE       W?FatalOutput$:MsgMgr$n(pna)v
 0001:0003320A       W?Get$:MsgMgr$n(ipna)pna
 0001:00033296       W?Make$:MsgMgr$n(pnaiipnpna)pna
 0001:000332F2       W?Make$:MsgMgr$n(ipnpna)pna
 0001:00033337       W?Make$:MsgMgr$n(pnaipnapnpna)pna
 0001:0003336A       W?Make$:MsgMgr$n(pnapnpna)pna
 0001:00033388       W?Mono$:MsgMgr$n(pnae)v
 0001:000333AF       W?MonoArgs$:MsgMgr$n(pnapnpna)v
 0001:000333D7       W?MonoPause$:MsgMgr$n(pnae)v
 0001:00033427       W?MonoStr$:MsgMgr$n(pna)v
 0001:0003343B       W?OpenFile$:MsgMgr$n()i
 0001:00033460       W?Read$:MsgMgr$n(ipnai)pna
 0001:000335BE       W?SetQuitStr$:MsgMgr$n(pna)v
 0001:00033604       W?SetSCIFatalStr$:MsgMgr$n(pna)v
 0001:00033640       W?AssertFail$n(pnaipna)i
 0001:00033696       W?KSetQuitStr$n(pns)v
 0001:000336E3       W?KSetFatalStr$n(pns)v
 0001:00033777       W?KMonoOut$n(pns)v
 0001:000337E8       W?Printf$n(pnae)i
 0001:00033848       W?$dt:MsgMgrWin$n()_
 0001:00033891       W?MonoOutput$:MsgMgrWin$n(pna)v
 0001:000338B7       W?MonoPosition$:MsgMgrWin$n(ii)v
 0001:000338F4       W?KNetwork$n(pns)v
 0001:00033BD0       W?KSID$n(pns)v
 0001:00033C1A       W?NetConnect$n(pnai)i
 0001:00033EB9       W?NetConnectIP$n(iiiii)i
 0001:00033FE0       W?NetDisconnect$n()i
 0001:00034011       W?NetSend$n(pnsii)i
 0001:0003445D       W?PollSocket$n()i
 0001:000346EE       W?NetTerminate$n()v
 0001:0003472A       W?FlushSocket$n()v
 0001:000347F4       W?$nwn(ui)pnv
 0001:00034823       W?$dln(pnv)v
 0001:00034842       W?$ct:RmResList$n(ui)_
 0001:0003492D       W?$dt:RmResList$n()_
 0001:000349DA       W?Read$:RmResList$n()v
 0001:00034B1D       W?Add$:RmResList$n($MemType$$usi)v
 0001:00034CBD       W?AddEntry$:RmResList$n($MemType$$usi)v
 0001:00034D60       W?Print$:RmResList$n()v
 0001:00034E36       W?NewRoom$:RmResList$n(us)v
 0001:00034FD5       W?KNewRoom$n(pns)v
 0001:00034FF4       W?$ct:Object$n($MemID$$$1$uiui)_
 0001:0003516C       W?$ct:Object$n($MemID$$$1$)_
 0001:0003534A       W?$dt:Object$n()_
 0001:0003542D       W?AddToObjects$:Object$n()v
 0001:00035487       W?DeleteFromObjects$:Object$n()v
 0001:000354F6       W?Name$:Object$n()pnxa
 0001:000355C1       W?RespondsTo$:Object$n(us)i
 0001:000355E7       W?Get$:ObjectID$n($MemID$$uiui)v
 0001:00035659       W?Get$:ObjectID$n($1$)v
 0001:000356D4       W?Free$:ObjectID$n()v
 0001:00035792       W?Clone$:ObjectID$n()$1$
 0001:000357C8       W?$ct:SelectorDict$n()_
 0001:000357E8       W?$dt:SelectorDict$n()_
 0001:0003586C       W?add$:SelectorDict$n(usuiui)v
 0001:000359C8       W?get$:SelectorDict$n(us)i
 0001:00035A2C       W?copy$:SelectorDict$n(pn$1$)v
 0001:00035B1E       W?GetClass$n(pnxa)$ObjectID$$
 0001:00035BEF       W?GetSelector$n(pnxa)us
 0001:00035C34       W?GetSelectorName$n(uspna)pnxa
 0001:00035C6A       LoadPropOffsets
 0001:00035CB7       W?KIsObject$n(pns)v
 0001:00035D25       W?KRespondsTo$n(pns)v
 0001:00035DDA       W?KClone$n(pns)v
 0001:000360AB       W?KDisposeClone$n(pns)v
 0001:00036159       W?KFindSelector$n(pns)v
 0001:00036303       W?KFindClass$n(pns)v
 0001:000364AA       W?KIsKindOf$n(pns)v
 0001:00036648       W?KPackData$n(pns)v
 0001:00036CF8       W?$ct:PackedData$n($ObjectID$$)_
 0001:00036E88       W?$dt:PackedData$n()_
 0001:00036EC7       W?getBits$:PackedData$n(i)i
 0001:0003732A       W?putBits$:PackedData$n(ii)v
 0001:000377AB       W?getByte$:PackedData$n()uc
 0001:00037ABE       W?putByte$:PackedData$n(uc)v
 0001:00037DE1       W?getWord$:PackedData$n()s
 0001:00037E0B       W?putWord$:PackedData$n(s)v
 0001:00037E45       W?getLong$:PackedData$n()i
 0001:00037E9B       W?putLong$:PackedData$n(i)v
 0001:00037EFE       W?getString$:PackedData$n(i)$TextID$$
 0001:000382B6       W?putString$:PackedData$n(pnai)v
 0001:000382EA       W?putArray$:PackedData$n(pnvi)v
 0001:00038308       W?$ct:SOLPalette$n(rnx$HunkPalette$$)_
 0001:00038336       W?$ct:SOLPalette$n(rnx$0$)_
 0001:00038370       W?$ct:SOLPalette$n()_
 0001:000383BA       W?$aa:SOLPalette$n(rnx$HunkPalette$$)rn$0$
 0001:0003848C       W?$aa:SOLPalette$n(rnx$0$)rn$0$
 0001:000384AF       W?$ra:SOLPalette$n.x(rnx$0$)i
 0001:00038516       W?Match$:SOLPalette$n.x(rnx$Rgb24$$)i
 0001:0003859C       W?Match$:SOLPalette$n.x(rnx$Rgb24$$ipnipnxuc)i
 0001:00038639       W?Compare$:SOLPalette$n.x(rnx$1$pnuc)i
 0001:000386AE       W?Merge$:SOLPalette$n(rnx$1$)v
 0001:000386DA       W?Init$:HunkPalette$n(pnv)v
 0001:0003870E       W?SetVersion$:HunkPalette$n(i)v
 0001:000387C0       W?KPalVary$n(pns)v
 0001:00038C84       W?KPalette$n(pns)v
 0001:00039008       W?KPalCycle$n(pns)v
 0001:00039194       W?$ct:Rgb24F$n()_
 0001:0003919C       W?$ct:PaletteMgrIndex$n()_
 0001:000392EB       W?$dt:PaletteMgrIndex$n()_
 0001:00039340       W?Submit$:PaletteMgrIndex$n(rn$HunkPalette$$)v
 0001:000393D3       W?Submit$:PaletteMgrIndex$n(rnx$SOLPalette$$)v
 0001:00039439       W?ApplyAll$:PaletteMgrIndex$n()v
 0001:00039461       W?SetCycle$:PaletteMgrIndex$n(iiii)v
 0001:0003962E       W?DoCycle$:PaletteMgrIndex$n(ii)v
 0001:000396BC       W?ApplyCycles$:PaletteMgrIndex$n()v
 0001:00039824       W?ApplyAllCycles$:PaletteMgrIndex$n()v
 0001:000398FD       W?CycleOn$:PaletteMgrIndex$n(i)v
 0001:00039962       W?CycleAllOn$:PaletteMgrIndex$n()v
 0001:000399A8       W?CycleAllPause$:PaletteMgrIndex$n()v
 0001:000399EB       W?CyclePause$:PaletteMgrIndex$n(i)v
 0001:00039A28       W?CycleOff$:PaletteMgrIndex$n(i)v
 0001:00039A91       W?CycleAllOff$:PaletteMgrIndex$n()v
 0001:00039ADB       W?SetTarget$:PaletteMgrIndex$n(rnx$SOLPalette$$)v
 0001:00039B18       W?MergeTarget$:PaletteMgrIndex$n(rnx$SOLPalette$$)v
 0001:00039B63       W?SetStart$:PaletteMgrIndex$n(rnx$SOLPalette$$)v
 0001:00039BA0       W?MergeStart$:PaletteMgrIndex$n(rnx$SOLPalette$$)v
 0001:00039BEB       W?SetVary$:PaletteMgrIndex$n(rnx$SOLPalette$$iiii)v
 0001:00039CA1       W?SetVaryPercent$:PaletteMgrIndex$n(iiii)v
 0001:00039D2D       W?SetVaryTime$:PaletteMgrIndex$n(i)v
 0001:00039DA2       W?ApplyVary$:PaletteMgrIndex$n()v
 0001:00039F43       W?VaryOn$:PaletteMgrIndex$n()v
 0001:00039F99       W?VaryOff$:PaletteMgrIndex$n()v
 0001:00039FFE       W?SetFade$:PaletteMgrIndex$n(iii)v
 0001:0003A020       W?ApplyFade$:PaletteMgrIndex$n()v
 0001:0003A0F7       W?FadeOff$:PaletteMgrIndex$n()v
 0001:0003A114       W?UpdateFFrame$:PaletteMgrIndex$n()i
 0001:0003A175       W?UpdateForFrame$:PaletteMgrIndex$n()i
 0001:0003A1C3       W?SetGamma$:PaletteMgrIndex$n(i)v
 0001:0003A1F7       W?GammaOff$:PaletteMgrIndex$n()v
 0001:0003A208       W?UpdateForFrame$:PaletteMgrTrue$n()i
 0001:0003A256       W?ApplyAll$:PaletteMgrTrue$n()v
 0001:0003A279       W?ApplyCycles$:PaletteMgrTrue$n()v
 0001:0003A31F       W?ApplyVary$:PaletteMgrTrue$n()v
 0001:0003A38F       W?ApplyFade$:PaletteMgrTrue$n()v
 0001:0003A390       W?InitPalette$n()v
 0001:0003A518       W?TermPalette$n()v
 0001:0003A570       W?UpdatePalette$n(rn$SOLPalette$$rnx$1$i)i
 0001:0003A746       W?ClearSystemPalette$n()v
 0001:0003A894       W?KShow$n(pns)v
 0001:0003A894       W?KDrawPic$n(pns)v
 0001:0003A894       W?KPicNotValid$n(pns)v
 0001:0003A898       W?$ct:SOL_Plane$n($ObjectID$$)_
 0001:0003B379       W?$ct:SOL_Plane$n(rnx$0$)_
 0001:0003B4B5       W?$ct:SOL_Plane$n(rnx$SOL_Rect$$)_
 0001:0003B63A       W?$aa:SOL_Plane$n(rn$ObjectID$$)rn$0$
 0001:0003C019       W?$aa:SOL_Plane$n(rnx$0$)rn$0$
 0001:0003C0D8       W?UpdateRedrawAllCount$:SOL_Plane$n()v
 0001:0003C0F5       W?UpdatePlane$:SOL_Plane$n(pn$1$)v
 0001:0003C2E2       W?NewScreenDim$:SOL_Plane$n($SOL_Rect$$)v
 0001:0003C3BC       W?SetType$:SOL_Plane$n()v
 0001:0003C408       W?ChangePic$:SOL_Plane$n()v
 0001:0003C559       W?AddPic$:SOL_Plane$n(irnx$SOL_Point$$ii)i
 0001:0003C686       W?DeleteAllPics$:SOL_Plane$n()v
 0001:0003C736       W?DeletePic$:SOL_Plane$n(ii)v
 0001:0003C753       W?DeletePic$:SOL_Plane$n(i)v
 0001:0003C7D6       W?ScrollScreenItems$:SOL_Plane$n(iii)v
 0001:0003C869       W?GetPicResolution$:SOL_Plane$n()v
 0001:0003C87C       W?SetOnScreen$:SOL_Plane$n(rnx$SOL_Rect$$)v
 0001:0003C8A4       W?Move$:SOL_Plane$n(rnx$SOL_Point$$)v
 0001:0003C8EF       W?MoveDelta$:SOL_Plane$n(ii)v
 0001:0003C93B       W?MoveTo$:SOL_Plane$n($SOL_Point$$)v
 0001:0003CA30       W?ConvGameRectToPlaneRect$:SOL_Plane$n()v
 0001:0003CB4C       W?ResizePlane$:SOL_Plane$n(ii)v
 0001:0003CC89       W?AddScreenItem$:SOL_Plane$n(pn$ScreenItem$$)v
 0001:0003CCA1       W?AbortScreenItem$:SOL_Plane$n(pnx$ScreenItem$$)v
 0001:0003CCB9       W?TopScreenItem$:SOL_Plane$n.x()i
 0001:0003CD1A       W?NowSeen$:SOL_Plane$n($MemID$$rn$SOL_Rect$$)i
 0001:0003CD5F       W?CalcLists$:SOL_Plane$n(pn$1$rn$PlaneList$$rn$DrawList$$rn$RectList$$)v
 0001:0003D4BC       W?RedrawAll$:SOL_Plane$n(pn$1$rn$PlaneList$$rn$DrawList$$rn$RectList$$)v
 0001:0003D609       W?RemapMarkRedraw$:SOL_Plane$n()v
 0001:0003D69B       W?BreakDrawListByPlanes$:SOL_Plane$n(rn$DrawList$$rn$PlaneList$$)v
 0001:0003D79D       W?BreakEraseListByPlanes$:SOL_Plane$n(rn$RectList$$rn$PlaneList$$)v
 0001:0003D893       W?DecSIArrayCounts$:SOL_Plane$n(pn$1$i)v
 0001:0003D9EF       W?KGlobalToLocal$n(pns)v
 0001:0003DD12       W?GlobalToLocalGame$n(irn$SOL_Point$$)i
 0001:0003DDF3       W?KLocalToGlobal$n(pns)v
 0001:0003DE1C       W?LocalGameToGlobal$n(irn$SOL_Point$$)i
 0001:0003DEFB       W?FilterUpEraseRects$:SOL_Plane$n(rn$DrawList$$rn$RectList$$)v
 0001:0003DFCB       W?FilterDownEraseRects$:SOL_Plane$n(rn$DrawList$$rn$RectList$$rn$3$)v
 0001:0003E26D       W?FilterUpDrawRects$:SOL_Plane$n(rn$DrawList$$rn$2$)v
 0001:0003E33B       W?MergeToDrawList$:SOL_Plane$n(irn$SOL_Rect$$rn$DrawList$$)v
 0001:0003E5FD       W?UpdateTheirEraseList$:SOL_Plane$n(rn$SOL_Rect$$irn$RectList$$)v
 0001:0003E680       W?CheckIntegrity$:SOL_Plane$n()v
 0001:0003E6FE       W?MergeToRectList$n(rnx$SOL_Rect$$rn$RectList$$)v
 0001:0003E904       W?$dt:SOL_Rect$n()_
 0001:0003E90C       W?$ct:SOL_Rect$n(rnx$0$)_
 0001:0003E934       W?$ct:SOL_Rect$n()_
 0001:0003E96C       W?KPlatform$n(pns)v
 0001:0003EA58       W?KGetSierraProfileInt$n(pns)v
 0001:0003EAE0       W?KGetSierraProfileString$n(pns)v
 0001:0003EBCE       W?KSetWindowsOption$n(pns)v
 0001:0003EC1F       W?KGetWindowsOption$n(pns)v
 0001:0003EC4C       W?$ct:PlaneList$n()_
 0001:0003EC5B       W?$dt:PlaneList$n()_
 0001:0003EC9B       W?$ct:PlaneList$n(rnx$0$)_
 0001:0003ECF0       W?$aa:PlaneList$n(rnx$0$)rnx$0$
 0001:0003ED47       W?Add$:PlaneList$n(pn$SOL_Plane$$)i
 0001:0003EDB8       W?Delete$:PlaneList$n(i)v
 0001:0003EE40       W?Search$:PlaneList$n.x(ui)i
 0001:0003EE6A       W?Clear$:PlaneList$n()v
 0001:0003EEB2       W?Sort$:PlaneList$n()v
 0001:0003EF18       W?TopPlane$:PlaneList$n.x()i
 0001:0003EF31       W?TopSCIPlane$:PlaneList$n.x()i
 0001:0003EF64       DoDebug
 0001:0003EF92       SetDebug
 0001:0003EFAC       ClearDebug
 0001:0003EFC6       pmStackClear
 0001:0003F008       @pmTossMemID_vc@8
 0001:0003F010       pmTossMemID_wat
 0001:0003F106       @pmQuickMessage_vc@12
 0001:0003F11E       pmQuickMessage_wat
 0001:0003F123       pmQuickMessage_asm
 0001:0003F3D9       @invokeMethod_vc@16
 0001:0003F3F1       invokeMethod_wat
 0001:0003F4CF       pmRun
 0001:0003F4E7       pmRestartBuf
 0001:0003F60E       pmEnd
 0001:0003F61D       pmCheckIntegrity
 0001:0003F655       @pmPushMany_vc@12
 0001:0003F668       pmPushMany_wat
 0001:0003F6F5       pmCall
 0001:0003F76D       pmDispatch
 0001:0003F8C0       OP_bnot
 0001:0003F8CC       OP_add
 0001:0003F8DC       OP_sub
 0001:0003F8F2       OP_mul
 0001:0003F902       OP_div
 0001:0003F93B       OP_mod
 0001:0003F97A       OP_shr
 0001:0003F98E       OP_shl
 0001:0003F9A2       OP_xor
 0001:0003F9B2       OP_and
 0001:0003F9C2       OP_or
 0001:0003F9D2       OP_neg
 0001:0003F9DE       OP_not
 0001:0003F9F1       OP_eq
 0001:0003FA14       OP_ne
 0001:0003FA37       OP_gt
 0001:0003FA5A       OP_ge
 0001:0003FA7D       OP_lt
 0001:0003FAA0       OP_le
 0001:0003FAC3       OP_ugt
 0001:0003FAE6       OP_uge
 0001:0003FB09       OP_ult
 0001:0003FB2C       OP_ule
 0001:0003FB4F       OP_bt_byte
 0001:0003FB68       OP_bt_word
 0001:0003FB81       OP_bnt_byte
 0001:0003FB9A       OP_bnt_word
 0001:0003FBB3       OP_jmp_byte
 0001:0003FBC6       OP_jmp_word
 0001:0003FBD9       OP_loadi_byte
 0001:0003FBE9       OP_loadi_word
 0001:0003FBF9       OP_push
 0001:0003FC38       OP_pushi_byte
 0001:0003FC7E       OP_pushi_word
 0001:0003FCC3       OP_toss
 0001:0003FCD6       OP_dup
 0001:0003FD18       OP_link_byte
 0001:0003FD38       OP_link_word
 0001:0003FD58       OP_call_byte
 0001:0003FDC2       OP_call_word
 0001:0003FE2C       OP_callk_byte
 0001:0003FEF1       OP_callk_word
 0001:0003FFB6       OP_callb_byte
 0001:0003FFE1       OP_callb_word
 0001:0004000C       OP_calle_byte
 0001:00040036       OP_calle_word
 0001:00040060       OP_ret
 0001:00040061       OP_send_byte
 0001:0004009B       OP_class_byte
 0001:000400BB       OP_class_word
 0001:000400DB       OP_self
 0001:00040105       OP_super_byte
 0001:00040139       OP_super_word
 0001:0004016E       OP_rest_byte
 0001:000401D5       OP_selfID
 0001:000401E6       OP_pprev
 0001:0004022B       OP_pToa_byte
 0001:0004029F       OP_pToa_word
 0001:00040313       OP_aTop_byte
 0001:00040398       OP_aTop_word
 0001:0004041D       OP_pTos_byte
 0001:000404C6       OP_pTos_word
 0001:0004056F       OP_sTop_byte
 0001:000405FF       OP_sTop_word
 0001:0004068F       OP_ipToa_byte
 0001:00040717       OP_ipToa_word
 0001:0004079F       OP_dpToa_byte
 0001:00040827       OP_dpToa_word
 0001:000408AF       OP_ipTos_byte
 0001:0004096C       OP_ipTos_word
 0001:00040A29       OP_dpTos_byte
 0001:00040AE6       OP_dpTos_word
 0001:00040BA3       OP_lofsa
 0001:00040BB3       OP_lofss
 0001:00040BC9       OP_push0
 0001:00040C0A       OP_push1
 0001:00040C4B       OP_push2
 0001:00040C8C       OP_pushSelf
 0001:00040CD2       OP_lag_byte
 0001:00040CED       OP_lag_word
 0001:00040D08       OP_lal_byte
 0001:00040D7E       OP_lal_word
 0001:00040DF4       OP_lat_byte
 0001:00040E10       OP_lat_word
 0001:00040E2C       OP_lap_byte
 0001:00040E48       OP_lap_word
 0001:00040E64       OP_lsg_byte
 0001:00040E85       OP_lsg_word
 0001:00040EA6       OP_lsl_byte
 0001:00040F22       OP_lsl_word
 0001:00040F9E       OP_lst_byte
 0001:00040FC0       OP_lst_word
 0001:00040FE2       OP_lsp_byte
 0001:00041004       OP_lsp_word
 0001:00041026       OP_lagi_byte
 0001:00041043       OP_lagi_word
 0001:00041060       OP_lali_byte
 0001:000410D2       OP_lali_word
 0001:00041144       OP_lati_byte
 0001:00041162       OP_lati_word
 0001:00041180       OP_lapi_byte
 0001:0004119E       OP_lapi_word
 0001:000411BC       OP_lsgi_byte
 0001:000411DF       OP_lsgi_word
 0001:00041202       OP_lsli_byte
 0001:0004127A       OP_lsli_word
 0001:000412F2       OP_lsti_byte
 0001:00041316       OP_lsti_word
 0001:0004133A       OP_lspi_byte
 0001:0004135E       OP_lspi_word
 0001:00041382       OP_sag_byte
 0001:0004139D       OP_sag_word
 0001:000413B8       OP_sal_byte
 0001:00041428       OP_sal_word
 0001:00041498       OP_sat_byte
 0001:000414B4       OP_sat_word
 0001:000414D0       OP_sap_byte
 0001:000414EC       OP_sap_word
 0001:00041508       OP_ssg_byte
 0001:00041529       OP_ssg_word
 0001:0004154A       OP_ssl_byte
 0001:000415C0       OP_ssl_word
 0001:00041636       OP_sst_byte
 0001:00041658       OP_sst_word
 0001:0004167A       OP_ssp_byte
 0001:0004169C       OP_ssp_word
 0001:000416BE       OP_sagi_byte
 0001:000416E1       OP_sagi_word
 0001:00041704       OP_sali_byte
 0001:0004177C       OP_sali_word
 0001:000417F4       OP_sati_byte
 0001:00041818       OP_sati_word
 0001:0004183C       OP_sapi_byte
 0001:00041860       OP_sapi_word
 0001:00041884       OP_ssgi_byte
 0001:000418A7       OP_ssgi_word
 0001:000418CA       OP_ssli_byte
 0001:00041942       OP_ssli_word
 0001:000419BA       OP_ssti_byte
 0001:000419DE       OP_ssti_word
 0001:00041A02       OP_sspi_byte
 0001:00041A26       OP_sspi_word
 0001:00041A4A       OP_iag_byte
 0001:00041A68       OP_iag_word
 0001:00041A86       OP_ial_byte
 0001:00041AF9       OP_ial_word
 0001:00041B6C       OP_iat_byte
 0001:00041B8B       OP_iat_word
 0001:00041BAA       OP_iap_byte
 0001:00041BC9       OP_iap_word
 0001:00041BE8       OP_isg_byte
 0001:00041C0C       OP_isg_word
 0001:00041C30       OP_isl_byte
 0001:00041CA9       OP_isl_word
 0001:00041D22       OP_ist_byte
 0001:00041D47       OP_ist_word
 0001:00041D6C       OP_isp_byte
 0001:00041D91       OP_isp_word
 0001:00041DB6       OP_iagi_byte
 0001:00041DD6       OP_iagi_word
 0001:00041DF6       OP_iali_byte
 0001:00041E6B       OP_iali_word
 0001:00041EE0       OP_iati_byte
 0001:00041F01       OP_iati_word
 0001:00041F22       OP_iapi_byte
 0001:00041F43       OP_iapi_word
 0001:00041F64       OP_isgi_byte
 0001:00041F8A       OP_isgi_word
 0001:00041FB0       OP_isli_byte
 0001:0004202B       OP_isli_word
 0001:000420A6       OP_isti_byte
 0001:000420CD       OP_isti_word
 0001:000420F4       OP_ispi_byte
 0001:0004211B       OP_ispi_word
 0001:00042142       OP_dag_byte
 0001:00042160       OP_dag_word
 0001:0004217E       OP_dal_byte
 0001:000421F1       OP_dal_word
 0001:00042264       OP_dat_byte
 0001:00042283       OP_dat_word
 0001:000422A2       OP_dap_byte
 0001:000422C1       OP_dap_word
 0001:000422E0       OP_dsg_byte
 0001:00042304       OP_dsg_word
 0001:00042328       OP_dsl_byte
 0001:000423A1       OP_dsl_word
 0001:0004241A       OP_dst_byte
 0001:0004243F       OP_dst_word
 0001:00042464       OP_dsp_byte
 0001:00042489       OP_dsp_word
 0001:000424AE       OP_dagi_byte
 0001:000424CE       OP_dagi_word
 0001:000424EE       OP_dali_byte
 0001:00042563       OP_dali_word
 0001:000425D8       OP_dati_byte
 0001:000425F9       OP_dati_word
 0001:0004261A       OP_dapi_byte
 0001:0004263B       OP_dapi_word
 0001:0004265C       OP_dsgi_byte
 0001:00042682       OP_dsgi_word
 0001:000426A8       OP_dsli_byte
 0001:00042723       OP_dsli_word
 0001:0004279E       OP_dsti_byte
 0001:000427C5       OP_dsti_word
 0001:000427EC       OP_dspi_byte
 0001:00042813       OP_dspi_word
 0001:0004283A       OP_filename
 0001:00042864       OP_linenum
 0001:0004287C       BadOp
 0001:0004288F       MonoBegKC
 0001:000428C1       MonoEndKC
 0001:000428ED       W?PointInterior$n(rn$SCI_Point$$pn$1$i)i
 0001:00042D08       W?GetPath$n(rn$SCI_Point$$rn$1$pn$SOL_Polygon$$irn$1$)$MemID$$
 0001:000432C0       W?StartPath$n(rn$SCI_Point$$pn$1$)v
 0001:0004333B       W?EndPath$n(rn$SCI_Point$$pn$1$)v
 0001:00043372       W?CopyPath$n(pn$SCI_Point$$)$MemID$$
 0001:00043414       W?InvertPolygon$n(pn$SCI_Point$$i)v
 0001:0004346C       W?NearPoint$n(rn$SCI_Point$$pn$1$ipn$1$i)i
 0001:000437A4       W?TestClockwise$n(pn$SCI_Point$$i)i
 0001:0004388E       W?AvoidPath$n(rn$SCI_Point$$rn$1$pn$SOL_Polygon$$ipn$1$)v
 0001:00043AC7       W?FreeNodePath$n(pn$PolyNode$$)v
 0001:00043AE5       W?AvoidPolygons$n(rn$SCI_Point$$rn$1$pn$SOL_Polygon$$)pn$PolyNode$$
 0001:00043CE6       W?ReducePolygonList$n(pn$SOL_Polygon$$pn$PolyNode$$)v
 0001:00043DE2       W?RemoveNode$n(pn$SOL_Polygon$$i)v
 0001:00043E1D       W?GetPolyDirections$n(pn$PolyNode$$)i
 0001:00043E4F       W?GetPolyDistance$n(pn$SCI_Point$$)i
 0001:00043EA5       W?SetPolyDirections$n(pn$PolyNode$$ii)v
 0001:00043F59       W?OptimizePath$n(rn$SCI_Point$$rn$1$pn$1$pn$PolyNode$$pn$SOL_Polygon$$i)v
 0001:000441DC       W?PolygonPath$n(rn$SCI_Point$$rn$1$pn$1$ipn$1$pn$1$pnipni)i
 0001:000442CA       W?NodeDistance$n(iiipn$SCI_Point$$irn$1$rn$1$pni)i
 0001:000443A6       W?IntersectPolygon$n(rn$SCI_Point$$rn$1$pn$1$ipn$1$pn$1$pnipni)i
 0001:0004535B       W?NodeTest$n(rn$SCI_Point$$rn$1$rn$1$rn$1$)i
 0001:00045502       W?BuildPolygonList$n($SOL_ListID$$i)$MemID$$
 0001:000459B4       W?DeletePolygon$n(pn$SOL_Polygon$$i)v
 0001:000459E9       W?AddPolygon$n($MemID$$pn$SCI_Point$$iuc)v
 0001:00045A4C       W?IntersectSegments$n(rn$SCI_Point$$rn$1$rn$1$rn$1$pn$1$)i
 0001:000464B5       W?RemoveColinearLines$n(pn$SCI_Point$$pni)v
 0001:00046686       W?DistanceEstimate$n(rn$SCI_Point$$rn$1$pni)i
 0001:00046715       W?LineOnPlaneEdge$n(rn$SCI_Point$$rn$1$)i
 0001:00046782       W?RemoveDuplicatePoints$n(pn$SCI_Point$$pni)v
 0001:000467FC       W?BuildPolygonListF$n($SOL_ListID$$i)$MemID$$
 0001:00046D55       W?RemoveDuplicatePointsF$n(pn$FPoint$$pni)v
 0001:00046E8D       W?IntersectSegmentsF$n(rn$FPoint$$rn$1$rn$1$rn$1$pn$1$i)i
 0001:00047ABE       W?RemoveColinearLinesF$n(pn$FPoint$$pni)v
 0001:00047DA5       W?PolyIsInPolyF$n(pn$FPoint$$ipn$1$i)i
 0001:00047F02       W?PointInteriorF$n(rn$FPoint$$pn$1$i)i
 0001:0004864F       W?KMergePoly$n(pns)v
 0001:00048DAE       W?KInPolygon$n(pns)v
 0001:000490B0       W?KAvoidPath$n(pns)v
 0001:00049432       W?KTestPoly$n(pns)v
 0001:00049738       W?$dt:SCI_Point$n()_
 0001:00049740       W?$ct:SCI_Point$n(rnx$0$)_
 0001:0004975C       W?$ct:SCI_Point$n()_
 0001:0004976C       W?MergePolygonsF$n(pn$SCI_Point$$ipn$SOL_PolygonF$$)$MemID$$
 0001:00049AE4       W?MergePolygonF$n(pn$FPoint$$rnirn$SOL_PolygonF$$)i
 0001:0004ADC7       W?PatchNodeF$n(rn$PolyPatchF$$ipn$FPoint$$)i
 0001:0004AF6E       W?DominatesF$n(rn$PolyPatchF$$rn$1$pn$FPoint$$)i
 0001:0004BFBC       W?$dt:FPoint$n()_
 0001:0004BFC4       W?$dt:PolyPatchF$n()_
 0001:0004BFCC       W?$ct:PolyPatchF$n()_
 0001:0004C010       W?$ct:FPoint$n(rnx$0$)_
 0001:0004C034       W?$ct:FPoint$n()_
 0001:0004C054       W?$ct:Ratio$n(rnx$0$)_
 0001:0004C069       W?Normalize$:Ratio$n()v
 0001:0004C10D       W?$ra:Ratio$n.x(rnx$0$)i
 0001:0004C130       W?$rb:Ratio$n.x(rnx$0$)i
 0001:0004C151       W?Assert$:Ratio$n.x()i
 0001:0004C16C       W?Intersect$:SOL_Rect$n.x(rnx$1$pn$1$)i
 0001:0004C1F6       W?Split$:SOL_Rect$n(rn$1$pn$1$)i
 0001:0004C328       W?IsWithin$:SOL_Rect$n.x(ii)i
 0001:0004C370       W?$ct:RectList$n()_
 0001:0004C37F       W?$dt:RectList$n()_
 0001:0004C3A8       W?$ct:RectList$n(rnx$0$)_
 0001:0004C41B       W?$aa:RectList$n(rnx$0$)rnx$0$
 0001:0004C4A9       W?Add$:RectList$n(rnx$SOL_Rect$$)v
 0001:0004C51F       W?Delete$:RectList$n(i)v
 0001:0004C540       W?Pack$:RectList$n()i
 0001:0004C57D       W?Clear$:RectList$n()v
 0001:0004C5B8       W?$ct:Remap$n()_
 0001:0004C678       W?$dt:Remap$n()_
 0001:0004C6D0       W?RemapOff$:Remap$n(i)v
 0001:0004C7CA       W?RemapByRange$:Remap$n(iiiii)v
 0001:0004C8DF       W?RemapByPercent$:Remap$n(iii)v
 0001:0004C9C9       W?RemapToGray$:Remap$n(iii)v
 0001:0004CAB9       W?RemapToPercentGray$:Remap$n(iiii)v
 0001:0004CB8C       W?RemapAllTables$:Remap$n(i)i
 0001:0004CBCC       W?DontMapToRange$:Remap$n(ii)v
 0001:0004CC04       W?KRemapColors$n(pns)v
 0001:0004CD36       W?$ct:SingleRemap$:Remap$n(pnuc)_
 0001:0004CE54       W?ByRange$:SingleRemap$:Remap$n()i
 0001:0004CEAD       W?ByPercent$:SingleRemap$:Remap$n()i
 0001:0004D08F       W?ToGray$:SingleRemap$:Remap$n()i
 0001:0004D294       W?ToPercentGray$:SingleRemap$:Remap$n()i
 0001:0004D4D8       W?Apply$:SingleRemap$:Remap$n(pnuc)i
 0001:0004D8DB       W?Update$:SingleRemap$:Remap$n(i)i
 0001:0004D95A       W?Match$:SingleRemap$:Remap$n(pn$Rgb24$$irnx$3$irni)i
 0001:0004D9EC       W?$ct:Rgb24$n(rnx$0$)_
 0001:0004E2AD       W?$ct:ResourceMgr$n()_
 0001:0004E32E       W?$dt:ResourceMgr$n()_
 0001:0004E3F5       W?Open$:ResourceMgr$n($MemType$$uspna)i
 0001:0004E427       W?Close$:ResourceMgr$n(i)i
 0001:0004E458       W?Get$:ResourceMgr$n($MemType$$usi)$MemID$$
 0001:0004E885       W?GetExtType$:ResourceMgr$n(pna)$MemType$$
 0001:0004E8DA       W?Check$:ResourceMgr$n($MemType$$us)i
 0001:0004E951       W?Lock$:ResourceMgr$n($MemType$$us)v
 0001:0004E991       W?SetNotDiscardable$:ResourceMgr$n($MemType$$us)v
 0001:0004E9D1       W?SetDiscardable$:ResourceMgr$n($MemType$$us)v
 0001:0004EA11       W?MakeDebugDisplayStr$:ResourceMgr$n()$TextID$$
 0001:0004EBED       W?Unlock$:ResourceMgr$n($MemType$$us)v
 0001:0004EC2D       W?Release$:ResourceMgr$n($MemType$$us)v
 0001:0004EC86       W?Find$:ResourceMgr$n($MemType$$us)$MemID$$
 0001:0004EDEC       W?FindType$:ResourceMgr$n($MemType$$)us
 0001:0004EE2F       W?MakeName$:ResourceMgr$n($MemType$$us)pna
 0001:0004EE69       W?Free$:ResourceMgr$n($MemType$$us)v
 0001:0004EF3B       W?GetChecksum$:ResourceMgr$n(us)ui
 0001:0004EFA1       W?GetIndex$:ResourceMgr$n($MemType$$us)i
 0001:0004EFF5       W?AddIndex$:ResourceMgr$n($MemType$$us)i
 0001:0004F0D6       W?DeleteIndex$:ResourceMgr$n($MemType$$us)v
 0001:0004F1A2       W?ExtractResources$:ResourceMgr$n()v
 0001:0004F44C       W?InitResourceMgr$:ResourceMgr$n()v
 0001:0004F489       W?LoadResMaps$:ResourceMgr$n()v
 0001:0004F795       W?OpenVolume$:ResourceMgr$n(i)i
 0001:0004F8C2       W?VolumeOpen$:ResourceMgr$n(i)i
 0001:0004F8F5       W?GetResMapID$:ResourceMgr$n(i)$MemID$$
 0001:0004F912       W?BuildPatchTables$:ResourceMgr$n()v
 0001:0004FD90       W?DecompBuffer$:ResourceMgr$n(i)$MemID$$
 0001:0004FD9D       W?KFlushResources$n(pns)v
 0001:0004FD9E       W?SetLanguage$:ResourceMgr$n(pna)v
 0001:0004FF27       W?KSetLanguage$n(pns)v
 0001:0004FF8C       W?KLoad$n(pns)v
 0001:0004FFDF       W?KUnload$n(pns)v
 0001:0005001C       W?KLock$n(pns)v
 0001:0005008B       W?KResCheck$n(pns)v
 0001:000500F0       W?$ct:ResMaps$n()_
 0001:000500FC       W?Load$:ResourceMgr$n(pn$SOL_ResType$$rn$ResTag$$i)v
 0001:0005011C       W?Check$:ResourceMgr$n(pn$SOL_ResType$$us)i
 0001:0005013C       W?GetType$:ResVMD$n.x()$MemType$$
 0001:00050140       W?GetType$:ResRobot$n.x()$MemType$$
 0001:00050144       W?GetFileType$:ResMsgTranslation$n.x()$MemType$$
 0001:00050148       W?GetType$:ResMsgTranslation$n.x()$MemType$$
 0001:0005014C       W?GetType$:ResMap$n.x()$MemType$$
 0001:00050150       W?GetType$:ResSync36$n.x()$MemType$$
 0001:00050154       W?GetType$:ResSync$n.x()$MemType$$
 0001:00050158       W?GetType$:ResAudio36$n.x()$MemType$$
 0001:0005015C       W?GetType$:ResWave$n.x()$MemType$$
 0001:00050160       W?GetType$:ResAudio$n.x()$MemType$$
 0001:00050164       W?GetType$:ResMsg$n.x()$MemType$$
 0001:00050168       W?GetType$:ResHeap$n.x()$MemType$$
 0001:0005016C       W?GetType$:ResPal$n.x()$MemType$$
 0001:00050170       W?GetType$:ResFont$n.x()$MemType$$
 0001:00050174       W?GetType$:ResPatch$n.x()$MemType$$
 0001:00050178       W?GetType$:ResVocab$n.x()$MemType$$
 0001:0005017C       W?GetType$:ResSound$n.x()$MemType$$
 0001:00050180       W?GetType$:ResScript$n.x()$MemType$$
 0001:00050184       W?GetType$:ResChunk$n.x()$MemType$$
 0001:00050188       W?GetType$:ResPic$n.x()$MemType$$
 0001:0005018C       W?GetType$:ResView$n.x()$MemType$$
 0001:00050190       W?GetFileType$:SOL_ResType$n.x()$MemType$$
 0001:000501A8       W?GetAttrs$:SOL_ResType$n.x()ui
 0001:000501B0       W?IsSupported$:SOL_ResType$n.x()i
 0001:000501C4       W?GetExtension$:SOL_ResType$n.x()pnxa
 0001:000501CC       W?$ct:SOL_ResType$n(pnapna)_
 0001:000501F8       W?Check$:SOL_ResType$n(us)i
 0001:00050233       W?Load$:SOL_ResType$n(rn$ResTag$$i)v
 0001:00050549       W?Decompress$:SOL_ResType$n.x(rn$ResTag$$)v
 0001:0005065D       W?Open$:SOL_ResType$n(uspna)i
 0001:00050BEF       W?CanOpen$:SOL_ResType$n(uspna)i
 0001:00050EB3       W?Close$:SOL_ResType$n.x(i)i
 0001:00050EE7       W?MakeName$:SOL_ResType$n.x(pnapnaus)v
 0001:00050F33       W?MakeName$:SOL_ResType$n.x(pnapnapna)v
 0001:00050FFB       W?MakeWildName$:SOL_ResType$n.x(pnapna)v
 0001:0005101F       W?GetFileSize$:SOL_ResType$n.x()l
 0001:00051066       W?ConfirmType$:SOL_ResType$n.x($MemType$$)v
 0001:00051102       W?Read$:SOL_ResType$n.x(pnvi)i
 0001:00051120       W?SeekToData$:SOL_ResType$n.x()i
 0001:0005116F       W?FindDirEntry$:SOL_ResType$n.x(uspni)i
 0001:0005127B       W?FindPatchEntry$:SOL_ResType$n.x(us)i
 0001:000512E9       W?FindPatch36Entry$:SOL_ResType$n.x(pna)i
 0001:00051354       W?CheckPatches$:SOL_ResType$n.x(us)i
 0001:0005137E       W?SeekToData$:ResView$n.x()i
 0001:000513BF       W?SeekToData$:ResPic$n.x()i
 0001:000513FB       W?SeekToData$:ResPal$n.x()i
 0001:0005140B       W?SeekToData$:ResAudio36$n.x()i
 0001:0005140B       W?SeekToData$:ResWave$n.x()i
 0001:0005140B       W?SeekToData$:ResAudio$n.x()i
 0001:0005140E       W?SeekToData$:ResVMD$n.x()i
 0001:00051428       W?GetType$:SOL_ResType$n.x()$MemType$$
 0001:0005142C       W?Init$:SCI$n(ipnpna)v
 0001:000515EF       W?InitPlane$:SCI$n()v
 0001:00051668       W?MakeFontMgr$:SCI$n()pn$FontMgr$$
 0001:00051738       W?MakeResourceMgr$:SCI$n()pn$ResourceMgr$$
 0001:00051754       W?Run$:SCI$n(ipnpna)v
 0001:0005179D       W?$dt:SCI$n()_
 0001:000518A4       W?InitExceptions$:SCI$n()v
 0001:000518A8       W?AbortPlane$:Screen$n(pnx$SOL_Plane$$)v
 0001:000518EB       W?AddPlane$:Screen$n(pn$SOL_Plane$$)v
 0001:000519D6       W?AddPic$:Screen$n(lirnx$SOL_Point$$i)i
 0001:00051A37       W?DeletePic$:Screen$n(lii)v
 0001:00051A92       W?ScrollScreenItems$:Screen$n(liii)v
 0001:00051AF1       W?CheckIntegrity$:Screen$n()v
 0001:00051B1A       W?AddScreenItem$:Screen$n(pn$ScreenItem$$)v
 0001:00051B6D       W?NewScreenDim$:Screen$n(ii)v
 0001:00051BF6       W?Clear$:Screen$n()v
 0001:00051C18       W?PlaneRect$:Screen$n.x(irn$SOL_Rect$$)v
 0001:00051C84       W?TopScreenItem$:Screen$n.x(i)i
 0001:00051CD8       W?CalcLists$:Screen$n(rn$1$pnpn$DrawList$$pnpn$RectList$$rnx$SOL_Rect$$)v
 0001:000526BD       W?RemapMarkRedraw$:Screen$n()v
 0001:000526E8       W?GetScreenItem$:Screen$n(il)pn$ScreenItem$$
 0001:0005272B       W?GetPlane$:Screen$n(i)pn$SOL_Plane$$
 0001:0005277D       W?$ct:Entrys$n()_
 0001:0005279D       W?$dt:Entrys$n()_
 0001:000527D1       W?Add$:Entrys$n(pn$Entry$$)$MemID$$
 0001:00052841       W?Find$:Entrys$n(ui)pn$Entry$$
 0001:00052893       W?Fixup$:Entrys$n(ui)v
 0001:00052918       W?GetFirst$:Entrys$n()pn$Entry$$
 0001:00052930       W?GetNext$:Entrys$n()pn$Entry$$
 0001:0005294E       W?GetFirstObject$:Entrys$n()$ObjectID$$
 0001:0005296D       W?GetNextObject$:Entrys$n()$ObjectID$$
 0001:000529B8       GetDispatchEntry
 0001:00052A5C       W?LoadScript$n(ui)$ScriptID$$
 0001:000536ED       W?ReloadScript$n($ScriptID$$)v
 0001:00053820       W?ScriptPtr$n(ui)$ScriptID$$
 0001:000538D4       GetClass
 0001:000539B7       LoadClassTbl
 0001:00053A90       W?DisposeAllScripts$n()v
 0001:00053D2A       W?KScriptID$n(pns)v
 0001:00053D69       W?KDisposeScript$n(pns)v
 0001:00053DC8       W?Fixup$:CodeIDEntry$n(pn$Entrys$$ui)$MemID$$
 0001:00053EA4       W?Fixup$:Entry$n(pn$Entrys$$ui)$MemID$$
 0001:00053EE8       W?$ct:SendStackDebug$n()_
 0001:00053F2B       W?$dt:SendStackDebug$n()_
 0001:00053F55       W?Clear$:SendStackDebug$n()v
 0001:00053F61       W?PushObject$:SendStackDebug$n($ObjectID$$)v
 0001:00053F84       W?PushSelector$:SendStackDebug$n(us)v
 0001:00053F9E       W?Pop$:SendStackDebug$n()v
 0001:00053FA6       W?Top$:SendStackDebug$n()pn$Entry$:SendStack$$
 0001:00053FB6       W?Toggle$:SendStackDebug$n()v
 0001:00053FE4       W?Hide$:SendStackDebug$n()v
 0001:00054010       W?Show$:SendStackDebug$n()v
 0001:0005434C       W?$ct:Entry$:SendStack$n()_
 0001:00054358       W?AddPalShift$n(i)i
 0001:00054370       W?ShiftPaletteView$n(pnuc)v
 0001:000543DC       W?ShiftPalettePic$n(pnuc)v
 0001:00054414       W?ShiftPaletteCel$n(pnucl)v
 0001:0005455C       W?KSetShowStyle$n(pns)v
 0001:00054858       W?ProcessEffects$n(pn$PlaneShowStyle$$)v
 0001:000548CE       W?Bitwidth$n(i)i
 0001:000548E0       W?PixelDissolveEffect$n(pn$PlaneShowStyle$$)v
 0001:00054C42       W?IrisOutEffect$n(pn$PlaneShowStyle$$)v
 0001:00054FB8       W?IrisInEffect$n(pn$PlaneShowStyle$$)v
 0001:00055458       W?WipeRightEffect$n(pn$PlaneShowStyle$$)v
 0001:00055768       W?WipeLeftEffect$n(pn$PlaneShowStyle$$)v
 0001:00055A5D       W?WipeDownEffect$n(pn$PlaneShowStyle$$)v
 0001:00055D4C       W?WipeUpEffect$n(pn$PlaneShowStyle$$)v
 0001:00056048       W?HShutterOutEffect$n(pn$PlaneShowStyle$$)v
 0001:0005646C       W?HShutterInEffect$n(pn$PlaneShowStyle$$)v
 0001:00056850       W?VShutterInEffect$n(pn$PlaneShowStyle$$)v
 0001:00056C91       W?VShutterOutEffect$n(pn$PlaneShowStyle$$)v
 0001:00057096       W?KShowStylePercent$n(pns)v
 0001:000570DD       W?ProcessShowStyles$n()v
 0001:000571CC       W?ProcessShowStyle$n(pn$PlaneShowStyle$$ui)i
 0001:00057227       W?PalMorph$n(pn$PlaneShowStyle$$)i
 0001:00057255       W?KSetPalStyleRange$n(pns)v
 0001:00057273       W?KSetScroll$n(pns)v
 0001:000574C4       W?ProcessScrolls$n()v
 0001:00057515       W?ProcessScroll$n(pn$PlaneScroll$$)i
 0001:000575CA       W?ShutDownStyle$n(pn$PlaneShowStyle$$)pn$1$
 0001:0005763F       W?KillStyle$n(pn$PlaneShowStyle$$)v
 0001:0005769E       W?Plain$n(pn$PlaneShowStyle$$)i
 0001:000576F3       W?Fade$n(ipn$PlaneShowStyle$$)i
 0001:000577E4       W?$dt:ScreenItem$n()_
 0001:0005780B       W?$ct:ScreenItem$n(pnx$0$)_
 0001:0005795A       W?$ct:ScreenItem$n(lrnx$Bitmap$$)_
 0001:00057A8E       W?$ct:ScreenItem$n(lrnx$Bitmap$$rnx$SOL_Rect$$)_
 0001:00057C18       W?$ct:ScreenItem$n(lrnx$Bitmap$$$SOL_Point$$$ScaleInfo$$)_
 0001:00057D68       W?$ct:ScreenItem$n(lrnx$Bitmap$$$SOL_Point$$$ScaleInfo$$i)_
 0001:00057E2E       W?$ct:ScreenItem$n(rnx$ObjectID$$)_
 0001:00058FA5       W?$aa:ScreenItem$n(rnx$ObjectID$$)rn$0$
 0001:00059FC9       W?$aa:ScreenItem$n(rnx$0$)rn$0$
 0001:0005A040       W?Update$:ScreenItem$n(rnx$SOL_Plane$$)v
 0001:0005A64D       W?NowSeen$:ScreenItem$n(rnx$SOL_Plane$$rn$SOL_Rect$$)v
 0001:0005AA28       W?GetCelObj$:ScreenItem$n()v
 0001:0005AB38       W?$ct:ScreenItemList$n()_
 0001:0005AB47       W?$dt:ScreenItemList$n()_
 0001:0005AB81       W?$aa:ScreenItemList$n(rnx$0$)rnx$0$
 0001:0005AC1B       W?Add$:ScreenItemList$n(pn$ScreenItem$$)i
 0001:0005AC66       W?Clear$:ScreenItemList$n()v
 0001:0005ACB1       W?Pack$:ScreenItemList$n()v
 0001:0005ACE6       W?Search$:ScreenItemList$n.x(pnx$ScreenItem$$)i
 0001:0005AD21       W?Search$:ScreenItemList$n.x(l)i
 0001:0005AD59       W?Delete$:ScreenItemList$n(pnx$ScreenItem$$)v
 0001:0005ADA5       W?Delete$:ScreenItemList$n(i)v
 0001:0005AE0B       W?Sort$:ScreenItemList$n()v
 0001:0005AECF       W?Unsort$:ScreenItemList$n()v
 0001:0005AF20       W?sampleDoneCallback$n(pn$_SAMPLE$$)v
 0001:0005AF98       W?sequenceDoneCallback$n(pn$_SEQUENCE$$)v
 0001:0005AFFF       W?$ct:SoundMgr$n()_
 0001:0005B131       W?$dt:SoundMgr$n()_
 0001:0005B197       W?allocateSndID$:SoundMgr$n()i
 0001:0005B1CD       W?freeSndID$:SoundMgr$n(i)v
 0001:0005B1DD       W?play$:SoundMgr$n(pnai)i
 0001:0005B359       W?findSfxByID$:SoundMgr$n(i)pnv
 0001:0005B384       W?findMIDIByID$:SoundMgr$n(i)pnv
 0001:0005B3B2       W?stop$:SoundMgr$n(i)i
 0001:0005B3FD       W?setPan$:SoundMgr$n(ii)i
 0001:0005B431       W?setVolume$:SoundMgr$n(ii)i
 0001:0005B489       W?setLoopCount$:SoundMgr$n(ii)i
 0001:0005B4DF       W?$ct:SoundResMgr$n()_
 0001:0005B512       W?$dt:SoundResMgr$n()_
 0001:0005B554       W?load$:SoundResMgr$n(pna)pnv
 0001:0005B684       W?unload$:SoundResMgr$n(pnv)v
 0001:0005B6D0       W?KSound$n(pns)v
 0001:0005B908       W?VerifyVerStamp$n()v
 0001:0005B909       W?GetVerStamp$n()i
 0001:0005B914       W?StrReplace$n(pnapnaapna)i
 0001:0005B990       W?KString$n(pns)v
 0001:0005CCDC       W?StrTrim$n(pnaia)pna
 0001:0005CE1C       W?StrTrn$n(pnapnapnapna)i
 0001:0005CEA9       W?StrTrnExclude$n(pnapnapnapna)i
 0001:0005CF24       W?StrResize$n($TextID$$ui)v
 0001:0005CF52       W?Reverse$n(pna)pna
 0001:0005CF7B       W?IsPrintable$n(pna)i
 0001:0005CFAB       W?ToLower$n(uc)uc
 0001:0005CFED       W?MakeVprintfArgs$n(pnapns)pn[1]pna
 0001:0005D30C       W?KTable$n(pns)v
 0001:0005DB24       W?$Wda0210$:TablePtr$n(ui)pnv
 0001:0005DB3C       W?$dt:TablePtr$n()_
 0001:0005DB54       W?$ct:TableNode$n()_
 0001:0005DB68       W?$ct:TextID$n()_
 0001:0005DB72       W?$ct:TextID$n(rnx$MemID$$)_
 0001:0005DB83       W?$ct:TextID$n(us)_
 0001:0005DB8F       W?$aa:TextID$n(pnxa)rn$0$
 0001:0005DC06       W?Add$:TextID$n(a)v
 0001:0005DC30       W?Add$:TextID$n(pnxa)v
 0001:0005DC7A       W?Add$:TextID$n($1$)v
 0001:0005DCFB       W?AddF$:TextID$n(pnxae)v
 0001:0005DD40       W?AddSize$:TextID$n(ui)v
 0001:0005DDC2       W?Lock$:TextID$n()pna
 0001:0005DDD3       W?Snug$:TextID$n()v
 0001:0005DE10       W?SysTime$:TimeMgr$n(i)ui
 0001:0005DEA3       W?KGetTime$n(pns)v
 0001:0005DEDC       W?KWait$n(pns)v
 0001:0005DF38       W?$ct:TimeMgrWin$n()_
 0001:0005DF56       W?$dt:TimeMgrWin$n()_
 0001:0005DF94       W?GetTickCount$:TimeMgrWin$n()ul
 0001:0005DFBA       W?SetTickCount$:TimeMgrWin$n(ul)v
 0001:0005DFD0       W?GetMilliSec$:TimeMgrWin$n()ul
 0001:0005DFDC       W?EnableTimer$:TimeMgrWin$n()v
 0001:0005E02D       W?DisableTimer$:TimeMgrWin$n()v
 0001:0005E067       W?SetCheckTime$:TimeMgrWin$n(ipni)v
 0001:0005E068       W?Reset$:TimeMgr$n()v
 0001:0005E06C       W?GetVocabStr$n(iipna)i
 0001:0005E0DC       W?KWinDLL$n(pns)v
 0001:0005E0E0       W?Get$:ScrollWindowID$n(rn$SOL_Rect$$$SOL_Point$$iusususssi)v
 0001:0005E171       W?Free$:ScrollWindowID$n()v
 0001:0005E1C1       W?$ct:SOL_Window$n(rn$SOL_Rect$$$SOL_Point$$ipnaususussspnausususi)_
 0001:0005E701       W?$ct:SOL_Window$n(rn$SOL_Rect$$$SOL_Point$$ipnausususssi)_
 0001:0005EB83       W?$dt:SOL_Window$n()_
 0001:0005EC92       W?Show$:SOL_Window$n()v
 0001:0005ED8C       W?PageUp$:SOL_Window$n()v
 0001:0005EDED       W?PageDown$:SOL_Window$n()v
 0001:0005EE45       W?Home$:SOL_Window$n()v
 0001:0005EE93       W?End$:SOL_Window$n()v
 0001:0005EEE5       W?UpArrow$:SOL_Window$n()v
 0001:0005F075       W?DownArrow$:SOL_Window$n()v
 0001:0005F20C       W?BackAWord$:SOL_Window$n()i
 0001:0005F2FA       W?ForwardAWord$:SOL_Window$n()i
 0001:0005F3B6       W?ReDrawText$:SOL_Window$n()v
 0001:0005F4D4       W?Hide$:SOL_Window$n()v
 0001:0005F540       W?Move$:SOL_Window$n($SOL_Point$$)v
 0001:0005F5AC       W?ResizeWindow$:SOL_Window$n(rn$SOL_Rect$$)v
 0001:0005F88F       W?SetText$:SOL_Window$n(pnaii)v
 0001:0005FAF8       W?GetLineIndices$:SOL_Window$n()v
 0001:0005FF8A       W?$dt:EventWindow$n()_
 0001:0005FFF1       W?HandleEvent$:EventWindow$n(rn$SOL_Event$$)i
 0001:0006035C       W?Hide$:EventWindow$n()v
 0001:000603CB       W?Move$:EventWindow$n($SOL_Point$$)v
 0001:00060471       W?ResizeWindow$:EventWindow$n(rn$SOL_Rect$$)v
 0001:000604C2       W?Show$:EventWindow$n()v
 0001:00060568       W?$ct:ScrollWindow$n(rn$SOL_Rect$$$SOL_Point$$iusususssi)_
 0001:000606C9       W?$dt:ScrollWindow$n()_
 0001:0006078D       W?Add$:ScrollWindow$n($TextID$$iiii)$2$
 0001:00060A27       W?Delete$:ScrollWindow$n($TextID$$)v
 0001:00060D17       W?Clear$:ScrollWindow$n()v
 0001:00060D93       W?CopyEntries$:ScrollWindow$n()$ScrollEntryID$$
 0001:00060F04       W?Reconstruct$:ScrollWindow$n($ScrollEntryID$$)v
 0001:00060FD5       W?Go$:ScrollWindow$n(ii)v
 0001:0006106C       W?Where$:ScrollWindow$n(i)i
 0001:00061090       W?Insert$:ScrollWindow$n($TextID$$$2$iii)$2$
 0001:000614C1       W?Modify$:ScrollWindow$n($TextID$$$2$iiii)$2$
 0001:00061775       W?Get$:ScrollWindow$n(i)$TextID$$
 0001:000617BF       W?Which$:ScrollWindow$n($TextID$$)i
 0001:00061815       W?DebugWindow$n(pnapnairn$SOL_Point$$ipni)pn$EventWindow$$
 0001:00061B83       W?WaitOnUser$n(pn$EventWindow$$)i
 0001:00061C80       W?KScrollWindow$n(pns)v
 0001:00062FFF       W?CenterXWindow$n(pnapnaiii)pn$EventWindow$$
 0001:00063044       W?PaletteWindow$n()v
 0001:00063461       W?MemoryWindow$n()v
 0001:000637F0       W?$ct:ScrollWindow$n()_
 0001:000638DC       W?$ct:SOL_Window$n()_
 0001:000639C0       W?KWinHelp$n(pns)v
 0001:00063A87       W?KMessageBox$n(pns)v
 0001:00063B4C       W?$ct:MouseWin$n()_
 0001:00063B9A       W?$dt:MouseWin$n()_
 0001:00063BD8       W?GlobalPos$:MouseWinClr$n.x(pn$SOL_Point$$)i
 0001:00063BD8       W?GlobalPos$:MouseWin$n.x(pn$SOL_Point$$)i
 0001:00063BF1       W?GlobalPosSci$:MouseWin$n.x(pn$SOL_Point$$)i
 0001:00063C2A       W?Exists$:MouseWinClr$n.x()i
 0001:00063C2A       W?Exists$:MouseWin$n.x()i
 0001:00063C30       W?SetPos$:MouseWin$n(rnx$SOL_Point$$)v
 0001:00063EA4       W?SetRestrictRect$:MouseWin$n(rnx$SOL_Rect$$)v
 0001:00063EDE       W?ClearRestrictRect$:MouseWin$n()v
 0001:00063F03       W?WinMouseButton$:MouseWin$n(uirnx$SOL_Point$$)v
 0001:00064081       W?$ct:MouseWinClr$n()_
 0001:000640F3       W?$dt:MouseWinClr$n()_
 0001:00064148       W?GlobalPosSci$:MouseWinClr$n.x(pn$SOL_Point$$)i
 0001:000641F0       W?GetSwiftInfo$:MouseWinClr$n.x(pnipnipnipni)i
 0001:00064229       W?SetRestrictRect$:MouseWinClr$n(rnx$SOL_Rect$$)v
 0001:0006435A       W?ClearRestrictRect$:MouseWinClr$n()v
 0001:000643AB       W?Setup$:MouseWinClr$n(rn$SOL_Cursor$$)v
 0001:000643B5       W?SetPos$:MouseWinClr$n(rnx$SOL_Point$$)v
 0001:0006450B       W?IsSwift$:MouseWinClr$n.x()i
 0001:00064511       W?WinMouseButton$:MouseWinClr$n(uirnx$SOL_Point$$)v
 0001:000645D8       W?Setup$:MouseWin$n(rn$SOL_Cursor$$)v
 0001:000645DC       W?SetHotRectangleStatus$:SOL_Mouse$n(i)v
 0001:000645E8       W?Vibrate$:SOL_Mouse$n.x(iii)v
 0001:000645EC       W?IsSwift$:SOL_Mouse$n.x()i
 0001:000645F0       W?GetSwiftInfo$:SOL_Mouse$n.x(pnipnipnipni)i
 0001:00064616       W?InitAudio$:SCIWin$n()v
 0001:00064616       W?InitInterrupts$:SCIWin$n()v
 0001:00064617       W?InitPalette$:SCIWin$n()v
 0001:000646D4       W?InitSound$:SCIWin$n()v
 0001:000646D5       W?MakeConfigMgr$:SCIWin$n(ipnpna)pn$ConfigMgr$$
 0001:0006471C       W?MakeCritErrHandler$:SCIWin$n()pn$CritErrHandler$$
 0001:00064738       W?MakeEventMgr$:SCIWin$n()pn$EventMgr$$
 0001:00064757       W?MakeGraphicsMgr$:SCIWin$n()pn$GraphicsMgr$$
 0001:0006479C       W?MakeMemoryMgr$:SCIWin$n()pn$MemoryMgr$$
 0001:000647C6       W?MakeMouse$:SCIWin$n()pn$SOL_Mouse$$
 0001:00064855       W?MakeMsgMgr$:SCIWin$n()pn$MsgMgr$$
 0001:0006487E       W?MakeTimeMgr$:SCIWin$n()pn$TimeMgr$$
 0001:0006489A       W?MakeErrorMgr$:SCIWin$n()pn$ErrorMgr$$
 0001:0006489D       W?scimain$n(ipnpna)i
 0001:000648C8       W?$dt:SCIWin$n()_
 0001:0006490C       W?$ct:SCIWin$n()_
 0001:00064918       W?crashHandler$n(pn$_EXCEPTION_POINTERS$$)l
 0001:00064B95       _WinMain@16
 0001:00064E7D       W?AsyncEventCheck$n()v
 0001:000651D7       W?ReadCommandLine$n(pna)v
 0001:000652BA       W?GetProfileInfo$n()v
 0001:000656B9       W?GetTFOption$n(pnai)i
 0001:0006570C       W?GetIntOption$n(pnai)i
 0001:000657E8       W?GetNumToken$n(pnaii)i
 0001:00065865       W?GetStrToken$n(pnaipna)i
 0001:000658DA       W?GetScreenInfo$n()v
 0001:00065BE2       W?CheckConfig$n()v
 0001:00065C9A       W?MBox$n(pnapna)v
 0001:00065CCE       W?MBox2$n(pnapna)i
 0001:00065D0D       W?SciDisplay$n(pnaiiiii)v
 0001:00065E07       W?WndProc$n(pnvuiusl)l
 0001:00066328       W?doDialog$n(i)i
 0001:00066356       W?testDlgProc$n(pnvususl)i
 0001:000663C5       W?genericDialogHandler$n(pnvuiuil)i
 0001:00066478       W?InitThunk$n()v
 0001:00066478       W?EndThunk$n()v
 0001:00066479       strlen
 0001:00066492       strcpy
 0001:000664B8       __wcpp_2_undefed_cdtor_
 0001:000664C8       memmove
 0001:0006651A       __wcpp_2_undef_vfun_
 0001:00066540       memset
 0001:00066562       __wcpp_2_pure_error_
 0001:00066588       __wcpp_2_module_dtor_
 0001:0006660F       __wcpp_2_mod_register_
 0001:00066630       strcmp
 0001:000666DC       memcpy
 0001:00066708       __wcpp_2_ctor_array_
 0001:000667F2       qsort
 0001:00066BC8       __wcpp_2_dtor_array_store_
 0001:00066BF4       W?$dan(pnv)v
 0001:00066C04       __wcpp_2_dtor_array_
 0001:00066C75       vsscanf
 0001:00066CB1       sscanf
 0001:00066CD6       _strupr
 0001:00066CE4       strupr
 0001:00066D50       _splitpath
 0001:00066E45       _makepath
 0001:00067064       _access
 0001:00067079       access
 0001:000670A5       printf
 0001:000670C8       __null_int23_exit
 0001:000670C9       exit
 0001:000670E3       _exit
 0001:00067109       strtok
 0001:000671BA       strchr
 0001:000671D4       strcmpi
 0001:000671D4       _stricmp
 0001:000671E9       stricmp
 0001:00067234       W?$nan(ui)pnv
 0001:00067258       sprintf
 0001:000672B0       __wcpp_2_lcl_register_
 0001:000672BD       atoi
 0001:0006732A       strcat
 0001:0006735F       strrchr
 0001:0006737D       _heapwalk
 0001:0006738B       _nheapwalk
 0001:000673B2       __NHeapWalk
 0001:0006744E       _searchenv
 0001:00067559       __open_flags
 0001:0006771F       _fsopen
 0001:00067768       fopen
 0001:000677F4       freopen
 0001:00067878       fgets
 0001:0006790E       fclose
 0001:0006794B       __shutdown_stream
 0001:00067981       __MkTmpFile
 0001:000679F6       __doclose
 0001:00067AC4       W?$nwn(uipnv)pnv
 0001:00067AE0       vsprintf
 0001:00067B07       getcwd
 0001:00067B89       creat
 0001:00067BA0       open
 0001:00067BC2       sopen
 0001:00067D97       read
 0001:00067F70       write
 0001:00068269       close
 0001:000682B7       rename
 0001:000682D6       unlink
 0001:000682EB       _lseek
 0001:00068305       lseek
 0001:00068353       flushall
 0001:0006835E       __flushall
 0001:000683A1       _dos_getdiskfree
 0001:0006841F       _dos_getdrive
 0001:00068453       _dos_setdrive
 0001:00068577       __sigabort
 0001:00068582       __sigfpe_handler
 0001:000685CD       signal
 0001:00068664       raise
 0001:000686F4       __SigInit
 0001:00068721       __SigFini
 0001:0006873F       ___ExceptionFilter
 0001:00068AF6       __NewExceptionHandler
 0001:00068B36       __DoneExceptionHandler
 0001:00068C32       _nheapchk
 0001:00068C32       _heapchk
 0001:00068CE2       labs
 0001:00068CEE       __CHP
 0001:00068D0C       __init_387_emulator
 0001:00068D0D       __fini_387_emulator
 0001:00068D0E       time
 0001:00068D45       malloc
 0001:00068D53       _nmalloc
 0001:00068E54       free
 0001:00068E62       _nfree
 0001:00068EF1       realloc
 0001:00068F06       _nrealloc
 0001:00068F9A       _disable
 0001:00068F9C       outp
 0001:00068FA6       inp
 0001:00068FAE       _enable
 0001:00068FB0       vfprintf
 0001:00068FCA       fprintf
 0001:00068FEF       strncmp
 0001:00069024       abort
 0001:0006902A       __terminate
 0001:0006903D       _strdup
 0001:0006904B       strdup
 0001:00069096       calloc
 0001:000690BB       abs
 0001:000690C6       strstr
 0001:00069191       rand
 0001:000691B4       srand
 0001:000691C4       _strlwr
 0001:000691D2       strlwr
 0001:000691F5       _localtime
 0001:0006924B       localtime
 0001:00069263       strncpy
 0001:00069294       _fullpath
 0001:00069326       _wstart2_
 0001:000693A4       __wcpp_2_fatal_runtime_error_
 0001:000693D0       __STOSB
 0001:00069407       __STOSD
 0001:00069669       __wcpp_2_destruct_internal_
 0001:00069671       __wcpp_2_destruct_all_
 0001:0006967C       __wcpp_2_destruct_after_all_
 0001:00069687       __wcpp_2_destruct_
 0001:0006969C       __wcpp_2_destruct_after_
 0001:000696DE       __wcpp_2_arr_register_
 0001:00069733       __scnf
 0001:0006A43B       __Init_Argv
 0001:0006A610       _mbsnccnt
 0001:0006A654       _mbsnbcnt
 0001:0006A691       _mbsninc
 0001:0006A6BB       __mbsninc
 0001:0006A708       _mbscat
 0001:0006A75A       _mbscpy
 0001:0006A779       _mbsdup
 0001:0006A7C6       _mbsncat
 0001:0006A838       _mbsnbcat
 0001:0006A92B       _mbsncpy
 0001:0006A953       _mbsnbcpy
 0001:0006AA08       _mbptov
 0001:0006AA47       _mbvtop
 0001:0006AA65       __mbvtop
 0001:0006AAC9       _mbgetcode
 0001:0006AB3A       _mbsnextc
 0001:0006AB8D       _mbsinc
 0001:0006ABD4       _mbsdec
 0001:0006AC60       _dosret0
 0001:0006AC7A       _dosretax
 0001:0006AC97       __set_errno_dos
 0001:0006ACE9       __set_errno_nt
 0001:0006AD18       __fprtf
 0001:0006ADC5       __threadid
 0001:0006ADF3       __NTInit
 0001:0006AF47       __NTMainInit
 0001:0006AF8E       __exit
 0001:0006AFAE       __setbits
 0001:0006AFEF       __prtf
 0001:0006BC96       getenv
 0001:0006BCF8       __set_EDOM
 0001:0006BD03       __set_ERANGE
 0001:0006BD07       __set_EINVAL
 0001:0006BD17       __set_errno
 0001:0006BD25       __set_doserrno
 0001:0006BD33       _tolower
 0001:0006BD41       tolower
 0001:0006BD53       __allocfp
 0001:0006BE08       __freefp
 0001:0006BE3F       __purgefp
 0001:0006BEA4       fseek
 0001:0006C02A       __chktty
 0001:0006C05E       fgetc
 0001:0006C109       __filbuf
 0001:0006C138       __fill_buffer
 0001:0006C1F3       getpid
 0001:0006C1F8       __flush
 0001:0006C2F2       ftell
 0001:0006C356       __close
 0001:0006C3DC       remove
 0001:0006C3EA       __NTAtMaxFiles
 0001:0006C42B       __NTAddFileHandle
 0001:0006C4B0       __NTAddSpecificFileHandle
 0001:0006C557       __NTRemoveFileHandle
 0001:0006C583       __NTInitFileHandles
 0001:0006C5C2       __NTGetFakeHandle
 0001:0006C5D2       __GetNTCreateAttr
 0001:0006C610       __GetNTAccessAttr
 0001:0006C64B       __GetNTShareAttr
 0001:0006C682       isatty
 0001:0006C6C9       __IOMode
 0001:0006C71F       __SetIOMode
 0001:0006C735       stackavail
 0001:0006C765       __CHK
 0001:0006C775       __STK
 0001:0006C794       __STKOVERFLOW
 0001:0006C7A1       __GRO
 0001:0006C7C1       _control87
 0001:0006C828       __init_8087
 0001:0006C857       _fpreset
 0001:0006C861       __chk8087
 0001:0006C8AB       __NTRealKey
 0001:0006C945       __NTConsoleInput
 0001:0006C950       __NTConsoleOutput
 0001:0006C95B       __setEFGfmt
 0001:0006C975       __getctime
 0001:0006C9D8       mktime
 0001:0006CB30       __MemAllocator
 0001:0006CBD8       __MemFree
 0001:0006CDEE       __ExpandDGROUP
 0001:0006CE48       __nmemneed
 0001:0006CE4B       _msize
 0001:0006CE4B       _nmsize
 0001:0006CE58       _expand
 0001:0006CE6D       __HeapManager_expand
 0001:0006D018       _nexpand
 0001:0006D062       __exit_with_msg
 0001:0006D09D       __fatal_runtime_error
 0001:0006D0CB       __CacheOSTZ
 0001:0006D20F       tzset
 0001:0006D4A0       __parse_tz
 0001:0006D5AE       __brktime
 0001:0006D6EE       _gmtime
 0001:0006D711       gmtime
 0001:0006D729       __leapyear
 0001:0006D89B       __isindst
 0001:0006DBA9       __WinMain
 0001:0006DCA4       __EnterWVIDEO
 0001:0006DCD0       __wcpp_2_stab_entry_
 0001:0006DD04       __wcpp_2_stab_trav_init_
 0001:0006DD32       __wcpp_2_stab_trav_comp_
 0001:0006DD3B       __wcpp_2_stab_trav_next_
 0001:0006DDC9       __wcpp_2_stab_trav_move_
 0001:0006DE88       __wcpp_2_corrupted_stack_
 0001:0006E21D       __wcpp_2_catch_done_
 0001:0006E4B7       __wcpp_2_dispatchable_
 0001:0006E518       __wcpp_2_save_exc_
 0001:0006E5A4       __wcpp_2_dispatch_
 0001:0006E6DB       __wcpp_2_rethrow_
 0001:0006E6E3       __wcpp_2_throw_
 0001:0006E6F6       __wcpp_2_throw_zero_
 0001:0006E83C       __wcpp_2_ts_size_
 0001:0006E87C       __wcpp_2_base_register_
 0001:0006E8A1       __wcpp_2_base_deregister_
 0001:0006E8BE       __FDFS
 0001:0006E90A       strncat
 0001:0006E951       fputc
 0001:0006EA4D       __ioalloc
 0001:0006EACE       __CloseSemaphore
 0001:0006EAF8       __AccessSemaphore
 0001:0006EB5B       __ReleaseSemaphore
 0001:0006EB80       __AccessIOB
 0001:0006EB8E       __ReleaseIOB
 0001:0006EB9C       __AccessFileH
 0001:0006EBAE       __ReleaseFileH
 0001:0006EBC0       __InitAccessH
 0001:0006EBCE       __FiniAccessH
 0001:0006EBF4       __AccessNHeap
 0001:0006EBFB       __ReleaseNHeap
 0001:0006EC02       __AccessFHeap
 0001:0006EC0C       __ReleaseFHeap
 0001:0006EC13       __AccessTDList
 0001:0006EC1D       __ReleaseTDList
 0001:0006EC27       __AccessFList
 0001:0006EC31       __ReleaseFList
 0001:0006EC3B       __MultipleThread
 0001:0006EC57       __InitThreadData
 0001:0006EC95       __NTThreadInit
 0001:0006ECDD       __NTAddThread
 0001:0006ED34       __NTRemoveThread
 0001:0006ED8C       __NTThreadFini
 0001:0006EDA8       __InitMultipleThread
 0001:0006EF44       __InitRtns
 0001:0006EF8F       __FiniRtns
 0001:0006F003       utoa
 0001:0006F055       _itoa
 0001:0006F06F       itoa
 0001:0006F0C9       ultoa
 0001:0006F119       ltoa
 0001:0006F14E       _ltoa
 0001:0006F168       _toupper
 0001:0006F176       toupper
 0001:0006F188       _strnicmp
 0001:0006F1A2       strnicmp
 0001:0006F1FD       tell
 0001:0006F23F       __InitFiles
 0001:0006F2B4       __full_io_exit
 0001:0006F2C3       fcloseall
 0001:0006F32E       getche
 0001:0006F354       __qread
 0001:0006F3F1       __qwrite
 0001:0006F4BE       fflush
 0001:0006F4DA       __init_80x87
 0001:0006F501       _EFG_Format
 0001:0006F65D       __cnvs2d
 0001:0006F689       _heapenable
 0001:0006F6A9       _heapmin
 0001:0006F6A9       _heapshrink
 0001:0006F6A9       _nheapshrink
 0001:0006F6A9       _nheapmin
 0001:0006F776       __RegisterThreadDataSize
 0001:0006F788       __CommonInit
 0001:0006F794       __wcpp_2_bit_test_
 0001:0006F7B4       __wcpp_2_call_terminate_
 0001:0006F7C9       __wcpp_2_ts_equiv_
 0001:0006F828       __wcpp_2_call_unexpected_
 0001:0006F82E       _setjmp
 0001:0006F86D       longjmp
 0001:0006F918       __wcpp_2_alloc_exc_
 0001:0006FA5E       __wcpp_2_free_exc_
 0001:0006FA8D       __wcpp_2_pop_exc_
 0001:0006FA9C       __wcpp_2_push_exc_
 0001:0006FAB2       __GetThreadData
 0001:0006FAE7       __AddThreadData
 0001:0006FB53       __RemoveThreadData
 0001:0006FBA5       __FreeThreadDataList
 0001:0006FBD3       __FiniThreadProcessing
 0001:0006FBD8       __setenvp
 0001:0006FDAD       getch
 0001:0006FE30       putch
 0001:0006FE94       _SetMaxPrec
 0001:0007002A       _FtoS
 0001:000702A4       strtod
 0001:000704C4       W?terminate$n()v
 0001:00070508       W?unexpected$n()v
 0001:0007053B       _beginthread
 0001:0007055D       _endthread
 0001:00070564       __initthread
 0001:00070573       __RegisterThreadData
 0001:000705BE       __Nan_Inf
 0001:00070650       IF@DLOG
 0001:00070650       IF@LOG
 0001:0007069C       IF@LOG2
 0001:0007069C       IF@DLOG2
 0001:000706A0       IF@LOG10
 0001:000706A0       IF@DLOG10
 0001:000706A4       log
 0001:000706B7       log10
 0001:000706CA       log2
 0001:000706DD       floor
 0001:00070722       _Scale
 0001:0007077A       _Scale10V
 0001:000708A6       __cvt
 0001:00070AA6       __ModF
 0001:00070B36       __ZBuf2F
 0001:00070C87       __CBeginThread
 0001:00070D67       __CEndThread
 0001:00070D8D       __log87_err
 0001:00070DE6       modf
 0001:00070E06       __CmpBigInt
 0001:00070E40       __Rnd2Int
 0001:00070EAB       __Bin2String
 0001:000710E3       __fdiv_fpr
 0001:000715A5       __fdiv_chk
 0001:000715B8       __fdiv_m32
 0001:00071604       __fdiv_m64
 0001:00071650       __fdiv_m32r
 0001:0007169C       __fdiv_m64r
 0001:000716E8       frexp
 0001:00071763       __math1err
 0001:00071796       __math2err
 0001:00071894       verify_pentium_fdiv_bug
 0001:000718E9       _set_matherr
 0001:000718F3       __rterrmsg
 0001:00071940       _matherr
 0001:00071994       __matherr
 0001:00071999       __get_std_stream
 0001:000719B9       fputs
 0001:00071A63       matherr
 0001:00071AC7       Initcompress
 0001:00071B60       Compress
 0001:000726C6       Decompress
 0002:00000000       __nullarea
 0002:00009AC4       W?$Wts09n$Array$$$nx[]uc
 0002:00009AD8       W?$Wvf0doc:BufferStd$$nx[]pn()v
 0002:00009AE4       W?$Wvf0aoc:Buffer$$nx[]pn()v
 0002:00009AF0       W?$Wvf0doc:BufferWin$$nx[]pn()v
 0002:00009B10       W?$Wts0dn$DebugMenu$$$nx[]uc
 0002:00009B24       W?$Wvf0ko4:OpcodeBreakpoint$$nx[]pn()v
 0002:00009B34       W?$Wvf0so4:StepOverSourceBreakpoint$$nx[]pn()v
 0002:00009B44       W?$Wvf0no4:PMIPStackBreakpoint$$nx[]pn()v
 0002:00009B54       W?$Wvf0ko4:ScriptBreakpoint$$nx[]pn()v
 0002:00009B64       W?$Wvf0ko4:MethodBreakpoint$$nx[]pn()v
 0002:00009B74       W?$Wvf0ko4:MemoryBreakpoint$$nx[]pn()v
 0002:00009B84       W?$Wvf0mo4:PropertyBreakpoint$$nx[]pn()v
 0002:00009B94       W?$Wvf0ko4:KernelBreakpoint$$nx[]pn()v
 0002:00009BB0       W?$Wts14n$CelObjArrayItem$:CelObjArray$:CelObj$$$nx[]uc
 0002:00009BC4       W?$Wts0en$CelObjView$$$nx[]uc
 0002:00009BD8       W?$Wts0dn$CelObjMem$$$nx[]uc
 0002:00009BEC       W?$Wts0dn$CelObjPic$$$nx[]uc
 0002:00009C00       W?$Wts0fn$CelObjColor$$$nx[]uc
 0002:00009C14       W?$Wts09n$Ratio$$$nx[]uc
 0002:00009C28       W?$Wts0nn$CelObjArray$:CelObj$$$nx[]uc
 0002:00009C3C       W?$Wvf0eo2e:CelObjPic$$nx[]pn()v
 0002:00009C54       W?$Wvf0go2e:CelObjColor$$nx[]pn()v
 0002:00009C6C       W?$Wvf0eo2e:CelObjMem$$nx[]pn()v
 0002:00009C84       W?$Wvf0fo2e:CelObjView$$nx[]pn()v
 0002:00009C9C       W?$Wvf0bo2e:CelObj$$nx[]pn()v
 0002:00009CC0       W?$Wts0fn$ConfigEntry$$$nx[]uc
 0002:00009CD4       W?$Wts0hnpn$ConfigEntry$$$nx[]uc
 0002:00009CD8       W?$Wts0in$CritErrHandler$$$nx[]uc
 0002:00009CEC       W?$Wvf0io8:CritErrHandler$$nx[]pn()v
 0002:00009CF0       W?$Wts0ln$CritErrHandlerWin$$$nx[]uc
 0002:00009D04       W?$Wvf0lo8:CritErrHandlerWin$$nx[]pn()v
 0002:00009D08       W?$Wts0gn$CursorWinClr$$$nx[]uc
 0002:00009D1C       W?$Wts09n$Rgb24$$$nx[]uc
 0002:00009D30       W?$Wts0dn$CursorWin$$$nx[]uc
 0002:00009D44       W?$Wvf0go0:CursorWinClr$$nx[]pn()v
 0002:00009D80       W?$Wvf0do0:CursorWin$$nx[]pn()v
 0002:00009DF8       W?$Wvf0dog:DebugMenu$$nx[]pn()v
 0002:00009DFC       W?$Wvf0go51:EventWindow$$nx[]pn()v
 0002:00009E34       W?$Wts0dn$EditClass$$$nx[]uc
 0002:00009E48       W?$Wts0cn$SOL_List$$$nx[]uc
 0002:00009E5C       W?$Wvf0eo4k:EditClass$$nx[]pn()v
 0002:00009E64       W?$Wts0cn$EventMgr$$$nx[]uc
 0002:00009E78       W?$Wts0dn$SOL_Event$$$nx[]uc
 0002:00009E8C       W?$Wvf0doks:EventMgr$$nx[]pn()v
 0002:00009EBC       W?$Wts0dn$KbdMgrWin$$$nx[]uc
 0002:00009ED0       W?$Wts0fn$EventMgrWin$$$nx[]uc
 0002:00009EE4       W?$Wvf0ao0:KbdWin$$nx[]pn()v
 0002:00009EF4       W?$Wvf0do0:KbdMgrWin$$nx[]pn()v
 0002:00009F04       W?$Wvf0goks:EventMgrWin$$nx[]pn()v
 0002:00009F34       W?$Wts0en$ScreenItem$$$nx[]uc
 0002:00009F48       W?$Wvf0ho4l5:GraphicsMgr$$nx[]pn()v
 0002:00009FA0       W?$Wts0in$GraphicsMgrWin$$$nx[]uc
 0002:00009FB4       W?$Wts0in$PaletteMgrTWin$$$nx[]uc
 0002:00009FC8       W?$Wts0in$PaletteMgrIWin$$$nx[]uc
 0002:00009FDC       W?$Wvf0ko4l5:GraphicsMgrWin$$nx[]pn()v
 0002:0000A034       W?$Wvf0io0:PaletteMgrTWin$$nx[]pn()v
 0002:0000A0B8       W?$Wvf0io0:PaletteMgrIWin$$nx[]pn()v
 0002:0000A13C       W?$Wvf0io0:PaletteMgrTrue$$nx[]pn()v
 0002:0000A1C0       W?$Wvf0eo19:MemoryMgr$$nx[]pn()v
 0002:0000A1D8       W?$Wts0gn$MemoryMgrWin$$$nx[]uc
 0002:0000A1EC       W?$Wvf0ho19:MemoryMgrWin$$nx[]pn()v
 0002:0000A204       W?$Wts0en$MsgStackID$$$nx[]uc
 0002:0000A218       W?$Wvf0co46a:MsgMgr$$nx[]pn()v
 0002:0000A230       W?$Wvf0fo46a:MsgMgrWin$$nx[]pn()v
 0002:0000A248       W?$Wts0en$PackedData$$$nx[]uc
 0002:0000A25C       W?$Wvf0eo4:PackedData$$nx[]pn()v
 0002:0000A260       W?$Wts0an$Rgb24F$$$nx[]uc
 0002:0000A278       W?$Wvf0jo0:PaletteMgrIndex$$nx[]pn()v
 0002:0000A2FC       W?$Wts0cn$RectList$$$nx[]uc
 0002:0000A310       W?$Wts0cn$SOL_Rect$$$nx[]uc
 0002:0000A324       W?$Wts0dn$SCI_Point$$$nx[]uc
 0002:0000A338       W?$Wts0en$PolyPatchF$$$nx[]uc
 0002:0000A34C       W?$Wts0an$FPoint$$$nx[]uc
 0002:0000A360       W?$Wts09n$Remap$$$nx[]uc
 0002:0000A374       W?$Wvf0ao15:Remap$$nx[]pn()v
 0002:0000A378       W?$Wts0bn$ResMaps$$$nx[]uc
 0002:0000A38C       W?$Wts0fn$ResourceMgr$$$nx[]uc
 0002:0000A3A0       W?$Wvf0fo0:ResourceMgr$$nx[]pn()v
 0002:0000A410       W?$Wvf0bo8g:ResVMD$$nx[]pn()v
 0002:0000A464       W?$Wvf0do8g:ResRobot$$nx[]pn()v
 0002:0000A4B8       W?$Wvf0mo8g:ResMsgTranslation$$nx[]pn()v
 0002:0000A50C       W?$Wvf0bo8g:ResMap$$nx[]pn()v
 0002:0000A560       W?$Wvf0eo8g:ResSync36$$nx[]pn()v
 0002:0000A5B4       W?$Wvf0co8g:ResSync$$nx[]pn()v
 0002:0000A608       W?$Wvf0fo8g:ResAudio36$$nx[]pn()v
 0002:0000A65C       W?$Wvf0co8g:ResWave$$nx[]pn()v
 0002:0000A6B0       W?$Wvf0do8g:ResAudio$$nx[]pn()v
 0002:0000A704       W?$Wvf0bo8g:ResMsg$$nx[]pn()v
 0002:0000A758       W?$Wvf0co8g:ResHeap$$nx[]pn()v
 0002:0000A7AC       W?$Wvf0bo8g:ResPal$$nx[]pn()v
 0002:0000A800       W?$Wvf0co8g:ResFont$$nx[]pn()v
 0002:0000A854       W?$Wvf0do8g:ResPatch$$nx[]pn()v
 0002:0000A8A8       W?$Wvf0do8g:ResVocab$$nx[]pn()v
 0002:0000A8FC       W?$Wvf0do8g:ResSound$$nx[]pn()v
 0002:0000A950       W?$Wvf0eo8g:ResScript$$nx[]pn()v
 0002:0000A9A4       W?$Wvf0do8g:ResChunk$$nx[]pn()v
 0002:0000A9F8       W?$Wvf0bo8g:ResPic$$nx[]pn()v
 0002:0000AA4C       W?$Wvf0co8g:ResView$$nx[]pn()v
 0002:0000AAA0       W?$Wvf0go8g:SOL_ResType$$nx[]pn()v
 0002:0000AAF4       W?$Wvf07o0:SCI$$nx[]pn()v
 0002:0000AB44       W?$Wts0an$Entrys$$$nx[]uc
 0002:0000AB58       W?$Wvf0log:DispatchesIDEntry$$nx[]pn()v
 0002:0000AB5C       W?$Wvf0fog:CodeIDEntry$$nx[]pn()v
 0002:0000AB60       W?$Wvf0kog:VariablesIDEntry$$nx[]pn()v
 0002:0000AB64       W?$Wvf0hog:StringIDEntry$$nx[]pn()v
 0002:0000AB68       W?$Wvf0hog:ObjectIDEntry$$nx[]pn()v
 0002:0000AB6C       W?$Wvf09og:Entry$$nx[]pn()v
 0002:0000AB70       W?$Wts0kn$Entry$:SendStack$$$nx[]uc
 0002:0000AB84       W?$Wvf0io0:SendStackDebug$$nx[]pn()v
 0002:0000ABA4       W?$Wts0fn$SoundResMgr$$$nx[]uc
 0002:0000ABB8       W?$Wts0cn$SoundMgr$$$nx[]uc
 0002:0000ABCC       W?$Wvf0ho7eb:SoundResMgr$$nx[]pn()v
 0002:0000ABD0       W?$Wvf0eoe42:SoundMgr$$nx[]pn()v
 0002:0000ABE0       W?$Wts0cn$TablePtr$$$nx[]uc
 0002:0000ABF4       W?$Wts0dn$TableNode$$$nx[]uc
 0002:0000AC08       W?$Wts0enpn$TablePtr$$$nx[]uc
 0002:0000AC0C       W?$Wts0en$TimeMgrWin$$$nx[]uc
 0002:0000AC20       W?$Wvf0eo0:TimeMgrWin$$nx[]pn()v
 0002:0000AC34       W?$Wts0gn$ScrollWindow$$$nx[]uc
 0002:0000AC48       W?$Wts0fn$EventWindow$$$nx[]uc
 0002:0000AC5C       W?$Wts0en$SOL_Window$$$nx[]uc
 0002:0000AC70       W?$Wvf0ho51:ScrollWindow$$nx[]pn()v
 0002:0000ACA8       W?$Wvf0fo51:SOL_Window$$nx[]pn()v
 0002:0000ACE0       W?$Wts0fn$MouseWinClr$$$nx[]uc
 0002:0000ACF4       W?$Wts0cn$MouseWin$$$nx[]uc
 0002:0000AD08       W?$Wvf0fo0:MouseWinClr$$nx[]pn()v
 0002:0000AD40       W?$Wvf0co0:MouseWin$$nx[]pn()v
 0002:0000AD84       W?$Wts0an$SCIWin$$$nx[]uc
 0002:0000AD98       W?$Wvf0ao0:SCIWin$$nx[]pn()v
 0002:0000ADE8       _IsTable
 0002:0000AEF4       _Bits
 0002:0000AEFC       __diyr
 0002:0000AF16       __dilyr
 0002:0000AF50       _HugeValue
 0002:0000AF58       _BigPow10Table
 0002:0000AFC4       W?ArrayElementSize$n[]i
 0002:0000AFE8       colorptr
 0002:0000AFEC       destptr
 0002:0000AFF0       scaleptr
 0002:0000AFF4       beginindex
 0002:0000AFF8       controlptr
 0002:0000AFFC       pixelcount
 0002:0000B004       skipval
 0002:0000B018       W?timeStamp$:CelObj$nl
 0002:0000B448       W?fHandle$npnv
 0002:0000B44C       W?xRes$:FontMgr$ni
 0002:0000B450       W?yRes$:FontMgr$ni
 0002:0000B454       W?systemFont$nus
 0002:0000B458       W?sciSystemFont$n[]uc
 0002:0000B91C       W?makeDate$n[]a
 0002:0000B928       W?makeTime$n[]a
 0002:0000B931       W?maker$n[]a
 0002:0000B932       W?makeLocation$n[]a
 0002:0000B934       W?version$n[]a
 0002:0000B93E       W?makeComment$n[]a
 0002:0000B940       W?nIntegrityMasks$ni
 0002:0000B944       W?checkIntegrity$ni
 0002:0000B984       W?kListSubFuncs$n[]$KernelSubFunc$$
 0002:0000BA44       kernelCalls
 0002:0000C1AC       W?kernelMax$ni
 0002:0000C220       W?firstGuess$n[]us
 0002:0000C260       W?gPurgeThreshold$ni
 0002:0000C264       W?descs$:MemTypes$n[]$MemTypeDesc$$
 0002:0000CF78       W?inRect$:SOL_Mouse$ni
 0002:0000CF80       W?netSocket$nui
 0002:0000CF84       W?netUID$ni
 0002:0000CF90       W?maxRooms$ni
 0002:0000CF94       W?gamma$n[][256]xa
 0002:0000D398       W?paletteUpdated$ni
 0002:0000D7A0       W?gPlaneFatalStr$npna
 0002:0000D7A4       W?nextId$:SOL_Plane$nl
 0002:0000E3A8       pm
 0002:000139AC       pmFoundObj
 0002:000139B0       _descPtrTable
 0002:00033968       _descTablePtr
 0002:0003497C       pmStackPtr
 0002:00034980       pmStackTop
 0002:00034984       W?gCheckPlaneEdge$ni
 0002:00034988       W?REMAP_END_COLOR$ni
 0002:0003498C       W?REMAP_START_COLOR$ni
 0002:00034990       W?END_COLOR$ni
 0002:00034998       W?maxOpenVolumes$ni
 0002:0003499C       W?fd$:SOL_ResType$ni
 0002:000349A0       W?palMorphArray$n[]a
 0002:00034AA0       W?randMask$n[]l
 0002:00034AF0       W?showStyleDivisions$n[]i
 0002:00034B30       W?showStyleForms$n[]i
 0002:00034B70       W?nextId$:ScreenItem$nl
 0002:00034B80       W?gSoundDir$n[]a
 0002:00034C00       W?mapStamp$ni
 0002:00034C04       W?interpStamp$n$__37823dinterpStamp$$
 0002:00034C10       W?lProfaneTable$n[]pna
 0002:00034CE4       W?gItemNames$n[]$__3uaijritem_t$$
 0002:00035584       W?useMouse$:MouseWinClr$ni
 0002:00035598       W?modSciwin$n[]a
 0002:000355A0       W?asyncCheckFreq$ni
 0002:000355A4       W?CONFIRMDAC$ni
 0002:000355A8       W?USEAUDIO$ni
 0002:000355AC       W?USEMIDI$ni
 0002:000355B0       W?DOPPCTEST$ni
 0002:000355B4       W?TITLEBAR$ni
 0002:000355B8       W?ALLOWRESIZE$ni
 0002:000355BC       W?ALLOWTRUECOLOR$ni
 0002:000355C0       W?TRAPCLOSE$ni
 0002:000355C4       W?haveFocus$ni
 0002:000355C8       W?firstPause$ni
 0002:000355CC       W?directX$ni
 0002:000355D0       W?gDoit$ni
 0002:000355D4       W?szInfo$n[]a
 0002:000355DC       W?szResPath$n[]a
 0002:00035678       W?szWinsock$n[]a
 0002:000356C8       W?szWinPatchDir$n[]a
 0002:000356FC       W?borderPixels$ni
 0002:0003570C       _argc
 0002:0003570C       __argc
 0002:00035710       __argv
 0002:00035710       _argv
 0002:00035714       __atexit
 0002:00035718       __int23_exit
 0002:0003571C       __FPE_handler_exit
 0002:0003572C       __iob
 0002:00035934       __tmpfnext
 0002:00035935       _fmode
 0002:00035940       SignalTable
 0002:000359AC       __8087
 0002:000359AD       __real87
 0002:000359B0       __nheapbeg
 0002:000359B4       __MiniHeapRover
 0002:000359B8       __LargestSizeB4MiniHeapRover
 0002:000359BC       __abort
 0002:000359C0       _wint_pure_error_flag
 0002:000359C2       _wint_undef_vfun_flag
 0002:000359C4       _wint_module_init
 0002:000359D4       __IsDBCS
 0002:000359D8       __MBCSIsTable
 0002:00035AF0       _WindowsIsWindowedHandle
 0002:00035AF4       _WindowsRemoveWindowedHandle
 0002:00035AF8       _WindowsNewWindow
 0002:00035AFC       _WindowsCloseWindow
 0002:00035B00       _WindowsSetAbout
 0002:00035B04       _WindowsSetAppTitle
 0002:00035B08       _WindowsSetConTitle
 0002:00035B0C       _WindowsDestroyOnClose
 0002:00035B10       _WindowsYieldControl
 0002:00035B14       _WindowsShutDown
 0002:00035B18       _WindowsStdin
 0002:00035B1C       _WindowsStdout
 0002:00035B20       _WindowsKbhit
 0002:00035B24       _WindowsGetch
 0002:00035B28       _WindowsGetche
 0002:00035B2C       _WindowsPutch
 0002:00035B30       _WindowExitRtn
 0002:00035B34       __TlsIndex
 0002:00035B38       __GetThreadPtr
 0002:00035B3C       _AccessFileH
 0002:00035B40       _ReleaseFileH
 0002:00035B44       _InitAccessH
 0002:00035B48       _FiniAccessH
 0002:00035B4C       _AccessIOB
 0002:00035B50       _ReleaseIOB
 0002:00035B54       _AccessNHeap
 0002:00035B58       _AccessFHeap
 0002:00035B5C       _ReleaseNHeap
 0002:00035B60       _ReleaseFHeap
 0002:00035B64       _AccessTDList
 0002:00035B68       _ReleaseTDList
 0002:00035B6C       _AccessFList
 0002:00035B70       _ReleaseFList
 0002:00035B74       _ThreadExitRtn
 0002:00035B78       __sig_init_rtn
 0002:00035B7C       __sig_fini_rtn
 0002:00035B84       __umaskval
 0002:00035B88       __NFiles
 0002:00035B8C       __init_mode
 0002:00035BDC       _iomode
 0002:00035BFC       _dynend
 0002:00035C00       _curbrk
 0002:00035C04       _LpCmdLine
 0002:00035C08       _LpPgmName
 0002:00035C0C       _LpDllName
 0002:00035C10       _psp
 0002:00035C14       __x386_stacklow
 0002:00035C14       _STACKLOW
 0002:00035C18       _STACKTOP
 0002:00035C1C       __ASTACKSIZ
 0002:00035C20       __ASTACKPTR
 0002:00035C24       _cbyte
 0002:00035C28       _cbyte2
 0002:00035C2C       _child
 0002:00035C30       __no87
 0002:00035C32       _Extender
 0002:00035C33       _ExtenderSubtype
 0002:00035C34       __X32VM
 0002:00035C35       _Envptr
 0002:00035C39       _Envseg
 0002:00035C3B       _osmajor
 0002:00035C3C       _osminor
 0002:00035C3D       _osbuild
 0002:00035C3F       ___FPE_handler
 0002:00035C3F       __FPE_handler
 0002:00035C44       __start_dst
 0002:00035C68       __end_dst
 0002:00035C8C       timezone
 0002:00035C90       __dst_adjust
 0002:00035C94       daylight
 0002:00035CD6       tzname
 0002:00035CE4       __WD_Present
 0002:00035CE8       __EFG_printf
 0002:00035CEC       __EFG_scanf
 0002:00035CF0       __AccessSema4
 0002:00035CF4       __ReleaseSema4
 0002:00035CF8       __CloseSema4
 0002:00035CFC       environ
 0002:00035D00       __env_mask
 0002:00035D04       __Save8087
 0002:00035D08       __Rest8087
 0002:00035D0C       __8087cw
 0002:00035D10       __heap_enabled
 0002:00035D14       _amblksiz
 0002:00035D18       __ThreadDataSize
 0002:00035D24       __longjmp_handler
 0002:00035D30       __EXC_AREA
 0002:00036D3C       ___chipbug
 0002:00036D3C       __chipbug
 0002:00036D9C       _RWD_matherr
 0002:00036E0C       W?__wcpp_2_data_stab_init_mod_$jl02XI$rt_init$$
 0002:00036E18       W?__wcpp_2_data_stab_init_lcl_$jl02XI$rt_init$$
 0002:00036E30       W?__wcpp_2_data_stab_init_arr_$jl02XI$rt_init$$
 0002:00036E48       ___wcpp_2_data_init_longjmp_
 0002:00036E60       ___wcpp_2_data_module_dtor_ref_
 0002:00036E72       __AccessSema4Fini
 0002:00037010       W?hotkeyRequest$ni
 0002:00037014       W?gArgc$ni
 0002:00037018       W?gArgv$npnpna
 0002:0003701C       W?breakpoints$n$Breakpoints$$
 0002:00037218       W?breakpointMenu$n$DebugMenu$$
 0002:0003727C       W?buf$:ScriptBreakpoint$n[]a
 0002:000372A0       W?buf$:MethodBreakpoint$n[]a
 0002:000372E8       W?buf$:MemoryBreakpoint$n[]a
 0002:00037314       W?buf$:PropertyBreakpoint$n[]a
 0002:00037348       W?buf$:KernelBreakpoint$n[]a
 0002:0004738C       W?scaleX1$:CelObj$n[]i
 0002:0004B38C       W?scaleY1$:CelObj$n[]i
 0002:0004F38C       W?scaleX$:CelObj$npni
 0002:0004F390       W?scaleY$:CelObj$npni
 0002:0004F394       W?line$:CelObj$n[]uc
 0002:00050394       W?array$:CelObj$n$CelObjArray$:1$
 0002:000506B4       W?gLoadedView$ni
 0002:000506B8       W?maskTable$n[]uc
 0002:000508AC       W?configMgr$npn$ConfigMgr$$
 0002:00050E98       W?critErrHandler$npn$CritErrHandler$$
 0002:00050E9C       W?buffAND$n[]uc
 0002:00050F1C       W?buffXOR$n[]uc
 0002:00050FA0       W?cursorBuffAddr$npnuc
 0002:00050FA4       W?winCurBuff$npnuc
 0002:0005120C       debuggerIsOn
 0002:00051210       W?debuggerWasOn$ni
 0002:00051214       W?kernelCallHistory$n[]i
 0002:00051534       W?kernelCallOldest$ni
 0002:00051538       W?kernelCallNewest$ni
 0002:0005153C       W?kernelCallIntegChecks$ni
 0002:00051540       W?singleStep$ni
 0002:0005E810       W?debugger$npn$SCIDebugger$$
 0002:0005EBAC       W?debugWindow$npn$EventWindow$$
 0002:0005EBB0       W?sourceWindow$npn$SOL_Window$$
 0002:0005EBB8       W?debugMenus$n$DebugMenus$$
 0002:0005EBE8       W?gDialogList$n$SOL_List$$
 0002:0005ED14       W?wfd$n$_WIN32_FIND_DATAA$$
 0002:0005EE54       W?eventMgr$npn$EventMgr$$
 0002:0005EE58       W?gFontTable$n[]pnv
 0002:00068A98       W?fontMgr$npn$FontMgr$$
 0002:00068AA0       W?graphMgr$npn$GraphicsMgr$$
 0002:00068AA4       W?drawLists$n[]pn$DrawList$$
 0002:00068C34       W?eraseLists$n[]pn$RectList$$
 0002:00068DC4       W?bmiHdr$n$BMI$$
 0002:000691EC       W?colorUse$nui
 0002:000691F0       W?widthMod4$nul
 0002:00069234       W?checkIntegrityRequest$ni
 0002:00069238       W?kbdMgr$npn$KbdMgr$$
 0002:00069244       W?mathMgr$n$MathMgr$$
 0002:00069248       W?gCheckHeap$ni
 0002:0006924C       W?signatureTripped$ni
 0002:00069250       W?gBufferOverflow$ni
 0002:00069254       W?_descList$ni
 0002:00069258       W?_descListEnd$ni
 0002:0006925C       W?_descCount$ni
 0002:00069260       W?gAllocSize$ni
 0002:00069264       W?gHandleCount$ni
 0002:00069268       W?gPurgeList$n$SOL_List$$
 0002:00069270       W?gViewList$n$SOL_List$$
 0002:00069278       W?gPurgeSize$ni
 0002:0006927C       memMgr
 0002:00069284       W?frees$npna
 0002:00069288       W?useds$npna
 0002:0006928C       W?ords$npna
 0002:00069290       W?listError$n[]a
 0002:000692F4       W?BMSize$nui
 0002:000692F8       W?memPerIndex$nui
 0002:000692FC       W?lowHighMemory$npna
 0002:00069300       W?highLowMemory$npna
 0002:00069408       W?messageMgr$n$MessageMgr$$
 0002:0006940C       W?mouse$npn$SOL_Mouse$$
 0002:00069438       W?hotOn$:SOL_Mouse$ni
 0002:0006943C       W?hotRectangleCount$:SOL_Mouse$ni
 0002:00069440       W?hotRectangles$:SOL_Mouse$npn$SCI_Rect$$
 0002:00069584       W?msgMgr$npn$MsgMgr$$
 0002:000695A4       W?maxSID$nui
 0002:000695A8       W?SIDTable$npnul
 0002:000695AC       W?fileSet$n$fd_set$$
 0002:000696B0       W?delayTime$n$timeval$$
 0002:000696B8       W?netAddress$n$sockaddr_in$$
 0002:000696C8       W?netDevice$ni
 0002:000696CC       W?netState$ni
 0002:000696D0       W?netIncoming$n$SOL_List$$
 0002:000696D8       W?netOutgoing$n$SOL_List$$
 0002:000696E0       W?msgCount$ni
 0002:000696EC       W?heapLeakChecker$npn$HeapLeakChecker$$
 0002:000696F0       W?currentRoom$ni
 0002:000696F4       W?tracking$ni
 0002:000696F8       W?handsOn$ni
 0002:000696FC       W?trackingFrameOut$ni
 0002:00069700       W?roomFirstFrameOut$ni
 0002:00069704       W?gameMaxRoom$ni
 0002:00069708       W?gameMaxAloc$ni
 0002:0006970C       W?roomMaxAloc$ni
 0002:00069710       W?numRooms$ni
 0002:00069714       W?maxAloc$npn$MaxAloc$$
 0002:00069718       W?maxAlocID$n$MemID$$
 0002:0006971C       W?rmResList$npn$RmResList$$
 0002:00069720       W?objInfo$npn$ObjectInfo$$
 0002:00069724       W?indexedPropertyOffsets$n[]ui
 0002:00069854       W?gSelectorDictSize$ni
 0002:00069858       W?objectMgr$n$ObjectMgr$$
 0002:0006985C       W?lPal$n$__2krd76lPal$$
 0002:00069C60       W?systemPal$n[]$tagPALETTEENTRY$$
 0002:0006A060       W?sysEntry$n[]ul
 0002:0006A088       W?sysAlternate$n[]ul
 0002:0006A0B0       W?planePoly$n[]$SCI_Point$$
 0002:0006A0C4       W?START_COLOR$ni
 0002:0006A0C8       W?remapColor$:Remap$n[][256]uc
 0002:0006A9C8       W?remapDepth$:Remap$n[]ui
 0002:0006A9EC       W?remapOn$:Remap$n[]uc
 0002:0006AAEC       W?remapCount$:Remap$nui
 0002:0006AAF0       W?remapDepthOn$:Remap$nui
 0002:0006AAF4       W?forbiddenCount$:Remap$ni
 0002:0006AAF8       W?forbiddenStart$:Remap$ni
 0002:0006AAFC       W?updateFlag$:Remap$ni
 0002:0006AC08       W?langPath$n[]a
 0002:0006AD10       W?volPath$n[]a
 0002:0006AE18       W?resMgr$npn$ResourceMgr$$
 0002:0006AE1C       W?resPatches$n$MemID$$
 0002:0006AE1E       W?resPatches36$n$MemID$$
 0002:0006AE20       W?loadingDiskCursor$ni
 0002:0006AE24       W?unLoadingDiskCursor$ni
 0002:0006B068       W?maxVolumes$ni
 0002:0006B06C       W?resMaps$npn$ResMaps$$
 0002:0006B070       W?resLength$:SOL_ResType$ni
 0002:0006B074       W?compressedLength$:SOL_ResType$ni
 0002:0006B078       W?resOffset$:SOL_ResType$ni
 0002:0006B08C       W?sci$npn$SCI$$
 0002:0006B0A4       W?scriptMgr$n$ScriptMgr$$
 0002:0006B0A8       W?pmSendStack$npn$SendStack$$
 0002:0006B0AC       W?randArray$n[][2]i
 0002:000830AC       W?showStyles$npn$PlaneShowStyle$$
 0002:000830B0       W?planeScrolls$npn$PlaneScroll$$
 0002:000830B4       W?soundMgr$npn$SoundMgr$$
 0002:000830B8       W?gSoundMemory$ni
 0002:00083250       W?tables$n[]$TablePtr$$
 0002:000832A8       W?timeMgr$npn$TimeMgr$$
 0002:000832B8       W?timeToCheck$npni
 0002:000832BC       W?winMouse$npn$SOL_Mouse$$
 0002:000832C0       W?clrMouse$npn$SOL_Mouse$$
 0002:000832C4       W?cursor$:MouseWin$npn$SOL_Cursor$$
 0002:000832C8       W?restrictFlag$:MouseWin$ni
 0002:000832CC       W?inCage$:MouseWin$ni
 0002:0008331C       W?cursor$:MouseWinClr$npn$SOL_Cursor$$
 0002:00083320       W?isSwift$:MouseWinClr$ni
 0002:00083324       W?stackBuff$:MouseWinClr$npnuc
 0002:00083328       W?zaxis$:MouseWinClr$ns
 0002:0008332A       W?pitch$:MouseWinClr$ns
 0002:0008332C       W?roll$:MouseWinClr$ns
 0002:0008332E       W?yaw$:MouseWinClr$ns
 0002:00083330       W?paintFlag$:MouseWinClr$ni
 0002:00083338       W?errorMgr$npn$ErrorMgr$$
 0002:00083340       W?diskBuffer$n[]a
 0002:00083740       W?gSerialNumber$nui
 0002:00083744       W?argv$n[]pna
 0002:0008376C       W?commandLine$n[]a
 0002:000837EC       W?argc$ni
 0002:000837F0       W?posX$ni
 0002:000837F4       W?posY$ni
 0002:000837F8       W?windWidth$ni
 0002:000837FC       W?windHeight$ni
 0002:00083800       W?hMyWnd$npnv
 0002:00083804       W?myStyle$nul
 0002:00083808       W?MyInstance$npnv
 0002:0008380C       W?hMyCur$npnv
 0002:00083810       W?hAltCur$npnv
 0002:00083814       W?hCurCur$npnv
 0002:00083818       W?hNullCur$npnv
 0002:0008381C       W?hDisp$npnv
 0002:00083820       W?hWndList$npnv
 0002:00083824       W?hPaintDC$npnv
 0002:00083828       W?hMyDC$npnv
 0002:0008382C       W?hMenu$npnv
 0002:00083830       W?hPal$npnv
 0002:00083834       W?hOldPal$npnv
 0002:00083838       W?myPoint$n$tagPOINT$$
 0002:00083840       W?windRect$n$tagRECT$$
 0002:00083850       W?howShow$ni
 0002:00083854       W?MapHeight$nus
 0002:00083856       W?MapWidth$nus
 0002:00083858       W?chan$nul
 0002:0008385C       W?winFlags$nul
 0002:00083860       W?xnum$n[]a
 0002:0008386A       W?extraLines$nus
 0002:0008386C       W?timerId$nus
 0002:00083870       W?mbuff$n[]a
 0002:000838C0       W?nCheck$nus
 0002:000838C4       W?nColors$ni
 0002:000838C8       W?nBITSPIXEL$ni
 0002:000838CC       W?nPLANES$ni
 0002:000838D0       W?nRASTERCAPS$ni
 0002:000838D4       W?forcePPC$ni
 0002:000838D8       W?monoDisp$ni
 0002:000838DC       W?myMsg$n$tagMSG$$
 0002:000838F8       W?SHOWMEM$ni
 0002:000838FC       W?SHOWNEWS$ni
 0002:00083900       W?LOCKMAIN$ni
 0002:00083904       W?LOCKAUDIO$ni
 0002:00083908       W?GAMEPAUSED$ni
 0002:0008390C       W?REQUIREDAC$ni
 0002:00083910       W?CONFIRMMIDI$ni
 0002:00083914       W?CONFIRMREDBOOK$ni
 0002:00083918       W?TITLEBARFIXED$ni
 0002:0008391C       W?TRUECOLOR$ni
 0002:00083920       W?COLORCURSOR$ni
 0002:00083924       W?MAXIMIZED$ni
 0002:00083928       W?waitVMDStop$ni
 0002:0008392C       W?waitClose$ni
 0002:00083930       W?enableMidi$ni
 0002:00083934       W?ES688WIN$ni
 0002:00083938       W?WING$ni
 0002:0008393C       W?bWin95$ni
 0002:00083940       W?gGenericDialogHandler$npn()i
 0002:00083944       W?szIniFile$n[]a
 0002:00083A48       W?gameWidth$ni
 0002:00083A4C       W?gameHeight$ni
 0002:00083A50       W?gameBorderX$ni
 0002:00083A54       W?gameBorderY$ni
 0002:00083A58       W?maximizedBorderX$ni
 0002:00083A5C       W?maximizedBorderY$ni
 0002:00083A60       W?reserveK$ni
 0002:00083A64       W?sciMinK$ni
 0002:00083A68       W?sciMaxK$ni
 0002:00083A6C       W?vmapWidth$ni
 0002:00083A70       W?vmapHeight$ni
 0002:00083A74       W?cursorViewAdd$ni
 0002:00083A78       W?maxCursorSize$ni
 0002:00083A7C       W?midiBuffSize$n[]ul
 0002:00083AA4       W?asyncCheckPeriod$nul
 0002:00083AA8       W?gCS$ni
 0002:00083AAC       W?isMaximized$ni
 0002:00083AB0       W?minMaxFlag$ni
 0002:00083AB8       W?fp$npn()i
 0002:00083ABC       __ClosedStreams
 0002:00083AC0       __ExceptionHandled
 0002:00083AC4       __MiniHeapFreeRover
 0002:00083AC8       _wint_thread_data
 0002:00083AE8       __wcpp_2_data_catch_completed_
 0002:00083AEC       __wcpp_2_data_dtreg_vfptrs_
 0002:00083B00       __compiled_under_generic
 0002:00083B08       __Is_DLL
 0002:00083B0C       __FirstThreadData
 0002:00083B10       __OpenStreams
 0002:00083B18       __FileHandleIDs
 0002:00083B1C       __nheap_clean
 0002:00083B1D       __fheap_clean
 0002:00083B20       _WinMainProc
 0002:00083B24       ___Argc
 0002:00083B28       ___Argv
 0002:00083B2C       __historical_splitparms

Line numbers for M:\GAMES\NETADV\PROG\interp\hotkey.cpp(M:\GAMES\NETADV\PROG\interp\hotkey.cpp) segment FOO

   16 0001:00000010   20 0001:0000001A   21 0001:00000025   23 0001:0000002B
   26 0001:0000002C   33 0001:00000044

Line numbers for M:\GAMES\NETADV\PROG\interp\arglist.cpp(M:\GAMES\NETADV\PROG\interp\arglist.cpp) segment FOO

   22 0001:0000005C   34 0001:00000083   35 0001:0000008D   38 0001:00000095
   39 0001:000000A1   40 0001:000000A9   43 0001:000000AB   44 0001:000000B7
   45 0001:000000EF   47 0001:0000011E   53 0001:00000129   54 0001:00000141
   56 0001:00000166   57 0001:00000180   59 0001:00000245   60 0001:0000024D
   61 0001:00000259   62 0001:00000281   69 0001:000002AD

Line numbers for M:\GAMES\NETADV\PROG\interp\array.cpp(M:\GAMES\NETADV\PROG\interp\array.cpp) segment FOO

   34 0001:000003A8   44 0001:000003E4   45 0001:000003ED   46 0001:000003F9
   47 0001:00000433   49 0001:0000043B   56 0001:000004CF   58 0001:000004E3
   60 0001:00000584   67 0001:00000595   69 0001:000005A9   71 0001:00000657
   79 0001:0000066D   81 0001:00000681   83 0001:0000072F   85 0001:0000074B
   91 0001:00000754   93 0001:00000760   95 0001:00000801  104 0001:0000082D
  106 0001:00000839  109 0001:000008CA  120 0001:000008E7  122 0001:000008F3
  125 0001:0000098F  134 0001:000009BB  137 0001:000009C7  139 0001:00000A61
  145 0001:00000B01  147 0001:00000B0D  148 0001:00000B68  157 0001:00000C48
  160 0001:00000C6F  164 0001:00000C8E  167 0001:00000CA7  170 0001:00000CAD
  173 0001:00000CD4  177 0001:00000CF3  184 0001:00000CFA  185 0001:00000CFE
  186 0001:00000D24  189 0001:00000D27  190 0001:00000D33  191 0001:00000D3A
  193 0001:00000D4F  201 0001:00000D6B  204 0001:00000D79  194 0001:00000D7B
  195 0001:00000D96  198 0001:00000DB5  213 0001:00000DD5  214 0001:00000DDE
  216 0001:00000DFB  219 0001:00000E02  221 0001:00000E16  222 0001:00000E18
  225 0001:00000E1D  227 0001:00000E2C  228 0001:00000E30  232 0001:00000E45
  230 0001:00000E56  233 0001:00000E67  235 0001:00000E99  237 0001:00000E9D
  240 0001:00000ED4  241 0001:00000EEA  242 0001:00000F04  243 0001:00000F08
  245 0001:00000F0D  246 0001:00000F2E  248 0001:00000F48  252 0001:00000F4D
  266 0001:00000F8D  267 0001:00000F90  271 0001:00000F92  272 0001:00000F95
  276 0001:00000F97  277 0001:00000F99  280 0001:00000F9B  281 0001:00000FC2
  263 0001:00000FC4  285 0001:00000FCC  290 0001:00000FD3  302 0001:00001011
  307 0001:0000101B  312 0001:00001026  316 0001:00001030  299 0001:00001060
  324 0001:00001068  337 0001:000010B8  339 0001:000010BA  340 0001:000010C4
  347 0001:000010CE  352 0001:000010E8  354 0001:000010EA  355 0001:000010F4
  361 0001:00001103  334 0001:00001137  369 0001:00001143  374 0001:0000114F
  375 0001:00001154  378 0001:00001168  392 0001:000011B2  398 0001:000011CA
  400 0001:000011CC  401 0001:000011D6  408 0001:000011DE  410 0001:000011E0
  411 0001:000011EA  417 0001:000011F1  389 0001:00001221  424 0001:00001229
  429 0001:00001238  431 0001:0000124A  432 0001:0000124F  435 0001:00001262
  439 0001:0000126B  442 0001:0000127D  444 0001:0000128D  447 0001:0000129E
  448 0001:000012B3  451 0001:000012F1  452 0001:00001300  454 0001:00001310
  455 0001:0000131E  459 0001:00001326  463 0001:0000132F  464 0001:00001334
  467 0001:00001355  471 0001:0000135A  473 0001:0000136C  476 0001:0000137D
  477 0001:0000138D  479 0001:00001396  480 0001:000013A4  484 0001:000013A9
  486 0001:000013B4  487 0001:000013D8  488 0001:000013E9  492 0001:000013F0
  494 0001:000013FC  496 0001:00001410  498 0001:00001419  499 0001:0000142B
  501 0001:0000143A    1 0001:00001468

Line numbers for M:\GAMES\NETADV\PROG\interp\asm2cpp.cpp(M:\GAMES\NETADV\PROG\interp\asm2cpp.cpp) segment FOO

   17 0001:00001484   18 0001:00001491   21 0001:00001492   27 0001:00001498
   28 0001:0000149E   29 0001:000014C0   30 0001:000014CF   31 0001:000014E0
   32 0001:000014E9   37 0001:000014ED   41 0001:0000155E   42 0001:00001571
   43 0001:000015AE   46 0001:000015B5   54 0001:000015CB   55 0001:000015EA
   58 0001:000015EC   59 0001:00001600   62 0001:00001602   66 0001:0000161B
   80 0001:00001629   81 0001:00001641   86 0001:00001654   90 0001:0000166E
   98 0001:0000169E  102 0001:000016AF  106 0001:000016B9  107 0001:000016D2
  110 0001:000016D7  114 0001:000016EC   38 0001:000016FF  124 0001:000017BD
  128 0001:000017DA  136 0001:000017DF  138 0001:000017E5  139 0001:000017FB
  141 0001:000017FF  143 0001:00001805  144 0001:000018A2  145 0001:00001949
  147 0001:000019FF  150 0001:00001A04  152 0001:00001A0F  154 0001:00001A23
  155 0001:00001A2F  157 0001:00001A3F  158 0001:00001A47  159 0001:00001AF4
  160 0001:00001BB3  164 0001:00001C6E  167 0001:00001C76  170 0001:00001C84
  173 0001:00001C85  176 0001:00001CA4  179 0001:00001CA5  182 0001:00001CB4
  185 0001:00001CB5  188 0001:00001CC2  191 0001:00001CC3  193 0001:00001CC5
  194 0001:00001CDA  195 0001:00001CDF  196 0001:00001CF4  197 0001:00001D07
  198 0001:00001D0D  202 0001:00001D0F  204 0001:00001D1A  212 0001:00001D1D
  213 0001:00001D2E

Line numbers for M:\GAMES\NETADV\PROG\interp\bufferd.cpp(M:\GAMES\NETADV\PROG\interp\bufferd.cpp) segment FOO

    8 0001:00001D30   10 0001:00001D50   11 0001:00001D56   14 0001:00001D57
   16 0001:00001D7A   17 0001:00001D7E   20 0001:00001D80   22 0001:00001D84
   24 0001:00001D8C    1 0001:00001DB8

Line numbers for M:\GAMES\NETADV\PROG\interp\bufferw.cpp(M:\GAMES\NETADV\PROG\interp\bufferw.cpp) segment FOO

    7 0001:00001DDC    9 0001:00001DFC   10 0001:00001E02   13 0001:00001E03
   15 0001:00001E26   16 0001:00001E2A   19 0001:00001E2C   21 0001:00001E30
   23 0001:00001E38    1 0001:00001E68

Line numbers for M:\GAMES\NETADV\PROG\interp\breakpt.cpp(M:\GAMES\NETADV\PROG\interp\breakpt.cpp) segment FOO

    1 0001:00001E8C   24 0001:00001EA6   25 0001:00001EC4   26 0001:00001EE2
   27 0001:00001EFD   28 0001:00001F1B   30 0001:00001F2A   53 0001:00001F61
   35 0001:00001F77   38 0001:00001F86   39 0001:00001F9C   40 0001:00001FB2
   43 0001:00001FC1   44 0001:00001FD7   45 0001:00001FED   48 0001:00001FFC
   49 0001:00002012   50 0001:00002028   54 0001:0000204F   55 0001:00002066
   56 0001:0000207D   57 0001:00002094   58 0001:000020AB   59 0001:000020C4
   60 0001:000020DF   62 0001:000020EE   78 0001:00002187   80 0001:0000218A
   81 0001:0000219B   84 0001:0000219D   86 0001:000021A4   87 0001:000021B2
   88 0001:000021B7   89 0001:000021BC   91 0001:000021C6  112 0001:000021C9
  114 0001:000021D0  115 0001:000021EA  116 0001:000021FB  119 0001:000021FE
  121 0001:00002201  122 0001:0000220D  123 0001:00002217  126 0001:00002219
  128 0001:00002221  131 0001:00002228  132 0001:0000222B  133 0001:0000222E
  134 0001:00002232  135 0001:00002241  136 0001:00002247  138 0001:00002249
  141 0001:0000224D  143 0001:00002255  144 0001:00002262  145 0001:0000226C
  146 0001:0000227A  147 0001:00002284  148 0001:00002286  165 0001:0000228B
  167 0001:0000228E  168 0001:0000229C  169 0001:000022A7  172 0001:000022A9
  174 0001:000022AF  175 0001:000022CF  192 0001:000022D1  195 0001:000022DC
  198 0001:000022DD  201 0001:000022F1  223 0001:000022F2  225 0001:000022F6
  226 0001:000022FD  227 0001:00002304  228 0001:0000230A  231 0001:0000230B
  235 0001:00002314  237 0001:00002334  239 0001:00002338  240 0001:00002348
  242 0001:00002374  243 0001:00002379  246 0001:00002381  248 0001:00002385
  249 0001:000023A9  273 0001:000023AA  275 0001:000023B2  276 0001:000023C7
  278 0001:000023F1  281 0001:000023F5  285 0001:000023FF  286 0001:0000241F
  288 0001:00002423  289 0001:00002430  291 0001:00002437  295 0001:0000243C
  297 0001:00002448  298 0001:0000244D  301 0001:00002453  305 0001:0000245A
  306 0001:00002465  307 0001:0000246F  308 0001:00002474  309 0001:00002479
  311 0001:00002486  313 0001:00002490  314 0001:0000249A  315 0001:0000249D
  337 0001:000024A0  343 0001:000024AB  344 0001:000024CB  345 0001:000024CF
  346 0001:000024DC  347 0001:000024F3  351 0001:0000251A  353 0001:0000251D
  355 0001:00002522  356 0001:00002527  359 0001:0000252E  363 0001:0000253A
  364 0001:00002553  366 0001:0000255D  367 0001:00002578  370 0001:000025A9
  371 0001:000025AE  372 0001:000025B3  374 0001:000025C2  376 0001:000025C6
  396 0001:000025CB  398 0001:000025DA  401 0001:000025FE  402 0001:00002607
  403 0001:000026E1  405 0001:0000277C  408 0001:00002781  411 0001:00002786
  415 0001:00002792  416 0001:00002832  419 0001:0000283C  420 0001:00002855
  424 0001:0000290F  425 0001:00002914  426 0001:00002919  428 0001:00002928
  430 0001:0000292F  450 0001:00002934  452 0001:0000293D  456 0001:00002942
  457 0001:0000295C  459 0001:00002963  460 0001:00002967  461 0001:00002972
  465 0001:00002977  466 0001:00002979  467 0001:00002986  468 0001:000029A6
  471 0001:000029A9  472 0001:000029B1  475 0001:000029B6  478 0001:000029B8
  480 0001:000029BD  481 0001:000029C2  484 0001:000029C7  486 0001:000029CC
  487 0001:000029D4  489 0001:00002A05  493 0001:00002A07  495 0001:00002A12
  498 0001:00002A13  500 0001:00002A1A  502 0001:00002A37  503 0001:00002A44
  504 0001:00002A53  505 0001:00002A5D  508 0001:00002A60  511 0001:00002A68
  512 0001:00002A6D  511 0001:00002A7C  513 0001:00002A81  516 0001:00002AC8
  520 0001:00002AE8  521 0001:00002AF1  522 0001:00002B05  525 0001:00002B0F
  529 0001:00002B18  533 0001:00002B1C  537 0001:00002B25  541 0001:00002B29
  545 0001:00002B32  549 0001:00002B36  553 0001:00002B48  557 0001:00002B4C
  558 0001:00002B55  561 0001:00002B57  566 0001:00002B74  567 0001:00002B82
  568 0001:00002B8A  571 0001:00002B8F  572 0001:00002BA4  573 0001:00002BB2
  574 0001:00002BBA  577 0001:00002BBF  578 0001:00002BD0  579 0001:00002BDE
  580 0001:00002BE6  583 0001:00002BEB  584 0001:00002C00  585 0001:00002C0E
  586 0001:00002C16  589 0001:00002C1B  596 0001:00002C22  598 0001:00002C2D
  599 0001:00002C37  600 0001:00002C42  601 0001:00002C58  604 0001:00002C7A
  607 0001:00002C7E  609 0001:00002C85  610 0001:00002C96  611 0001:00002CA3
  614 0001:00002CA6  616 0001:00002CAD  617 0001:00002CD4  618 0001:00002CE5
  621 0001:00002CEA  625 0001:00002CEE  626 0001:00002D04  627 0001:00002D15
  628 0001:00002D1D  631 0001:00002D20  635 0001:00002D24  636 0001:00002D35
  641 0001:00002D3C  645 0001:00002D40  646 0001:00002D4D  651 0001:00002D54
  663 0001:00002D83  664 0001:00002D91  669 0001:00002D93  670 0001:00002DAE
  673 0001:00002DB0  660 0001:00002DC3  681 0001:00002DD8  682 0001:00002DF0
  684 0001:00002E01  685 0001:00002E09  688 0001:00002E0D  691 0001:00002E15
  692 0001:00002E1A  691 0001:00002E29  693 0001:00002E2E   71 0001:00002E34
   68 0001:00002E38

Line numbers for M:\GAMES\NETADV\PROG\interp\celobj.cpp(M:\GAMES\NETADV\PROG\interp\celobj.cpp) segment FOO

    1 0001:00003534   43 0001:00003560   45 0001:0000356C   47 0001:0000357D
   48 0001:0000358B   50 0001:0000358F   52 0001:000035A5   53 0001:000035AF
   55 0001:000035B3   57 0001:000035C4   58 0001:000035D6   60 0001:000035E5
   61 0001:000035E8   62 0001:000035F0   64 0001:000035F8   65 0001:000035FB
   66 0001:0000360F   70 0001:00003612   76 0001:00003619   79 0001:00003633
   80 0001:0000363D   81 0001:00003687   85 0001:000036E2   87 0001:000036EB
   88 0001:00003708  110 0001:00003734  112 0001:00003740  113 0001:00003752
  114 0001:00003755  116 0001:00003763  117 0001:00003780  119 0001:0000379A
  120 0001:000037B3  122 0001:000037C4  126 0001:000037C9  127 0001:000037CF
  129 0001:000037DC  139 0001:00003800  140 0001:0000381C  145 0001:0000381E
  147 0001:0000382A  148 0001:0000383C  149 0001:0000383E  151 0001:00003849
  152 0001:00003866  154 0001:00003880  155 0001:00003899  158 0001:000038AA
  159 0001:000038B3  161 0001:000038BC  162 0001:000038C5  164 0001:000038DC
  166 0001:000038DF  168 0001:000038E9  169 0001:000038F7  171 0001:00003903
  172 0001:0000390B  175 0001:00003912  185 0001:0000391C  187 0001:00003925
  189 0001:0000392B  190 0001:00003933  192 0001:00003944  193 0001:00003948
  194 0001:00003968  192 0001:0000396B  197 0001:00003970  203 0001:00003975
  205 0001:000039A7  206 0001:000039AD  207 0001:000039B3  208 0001:000039B9
  209 0001:000039BF  210 0001:000039C5  211 0001:000039CB  212 0001:000039D1
  213 0001:000039D7  214 0001:000039DD  215 0001:000039E3  216 0001:000039E9
  217 0001:000039EF  218 0001:000039F5  219 0001:000039FE  223 0001:00003A01
  233 0001:00003A0A  235 0001:00003A9D  239 0001:00003A9F  241 0001:00003AA1
  243 0001:00003AAF  245 0001:00003B0C  246 0001:00003B20  247 0001:00003B26
  251 0001:00003B2E  252 0001:00003B30  256 0001:00003B33  258 0001:00003B39
  259 0001:00003B40  261 0001:00003B45  266 0001:00003B49  268 0001:00003B4F
  269 0001:00003B51  270 0001:00003B53  273 0001:00003B70  274 0001:00003B90
  275 0001:00003B92  279 0001:00003B97  281 0001:00003B9F  283 0001:00003BAA
  284 0001:00003BC4  285 0001:00003BDD  286 0001:00003BEC  304 0001:00003BF0
  306 0001:00003BFB  307 0001:00003C0E  308 0001:00003C13  309 0001:00003C2D
  311 0001:00003C4C  316 0001:00003C53  322 0001:00003C68  323 0001:00003C7D
  329 0001:00003C88  331 0001:00003CEE  332 0001:00003CF4  334 0001:00003D51
  338 0001:00003DA8  340 0001:00003DAE  341 0001:00003DB4  343 0001:00003DDD
  347 0001:00003E06  349 0001:00003E0C  350 0001:00003E12  352 0001:00003E38
  356 0001:00003E55  357 0001:00003E5B  359 0001:00003E81  371 0001:00003EA4
  373 0001:00003EBA  375 0001:00003F20  376 0001:00003F26  378 0001:00003F80
  382 0001:00003FDA  384 0001:00003FE0  385 0001:00003FE6  387 0001:0000400F
  391 0001:00004038  392 0001:0000403E  394 0001:00004067  400 0001:00004087
  402 0001:000040F6  403 0001:000040FC  405 0001:0000414D  409 0001:000041A7
  411 0001:000041AD  412 0001:000041B3  414 0001:000041DC  418 0001:00004205
  419 0001:0000420B  421 0001:00004234  428 0001:0000425D  432 0001:0000426F
  434 0001:00004279  436 0001:000042A3  437 0001:000042A9  439 0001:000042C5
  443 0001:000042DB  445 0001:000042E1  446 0001:000042E7  448 0001:00004309
  452 0001:0000432B  453 0001:00004331  455 0001:00004353  461 0001:00004375
  463 0001:0000439F  464 0001:000043A5  466 0001:000043BE  470 0001:000043D7
  472 0001:000043DD  473 0001:000043E3  475 0001:00004405  479 0001:00004427
  481 0001:0000442D  482 0001:00004433  484 0001:00004455  488 0001:00004477
  489 0001:0000447D  491 0001:0000449F  502 0001:000044BC  509 0001:000044C5
  510 0001:000044CE  513 0001:000044D7  514 0001:000044DD  516 0001:00004508
  517 0001:00004514  519 0001:00004520  520 0001:00004526  521 0001:0000452F
  523 0001:00004538  524 0001:00004541  527 0001:00004552  529 0001:00004568
  530 0001:00004573  539 0001:0000457F  544 0001:00004583  545 0001:0000458B
  546 0001:0000458D  547 0001:000045AF  550 0001:000045B6  551 0001:000045B8
  553 0001:000045BA  555 0001:000045BE  556 0001:000045C0  557 0001:000045C5
  560 0001:000045D5  561 0001:000045D7  562 0001:000045EB  569 0001:000045ED
  570 0001:000045EF  575 0001:000045F6  577 0001:00004602  578 0001:0000460C
  579 0001:0000460F  580 0001:00004612  582 0001:00004618  583 0001:00004621
  592 0001:00004628  583 0001:0000462E  585 0001:0000463D  586 0001:00004640
  588 0001:00004649  589 0001:0000464B  601 0001:0000466A  603 0001:00004676
  605 0001:00004682  606 0001:00004685  607 0001:0000468E  609 0001:00004697
  610 0001:000046A0  612 0001:000046AE  614 0001:000046C4  615 0001:000046D0
  618 0001:000046D8  620 0001:000046DF  621 0001:000046E2  622 0001:000046E6
  623 0001:000046FE  624 0001:00004708  626 0001:00004712  627 0001:00004715
  629 0001:00004717  636 0001:0000471B  637 0001:0000471D  635 0001:00004722
  639 0001:00004725  648 0001:00004727  650 0001:00004733  651 0001:0000473D
  653 0001:00004740  654 0001:00004749  660 0001:0000474D  654 0001:00004750
  656 0001:0000475A  657 0001:0000475D  658 0001:00004769  667 0001:0000477D
  670 0001:00004783  674 0001:000047D7  675 0001:000047F6  676 0001:00004816
  677 0001:00004835  680 0001:00004855  682 0001:0000485E  683 0001:00004865
  685 0001:00004869  686 0001:00004870  687 0001:00004877  688 0001:0000487E
  683 0001:00004885  692 0001:0000488E  693 0001:000048AE  696 0001:000048CE
  698 0001:000048D8  700 0001:0000490C  701 0001:00004912  702 0001:00004921
  703 0001:0000492D  708 0001:00004932  711 0001:0000493D  713 0001:00004959
  714 0001:00004971  718 0001:00004973  720 0001:0000498F  721 0001:000049AA
  725 0001:000049AC  726 0001:000049BE  727 0001:000049CB  728 0001:000049D1
  746 0001:000049D6  748 0001:000049DE  749 0001:000049FB  750 0001:00004A17
  753 0001:00004A34  754 0001:00004A36  756 0001:00004A39  768 0001:00004A62
  769 0001:00004A81  773 0001:00004A85  775 0001:00004A8E  776 0001:00004A94
  777 0001:00004A9B  780 0001:00004AA3  781 0001:00004AAA  782 0001:00004ABA
  784 0001:00004AC2  787 0001:00004ACF  788 0001:00004AD4  789 0001:00004AD9
  790 0001:00004ADE  791 0001:00004AE7  792 0001:00004AF2  795 0001:00004AF7
  797 0001:00004B02  798 0001:00004B14  800 0001:00004B1C  801 0001:00004B32
  803 0001:00004B3B  805 0001:00004B42  808 0001:00004B47  809 0001:00004B5E
  814 0001:00004B67  815 0001:00004B69  820 0001:00004B71  823 0001:00004B7F
  824 0001:00004B82  825 0001:00004B8C  827 0001:00004B8F  830 0001:00004B94
  835 0001:00004B9F  837 0001:00004BB5  838 0001:00004BC1  840 0001:00004BC6
  841 0001:00004BCD  844 0001:00004BD3  846 0001:00004BD8  848 0001:00004BDB
  852 0001:00004BE1  854 0001:00004BEC  855 0001:00004BEF  857 0001:00004BF4
  858 0001:00004BFA  860 0001:00004BFD  861 0001:00004C05  862 0001:00004C0B
  864 0001:00004C0D  866 0001:00004C12  867 0001:00004C15  868 0001:00004C1D
  871 0001:00004C1F  872 0001:00004C25  873 0001:00004C28  884 0001:00004C2D
  886 0001:00004C30  888 0001:00004C39  896 0001:00004C3D  888 0001:00004C3E
  889 0001:00004C44  890 0001:00004C4B  891 0001:00004C51  893 0001:00004C54
  895 0001:00004C57  899 0001:00004C59  901 0001:00004C75  904 0001:00004C7D
  909 0001:00004C86  910 0001:00004C90  911 0001:00004C97  912 0001:00004C99
  914 0001:00004CA0  916 0001:00004CA2  919 0001:00004CA4  921 0001:00004CB0
  922 0001:00004CD0  924 0001:00004CDD  925 0001:00004CEC  928 0001:00004D0C
  929 0001:00004D16  931 0001:00004D1E  932 0001:00004D26  935 0001:00004D30
  938 0001:00004D38  939 0001:00004D3C  938 0001:00004D4C  942 0001:00004D5B
  944 0001:00004D76  945 0001:00004D7B  948 0001:00004D80  950 0001:00004D8C
  951 0001:00004DAC  953 0001:00004DB9  954 0001:00004DC8  956 0001:00004DE8
  957 0001:00004DF2  959 0001:00004DF7  960 0001:00004DFF  963 0001:00004E09
  966 0001:00004E0E  967 0001:00004E12  966 0001:00004E22  969 0001:00004E2E
  971 0001:00004E46  972 0001:00004E56  976 0001:00004E6A  979 0001:00004E73
  980 0001:00004E83  983 0001:00004E88  985 0001:00004E91  986 0001:00004EB4
  988 0001:00004EC1  989 0001:00004ED0  991 0001:00004EF0  992 0001:00004F00
  994 0001:00004F05  998 0001:00004F11 1001 0001:00004F16 1002 0001:00004F1A
 1001 0001:00004F2A 1004 0001:00004F36 1005 0001:00004F4A 1006 0001:00004F5F
 1007 0001:00004F65 1008 0001:00004F6E 1010 0001:00004F7F 1012 0001:00004F89
 1020 0001:00004F93 1022 0001:00004F9A 1023 0001:00004FA0 1024 0001:00004FCA
 1030 0001:00004FDD 1033 0001:00004FE2 1035 0001:00004FF3 1036 0001:00004FFC
 1038 0001:00005011 1040 0001:00005021 1043 0001:00005025 1046 0001:0000502C
 1048 0001:0000503D 1049 0001:00005046 1051 0001:0000508E 1056 0001:000050A4
 1060 0001:000050AD 1062 0001:000050BE 1063 0001:000050C7 1065 0001:00005112
 1070 0001:00005128 1074 0001:0000517C 1076 0001:000051BC 1077 0001:00005242
 1080 0001:00005247 1087 0001:0000527A 1089 0001:0000529A 1090 0001:000052E7
 1092 0001:00005307 1095 0001:00005316 1096 0001:0000531E 1097 0001:00005327
 1099 0001:00005330 1102 0001:00005349 1103 0001:00005350 1104 0001:00005357
 1107 0001:00005359 1108 0001:00005360 1109 0001:00005367 1112 0001:00005369
 1113 0001:00005370 1114 0001:00005377 1100 0001:00005379 1118 0001:0000537D
 1119 0001:00005389 1121 0001:0000538D 1122 0001:00005393 1124 0001:000053B3
 1126 0001:000053CA 1127 0001:000053D2 1128 0001:000053DC 1130 0001:000053DF
 1133 0001:000053F6 1134 0001:00005402 1136 0001:00005406 1138 0001:0000540C
 1140 0001:0000541F 1141 0001:00005421 1142 0001:00005429 1143 0001:00005432
 1145 0001:00005442 1146 0001:00005448 1148 0001:00005453 1149 0001:00005465
 1150 0001:0000546B 1152 0001:00005473 1153 0001:0000547E 1155 0001:000054A9
 1156 0001:000054AF 1158 0001:000054BB 1159 0001:000054C3 1161 0001:000054CC
 1163 0001:000054D5 1164 0001:000054DB 1167 0001:000054E8 1169 0001:000054EA
 1170 0001:000054F7 1176 0001:000054FA 1178 0001:00005503 1181 0001:0000550D
 1184 0001:00005576 1186 0001:000055C2 1188 0001:000055D3 1189 0001:000055D9
 1192 0001:000055F2 1193 0001:000055FA 1194 0001:00005603 1195 0001:0000560A
 1196 0001:00005611 1197 0001:00005617 1198 0001:00005620 1199 0001:00005629
 1200 0001:0000562F 1201 0001:00005636 1202 0001:0000563D 1203 0001:00005644
 1209 0001:00005658 1211 0001:00005660 1213 0001:00005673 1214 0001:000056B0
 1216 0001:000056FA 1221 0001:0000570C 1223 0001:00005713 1224 0001:00005719
 1225 0001:0000572E 1228 0001:00005731 1231 0001:0000573A 1232 0001:00005743
 1236 0001:00005790 1238 0001:0000579A 1239 0001:000057A0 1242 0001:000057EA
 1244 0001:0000581D 1245 0001:00005824 1246 0001:0000582B 1247 0001:00005832
 1248 0001:00005839 1249 0001:00005840 1250 0001:00005847 1251 0001:0000584E
 1252 0001:00005855 1253 0001:0000585C 1256 0001:0000585D 1258 0001:00005864
 1259 0001:0000586A 1260 0001:0000587B 1263 0001:0000587E 1266 0001:0000588D
 1267 0001:0000589F 1268 0001:000058A9 1269 0001:000058AF 1270 0001:000058B5
 1271 0001:000058B9 1272 0001:000058D0 1270 0001:000058D3 1274 0001:000058D9
 1277 0001:000058DE 1279 0001:000058E1 1280 0001:00005901 1283 0001:00005903
 1285 0001:00005906 1287 0001:00005926 1289 0001:0000592A 1292 0001:00005990
 1294 0001:000059D3 1295 0001:00005A72 1298 0001:00005A77 1299 0001:00005A97
 1301 0001:00005AA4 1303 0001:00005AAC 1304 0001:00005AB8 1308 0001:00005AD9
 1309 0001:00005ADF 1310 0001:00005AF5 1311 0001:00005AF7 1312 0001:00005AFF
 1313 0001:00005B08 1314 0001:00005B0F 1315 0001:00005B16 1316 0001:00005B1C
 1317 0001:00005B32 1318 0001:00005B39 1319 0001:00005B41 1320 0001:00005B49
 1321 0001:00005B50 1326 0001:00005B5C 1327 0001:00005B63 1328 0001:00005B6A
 1331 0001:00005B6C 1332 0001:00005B73 1333 0001:00005B7A 1336 0001:00005B7C
 1337 0001:00005B83 1338 0001:00005B8A 1323 0001:00005B8C 1344 0001:00005BA7
 1345 0001:00005BB0 1348 0001:00005BB9 1350 0001:00005BBF 1351 0001:00005BCB
 1352 0001:00005BD3 1354 0001:00005BDF 1358 0001:00005BEB 1359 0001:00005BF1
 1361 0001:00005BFF 1363 0001:00005C06 1364 0001:00005C1D 1370 0001:00005C45
 1374 0001:00005C4A 1376 0001:00005C79 1377 0001:00005C89 1378 0001:00005C8F
 1379 0001:00005C95 1399 0001:00005C99 1401 0001:00005CA0  670 0001:00005CE0
 1402 0001:00005E04

Line numbers for M:\GAMES\NETADV\PROG\interp\celobj1.cpp(M:\GAMES\NETADV\PROG\interp\celobj1.cpp) segment FOO

   40 0001:00005F4C   42 0001:00005F55   43 0001:00005F85   50 0001:00005FB7
   51 0001:00005FC8   52 0001:00005FDF   53 0001:00005FED   54 0001:00006002
   58 0001:00006012   59 0001:00006024   61 0001:00006027   62 0001:00006030
   64 0001:00006039   65 0001:00006042   68 0001:00006050   70 0001:00006069
   71 0001:0000608F   72 0001:000060A3   75 0001:000060AB   77 0001:000060B2
   78 0001:000060BF   80 0001:000060C8   81 0001:000060D6   82 0001:000060D8
   83 0001:000060DA   85 0001:000060DC   86 0001:000060E0   87 0001:000060E2
   88 0001:000060E8   90 0001:000060EA   91 0001:000060F5   93 0001:000060FA
   94 0001:00006100   99 0001:00006104   94 0001:00006107   95 0001:00006110
   96 0001:00006113   97 0001:00006126   98 0001:0000612B  102 0001:0000612D
  104 0001:00006135  106 0001:0000613A  107 0001:0000613C  108 0001:00006149
  109 0001:0000614B  111 0001:00006150  112 0001:00006154  113 0001:00006156
  115 0001:00006158  116 0001:00006163  118 0001:00006168  119 0001:0000616E
  120 0001:00006171  124 0001:00006176  125 0001:00006178  126 0001:00006185
  127 0001:00006187  128 0001:00006188  130 0001:0000618D  131 0001:00006191
  132 0001:00006193  134 0001:00006195  135 0001:000061A0  137 0001:000061A5
  138 0001:000061A7  139 0001:000061B0  140 0001:000061BC  143 0001:000061D0
  142 0001:000061D4  144 0001:000061D9  149 0001:000061DE  158 0001:000061E6
  160 0001:000061EF  161 0001:00006222  169 0001:00006257  170 0001:00006266
  171 0001:00006274  172 0001:00006280  176 0001:00006290  177 0001:000062A2
  179 0001:000062A5  180 0001:000062AE  182 0001:000062B7  183 0001:000062C0
  186 0001:000062CE  188 0001:000062E7  189 0001:00006309  190 0001:0000631D
  193 0001:00006325  203 0001:0000632C  204 0001:00006330  205 0001:00006332
  206 0001:00006338  208 0001:0000633A  209 0001:00006345  211 0001:0000634A
  212 0001:00006350  217 0001:00006354  212 0001:00006357  213 0001:00006360
  214 0001:00006363  215 0001:00006376  220 0001:0000637D  222 0001:00006385
  224 0001:0000638E  225 0001:00006390  226 0001:0000639E  227 0001:000063A0
  229 0001:000063A2  230 0001:000063A6  231 0001:000063A8  233 0001:000063AA
  234 0001:000063B5  236 0001:000063BA  237 0001:000063C0  238 0001:000063C3
  242 0001:000063F6  243 0001:000063F8  244 0001:00006406  245 0001:00006408
  246 0001:00006409  248 0001:0000640B  249 0001:0000640F  250 0001:00006411
  252 0001:00006413  253 0001:0000641E  256 0001:00006423  257 0001:00006425
  258 0001:00006432  270 0001:0000644B  272 0001:00006457  273 0001:0000648A
  279 0001:000064BF  280 0001:000064CE  283 0001:000064D8  284 0001:000064E2
  285 0001:000064E5  286 0001:000064EE  287 0001:000064FC  288 0001:00006508
  292 0001:00006511  304 0001:00006518  292 0001:0000651E  294 0001:0000652D
  295 0001:0000654C  297 0001:0000654F  302 0001:00006553  297 0001:00006554
  299 0001:0000655A  300 0001:0000655D  301 0001:0000656D  310 0001:00006571
  312 0001:0000657D  313 0001:000065B0  319 0001:000065E5  320 0001:000065F1
  322 0001:000065F4  323 0001:00006605  326 0001:00006615  327 0001:0000661E
  328 0001:0000662C  329 0001:00006635  333 0001:0000663E  345 0001:00006645
  333 0001:0000664B  335 0001:0000665A  336 0001:0000667D  338 0001:00006680
  343 0001:00006684  338 0001:00006685  340 0001:0000668B  341 0001:0000668E
  342 0001:0000669E  351 0001:000066A2  353 0001:000066B1  354 0001:000066E4
  355 0001:00006716  356 0001:0000673D  359 0001:00006764  362 0001:00006778
  363 0001:0000677D  364 0001:00006783  365 0001:00006789  366 0001:0000678F
  367 0001:00006791  369 0001:00006794  370 0001:000067B3  371 0001:000067D2
  372 0001:000067EE  375 0001:0000680A  377 0001:00006817  378 0001:0000681E
  380 0001:00006829  381 0001:00006846  382 0001:00006861  385 0001:00006889
  386 0001:00006893  389 0001:00006895  391 0001:000068A2  392 0001:000068B6
  393 0001:000068D1  396 0001:000068F9  400 0001:00006903  399 0001:00006909
  400 0001:0000690E  402 0001:00006919  403 0001:0000692E  404 0001:00006949
  407 0001:00006974  408 0001:00006986  409 0001:00006989  410 0001:00006992
  412 0001:0000699B  413 0001:000069A4  416 0001:000069B5  417 0001:000069BC
  419 0001:000069D3  420 0001:000069ED  423 0001:00006A03  425 0001:00006A19
  428 0001:00006A21  431 0001:00006A28  432 0001:00006A3A  435 0001:00006A3E
  436 0001:00006A54  438 0001:00006A5D  441 0001:00006A62  445 0001:00006A68
  446 0001:00006A7F  452 0001:00006A88  453 0001:00006A8A  461 0001:00006A92
  466 0001:00006A97  461 0001:00006A9A  463 0001:00006AA4  464 0001:00006AB1
  465 0001:00006AC5  474 0001:00006ACC  476 0001:00006ADB  477 0001:00006B0E
  478 0001:00006B40  479 0001:00006B67  482 0001:00006B8E  484 0001:00006B9F
  485 0001:00006BA4  486 0001:00006BAA  487 0001:00006BAD  488 0001:00006BB3
  489 0001:00006BBB  491 0001:00006BC4  493 0001:00006BCA  494 0001:00006BD1
  496 0001:00006BD6  494 0001:00006BF8  501 0001:00006BFF  503 0001:00006C04
  501 0001:00006C1D  507 0001:00006C22  509 0001:00006C2A  507 0001:00006C47
  513 0001:00006C55  514 0001:00006C5F  515 0001:00006C62  517 0001:00006C6B
  518 0001:00006C73  520 0001:00006C85  525 0001:00006C99  539 0001:00006CA1
  525 0001:00006CA4  527 0001:00006CB3  529 0001:00006CC8  536 0001:00006CCD
  529 0001:00006CCE  531 0001:00006CD3  533 0001:00006CDF  534 0001:00006CE4


Line numbers for M:\GAMES\NETADV\PROG\interp\celobj2.cpp(M:\GAMES\NETADV\PROG\interp\celobj2.cpp) segment FOO

   16 0001:00006CE8   18 0001:00006CF1   19 0001:00006D21   26 0001:00006D53
   27 0001:00006D64   28 0001:00006D7B   29 0001:00006D89   30 0001:00006D9E
   33 0001:00006DAE   34 0001:00006DC0   36 0001:00006DC3   37 0001:00006DCC
   39 0001:00006DD5   40 0001:00006DDE   43 0001:00006DEC   45 0001:00006E05
   46 0001:00006E2A   47 0001:00006E3E   50 0001:00006E4D   52 0001:00006E54
   53 0001:00006E61   55 0001:00006E6A   56 0001:00006E78   57 0001:00006E7A
   58 0001:00006E7D   60 0001:00006E7F   61 0001:00006E83   62 0001:00006E85
   63 0001:00006E8C   65 0001:00006E8E   66 0001:00006E99   68 0001:00006E9E
   69 0001:00006EA4   73 0001:00006EA8   76 0001:00006EB1   81 0001:00006EFC
   83 0001:00006F06   85 0001:00006F0B   86 0001:00006F0D   87 0001:00006F1B
   88 0001:00006F1D   90 0001:00006F22   91 0001:00006F26   92 0001:00006F28
   94 0001:00006F2A   95 0001:00006F35   97 0001:00006F3A   98 0001:00006F40
   99 0001:00006F42  103 0001:00006F47  104 0001:00006F49  105 0001:00006F57
  106 0001:00006F59  107 0001:00006F5C  109 0001:00006F61  110 0001:00006F65
  111 0001:00006F67  113 0001:00006F69  114 0001:00006F74  117 0001:00006F79
  118 0001:00006F7E  119 0001:00006F88  120 0001:00006F95  121 0001:00006FA8
  123 0001:00006FAA  124 0001:00006FAC  125 0001:00006FC3  126 0001:00006FC7
  125 0001:00006FD8  130 0001:00006FE0  129 0001:00006FE4  131 0001:00006FE7
  136 0001:00006FEC  145 0001:00006FF4  150 0001:00006FFD  151 0001:00007030
  154 0001:00007065  155 0001:00007074  156 0001:00007082  157 0001:0000708E
  161 0001:0000709E  162 0001:000070B0  164 0001:000070B3  165 0001:000070BC
  167 0001:000070C5  168 0001:000070CE  171 0001:000070DC  173 0001:000070F5
  174 0001:00007116  175 0001:00007127  178 0001:00007130  180 0001:00007137
  181 0001:00007147  183 0001:0000714F  184 0001:0000715C  185 0001:0000715E
  186 0001:00007160  188 0001:00007162  189 0001:00007169  190 0001:00007170
  191 0001:00007176  193 0001:00007178  194 0001:00007184  196 0001:0000718C
  197 0001:00007193  201 0001:00007197  204 0001:000071A0  209 0001:000071E9
  211 0001:000071F1  213 0001:000071F7  214 0001:000071FA  215 0001:00007208
  216 0001:0000720A  218 0001:0000720F  219 0001:00007213  220 0001:00007216
  222 0001:00007218  223 0001:00007224  225 0001:0000722C  226 0001:00007233
  227 0001:00007235  231 0001:0000723A  232 0001:0000723D  233 0001:0000724B
  234 0001:0000724D  235 0001:0000724E  237 0001:00007253  238 0001:00007257
  239 0001:0000725A  241 0001:0000725C  242 0001:00007268  244 0001:00007270
  245 0001:00007272  246 0001:0000727F  247 0001:00007293  248 0001:0000729A
  250 0001:0000729C  251 0001:000072B0  252 0001:000072B4  251 0001:000072BF
  255 0001:000072C8  256 0001:000072CF  264 0001:000072D4  269 0001:000072E0
  270 0001:00007313  272 0001:00007348  273 0001:00007354  274 0001:00007357
  275 0001:00007366  277 0001:00007372  278 0001:0000737B  279 0001:00007386
  280 0001:0000738E  284 0001:00007397  300 0001:0000739E  284 0001:000073A4
  286 0001:000073B3  287 0001:000073D2  289 0001:000073D5  294 0001:000073D9
  297 0001:000073E2  306 0001:0000741C  311 0001:00007428  312 0001:0000745B
  314 0001:00007490  315 0001:0000749C  316 0001:0000749F  317 0001:000074B0
  320 0001:000074BA  322 0001:000074C3  323 0001:000074D1  324 0001:000074DA
  328 0001:000074E3  345 0001:000074EA  328 0001:000074F0  330 0001:000074FF
  331 0001:0000751E  332 0001:00007522  334 0001:00007525  339 0001:00007529
  342 0001:00007532  351 0001:00007570  354 0001:00007582  355 0001:000075B5
  356 0001:000075D9  357 0001:000075FD  359 0001:0000762F  361 0001:00007640
  362 0001:00007645  363 0001:0000764B  364 0001:00007651  365 0001:00007657
  366 0001:00007659  368 0001:0000765C  369 0001:0000767B  370 0001:0000769A
  371 0001:000076B6  374 0001:000076D2  376 0001:000076DF  377 0001:000076E6
  379 0001:000076F1  380 0001:0000770E  381 0001:00007729  383 0001:00007751
  384 0001:0000775B  387 0001:00007760  389 0001:0000776D  390 0001:00007785
  391 0001:000077A0  393 0001:000077C8  398 0001:000077D2  395 0001:000077D8
  398 0001:000077DD  400 0001:000077E8  401 0001:00007801  402 0001:0000781C
  405 0001:00007847  406 0001:00007859  407 0001:0000785C  408 0001:00007865
  410 0001:0000786E  411 0001:00007877  414 0001:00007888  415 0001:0000788F
  417 0001:000078A6  418 0001:000078C0  421 0001:000078D6  423 0001:000078EC
  426 0001:000078F6  429 0001:000078FD  430 0001:0000790F  433 0001:00007913
  434 0001:00007929  436 0001:00007932  439 0001:00007937  443 0001:0000793D
  444 0001:00007954  450 0001:0000795D  451 0001:0000795F  459 0001:00007967
  464 0001:0000796C  467 0001:00007975  476 0001:000079C4  478 0001:000079D6
  479 0001:00007A09  480 0001:00007A2D  481 0001:00007A51  484 0001:00007A83
  486 0001:00007A91  487 0001:00007A96  488 0001:00007A9C  489 0001:00007A9F
  490 0001:00007AA5  491 0001:00007AAD  493 0001:00007AB6  494 0001:00007AD2
  495 0001:00007AF1  496 0001:00007B10  498 0001:00007B2F  500 0001:00007B39
  501 0001:00007B40  503 0001:00007B4E  504 0001:00007B6C  505 0001:00007B87
  510 0001:00007BAC  512 0001:00007BB6  513 0001:00007BCF  514 0001:00007BEA
  519 0001:00007C0F  521 0001:00007C22  522 0001:00007C3C  523 0001:00007C57
  527 0001:00007C7F  528 0001:00007C89  529 0001:00007C8C  532 0001:00007C95
  534 0001:00007CAC  535 0001:00007CC3  538 0001:00007CD9  545 0001:00007CDE
  538 0001:00007CDF  539 0001:00007CE4  540 0001:00007CF0  541 0001:00007D01
  543 0001:00007D05  544 0001:00007D14

Line numbers for M:\GAMES\NETADV\PROG\interp\celobja.cpp(M:\GAMES\NETADV\PROG\interp\celobja.cpp) segment FOO

   21 0001:00007D30   23 0001:00007D42   24 0001:00007D6F   31 0001:00007D98
   32 0001:00007DA3   33 0001:00007DB5   35 0001:00007DC3   39 0001:00007DCD
   40 0001:00007DD9   42 0001:00007DDC   43 0001:00007DE5   45 0001:00007DEE
   46 0001:00007DF7   49 0001:00007E05   50 0001:00007E0D   51 0001:00007E15
   53 0001:00007E1D   55 0001:00007E36   56 0001:00007E3C   58 0001:00007E7A
   59 0001:00007EB9   62 0001:00007EC1   64 0001:00007ED3   65 0001:00007F00
   72 0001:00007F29   73 0001:00007F34   74 0001:00007F40   76 0001:00007F4B
   80 0001:00007F55   81 0001:00007F61   83 0001:00007F64   84 0001:00007F6D
   86 0001:00007F76   87 0001:00007F7F   90 0001:00007F8D   91 0001:00007F95
   92 0001:00007F9D   94 0001:00007FA5   96 0001:00007FBA   97 0001:00007FC0
   99 0001:00008001  100 0001:0000803D  103 0001:00008042  105 0001:00008051
  107 0001:0000807E  114 0001:00008097  115 0001:0000809F  118 0001:000080A9
  119 0001:000080B9  120 0001:000080BF  121 0001:000080C8  122 0001:000080D3
  123 0001:000080DC  125 0001:000080E8  126 0001:000080F0  130 0001:000080F6
  132 0001:000080FA  133 0001:00008111  134 0001:00008119  135 0001:0000811E
  130 0001:00008127  137 0001:0000812D  141 0001:00008132  143 0001:0000813E
  145 0001:00008171  148 0001:00008190  149 0001:00008199  151 0001:000081A3
  152 0001:000081B3  153 0001:000081B9  154 0001:000081C2  155 0001:000081CD
  156 0001:000081D6  159 0001:000081E2  161 0001:000081E9  162 0001:0000821A
  159 0001:00008223  164 0001:0000822E  167 0001:00008233  169 0001:00008242
  171 0001:00008272  178 0001:0000828B  179 0001:0000829D  181 0001:000082A3
  182 0001:000082AE  185 0001:000082B8  186 0001:000082C1  187 0001:000082D5
  188 0001:000082DE  190 0001:000082EB  191 0001:000082F6  194 0001:000082FC
  196 0001:00008300  197 0001:0000831B  198 0001:00008323  199 0001:00008328
  194 0001:00008331  201 0001:00008337  205 0001:0000833C  207 0001:0000834B
  209 0001:0000837B  212 0001:00008394  213 0001:000083A6  215 0001:000083AC
  216 0001:000083B7  218 0001:000083C1  219 0001:000083CA  220 0001:000083DE
  221 0001:000083E7  223 0001:000083F4  224 0001:000083FF  227 0001:00008405
  229 0001:00008409  230 0001:00008424  231 0001:0000842C  232 0001:00008431
  227 0001:0000843A  234 0001:00008440  237 0001:00008445  239 0001:00008454
  241 0001:00008487  244 0001:000084A6  245 0001:000084CD  248 0001:000084F4
  251 0001:00008508  252 0001:0000850D  253 0001:00008513  254 0001:00008519
  255 0001:0000851F  256 0001:00008521  258 0001:00008524  259 0001:00008543
  260 0001:00008562  261 0001:0000857E  267 0001:0000859A  269 0001:000085A3
  270 0001:000085AA  272 0001:000085AF  270 0001:000085CE  277 0001:000085D4
  278 0001:000085DE  281 0001:000085E0  283 0001:000085E5  281 0001:000085FD
  288 0001:00008605  295 0001:0000860F  291 0001:00008615  297 0001:0000861A
  295 0001:00008630  303 0001:0000863E  304 0001:00008650  305 0001:00008653
  306 0001:0000865C  308 0001:00008665  309 0001:0000866E  312 0001:0000867F
  313 0001:00008686  358 0001:0000868E  359 0001:00008698  360 0001:000086A0
  361 0001:000086AA  362 0001:000086B2  363 0001:000086BE  369 0001:000086C9
  313 0001:000086CE  315 0001:000086DD  318 0001:000086F7  321 0001:00008709
  323 0001:0000871F  326 0001:0000872A  329 0001:00008735  330 0001:00008747
  333 0001:0000874B  334 0001:00008761  336 0001:0000876A  339 0001:0000876F
  343 0001:00008775  344 0001:0000878C  350 0001:00008795  351 0001:00008797
  395 0001:0000879F  399 0001:000087AE  401 0001:000087DE  404 0001:000087FA
  405 0001:00008821  407 0001:00008848  409 0001:00008859  412 0001:00008869
  409 0001:00008870  417 0001:00008879  418 0001:00008881  419 0001:0000888A
  420 0001:00008893  421 0001:0000889C  422 0001:000088A4  424 0001:000088AD
  425 0001:000088CC  426 0001:000088EB  427 0001:0000890A  433 0001:00008929
  435 0001:0000892F  436 0001:00008936  438 0001:0000893B  436 0001:00008959
  445 0001:00008961  447 0001:00008969  445 0001:00008982  453 0001:00008987
  455 0001:00008992  456 0001:000089AB  457 0001:000089C6  461 0001:000089EB
  462 0001:000089F5  463 0001:000089F8  466 0001:00008A01  468 0001:00008A06
  469 0001:00008A19  470 0001:00008A2F  471 0001:00008A39  472 0001:00008A41
  473 0001:00008A4D  479 0001:00008A55  466 0001:00008A5A  494 0001:00008A60


Line numbers for M:\GAMES\NETADV\PROG\interp\config.cpp(M:\GAMES\NETADV\PROG\interp\config.cpp) segment FOO

    1 0001:00008A68   36 0001:00008A75   37 0001:00008A86   38 0001:00008A9A
   39 0001:00008AAE   40 0001:00008AC2   41 0001:00008AD6   42 0001:00008AEA
   43 0001:00008AFE   44 0001:00008B12   45 0001:00008B26   46 0001:00008B3A
   47 0001:00008B4E   48 0001:00008B62   49 0001:00008B76   50 0001:00008B8A
   51 0001:00008B9E   85 0001:00008BB2   86 0001:00008BC8   88 0001:00008BF4
   89 0001:00008C0A   90 0001:00008C20   91 0001:00008C36   93 0001:00008C62
   94 0001:00008C78   95 0001:00008C8E   96 0001:00008CA4   98 0001:00008CD0
   99 0001:00008CE6  100 0001:00008CFC  101 0001:00008D12  103 0001:00008D3E
  104 0001:00008D54  106 0001:00008D6A  110 0001:00008D80  112 0001:00008DAC
  113 0001:00008DC2  114 0001:00008DD8  116 0001:00008DF1  119 0001:00008E20
  120 0001:00008E36  123 0001:00008E65  125 0001:00008E7E  127 0001:00008E97
  129 0001:00008EB0  130 0001:00008EC6  132 0001:00008EF2  133 0001:00008F08
  134 0001:00008F1E  137 0001:00008F4D  139 0001:00008F66  142 0001:00008F7F
  145 0001:00008F98  147 0001:00008FB1  155 0001:00008FE8  159 0001:00008FF0
  160 0001:00008FF3  161 0001:00009008  162 0001:00009011  165 0001:00009017
  169 0001:00009020  178 0001:0000902A  180 0001:00009048  181 0001:0000904C
  183 0001:00009058  186 0001:0000906C  187 0001:00009084  188 0001:0000908C
  189 0001:00009097  190 0001:000090AB  191 0001:000090DF  192 0001:000090E9
  193 0001:000090EE  194 0001:0000910A  204 0001:00009121  207 0001:00009128
  208 0001:0000912F  201 0001:00009131  199 0001:00009162  215 0001:000091DA
  216 0001:000091F2  220 0001:0000920C  233 0001:0000921A  241 0001:00009223
  243 0001:00009242  244 0001:00009260  247 0001:00009282  248 0001:00009291
  252 0001:0000929E  253 0001:000092B3  256 0001:000092BA  260 0001:000092BE
  261 0001:000092CB  262 0001:000092DB  263 0001:000092DE  264 0001:000092E0
  267 0001:000092E1  283 0001:000092ED  284 0001:000092FA  287 0001:000092FE
  284 0001:00009312  285 0001:00009318  289 0001:0000932B  290 0001:00009338
  291 0001:0000933A  290 0001:0000935E  292 0001:00009364  293 0001:00009371
  294 0001:00009378  295 0001:00009397  293 0001:000093AB  297 0001:000093B1
  298 0001:000093CE  299 0001:000093E0  300 0001:000093F3  304 0001:00009405
  309 0001:00009411  310 0001:00009422  311 0001:00009427  312 0001:00009438
  316 0001:00009442  317 0001:0000945E  318 0001:0000946F  319 0001:00009484
  324 0001:00009488  319 0001:000094A9  329 0001:000094B1  333 0001:000094BF
  341 0001:000094CE  343 0001:000094DE  345 0001:000094FC  346 0001:00009506
  348 0001:00009512  349 0001:00009516  350 0001:00009520  348 0001:0000952C
  353 0001:00009542  354 0001:00009544  357 0001:00009549  361 0001:00009551
  362 0001:00009561  363 0001:0000956D  365 0001:00009575  366 0001:00009583
  367 0001:000095A1  369 0001:000095B5  370 0001:000095C7  371 0001:000095E5
  372 0001:000095EB  373 0001:00009609  375 0001:0000960D  376 0001:00009610
  379 0001:00009615  383 0001:00009619  384 0001:00009629  385 0001:00009642
  388 0001:00009645  390 0001:00009649  391 0001:0000965B  392 0001:00009674
  395 0001:00009677  397 0001:0000967B  398 0001:00009694  401 0001:000096A5
  402 0001:000096ED  404 0001:000096F5  405 0001:0000973D  408 0001:00009742
  409 0001:00009747  412 0001:0000974A  414 0001:0000974E  415 0001:00009769
  417 0001:0000977A  418 0001:000097B0  419 0001:000097B8  420 0001:000097EE
  423 0001:000097F3  424 0001:000097F8  427 0001:000097FB  430 0001:00009807
  433 0001:0000980F  436 0001:0000981B  439 0001:00009823  442 0001:0000982F
  445 0001:00009837  448 0001:00009843  451 0001:0000984B  455 0001:0000984F
  456 0001:0000985F  457 0001:00009866  460 0001:00009869  464 0001:0000986C
  465 0001:0000987E  466 0001:00009885  469 0001:00009887  471 0001:00009893
  472 0001:000098A7  475 0001:000098B7  476 0001:000098B9  477 0001:000098BD
  476 0001:000098D7  478 0001:000098E9  481 0001:000098F8  482 0001:00009906
  483 0001:00009913  485 0001:00009932  486 0001:00009941  487 0001:00009947
  489 0001:0000994A  492 0001:0000994F  494 0001:00009958  495 0001:00009962
  496 0001:00009980  497 0001:0000998C  498 0001:0000998E  501 0001:00009993
  503 0001:00009997  504 0001:000099A7  505 0001:000099AA  509 0001:000099AD
  511 0001:000099B1  512 0001:000099BB  513 0001:000099CD  514 0001:000099D3
  515 0001:000099D5  518 0001:000099D6  524 0001:000099DF  525 0001:000099EF
  526 0001:000099F4  528 0001:00009A15  529 0001:00009A17  530 0001:00009A2E
  531 0001:00009A40  532 0001:00009A52  537 0001:00009A62  540 0001:00009A6B
  543 0001:00009A72  548 0001:00009A7E  549 0001:00009C17  552 0001:00009C1F
  553 0001:00009DAF  555 0001:00009DB8  560 0001:00009DBD  563 0001:00009DDC
  566 0001:00009DDD  568 0001:00009DE4  569 0001:00009DFD  573 0001:00009E00
  579 0001:00009E25  581 0001:00009E2C  585 0001:00009E3D  590 0001:00009E49
  591 0001:00009E59  593 0001:00009E60  595 0001:00009E67  598 0001:00009E6D
  599 0001:00009E79  600 0001:00009E7F  601 0001:00009E8E  604 0001:00009EA3
  605 0001:00009EA8  608 0001:00009EAD  612 0001:00009EB9  613 0001:00009EBE
  615 0001:00009EC8  616 0001:00009ECB  617 0001:00009ECF  616 0001:00009EDB
  619 0001:00009EE0  620 0001:00009EE2

Line numbers for M:\GAMES\NETADV\PROG\interp\criterr.cpp(M:\GAMES\NETADV\PROG\interp\criterr.cpp) segment FOO

    7 0001:00009F00    9 0001:00009F2C    1 0001:00009F40

Line numbers for M:\GAMES\NETADV\PROG\interp\criterrw.cpp(M:\GAMES\NETADV\PROG\interp\criterrw.cpp) segment FOO

    8 0001:00009F54   12 0001:00009F6D

Line numbers for M:\GAMES\NETADV\PROG\interp\cursorw.cpp(M:\GAMES\NETADV\PROG\interp\cursorw.cpp) segment FOO

   36 0001:00009FB4   38 0001:0000A02C   40 0001:0000A037   41 0001:0000A03E
   42 0001:0000A05C   43 0001:0000A064   44 0001:0000A067   45 0001:0000A06A
   46 0001:0000A07D   49 0001:0000A086   52 0001:0000A0A9   51 0001:0000A0AF
   57 0001:0000A0CC   65 0001:0000A0DE   66 0001:0000A0F7   74 0001:0000A0F9
   75 0001:0000A102   76 0001:0000A125   77 0001:0000A12B   79 0001:0000A130
   81 0001:0000A150   82 0001:0000A156   84 0001:0000A15C   85 0001:0000A166
   86 0001:0000A173   87 0001:0000A185   88 0001:0000A18B   89 0001:0000A1AB
   90 0001:0000A1B1   93 0001:0000A1B7   94 0001:0000A1C3   96 0001:0000A1E3
   97 0001:0000A1F5  102 0001:0000A212  104 0001:0000A221  105 0001:0000A230
  106 0001:0000A236  108 0001:0000A239  109 0001:0000A242  110 0001:0000A24B
  111 0001:0000A25D  113 0001:0000A26F  114 0001:0000A276  117 0001:0000A27D
  120 0001:0000A293  122 0001:0000A2A6  123 0001:0000A2DE  124 0001:0000A2E7
  125 0001:0000A2F0  128 0001:0000A2F4  129 0001:0000A30F  130 0001:0000A32A
  133 0001:0000A34C  134 0001:0000A358  135 0001:0000A35B  141 0001:0000A362
  142 0001:0000A36B  143 0001:0000A36F  142 0001:0000A3A3  145 0001:0000A3AE
  146 0001:0000A3B2  145 0001:0000A3E9  149 0001:0000A3F2  150 0001:0000A406
  151 0001:0000A40E  152 0001:0000A413  155 0001:0000A469  156 0001:0000A46E
  157 0001:0000A471  158 0001:0000A476  162 0001:0000A47E  164 0001:0000A494
  165 0001:0000A4AD  167 0001:0000A4B2  169 0001:0000A4BE  171 0001:0000A4D2
  172 0001:0000A4DA  173 0001:0000A4E2  207 0001:0000A4EC  208 0001:0000A503
  209 0001:0000A50B  210 0001:0000A528  212 0001:0000A52A  213 0001:0000A532
  214 0001:0000A53A  215 0001:0000A548  217 0001:0000A54A  218 0001:0000A563
  219 0001:0000A578  220 0001:0000A58A  222 0001:0000A58C  223 0001:0000A5A7
  224 0001:0000A5AF  225 0001:0000A5C6  173 0001:0000A5D1  175 0001:0000A5DE
  176 0001:0000A5E5  185 0001:0000A5E9  191 0001:0000A645  193 0001:0000A64A
  194 0001:0000A64D  196 0001:0000A650  198 0001:0000A655  199 0001:0000A656
  200 0001:0000A65A  231 0001:0000A691  256 0001:0000A698  257 0001:0000A6AF
  258 0001:0000A6B7  259 0001:0000A6CD  261 0001:0000A6CF  262 0001:0000A6E6
  263 0001:0000A6F2  264 0001:0000A708  231 0001:0000A710  233 0001:0000A71D
  234 0001:0000A721  242 0001:0000A725  248 0001:0000A781  249 0001:0000A786
  268 0001:0000A7B6  270 0001:0000A7DF  271 0001:0000A7E4  272 0001:0000A7EC
  273 0001:0000A7FD  274 0001:0000A80C  279 0001:0000A820  281 0001:0000A827
  282 0001:0000A834  286 0001:0000A837  290 0001:0000A846  291 0001:0000A84F
  292 0001:0000A854  293 0001:0000A85A  294 0001:0000A85C  295 0001:0000A879
  299 0001:0000A897  300 0001:0000A8B8  302 0001:0000A8D9  303 0001:0000A8EB
  304 0001:0000A8F4  305 0001:0000A903  345 0001:0000A911  347 0001:0000A920
  348 0001:0000A92B  350 0001:0000A93C  351 0001:0000A946  352 0001:0000A963
  353 0001:0000A979  354 0001:0000A9EC  355 0001:0000A9FE  356 0001:0000AA10
  361 0001:0000AA2B  363 0001:0000AA2E  364 0001:0000AA36  365 0001:0000AA44
  374 0001:0000AA46  382 0001:0000ABE6  383 0001:0000ABED  384 0001:0000ABF4
  386 0001:0000ABFB  387 0001:0000AC19  389 0001:0000AC20  390 0001:0000AC3E
  392 0001:0000AC45  393 0001:0000AC63  395 0001:0000AC6A  396 0001:0000AC8B
  398 0001:0000AC95  399 0001:0000ACB6  401 0001:0000ACC0  402 0001:0000ACE3
  404 0001:0000ACEB  405 0001:0000AD03  406 0001:0000AD09  409 0001:0000AD29
  410 0001:0000AD31  411 0001:0000AD3D  412 0001:0000AD52  413 0001:0000AD6A
  414 0001:0000AD80  419 0001:0000AD96  422 0001:0000AD9E  430 0001:0000ADC1
  424 0001:0000ADC7  435 0001:0000ADE4  439 0001:0000ADF0  440 0001:0000ADF7
  441 0001:0000ADF9  442 0001:0000ADFF  446 0001:0000AE24  449 0001:0000AE2D
  450 0001:0000AE3C  451 0001:0000AE42  455 0001:0000AE48  456 0001:0000AE4C
  457 0001:0000AE52  458 0001:0000AE58  459 0001:0000AE5E  460 0001:0000AE64
  462 0001:0000AE66  463 0001:0000AE6C  466 0001:0000AE77  467 0001:0000AE83
  468 0001:0000AE91  470 0001:0000AEA9  471 0001:0000AEBB  487 0001:0000AEC8
  488 0001:0000AEEC  489 0001:0000AF05  492 0001:0000AF08  493 0001:0000AF0C
  494 0001:0000AF29  495 0001:0000AF41  496 0001:0000AF61  498 0001:0000AF66
  499 0001:0000AF6E  500 0001:0000AF9A  501 0001:0000B01A  502 0001:0000B039
  505 0001:0000B046  506 0001:0000B055  508 0001:0000B05E  515 0001:0000B06A
  517 0001:0000B074  518 0001:0000B07F  519 0001:0000B088  520 0001:0000B092
  521 0001:0000B0A5  522 0001:0000B0B2  528 0001:0000B0B8  532 0001:0000B0C1
  533 0001:0000B0C9  536 0001:0000B0D2  537 0001:0000B0F3  539 0001:0000B114
  541 0001:0000B126  547 0001:0000B13A  549 0001:0000B13F  550 0001:0000B172
  551 0001:0000B17C  552 0001:0000B180  553 0001:0000B1B2  556 0001:0000B1B9
  557 0001:0000B1C0  561 0001:0000B1C2  563 0001:0000B1CB  565 0001:0000B1D5
  567 0001:0000B1F5  568 0001:0000B270  569 0001:0000B284  571 0001:0000B292
  574 0001:0000B297  576 0001:0000B29E  579 0001:0000B2A8  580 0001:0000B2AE
  581 0001:0000B2C2  582 0001:0000B2E0  586 0001:0000B2E7  587 0001:0000B30C
  589 0001:0000B320  590 0001:0000B327  592 0001:0000B32A  593 0001:0000B347
  604 0001:0000B34A  606 0001:0000B354  608 0001:0000B35A  609 0001:0000B362
  610 0001:0000B36B  613 0001:0000B374  624 0001:0000B377  628 0001:0000B37E
  629 0001:0000B384  630 0001:0000B3A3  633 0001:0000B3B0  636 0001:0000B3B3
  646 0001:0000B3B6  651 0001:0000B3BE  652 0001:0000B3C5  655 0001:0000B3CB
  656 0001:0000B3CF  657 0001:0000B3FC  664 0001:0000B405  673 0001:0000B409
  678 0001:0000B411  679 0001:0000B417  682 0001:0000B41E  683 0001:0000B44B
  687 0001:0000B454  692 0001:0000B458  694 0001:0000B461  695 0001:0000B481
  696 0001:0000B4FC  699 0001:0000B51F  700 0001:0000B52C  702 0001:0000B54F
  703 0001:0000B5CA  705 0001:0000B5DE  706 0001:0000B5EC  707 0001:0000B5F6
  718 0001:0000B5FB  720 0001:0000B607  723 0001:0000B611  724 0001:0000B63A
  725 0001:0000B659  726 0001:0000B662  730 0001:0000B667  731 0001:0000B69B
  732 0001:0000B69F  736 0001:0000B6A4  740 0001:0000B6DC  741 0001:0000B6FC
  742 0001:0000B777  747 0001:0000B787  748 0001:0000B7AD  751 0001:0000B7BE
  752 0001:0000B7CC  755 0001:0000B7D6  758 0001:0000B7E3  759 0001:0000B803
  760 0001:0000B87E  761 0001:0000B892  765 0001:0000B897  766 0001:0000B8B3
  767 0001:0000B8E8  770 0001:0000B962  771 0001:0000B981  777 0001:0000B991
  778 0001:0000B9B1  779 0001:0000BA2C  782 0001:0000BA40  783 0001:0000BA4E
  786 0001:0000BA55  798 0001:0000BA5A  800 0001:0000BA69  803 0001:0000BA8C
  804 0001:0000BAAB  805 0001:0000BB2E  808 0001:0000BB52  809 0001:0000BB5E
  810 0001:0000BB6B  811 0001:0000BB75  813 0001:0000BB84  814 0001:0000BBAE
  815 0001:0000BBD0  817 0001:0000BBD7  818 0001:0000BBE3  820 0001:0000BBEB
  821 0001:0000BBF1  822 0001:0000BC03  825 0001:0000BC0D  834 0001:0000BC11
  835 0001:0000BC15  825 0001:0000BC19  827 0001:0000BC20  831 0001:0000BC24
  832 0001:0000BC25  827 0001:0000BC26  829 0001:0000BC2B  830 0001:0000BC38
  837 0001:0000BC3E  846 0001:0000BC46  848 0001:0000BC55  851 0001:0000BC78
  852 0001:0000BC94  853 0001:0000BD0B  857 0001:0000BD2C  858 0001:0000BD37
  859 0001:0000BD42  860 0001:0000BD4C  862 0001:0000BD5B  863 0001:0000BD7B
  865 0001:0000BD9C  866 0001:0000BDA2  868 0001:0000BDA8  869 0001:0000BDAE
  870 0001:0000BDCC  871 0001:0000BDD8  873 0001:0000BDE0  874 0001:0000BDE6
  875 0001:0000BE04  878 0001:0000BE0E  879 0001:0000BE15  880 0001:0000BE2C
  881 0001:0000BE2F  878 0001:0000BE32  883 0001:0000BE3D  922 0001:0000BE42
  927 0001:0000BE4E  928 0001:0000BE6A  929 0001:0000BEE7  930 0001:0000BEED
  931 0001:0000BEF3  937 0001:0000BF06  938 0001:0000BF0C  941 0001:0000BF12
  942 0001:0000BF1C  943 0001:0000BF26  945 0001:0000BF38  946 0001:0000BF53
  948 0001:0000BF73  949 0001:0000BF85  953 0001:0000BF92  954 0001:0000BF94
  956 0001:0000BF9D  957 0001:0000BFB5  959 0001:0000BFB8  960 0001:0000BFBF
  961 0001:0000BFD9  962 0001:0000BFDC  959 0001:0000BFDF  965 0001:0000BFED
  966 0001:0000BFF8  968 0001:0000C003  984 0001:0000C052  987 0001:0000C056
 1001 0001:0000C068 1003 0001:0000C06C 1004 0001:0000C085 1009 0001:0000C088
 1011 0001:0000C097 1012 0001:0000C0B7 1013 0001:0000C132 1014 0001:0000C148
 1019 0001:0000C168 1021 0001:0000C16F 1022 0001:0000C195   65 0001:0000C1A8
    1 0001:0000C1E0

Line numbers for M:\GAMES\NETADV\PROG\interp\debug.cpp(M:\GAMES\NETADV\PROG\interp\debug.cpp) segment FOO

    1 0001:0000C1E8   62 0001:0000C1F5   63 0001:0000C208   64 0001:0000C21B
   67 0001:0000C22A   68 0001:0000C242   69 0001:0000C25A   70 0001:0000C272
   71 0001:0000C289   72 0001:0000C2A1   73 0001:0000C2B9   75 0001:0000C2E9
   77 0001:0000C2F8   80 0001:0000C319   81 0001:0000C334   83 0001:0000C364
   84 0001:0000C37F   85 0001:0000C39A   86 0001:0000C3B2   88 0001:0000C3C1
   91 0001:0000C3E2   92 0001:0000C400   93 0001:0000C41E   94 0001:0000C43C
   95 0001:0000C45A   96 0001:0000C478   97 0001:0000C496   99 0001:0000C4A5
  102 0001:0000C4C6  103 0001:0000C4DE  104 0001:0000C4F6  105 0001:0000C50B
  106 0001:0000C520  107 0001:0000C538  109 0001:0000C569  110 0001:0000C582
  111 0001:0000C59B  112 0001:0000C5B3  113 0001:0000C5CB  115 0001:0000C5FC
  116 0001:0000C614  117 0001:0000C62F  120 0001:0000C63E  159 0001:0000C660
  160 0001:0000C769  161 0001:0000C872  162 0001:0000C95B  167 0001:0000CB00
  171 0001:0000CB09  172 0001:0000CB12  173 0001:0000CB1A  174 0001:0000CB23
  175 0001:0000CB32  176 0001:0000CB43  177 0001:0000CB57  181 0001:0000CB69
  182 0001:0000CB72  183 0001:0000CB7A  184 0001:0000CB7F  188 0001:0000CB91
  191 0001:0000CB9E  196 0001:0000CBC6  198 0001:0000CBCB  200 0001:0000CBD9
  201 0001:0000CBE2  204 0001:0000CBF4  205 0001:0000CC01  230 0001:0000CC10
  234 0001:0000CC2B  238 0001:0000CC3D  239 0001:0000CC42  246 0001:0000CC47
  253 0001:0000CC6E  254 0001:0000CC78  256 0001:0000CC9B  261 0001:0000CCA7
  266 0001:0000CCAF  267 0001:0000CCB7  270 0001:0000CCBC  273 0001:0000CCC6
  274 0001:0000CCCB  277 0001:0000CCD0  281 0001:0000CCDF  282 0001:0000CCE4
  285 0001:0000CCE9  286 0001:0000CCF4  289 0001:0000CCF6  290 0001:0000CCFB
  293 0001:0000CD00  297 0001:0000CD04  298 0001:0000CD09  301 0001:0000CD0E
  302 0001:0000CD1A  305 0001:0000CD1C  306 0001:0000CD21  309 0001:0000CD26
  310 0001:0000CD2B  313 0001:0000CD30  317 0001:0000CD52  321 0001:0000CD6E
  322 0001:0000CD82  325 0001:0000CD84  326 0001:0000CD97  329 0001:0000CD99
  330 0001:0000CD9E  333 0001:0000CDA0  334 0001:0000CDA5  337 0001:0000CDA7
  338 0001:0000CDB0  339 0001:0000CDBF  340 0001:0000CDD0  344 0001:0000CDE3
  345 0001:0000CDEF  348 0001:0000CE8F  352 0001:0000CE9B  353 0001:0000CEA0
  356 0001:0000CEA5  357 0001:0000CEAA  360 0001:0000CEAF  361 0001:0000CEB4
  364 0001:0000CEB9  365 0001:0000CEBE  369 0001:0000CEC3  370 0001:0000CED1
  371 0001:0000CEE3  372 0001:0000CEF5  373 0001:0000CF03  374 0001:0000CF10
  375 0001:0000CF25  377 0001:0000CF2B  382 0001:0000CF30  387 0001:0000CF36
  388 0001:0000CF55  389 0001:0000CF72  390 0001:0000CF7A  392 0001:0000CF7F
  395 0001:0000CF83  401 0001:0000CF8B  405 0001:0000CFAF  407 0001:0000CFB6
  408 0001:0000CFC2  411 0001:0000CFD2  414 0001:0000CFEE  415 0001:0000D007
  416 0001:0000D024  418 0001:0000D02A  419 0001:0000D036  424 0001:0000D03B
  430 0001:0000D041  431 0001:0000D061  432 0001:0000D078  435 0001:0000D07C
  437 0001:0000D088  438 0001:0000D0E7  439 0001:0000D0FF  440 0001:0000D151
  442 0001:0000D170  446 0001:0000D18F  456 0001:0000D19B  457 0001:0000D1B1
  458 0001:0000D1C7  459 0001:0000D1DD  461 0001:0000D1EC  462 0001:0000D206
  463 0001:0000D21D  464 0001:0000D238  465 0001:0000D253  466 0001:0000D26E
  467 0001:0000D289  469 0001:0000D2BC  471 0001:0000D2CB  475 0001:0000D303
  477 0001:0000D30C  478 0001:0000D311  480 0001:0000D334  482 0001:0000D346
  483 0001:0000D348  486 0001:0000D354  488 0001:0000D37C  491 0001:0000D394
  494 0001:0000D3AD  499 0001:0000D3FC  503 0001:0000D415  507 0001:0000D423
  508 0001:0000D436  512 0001:0000D459  513 0001:0000D46C  516 0001:0000D471
  517 0001:0000D476  521 0001:0000D48D  525 0001:0000D49F  526 0001:0000D4A4
  530 0001:0000D4A6  531 0001:0000D4AB  497 0001:0000D4AD  533 0001:0000D4D4
  535 0001:0000D4DC  537 0001:0000D4E5  540 0001:0000D500  542 0001:0000D50D
  546 0001:0000D51E  548 0001:0000D529  560 0001:0000D53C  561 0001:0000D559
  564 0001:0000D560  570 0001:0000D56C  573 0001:0000D590  575 0001:0000D675
  576 0001:0000D6D0  578 0001:0000D6E2  579 0001:0000D6EE  580 0001:0000D77F
  581 0001:0000D78B  582 0001:0000D7AB  583 0001:0000D836  584 0001:0000D855
  585 0001:0000D89E  586 0001:0000D8C1  588 0001:0000D8E8  591 0001:0000D8ED
  597 0001:0000D8F9  598 0001:0000D90F  599 0001:0000D92A  600 0001:0000D945
  601 0001:0000D95D  603 0001:0000D96C  605 0001:0000D9A6  607 0001:0000D9B1
  609 0001:0000D9BA  610 0001:0000D9BF  612 0001:0000D9DB  614 0001:0000D9ED
  615 0001:0000D9F3  617 0001:0000D9F5  619 0001:0000DA10  622 0001:0000DA29
  625 0001:0000DA41  630 0001:0000DA99  631 0001:0000DA9E  635 0001:0000DAA0
  636 0001:0000DAC4  637 0001:0000DAD6  638 0001:0000DAEE  639 0001:0000DB42
  641 0001:0000DB50  642 0001:0000DB59  643 0001:0000DB5F  644 0001:0000DB6A
  645 0001:0000DB73  646 0001:0000DB8D  660 0001:0000DB92  666 0001:0000DB9E
  667 0001:0000DBA3  670 0001:0000DBC6  672 0001:0000DBCF  676 0001:0000DCC6
  677 0001:0000DCE7  679 0001:0000DDF7  683 0001:0000DDFC  685 0001:0000DE08
  686 0001:0000DEAD  687 0001:0000DEB9  690 0001:0000DEBE  692 0001:0000DFA0
  693 0001:0000DFAF  697 0001:0000DFC0  700 0001:0000DFC4  701 0001:0000DFE7
  704 0001:0000E003  705 0001:0000E01B  708 0001:0000E088  714 0001:0000E09E
  716 0001:0000E0AA  717 0001:0000E0B0  719 0001:0000E0B6  720 0001:0000E0BE
  722 0001:0000E0C8  723 0001:0000E14D  725 0001:0000E158  726 0001:0000E15A
  728 0001:0000E15F  729 0001:0000E167  732 0001:0000E16F  735 0001:0000E17E
  736 0001:0000E1A7  737 0001:0000E1B8  739 0001:0000E252  745 0001:0000E257
  748 0001:0000E26B  749 0001:0000E288  750 0001:0000E290  757 0001:0000E295
  762 0001:0000E2A3  763 0001:0000E2A8  767 0001:0000E2AD  770 0001:0000E2B8
  771 0001:0000E2C4  774 0001:0000E2C5  777 0001:0000E2CA  778 0001:0000E2D4
  783 0001:0000E2D5  785 0001:0000E2DB  786 0001:0000E2E6  787 0001:0000E2EC
  788 0001:0000E2F2  790 0001:0000E2FB  791 0001:0000E300  794 0001:0000E302
  796 0001:0000E30C  797 0001:0000E320  798 0001:0000E328  799 0001:0000E332
  804 0001:0000E338  806 0001:0000E33D  807 0001:0000E34C  808 0001:0000E35D
  809 0001:0000E365  810 0001:0000E374  811 0001:0000E385  813 0001:0000E38D
  814 0001:0000E396  815 0001:0000E3AB  817 0001:0000E3CC  819 0001:0000E3D6
  820 0001:0000E3F0  821 0001:0000E404  826 0001:0000E408  828 0001:0000E413
  869 0001:0000E425  875 0001:0000E43E  885 0001:0000E44A  887 0001:0000E44D
  891 0001:0000E461  896 0001:0000E47F  899 0001:0000E490  900 0001:0000E4A1
  904 0001:0000E4A9  905 0001:0000E4B6  906 0001:0000E4D5  909 0001:0000E4D8
  910 0001:0000E4E0  911 0001:0000E4E5  914 0001:0000E4EA  915 0001:0000E4EF
  916 0001:0000E512  917 0001:0000E527  918 0001:0000E537  920 0001:0000E53C
  921 0001:0000E54F  923 0001:0000E554  924 0001:0000E564  927 0001:0000E569
  928 0001:0000E570  934 0001:0000E585  935 0001:0000E58F  936 0001:0000E5A3
  937 0001:0000E5BB  941 0001:0000E5C0  953 0001:0000E5C5  958 0001:0000E5CD
  961 0001:0000E5CE  966 0001:0000E5CF  968 0001:0000E5F2  969 0001:0000E615
  973 0001:0000E630  974 0001:0000E638  970 0001:0000E641  976 0001:0000E647
  979 0001:0000E649  981 0001:0000E64A  983 0001:0000E66A  984 0001:0000E677
  985 0001:0000E694  986 0001:0000E6AF  994 0001:0000E6B1  996 0001:0000E6B5
  998 0001:0000E6C2  999 0001:0000E6D9 1001 0001:0000E6E1 1002 0001:0000E6F8


Line numbers for M:\GAMES\NETADV\PROG\interp\debugdsp.cpp(M:\GAMES\NETADV\PROG\interp\debugdsp.cpp) segment FOO

   45 0001:0000E708   48 0001:0000E711   51 0001:0000E71D   54 0001:0000E7B3
   57 0001:0000E7E4   60 0001:0000E7FB   65 0001:0000E84D   70 0001:0000E86C
   75 0001:0000E88B   78 0001:0000E8B4   80 0001:0000E8CA   82 0001:0000E8D3
   84 0001:0000E917   85 0001:0000E919   87 0001:0000E946   88 0001:0000E958
   89 0001:0000E96A   91 0001:0000E998   93 0001:0000E99D   94 0001:0000E9C0
   97 0001:0000E9C8  104 0001:0000E9D0  105 0001:0000E9D9  106 0001:0000E9E0
  110 0001:0000E9E3  111 0001:0000EA02  114 0001:0000EA05  115 0001:0000EA14
  117 0001:0000EA27  123 0001:0000EA59  124 0001:0000EA80  129 0001:0000EA82
  131 0001:0000EABC  135 0001:0000EABE  120 0001:0000EACC  141 0001:0000EAD3
  144 0001:0000EADF  146 0001:0000EAEE  147 0001:0000EAFA  148 0001:0000EB1E
  149 0001:0000EB22  150 0001:0000EB34  151 0001:0000EB52  152 0001:0000EB7C
  159 0001:0000EB91  160 0001:0000EBAC  161 0001:0000EBB1  162 0001:0000EBB7
  164 0001:0000EBC3  172 0001:0000EBDF  174 0001:0000EBE3  176 0001:0000EBF2
  178 0001:0000EC42  179 0001:0000EC50  181 0001:0000EC54  183 0001:0000EC75
  184 0001:0000ECA9  186 0001:0000ECB7  187 0001:0000ECC3  188 0001:0000ECD6
  189 0001:0000ECDC  190 0001:0000ECE1  191 0001:0000ECE3  194 0001:0000ED1B
  196 0001:0000ED2E  197 0001:0000ED45  199 0001:0000ED93  200 0001:0000EDB6
  201 0001:0000EDDD  204 0001:0000EDE2  206 0001:0000EDEE  210 0001:0000EDFA
  212 0001:0000EE0C  213 0001:0000EE16  215 0001:0000EE21  216 0001:0000EE2F
  219 0001:0000EE7C  221 0001:0000EE8A  222 0001:0000EE96  224 0001:0000EF32
  225 0001:0000EF3B  227 0001:0000EF4D  228 0001:0000EF68  230 0001:0000EFB7
  231 0001:0000EFDA  232 0001:0000F001  235 0001:0000F006  238 0001:0000F014
  239 0001:0000F01D  241 0001:0000F025  242 0001:0000F02C  245 0001:0000F03C
  251 0001:0000F061  252 0001:0000F0C9  253 0001:0000F163  254 0001:0000F172
  256 0001:0000F17F  260 0001:0000F187  264 0001:0000F192  268 0001:0000F19F
  276 0001:0000F1AC  280 0001:0000F1BE  283 0001:0000F1C3  286 0001:0000F1D7
  287 0001:0000F1F0  289 0001:0000F1FA  290 0001:0000F1FF  294 0001:0000F201
  298 0001:0000F219  299 0001:0000F21F  300 0001:0000F223  303 0001:0000F229
  304 0001:0000F239  309 0001:0000F240  311 0001:0000F24A  312 0001:0000F25A
  313 0001:0000F26E  314 0001:0000F272  315 0001:0000F275  318 0001:0000F279
  319 0001:0000F29C  320 0001:0000F2B2  322 0001:0000F2C5  324 0001:0000F2DA
  325 0001:0000F33E  326 0001:0000F343  328 0001:0000F348  329 0001:0000F367
  330 0001:0000F36C  335 0001:0000F371  336 0001:0000F38A  338 0001:0000F392
  339 0001:0000F3B1  340 0001:0000F3B6  343 0001:0000F3BB  345 0001:0000F3C3
  349 0001:0000F3CA  350 0001:0000F3E7  351 0001:0000F3ED  352 0001:0000F3F2
  355 0001:0000F3F7  356 0001:0000F407  357 0001:0000F41B  358 0001:0000F41E
  359 0001:0000F428  360 0001:0000F43F  363 0001:0000F44F  364 0001:0000F454
  361 0001:0000F459  367 0001:0000F46A  368 0001:0000F4C3  369 0001:0000F4C8
  372 0001:0000F4CD  373 0001:0000F4DC  374 0001:0000F4E3  375 0001:0000F4F5
  378 0001:0000F508  379 0001:0000F50D  376 0001:0000F512  382 0001:0000F51D
  383 0001:0000F534  384 0001:0000F539  387 0001:0000F53E  390 0001:0000F545
  391 0001:0000F562  392 0001:0000F568  393 0001:0000F56D  396 0001:0000F572
  397 0001:0000F57F  398 0001:0000F590  399 0001:0000F593  400 0001:0000F59B
  401 0001:0000F5AF  404 0001:0000F5C1  405 0001:0000F5C6  402 0001:0000F5CB
  408 0001:0000F5D9  409 0001:0000F5E5  410 0001:0000F5EC  411 0001:0000F5FE
  414 0001:0000F60F  415 0001:0000F614  412 0001:0000F619  419 0001:0000F624
  420 0001:0000F633  422 0001:0000F65F  423 0001:0000F664  426 0001:0000F669
  429 0001:0000F670  430 0001:0000F695  431 0001:0000F6A0  433 0001:0000F710
  434 0001:0000F77C  435 0001:0000F782  437 0001:0000F789  440 0001:0000F78E
  441 0001:0000F7A6  442 0001:0000F7B8  443 0001:0000F81F  444 0001:0000F888
  447 0001:0000F892  450 0001:0000F897  451 0001:0000F89C  452 0001:0000F8A2
  454 0001:0000F8A9  455 0001:0000F8C2  458 0001:0000F8CC  461 0001:0000F8D2
  463 0001:0000F8DC  469 0001:0000F8E6  471 0001:0000F8ED  472 0001:0000F8FF
  477 0001:0000F95A  479 0001:0000F963  480 0001:0000F965  481 0001:0000F968
  482 0001:0000F96A  483 0001:0000F96C  485 0001:0000F96F  488 0001:0000F97B
  489 0001:0000F986  490 0001:0000F996  492 0001:0000F99C  493 0001:0000F99F
  494 0001:0000F9A0  496 0001:0000F9A2  498 0001:0000F9A8  497 0001:0000F9AB
  499 0001:0000F9B4  502 0001:0000F9B6  503 0001:0000F9C2  504 0001:0000F9D3
  506 0001:0000F9ED  508 0001:0000FA00  510 0001:0000FA11  514 0001:0000FA42
  516 0001:0000FA5A  517 0001:0000FA6D  518 0001:0000FA84  520 0001:0000FAA6
  521 0001:0000FAB7  522 0001:0000FACE  524 0001:0000FAF1  525 0001:0000FB23
  526 0001:0000FB4A  529 0001:0000FB4F  531 0001:0000FB50  532 0001:0000FB74
  535 0001:0000FB76  539 0001:0000FB82  542 0001:0000FB8E  544 0001:0000FB90
  546 0001:0000FB96  548 0001:0000FB9C  549 0001:0000FBA4  554 0001:0000FBAE
  555 0001:0000FBC3  557 0001:0000FBD4  559 0001:0000FC58  561 0001:0000FC59
  562 0001:0000FC5D  564 0001:0000FC75  566 0001:0000FC86  567 0001:0000FC88
  569 0001:0000FC8D  570 0001:0000FC99  572 0001:0000FCAB  574 0001:0000FCF4
  575 0001:0000FD17  576 0001:0000FD3E  579 0001:0000FD43  583 0001:0000FD4A
  585 0001:0000FD56  586 0001:0000FD63  588 0001:0000FD65  589 0001:0000FD6B
  590 0001:0000FD70  591 0001:0000FD97  594 0001:0000FD9F  595 0001:0000FDA8
  596 0001:0000FDAF  597 0001:0000FDB8  599 0001:0000FDBF  601 0001:0000FDD0
  607 0001:0000FDE3  611 0001:0000FDEC  614 0001:0000FDF4  622 0001:0000FE15
  623 0001:0000FE32  624 0001:0000FE44  625 0001:0000FE58  627 0001:0000FE5D
  629 0001:0000FE76  630 0001:0000FEB5  631 0001:0000FED8  633 0001:0000FEE2
  634 0001:0000FEE6  638 0001:0000FEEB  647 0001:0000FEF4  650 0001:0000FF16
  655 0001:0000FF21  656 0001:0000FF32  657 0001:0000FF42  659 0001:0000FF4A
  661 0001:0000FF55  662 0001:0000FF63  663 0001:0000FF67  665 0001:0000FF6E
  667 0001:0000FF77  668 0001:0000FF88  671 0001:0000FF8D  678 0001:0000FF99
  679 0001:0000FFC2  680 0001:0000FFD4  682 0001:0000FFE0  683 0001:0000FFE9
  686 0001:00010000  687 0001:00010019  688 0001:00010022  690 0001:0001003E
  691 0001:00010054  692 0001:00010058  694 0001:00010073  695 0001:00010080
  696 0001:00010097  700 0001:000100B7  705 0001:000100C0  706 0001:000100C9
  708 0001:000100F1  709 0001:00010107

Line numbers for M:\GAMES\NETADV\PROG\interp\debugmnu.cpp(M:\GAMES\NETADV\PROG\interp\debugmnu.cpp) segment FOO

    1 0001:00010120   15 0001:0001012E   17 0001:0001013F   20 0001:00010140
   22 0001:00010149   23 0001:00010162   24 0001:00010179   27 0001:0001017E
   29 0001:00010185   30 0001:00010198   31 0001:0001019E   32 0001:000101A7
   35 0001:000101AA   37 0001:000101B2   38 0001:000101CB   39 0001:000101DF
   42 0001:000101E3   44 0001:000101EB   45 0001:000101EF   44 0001:000101FE
   46 0001:00010203   49 0001:00010207   51 0001:0001020F   52 0001:00010213
   51 0001:00010222   53 0001:00010227   56 0001:0001022B   58 0001:00010231
   59 0001:00010241   60 0001:00010243   62 0001:0001024E   63 0001:00010257
   67 0001:00010259   70 0001:0001027F   72 0001:00010280   77 0001:000102AC
   80 0001:000102BF   82 0001:000102C6   83 0001:000102D0   84 0001:000102D4
   85 0001:000102DE   86 0001:000102F2   89 0001:000102FA   90 0001:00010308
   95 0001:00010317   96 0001:00010328   99 0001:0001032B  101 0001:00010337
  102 0001:00010373  103 0001:00010382  105 0001:00010387  108 0001:0001038C
  110 0001:00010393  111 0001:000103A8  112 0001:000103AF  115 0001:000103B2
  117 0001:000103BE  118 0001:000103C8  119 0001:000103D4  120 0001:000103DB
  121 0001:000103ED  122 0001:000103F2  121 0001:000103FF  125 0001:00010433
  128 0001:000104BF  131 0001:000104E1  132 0001:000104F1  136 0001:000104F9
  140 0001:0001052C  142 0001:0001052E  145 0001:00010550  147 0001:00010552
  152 0001:00010576  154 0001:00010593  157 0001:00010595  159 0001:000105A4
  160 0001:000105C7  162 0001:000105DA  163 0001:00010602  164 0001:00010611
  167 0001:00010616  170 0001:0001061B  172 0001:00010622  173 0001:0001062F
  174 0001:00010641  178 0001:00010644  181 0001:00010673  183 0001:00010677
  186 0001:0001068B  187 0001:00010691  189 0001:00010693  191 0001:000106B0
  194 0001:000106B1  196 0001:000106C2  197 0001:000106CD  200 0001:000106EA
  202 0001:000106FB  203 0001:00010720  204 0001:00010732  205 0001:0001073F
  206 0001:00010749  207 0001:0001074D  209 0001:0001075D  213 0001:0001078B
  217 0001:000107A3  218 0001:000107A5

Line numbers for M:\GAMES\NETADV\PROG\interp\dialog.cpp(M:\GAMES\NETADV\PROG\interp\dialog.cpp) segment FOO

    1 0001:000107AC   39 0001:000107CE   67 0001:0001081C   68 0001:000108FE
   69 0001:000109DC   70 0001:00010AC8   72 0001:00010BBB   84 0001:000112D2
   87 0001:000112D7   89 0001:000112E3   90 0001:000113BF   91 0001:0001149B
   92 0001:00011577   94 0001:0001165F   97 0001:0001191D  864 0001:00011F45
  866 0001:00011FFA  867 0001:00012001  869 0001:00012008  871 0001:0001200F
  874 0001:0001201E  875 0001:0001211E  876 0001:0001217E  878 0001:00012291
  880 0001:000122AB  881 0001:000122B4  882 0001:000123A4  883 0001:00012483
  884 0001:0001255E  885 0001:00012644  886 0001:00012729  889 0001:00012808
  892 0001:0001289A  894 0001:000128B0  895 0001:00012A41  896 0001:00012BC4
  897 0001:00012DBA  898 0001:00012DC1  899 0001:00012DC7  900 0001:00012DCE
  901 0001:00012DE5  902 0001:00012DEC  905 0001:00012DFB  906 0001:00012E03
  909 0001:00012E0B  910 0001:00012E1F  913 0001:00012E33  914 0001:00012E49
  917 0001:00012E65  918 0001:00012E8D  922 0001:00012EA5  928 0001:00012EA8
  923 0001:00012EAE  929 0001:00012EB1  931 0001:00012EB7  932 0001:00012EF5
  933 0001:00013144  935 0001:00013152  936 0001:00013158  937 0001:00013276
  938 0001:00013387  942 0001:000134A6  944 0001:000134C0  945 0001:000134E5
  946 0001:00013503  950 0001:00013506  952 0001:0001351B  969 0001:00013733
  971 0001:00013740  972 0001:00013769  974 0001:00013773  975 0001:00013779
  976 0001:00013782  978 0001:00013789  988 0001:0001384C  989 0001:00013853
  990 0001:0001385A  992 0001:00013866  994 0001:00013875  995 0001:00013889
  997 0001:000138A9 1000 0001:000138C3 1001 0001:000138E3 1003 0001:00013903
 1004 0001:0001390C 1005 0001:00013912 1006 0001:00013918 1007 0001:0001391E
 1009 0001:00013928 1010 0001:0001392F 1011 0001:00013935 1014 0001:0001393B
 1017 0001:000139CD 1020 0001:000139E3 1021 0001:000139EB 1023 0001:000139F3
 1026 0001:000139F5 1027 0001:00013A02 1028 0001:00013A0D 1029 0001:00013A29
 1033 0001:00013A32 1034 0001:00013A4B 1037 0001:00013A68 1038 0001:00013A84
 1041 0001:00013AA0 1042 0001:00013AA6 1043 0001:00013AA9 1048 0001:00013AAD
 1051 0001:00013AB5 1052 0001:00013AF8 1053 0001:00013B11 1054 0001:00013B28
 1056 0001:00013B36 1057 0001:00013B52 1058 0001:00013B6F 1060 0001:00013B72
 1061 0001:00013B7F 1080 0001:00013BDD 1096 0001:00013C25 1098 0001:00013C32
 1103 0001:00013C6A 1105 0001:00013C9C 1107 0001:00013CBE 1108 0001:00013CC8
 1109 0001:00013D0E 1112 0001:00013D56 1114 0001:00013D7B 1115 0001:00013D8A
 1117 0001:00013DA3 1118 0001:00013DB2 1121 0001:00013DC8 1126 0001:00013DD7
 1128 0001:00013DE1 1129 0001:00013DE8 1130 0001:00013DEC 1131 0001:00013E00
 1132 0001:00013E24 1134 0001:00013E27 1135 0001:00013E46 1138 0001:00013E5F
 1139 0001:00013E67 1140 0001:00013E7C 1142 0001:00013EF1 1144 0001:00013F04
 1148 0001:00013F0C 1151 0001:00013F18 1152 0001:00013F1E 1153 0001:00013F25
 1156 0001:00013F41 1158 0001:00013F48 1159 0001:00013F5D 1160 0001:00013F63
 1161 0001:00013F92 1164 0001:00013F97 1169 0001:00013FA0 1170 0001:00013FA5
 1172 0001:00013FAB 1173 0001:00013FC3 1175 0001:00013FEA 1177 0001:00013FF7
 1179 0001:00014004 1181 0001:00014011 1184 0001:0001402A 1186 0001:00014055
 1188 0001:00014060 1189 0001:00014081 1190 0001:0001409F 1193 0001:000140A1
 1192 0001:000140A8 1194 0001:000140C9 1195 0001:000140D0 1196 0001:000140D8
 1197 0001:000140F4 1198 0001:000140F7 1199 0001:0001410C 1200 0001:00014119
 1202 0001:0001411E 1204 0001:00014120 1206 0001:0001412B 1208 0001:00014134
 1210 0001:00014166 1211 0001:00014168 1212 0001:0001416C 1213 0001:00014174
 1216 0001:00014175 1217 0001:00014177 1218 0001:0001417F 1219 0001:0001419F
 1222 0001:000141A4 1224 0001:000141B0 1225 0001:000141B2 1226 0001:000141B4
 1229 0001:000141C0 1231 0001:000141C6 1242 0001:00014252 1243 0001:00014257
 1244 0001:00014259 1235 0001:0001425B 1248 0001:0001426C 1265 0001:000142B1
 1268 0001:000142B8 1288 0001:00014399 1289 0001:0001439F 1290 0001:000143A5
 1294 0001:000143D3 1295 0001:000143D9 1296 0001:000143E0 1301 0001:000143E2
 1303 0001:000143E8 1304 0001:000143FA 1306 0001:000143FD 1307 0001:00014404
 1311 0001:00014406 1312 0001:0001440C 1313 0001:00014413 1318 0001:00014425
 1319 0001:0001442B 1324 0001:00014444 1325 0001:0001444A 1334 0001:0001445A
 1335 0001:00014460 1336 0001:0001446E 1340 0001:0001447A 1341 0001:00014480
 1342 0001:0001448E 1348 0001:0001449A 1349 0001:000144A8 1350 0001:000144BD
 1351 0001:000144D7 1352 0001:000144E6 1353 0001:000144F6 1354 0001:000144FF
 1355 0001:00014508 1362 0001:0001450D 1363 0001:0001451F 1364 0001:00014531
 1365 0001:0001454B 1397 0001:00014558 1401 0001:0001456C 1403 0001:0001457B
 1404 0001:00014588 1407 0001:0001458E 1408 0001:000145A0 1410 0001:000145AD
 1411 0001:000145B1 1285 0001:000145B6 1423 0001:000146D1 1432 0001:000146E3
 1433 0001:000146E9 1434 0001:000146EF 1436 0001:000146F5 1437 0001:00014707
 1438 0001:00014723 1440 0001:00014744 1441 0001:00014778 1443 0001:0001478D
 1444 0001:000147A5 1445 0001:000147AD 1446 0001:000147CE 1447 0001:000147FF
 1448 0001:00014811 1450 0001:00014838 1451 0001:0001483B 1460 0001:0001483F
 1451 0001:00014842 1452 0001:0001484C 1453 0001:0001485E 1454 0001:00014880
 1455 0001:0001488E 1456 0001:00014897 1457 0001:000148AC 1458 0001:000148BA
 1459 0001:000148C3 1481 0001:000148C8 1482 0001:000148F3 1483 0001:0001493D
 1485 0001:0001493F 1487 0001:0001494A 1488 0001:00014950 1491 0001:00014952
 1492 0001:0001495B 1496 0001:00014964 1497 0001:0001496B 1500 0001:0001497B
 1504 0001:00014983 1506 0001:0001498D 1507 0001:000149A0 1508 0001:000149B6
 1512 0001:000149BC 1514 0001:000149C8 1520 0001:000149CA 1522 0001:000149D5
 1524 0001:000149E0 1525 0001:00014A07 1528 0001:00014A33 1529 0001:00014A3B
 1530 0001:00014A42 1532 0001:00014A54 1533 0001:00014A56 1534 0001:00014A69
 1538 0001:00014A6F 1539 0001:00014A77 1541 0001:00014A8C 1542 0001:00014A90
 1543 0001:00014AB2 1545 0001:00014AB4 1549 0001:00014AD2 1556 0001:00014B1C
 1557 0001:00014B22 1562 0001:00014B30 1565 0001:00014B3A 1566 0001:00014B41
 1572 0001:00014B8B 1573 0001:00014B91 1578 0001:00014B9F 1581 0001:00014BAA
 1582 0001:00014BBD 1588 0001:00014C07 1589 0001:00014C15 1591 0001:00014C1E
 1595 0001:00014C25 1597 0001:00014C28 1598 0001:00014C3F 1601 0001:00014C41
 1605 0001:00014C51 1606 0001:00014C65 1608 0001:00014C74 1609 0001:00014C7D
 1611 0001:00014C85 1612 0001:00014C8B 1614 0001:00014C8F 1618 0001:00014CA5
 1619 0001:00014CA7 1620 0001:00014CA9 1623 0001:00014CAE 1625 0001:00014CB4
 1626 0001:00014CBB 1628 0001:00014CC3 1630 0001:00014CD5 1632 0001:00014CEE
 1633 0001:00014D08 1635 0001:00014D0F 1636 0001:00014D21 1639 0001:00014D24
 1642 0001:00014D30 1644 0001:00014D33 1646 0001:00014D3A 1654 0001:00014D56
 1655 0001:00014D6E 1656 0001:00014D7F 1658 0001:00014D9D 1659 0001:00014DBF
 1660 0001:00014E00 1661 0001:00014E22 1662 0001:00014E60 1663 0001:00014E82
 1664 0001:00014EC3 1666 0001:00014EE5 1667 0001:00014EF0 1669 0001:00014EF8
 1671 0001:00014F01 1672 0001:00014F0B 1675 0001:00014F20 1678 0001:00014F40
 1693 0001:00014F6A 1694 0001:00014F76 1695 0001:00014F8A 1696 0001:00014FDA
 1697 0001:00014FEA 1698 0001:00014FFE 1699 0001:0001500F 1700 0001:00015022
 1701 0001:00015036 1702 0001:00015047 1703 0001:0001505B 1704 0001:00015163
 1708 0001:00015170 1710 0001:00015176 1711 0001:00015198 1712 0001:000151A0
 1714 0001:000151D2 1715 0001:0001523C 1718 0001:00015247 1722 0001:0001524C
 1723 0001:00015254 1724 0001:0001526B 1725 0001:00015286 1731 0001:000152B2
 1732 0001:000152BA 1734 0001:000152C6 1737 0001:000152D1 1738 0001:000152E6
 1743 0001:000152FF 1744 0001:00015307 1746 0001:00015313 1749 0001:0001531E
 1750 0001:00015333 1755 0001:00015341 1756 0001:00015349 1757 0001:00015364
 1759 0001:00015371 1762 0001:00015381 1763 0001:00015396 1768 0001:000153A7
 1769 0001:000153AF 1772 0001:000153C6 1773 0001:000153EE 1774 0001:000153F4
 1775 0001:000153FB 1776 0001:00015402 1778 0001:00015409 1782 0001:0001540E
 1783 0001:00015416 1791 0001:00015432 1799 0001:0001543E 1800 0001:0001544A
 1803 0001:00015456 1804 0001:00015466 1807 0001:00015476 1808 0001:0001548A
 1809 0001:00015492 1814 0001:00015497 1815 0001:000154C2 1816 0001:000154D2
 1817 0001:000154E5 1818 0001:000154F6 1820 0001:00015507 1821 0001:0001550B
 1824 0001:00015533 1825 0001:00015555 1827 0001:00015578 1830 0001:0001557F
 1836 0001:0001558B 1837 0001:00015591 1838 0001:000155A8 1841 0001:000155AD
 1842 0001:000155B7 1845 0001:000155CD 1846 0001:000155E6 1847 0001:000155FA
 1848 0001:0001560D 1849 0001:00015620 1850 0001:00015636 1851 0001:0001564A
 1863 0001:0001564C 1867 0001:00015676 1868 0001:0001568F 1878 0001:000156A2
 1879 0001:000156AC 1881 0001:000156C4 1882 0001:000156D4 1887 0001:00015708
 1908 0001:00015733 1909 0001:00015749 1910 0001:00015784 1911 0001:000157B5
 1913 0001:000157BB 1914 0001:000157C3 1920 0001:000157DB 1922 0001:000157DF
 1923 0001:000157E7 1924 0001:000157FA 1925 0001:00015802 1931 0001:00015807
 1932 0001:0001580B 1934 0001:00015815 1935 0001:0001581D 1943 0001:0001582F
 1944 0001:00015833 1946 0001:0001583D 1947 0001:00015845 1948 0001:0001585B
 1949 0001:00015886 1955 0001:0001588B 1956 0001:0001588F 1958 0001:00015899
 1959 0001:000158A1 1965 0001:000158BC 1966 0001:000158C0 1967 0001:000158C4
 1969 0001:000158CE 1970 0001:000158D6 1976 0001:000158E1 1977 0001:000158E5
 1979 0001:000158EF 1980 0001:000158F7 1981 0001:0001590D 1982 0001:00015931
 1988 0001:00015936 1989 0001:0001593A 1991 0001:00015944 1992 0001:0001594C
 1993 0001:00015956 1994 0001:0001595E 2000 0001:00015963 2001 0001:00015967
 2003 0001:00015971 2004 0001:00015979 2005 0001:00015983 2006 0001:0001598B
 2012 0001:00015990 2013 0001:00015994 2015 0001:000159A0 2016 0001:000159B1
 2017 0001:000159D5 2019 0001:000159F1 2020 0001:00015A18 2026 0001:00015A23
 2028 0001:00015A27 2029 0001:00015A2B 2031 0001:00015A3F 2034 0001:00015A47
 2037 0001:00015A4C 2040 0001:00015A55 2043 0001:00015A5A 2045 0001:00015A5E
 2048 0001:00015A65 2050 0001:00015A7B 2051 0001:00015A9E 2052 0001:00015AB4
 1906 0001:00015B00

Line numbers for M:\GAMES\NETADV\PROG\interp\dos.cpp(M:\GAMES\NETADV\PROG\interp\dos.cpp) segment FOO

   42 0001:00015B7C   81 0001:00015BBB   82 0001:00015BCE   83 0001:00015BD2
   84 0001:00015BD7   86 0001:00015C09   87 0001:00015C39   88 0001:00015C46
   89 0001:00015C4F   90 0001:00015C76   91 0001:00015C7F   94 0001:00015C8B
   95 0001:00015C91   99 0001:00015CA1  104 0001:00015CBD  105 0001:00015CD9
  109 0001:00015D08  110 0001:00015D10  112 0001:00015D1B  113 0001:00015D27
  115 0001:00015D35  116 0001:00015D46  118 0001:00015D4C  119 0001:00015D50
  121 0001:00015D64  128 0001:00015D8A  129 0001:00015DA6  133 0001:00015DD4
  134 0001:00015DE3  138 0001:00015E09  143 0001:00015E4E  144 0001:00015E72
  148 0001:00015EA9  153 0001:00015F00  154 0001:00015F5D  158 0001:00015FC8
  162 0001:0001603A  166 0001:00016053  167 0001:0001609D  168 0001:000160A5
  173 0001:000160CB  174 0001:000160DD  175 0001:000160E5  180 0001:000160F6
  184 0001:00016131  193 0001:000161A0  194 0001:000161B3  195 0001:000161DE
  197 0001:000161EE  198 0001:00016206  199 0001:0001622C  200 0001:00016238
  201 0001:00016241  203 0001:00016246  204 0001:0001625F  206 0001:0001626C
  207 0001:0001627D  210 0001:00016289  211 0001:00016296  212 0001:0001629F
  217 0001:000162A2  218 0001:000162AA  222 0001:000162BD  226 0001:000162D5
  227 0001:000162DD  231 0001:000162E1  235 0001:000162E5  239 0001:00016334
  240 0001:00016347  241 0001:00016358  242 0001:0001637C  243 0001:00016388
  248 0001:00016393  253 0001:000163D0  256 0001:000163EC  272 0001:00016413
  273 0001:0001647D  274 0001:00016486  277 0001:0001648B  278 0001:000164C4
  282 0001:000164CA  286 0001:00016543  296 0001:00016581  301 0001:000165AA
  302 0001:000165B4  309 0001:000165B9  313 0001:000165C0  314 0001:000165C9
  315 0001:000165CD  316 0001:000165E0  318 0001:000165EE  321 0001:000165F3
  328 0001:000165FE  329 0001:0001661C  331 0001:0001662A  332 0001:00016638
  333 0001:00016641  334 0001:0001664B  335 0001:0001664D  338 0001:00016651
  343 0001:00016655  344 0001:00016661  345 0001:0001666B  346 0001:0001667B
  349 0001:0001667E  351 0001:00016682  352 0001:0001668E  353 0001:00016698
  358 0001:000166A7  360 0001:000166B0  361 0001:000166C0  363 0001:000166DF
  364 0001:000166FF  367 0001:00016704  369 0001:00016708  408 0001:00016714
  410 0001:00016728  428 0001:0001672B  430 0001:0001672F  431 0001:0001673B
  435 0001:0001674E  437 0001:00016751  439 0001:0001675D  440 0001:00016764
  442 0001:0001676F  443 0001:00016774  446 0001:00016776  448 0001:0001677A
  449 0001:00016786  453 0001:00016798  457 0001:000167A4  459 0001:000167A6
  461 0001:000167A9  463 0001:000167B1  464 0001:000167B2  465 0001:000167B6
  467 0001:000167CC  468 0001:000167CD  471 0001:000167D5  474 0001:000167DA
  475 0001:000167DD  476 0001:000167DF  478 0001:000167E2  482 0001:000167F5
  486 0001:000167F8  487 0001:00016804  488 0001:0001681B  491 0001:0001681D
  495 0001:00016822  496 0001:00016834  497 0001:00016846  502 0001:0001685A
  504 0001:0001685E  505 0001:0001686A  509 0001:00016880  511 0001:00016883
  512 0001:00016894  520 0001:00016896  522 0001:00016899  527 0001:000168A5
  528 0001:000168B0  529 0001:000168B8  530 0001:000168CD  531 0001:000168D2
  533 0001:000168D6  534 0001:000168EA  537 0001:000168EF  540 0001:000168F1
  542 0001:000168F4  546 0001:00016900  547 0001:00016913  550 0001:00016917
  551 0001:0001692B  554 0001:00016930  557 0001:00016932  599 0001:00016935
  603 0001:00016947  606 0001:0001694B  610 0001:00016951  612 0001:0001695D
  613 0001:00016964  615 0001:00016979  616 0001:0001697E  619 0001:0001698C
  620 0001:00016995  621 0001:0001699C  622 0001:000169A5  623 0001:000169AF
  626 0001:000169B4  639 0001:000169B9  644 0001:000169C2  646 0001:000169CF
  647 0001:000169D3  648 0001:000169D5  649 0001:000169D9  652 0001:000169E9
  653 0001:000169FD  655 0001:00016A03  657 0001:00016A1A  660 0001:00016A1E
  664 0001:00016A26  669 0001:00016A2B  670 0001:00016A34  671 0001:00016A43
  672 0001:00016A4B  675 0001:00016A59  676 0001:00016A61  677 0001:00016A69
  678 0001:00016A8D  679 0001:00016A95  685 0001:00016A9A  687 0001:00016AA1
  688 0001:00016AE2  692 0001:00016AE5  697 0001:00016AF1  700 0001:00016B04
  703 0001:00016B19  704 0001:00016B1E  708 0001:00016B35  709 0001:00016B4A
  710 0001:00016B4E  712 0001:00016B61  716 0001:00016B76  717 0001:00016B7B
  718 0001:00016B93  719 0001:00016B9C  723 0001:00016BB1  724 0001:00016BBD
  727 0001:00016BCD  730 0001:00016BD4  734 0001:00016BDB  735 0001:00016BE4
  736 0001:00016BE8  737 0001:00016BEB  738 0001:00016BF7  742 0001:00016BFA
  747 0001:00016BFF  759 0001:00016C05  760 0001:00016C0E  762 0001:00016C2C
  767 0001:00016C30  768 0001:00016C33  764 0001:00016C41  777 0001:00016C6B
  788 0001:00016C76  789 0001:00016C89  792 0001:00016C98  794 0001:00016CA0
  796 0001:00016CD0  798 0001:00016CDA  800 0001:00016CF3  801 0001:00016D04
  802 0001:00016D16  803 0001:00016D1F  804 0001:00016D2B  806 0001:00016D2D
  808 0001:00016D49  811 0001:00016D56  813 0001:00016D58  816 0001:00016D60
  819 0001:00016D69  822 0001:00016D6F  824 0001:00016D7B  827 0001:00016D83
  830 0001:00016D89  832 0001:00016D9A  835 0001:00016DA2  837 0001:00016DAC
  838 0001:00016DB2  840 0001:00016DBE  841 0001:00016DC3  842 0001:00016DC9
  844 0001:00016DCC  847 0001:00016DCF  851 0001:00016DD8  852 0001:00016DE7
  853 0001:00016DFA

Line numbers for M:\GAMES\NETADV\PROG\interp\drawlist.cpp(M:\GAMES\NETADV\PROG\interp\drawlist.cpp) segment FOO

   11 0001:00016E00   13 0001:00016E04   14 0001:00016E0A   18 0001:00016E0B
   20 0001:00016E13   21 0001:00016E17   20 0001:00016E26   22 0001:00016E2B
   28 0001:00016E31   30 0001:00016E3C   31 0001:00016E46   39 0001:00016E64
   40 0001:00016EBF   41 0001:00016EC1   48 0001:00016ECA   50 0001:00016ED1
   51 0001:00016ED4   52 0001:00016ED6   54 0001:00016ED8   55 0001:00016EE4
   56 0001:00016EEA   57 0001:00016EEF   58 0001:00016EF0   60 0001:00016EF2
   61 0001:00016EF4   66 0001:00016EF8   69 0001:00016F04   70 0001:00016F15
   72 0001:00016F2E   73 0001:00016F3D   74 0001:00016F45   79 0001:00016F4A
   87 0001:00016F56   88 0001:00016F5F   89 0001:00016F74   91 0001:00016F79
   94 0001:00016F83  109 0001:00016FBB  110 0001:00016FC1  111 0001:00016FC9
  112 0001:00016FCD  113 0001:00016FD4  115 0001:00016FD6  118 0001:00016FDC


Line numbers for M:\GAMES\NETADV\PROG\interp\event.cpp(M:\GAMES\NETADV\PROG\interp\event.cpp) segment FOO

   24 0001:00016FE4   26 0001:00017004   27 0001:0001701A   29 0001:0001701C
   31 0001:0001704B   34 0001:0001705E   38 0001:00017062   39 0001:0001706C
   40 0001:00017072   43 0001:00017073   47 0001:0001707D   49 0001:00017089
   52 0001:000170A5   53 0001:000170AB   54 0001:000170B8   62 0001:000170BE
   66 0001:000170CD   67 0001:000170CF   68 0001:000170F2   69 0001:0001710B
   74 0001:00017110   75 0001:00017114   76 0001:00017130   77 0001:00017140
   78 0001:0001714B   80 0001:0001715D   83 0001:00017169   91 0001:00017173
   95 0001:00017182   97 0001:00017184   98 0001:000171A7   99 0001:000171C0
  105 0001:000171C5  106 0001:000171CC  107 0001:000171D0  109 0001:000171EE
  110 0001:000171EF  116 0001:000171F4  120 0001:000171FB  122 0001:0001720F
  124 0001:0001722B  125 0001:0001723B  126 0001:00017249  127 0001:00017259
  130 0001:0001725C  134 0001:00017262  136 0001:0001726E  137 0001:00017274
  139 0001:0001727A  140 0001:00017291  143 0001:00017295  147 0001:0001729B
  149 0001:000172A7  151 0001:000172AD  152 0001:000172C2  154 0001:000172C8
  155 0001:000172CF  161 0001:000172D7  165 0001:000172DD  166 0001:000172F8
  169 0001:000172FA  173 0001:00017308  174 0001:00017314  176 0001:0001732F
  177 0001:0001733C  182 0001:00017349  184 0001:0001735B  185 0001:0001742C
  186 0001:000174FE  187 0001:000175C5  188 0001:0001768C  189 0001:0001775D
  190 0001:0001777C  191 0001:0001784C  192 0001:00017923  193 0001:000179EE
  196 0001:00017AB7  200 0001:00017ABE  202 0001:00017AD5  203 0001:00017ADC
  204 0001:00017AE3  205 0001:00017AEA  206 0001:00017AF1  208 0001:00017AF2
  210 0001:00017B0C  211 0001:00017B19  213 0001:00017B1E  223 0001:00018110
  226 0001:00018117  232 0001:00018121  233 0001:00018127  234 0001:0001812D
  235 0001:00018135  236 0001:0001813B  237 0001:0001814B  238 0001:00018151
  239 0001:00018157  240 0001:0001815D  243 0001:00018163  246 0001:00018166
  250 0001:00018170  251 0001:00018178  252 0001:00018182  253 0001:0001818E
  259 0001:000181AC  260 0001:000181AE  262 0001:000181B9  266 0001:000181D4
  268 0001:000181D8  273 0001:000181EC  277 0001:000181F3  280 0001:000181FF
  281 0001:00018206  282 0001:00018210  284 0001:00018226  290 0001:00018242
  294 0001:0001825A  296 0001:00018260  297 0001:0001826F  299 0001:00018283
  300 0001:0001828F  301 0001:0001829F  302 0001:000182AA    1 0001:000182B0


Line numbers for M:\GAMES\NETADV\PROG\interp\eventw.cpp(M:\GAMES\NETADV\PROG\interp\eventw.cpp) segment FOO

   14 0001:000182B4   16 0001:000182D0   17 0001:000182F5   20 0001:000182FA
   25 0001:000182FE   26 0001:00018303   29 0001:0001831A   32 0001:0001831D
   35 0001:00018321   37 0001:00018370   40 0001:00018373   42 0001:00018381
   44 0001:0001838B   45 0001:00018398   47 0001:0001839B   48 0001:000183A5
   49 0001:000183B1   55 0001:000183CF   56 0001:000183D1   58 0001:000183DC
   60 0001:000183E9   63 0001:000183ED   64 0001:000183FD   65 0001:00018402
   68 0001:00018404   69 0001:00018414   70 0001:00018419   73 0001:0001841B
   74 0001:0001842B   75 0001:00018430   79 0001:00018432   80 0001:00018440
    1 0001:000184C0

Line numbers for M:\GAMES\NETADV\PROG\interp\except.cpp(M:\GAMES\NETADV\PROG\interp\except.cpp) segment FOO

   24 0001:00018504   27 0001:00018507   28 0001:00018516   29 0001:00018525
   32 0001:00018527   36 0001:00018547   37 0001:00018569   40 0001:0001856B
   41 0001:0001857F   48 0001:00018581   50 0001:00018584   53 0001:00018598
   57 0001:0001859D   60 0001:0001859F   62 0001:000185A2

Line numbers for M:\GAMES\NETADV\PROG\interp\font.cpp(M:\GAMES\NETADV\PROG\interp\font.cpp) segment FOO

   30 0001:000185AC   61 0001:000185BE   64 0001:000185C5   65 0001:000185CE
   67 0001:000185D8   68 0001:000185F5   69 0001:00018651   70 0001:00018660
   71 0001:0001866A   73 0001:00018671   76 0001:00018681   77 0001:0001869C
   80 0001:000186AB   81 0001:000186CC   84 0001:000186ED   85 0001:00018709
   88 0001:00018774   94 0001:00018801   96 0001:0001880B   98 0001:0001883C
   99 0001:0001885C  102 0001:0001888C  103 0001:0001889A  104 0001:000188AB
  106 0001:000188B4  109 0001:00018907  110 0001:00018920  112 0001:0001892F
  113 0001:0001894F  115 0001:00018957  117 0001:00018967  118 0001:00018978
  119 0001:00018984  120 0001:0001899E  121 0001:00018A1A  134 0001:00018A73
  138 0001:00018A9C  139 0001:00018AAC  140 0001:00018AB1  148 0001:00018AB8
  140 0001:00018ABB  141 0001:00018AC6  142 0001:00018AD0  143 0001:00018AD2
  144 0001:00018AF0  146 0001:00018AF4  150 0001:00018AF8  154 0001:00018B10
  156 0001:00018B16  159 0001:00018B32  160 0001:00018B42  163 0001:00018B4E
  168 0001:00018B5C  206 0001:00018B6E  207 0001:00018B7D  208 0001:00018B8C
  209 0001:00018B94  212 0001:00018BA0  215 0001:00018BA7  216 0001:00018BAD
  218 0001:00018BB4  220 0001:00018BC1  232 0001:00018BE7  233 0001:00018BEE
  234 0001:00018BF5  235 0001:00018C12  236 0001:00018C1C  237 0001:00018C39
  238 0001:00018C56  240 0001:00018CC0  241 0001:00018CC9  242 0001:00018CD0
  243 0001:00018CD7  244 0001:00018CDE  245 0001:00018CE5  248 0001:00018CEC
  249 0001:00018D08  251 0001:00018D76  254 0001:00018DAB  257 0001:00018DEF
  259 0001:00018DFE  261 0001:00018E04  265 0001:00018E1D  268 0001:00018E26
  273 0001:00018E3A  294 0001:00018E4C  295 0001:00018E5B  296 0001:00018E6A
  297 0001:00018E6F  300 0001:00018E7A  302 0001:00018E81  303 0001:00018E87
  304 0001:00018EA1  305 0001:00018EB7  306 0001:00018EB9  307 0001:00018EC0
  309 0001:00018EC7  310 0001:00018ECE  312 0001:00018ED2  313 0001:00018EE3
  315 0001:00018F00  317 0001:00018F0D  320 0001:00018F16  321 0001:00018F2E
  322 0001:00018F37  323 0001:00018F3E  324 0001:00018F43  325 0001:00018F49
  328 0001:00018F4F  329 0001:00018F65  335 0001:00018F8F  336 0001:00018F98
  337 0001:00018F9F  338 0001:00018FA6  339 0001:00018FAD  342 0001:00018FB4
  343 0001:00018FBD  344 0001:00018FC5  345 0001:00018FCC  346 0001:00018FD2
  349 0001:00018FD8  355 0001:00019059  356 0001:00019060  357 0001:00019067
  358 0001:00019071  360 0001:0001907B  362 0001:0001908A  363 0001:00019092
  364 0001:0001909C  366 0001:000190A8  368 0001:000190AD  370 0001:000190C3
  374 0001:000190D2  376 0001:000190DB  377 0001:000190E7  378 0001:000190EE
  379 0001:000190F5  380 0001:000190FC  381 0001:00019122  382 0001:00019128
  384 0001:0001918A  387 0001:00019197  388 0001:000191C0  390 0001:00019233
  392 0001:00019238  395 0001:0001924F  398 0001:00019269  405 0001:0001926E
  407 0001:00019271  408 0001:0001928C  411 0001:0001928E  413 0001:0001929A
  415 0001:0001929F  416 0001:000192A5  421 0001:00019310  423 0001:00019336
  424 0001:00019346  426 0001:00019351  427 0001:0001935B  428 0001:00019377
  431 0001:000193A5  435 0001:000193F8  438 0001:00019407  440 0001:00019412
  441 0001:0001941C  442 0001:00019423  443 0001:0001942A  444 0001:00019431
  447 0001:00019438  448 0001:0001943F  449 0001:00019446  450 0001:00019456
  451 0001:00019460  452 0001:00019469  453 0001:00019479  454 0001:00019481
  455 0001:00019489  456 0001:0001948F  458 0001:00019495  460 0001:000194A4
  462 0001:000194AB  464 0001:000194BA  468 0001:000194C8  470 0001:000194D1
  471 0001:000194DA  472 0001:000194E1  473 0001:000194E8  474 0001:000194EF
  478 0001:000194FF  479 0001:00019506  480 0001:0001950F  481 0001:0001951F
  483 0001:0001952A  485 0001:00019531  487 0001:00019544  490 0001:00019552
  492 0001:0001956A  495 0001:00019573  498 0001:00019578  501 0001:0001957C
  502 0001:0001958C  505 0001:0001958F  507 0001:0001959B  509 0001:000195EF
  513 0001:000195FB  515 0001:00019616  516 0001:0001962E  519 0001:0001963A
  522 0001:00019649  524 0001:000196A0  525 0001:000196A6  526 0001:000196AD
  527 0001:000196B4  529 0001:000196BB  539 0001:000196D4  540 0001:000196E0
  541 0001:000196E9  542 0001:000196EC  543 0001:000196F5  544 0001:000196F8
  545 0001:000196FF  546 0001:00019702  548 0001:00019709  549 0001:00019721
  550 0001:00019724  551 0001:0001972D  554 0001:00019732  555 0001:0001974E
  557 0001:00019755  559 0001:00019767  560 0001:00019769  561 0001:0001976C
  562 0001:0001976F  563 0001:00019778  564 0001:00019792  565 0001:0001979F
  566 0001:000197A6  568 0001:000197AD  569 0001:000197C6  570 0001:000197CD
  571 0001:000197CF  572 0001:000197D8  573 0001:000197DF  574 0001:000197E8
  575 0001:000197EE  576 0001:00019803  577 0001:0001980C  578 0001:00019811
  579 0001:00019814  580 0001:00019819  581 0001:0001981D  582 0001:0001982A
  584 0001:00019831  585 0001:0001983B  586 0001:00019856  587 0001:00019875
  588 0001:0001989B  590 0001:000198BD  591 0001:000198CA  592 0001:000198D1
  596 0001:000198DD  599 0001:000198E8  600 0001:00019912  603 0001:00019919
  610 0001:00019928  611 0001:00019941  612 0001:00019947  614 0001:0001999D
  617 0001:000199AA  618 0001:000199B4  620 0001:000199BD  623 0001:000199C4
  624 0001:000199DA  626 0001:000199E0  627 0001:000199E2  626 0001:000199F0
  629 0001:000199F5  631 0001:000199FB  634 0001:00019A04  637 0001:00019A0B
  641 0001:00019A1A  642 0001:00019A33  643 0001:00019A39  647 0001:00019A8F
  648 0001:00019AA3  649 0001:00019AB0  654 0001:00019AB9  657 0001:00019AD4
  658 0001:00019AD7  661 0001:00019AEE  662 0001:00019B02  663 0001:00019B0C
  664 0001:00019B20  665 0001:00019B26  671 0001:00019B28  673 0001:00019B34
  674 0001:00019B4D  675 0001:00019B53  677 0001:00019BA9  678 0001:00019BB9
  680 0001:00019BC5  681 0001:00019BD5  684 0001:00019BE1  685 0001:00019BF6
  687 0001:00019C0B  688 0001:00019C0E  689 0001:00019C15  690 0001:00019C1B
  691 0001:00019C2B  692 0001:00019C36  694 0001:00019C38  695 0001:00019C46
  696 0001:00019C49  697 0001:00019C57  698 0001:00019C67  699 0001:00019C6D
  700 0001:00019C80  701 0001:00019C83  702 0001:00019C91  703 0001:00019C94
  705 0001:00019C96  706 0001:00019C99  707 0001:00019CA0  708 0001:00019CAA
  709 0001:00019CBA  710 0001:00019CC5  714 0001:00019CC7  719 0001:00019CD6
  720 0001:00019CDC  721 0001:00019CF5  728 0001:00019D53  730 0001:00019D85
  736 0001:00019D9A  737 0001:00019DAC  739 0001:00019DC2  740 0001:00019DCC
  742 0001:00019DD4  743 0001:00019DE4  745 0001:00019DE8  748 0001:00019DEC
  750 0001:00019E00  751 0001:00019E03  755 0001:00019E05  759 0001:00019E0F
  761 0001:00019E25  762 0001:00019E2E  764 0001:00019E3E  765 0001:00019E47
  767 0001:00019E60  768 0001:00019E6F  771 0001:00019E75  773 0001:00019E84
  774 0001:00019E9F  777 0001:00019EAD  789 0001:00019EB1  791 0001:00019EB7
  792 0001:00019EBC  795 0001:00019EBE  796 0001:00019EDB  802 0001:00019EE8
  803 0001:00019F03  804 0001:00019F0B  805 0001:00019F11  806 0001:00019F18
  807 0001:00019F1F  810 0001:00019F26  811 0001:00019F2C  812 0001:00019F47
  813 0001:00019F64  814 0001:00019F84  815 0001:00019FA3  816 0001:00019FC0
  819 0001:00019FE0  821 0001:00019FE4  822 0001:00019FE9  819 0001:00019FF1
  824 0001:00019FF7  826 0001:00019FFC  827 0001:0001A001  824 0001:0001A009
  830 0001:0001A011  832 0001:0001A019  833 0001:0001A023  834 0001:0001A029
  830 0001:0001A033  836 0001:0001A039  839 0001:0001A03E  846 0001:0001A04D
  847 0001:0001A056  848 0001:0001A05F  851 0001:0001A074  852 0001:0001A08B
  854 0001:0001A094  856 0001:0001A096  855 0001:0001A098  858 0001:0001A0A2
  859 0001:0001A0C9  860 0001:0001A0D0  861 0001:0001A0D1  862 0001:0001A0E3
  863 0001:0001A0EC  864 0001:0001A0F2  865 0001:0001A0F3  866 0001:0001A0F5
  869 0001:0001A0FB  870 0001:0001A0FF  872 0001:0001A102  874 0001:0001A104
  875 0001:0001A108  877 0001:0001A10A  878 0001:0001A114  880 0001:0001A116
  881 0001:0001A11D  867 0001:0001A121  886 0001:0001A13E  887 0001:0001A14B
  888 0001:0001A14C  889 0001:0001A14D  893 0001:0001A14F  894 0001:0001A15D
  895 0001:0001A174  898 0001:0001A176  899 0001:0001A177  903 0001:0001A17C
  908 0001:0001A184  911 0001:0001A193  912 0001:0001A1AF  913 0001:0001A1C7
  916 0001:0001A1D3  919 0001:0001A1D4  920 0001:0001A1DB  922 0001:0001A208
  923 0001:0001A215  926 0001:0001A217  930 0001:0001A218  931 0001:0001A21F
  933 0001:0001A24F  934 0001:0001A25F  937 0001:0001A261  941 0001:0001A26D
  942 0001:0001A278  943 0001:0001A28C  947 0001:0001A295  949 0001:0001A29D
  952 0001:0001A2A2  972 0001:0001A2AC  973 0001:0001A2C8  975 0001:0001A2CD
  976 0001:0001A2D6  953 0001:0001A2DB  954 0001:0001A2E4  956 0001:0001A2ED
  958 0001:0001A2F5  959 0001:0001A30B  960 0001:0001A318  966 0001:0001A31F
  967 0001:0001A335  968 0001:0001A342  970 0001:0001A349  981 0001:0001A363
  982 0001:0001A371  983 0001:0001A374  985 0001:0001A388  986 0001:0001A390
  990 0001:0001A395  992 0001:0001A3A4  994 0001:0001A3B0  995 0001:0001A3C2
  996 0001:0001A3CD  998 0001:0001A3DE  999 0001:0001A3E0 1000 0001:0001A3E1
 1002 0001:0001A3EB 1003 0001:0001A415 1004 0001:0001A420 1005 0001:0001A421
 1006 0001:0001A437 1007 0001:0001A440 1008 0001:0001A450 1009 0001:0001A451
 1010 0001:0001A453 1013 0001:0001A459 1014 0001:0001A460 1015 0001:0001A463
 1017 0001:0001A465 1018 0001:0001A46C 1020 0001:0001A46E 1021 0001:0001A47B
 1023 0001:0001A47D 1024 0001:0001A489 1011 0001:0001A48B 1028 0001:0001A4A8
 1029 0001:0001A4B9 1030 0001:0001A4BA 1031 0001:0001A4BB 1033 0001:0001A4BD
 1034 0001:0001A4CA 1035 0001:0001A4CB 1039 0001:0001A4D0 1042 0001:0001A4DC
 1043 0001:0001A4F1 1044 0001:0001A516 1046 0001:0001A52D 1047 0001:0001A539
 1048 0001:0001A53F 1049 0001:0001A550 1050 0001:0001A559 1051 0001:0001A55B
 1068 0001:0001A55D 1069 0001:0001A579 1071 0001:0001A57E 1072 0001:0001A589
 1053 0001:0001A58E 1054 0001:0001A5AA 1055 0001:0001A5B7 1056 0001:0001A5C6
 1057 0001:0001A5CE 1058 0001:0001A5D6 1060 0001:0001A5E3 1061 0001:0001A5E9
 1064 0001:0001A5F2 1065 0001:0001A609 1066 0001:0001A613 1074 0001:0001A62D
 1075 0001:0001A637 1076 0001:0001A63E 1080 0001:0001A655 1083 0001:0001A661
 1084 0001:0001A676 1085 0001:0001A689 1086 0001:0001A69F 1087 0001:0001A6AC
 1088 0001:0001A6B8 1089 0001:0001A6BE 1090 0001:0001A6CF 1091 0001:0001A6D7
 1092 0001:0001A6DA 1110 0001:0001A6DC 1111 0001:0001A6F8 1113 0001:0001A6FD
 1114 0001:0001A708 1094 0001:0001A70D 1095 0001:0001A729 1097 0001:0001A739
 1096 0001:0001A740 1098 0001:0001A74B 1099 0001:0001A753 1100 0001:0001A768
 1102 0001:0001A775 1103 0001:0001A77B 1106 0001:0001A784 1107 0001:0001A79D
 1108 0001:0001A7A7 1116 0001:0001A7C1 1117 0001:0001A7CB 1118 0001:0001A7D2
 1122 0001:0001A7DF 1130 0001:0001A7EB 1131 0001:0001A7F5 1132 0001:0001A7FA
 1135 0001:0001A7FC 1139 0001:0001A808 1143 0001:0001A81F 1144 0001:0001A822
 1145 0001:0001A828 1146 0001:0001A830 1150 0001:0001A837 1152 0001:0001A87F
 1154 0001:0001A899 1159 0001:0001A89E 1160 0001:0001A8B1 1163 0001:0001A8BE
 1167 0001:0001A8C6 1169 0001:0001A8D1 1171 0001:0001A8E1 1172 0001:0001A8F2
 1175 0001:0001A8F6 1178 0001:0001A8FB 1180 0001:0001A901 1183 0001:0001A903
 1185 0001:0001A906 1186 0001:0001A90B 1187 0001:0001A912 1193 0001:0001A917
 1189 0001:0001A919 1190 0001:0001A91A 1197 0001:0001A91B 1200 0001:0001A920
 1201 0001:0001A924 1205 0001:0001A926 1206 0001:0001A929 1207 0001:0001A92C
 1210 0001:0001A92E 1211 0001:0001A935 1214 0001:0001A93A 1221 0001:0001A949
 1222 0001:0001A94E 1224 0001:0001A951 1225 0001:0001A956 1227 0001:0001A96D
 1234 0001:0001A970 1235 0001:0001A979 1236 0001:0001A982 1237 0001:0001A989
 1238 0001:0001A98F 1239 0001:0001A995 1242 0001:0001A99B 1244 0001:0001A9A8
 1245 0001:0001A9AF 1247 0001:0001A9B6 1249 0001:0001A9B8 1250 0001:0001A9C2
 1251 0001:0001A9CC 1253 0001:0001A9CE 1255 0001:0001A9E7 1256 0001:0001A9F5
 1257 0001:0001A9FA 1260 0001:0001AA02 1261 0001:0001AA0F 1262 0001:0001AA16
 1268 0001:0001AA1D 1265 0001:0001AA20 1272 0001:0001AA27 1274 0001:0001AA2C
 1275 0001:0001AA40 1277 0001:0001AA42 1279 0001:0001AA5B 1282 0001:0001AA69
 1297 0001:0001AA6B 1298 0001:0001AA6F 1300 0001:0001AA88 1307 0001:0001AA9A
 1309 0001:0001AAA7 1310 0001:0001AAAE 1313 0001:0001AAB5 1317 0001:0001AABA
 1318 0001:0001AAC3 1321 0001:0001AADC 1332 0001:0001AAE4 1335 0001:0001AAE9
 1337 0001:0001AAFD 1338 0001:0001AB07 1340 0001:0001AB0B 1342 0001:0001AB18
 1343 0001:0001AB1F 1322 0001:0001AB2B 1327 0001:0001AB30 1328 0001:0001AB36
 1329 0001:0001AB3F 1346 0001:0001AB48 1325 0001:0001AB4F 1356 0001:0001AB52
 1350 0001:0001AB57 1351 0001:0001AB5A 1353 0001:0001AB5B 1358 0001:0001AB65
 1359 0001:0001AB6C 1361 0001:0001AB73 1363 0001:0001AB8C 1364 0001:0001ABA2
 1365 0001:0001ABAB 1366 0001:0001ABB3 1367 0001:0001ABB5 1368 0001:0001ABB7
 1374 0001:0001ABCB 1375 0001:0001ABCE 1378 0001:0001ABD3 1393 0001:0001ABDF
 1395 0001:0001ABFB 1400 0001:0001AC3C 1403 0001:0001AC54 1425 0001:0001AC7B
 1426 0001:0001ACC0 1428 0001:0001ACD9 1429 0001:0001AD1B 1431 0001:0001AD33
 1432 0001:0001AD35 1434 0001:0001AD3A 1435 0001:0001AD42 1437 0001:0001AD46
 1438 0001:0001AD4E 1440 0001:0001AD52 1442 0001:0001AD60 1443 0001:0001AD74
 1444 0001:0001AD95 1446 0001:0001ADAC 1447 0001:0001ADB2 1448 0001:0001ADB9
 1449 0001:0001ADC0 1451 0001:0001ADC7 1455 0001:0001ADCC 1457 0001:0001ADD4
 1458 0001:0001AE0E 1460 0001:0001AE27 1462 0001:0001AE3B 1472 0001:0001AE59
 1474 0001:0001AE6C 1475 0001:0001AEA9 1477 0001:0001AEC2 1479 0001:0001AECB
 1480 0001:0001AEDE 1482 0001:0001AEF1 1488 0001:0001AF14 1492 0001:0001AF1E
 1493 0001:0001AF32 1498 0001:0001AF37 1507 0001:0001AF50 1508 0001:0001AF64
 1514 0001:0001AF94 1519 0001:0001AFAB

Line numbers for M:\GAMES\NETADV\PROG\interp\graph.cpp(M:\GAMES\NETADV\PROG\interp\graph.cpp) segment FOO

   62 0001:0001B04C   66 0001:0001B04D   68 0001:0001B059   69 0001:0001B074
   71 0001:0001B07F   72 0001:0001B09C   74 0001:0001B0C6   75 0001:0001B0DA
   76 0001:0001B0EB   77 0001:0001B107   79 0001:0001B16B   80 0001:0001B16E
   81 0001:0001B174   82 0001:0001B19F   86 0001:0001B1A7   90 0001:0001B1B3
   94 0001:0001B1B4  101 0001:0001B1C0  104 0001:0001B1CA  105 0001:0001B1D4
  106 0001:0001B1DE  107 0001:0001B1E9  108 0001:0001B1FC  109 0001:0001B204
  111 0001:0001B209  112 0001:0001B212  113 0001:0001B217  114 0001:0001B21D
  115 0001:0001B24A  116 0001:0001B24C  122 0001:0001B282  127 0001:0001B28B
  131 0001:0001B296  132 0001:0001B32A  151 0001:0001B32E  153 0001:0001B347
  154 0001:0001B34B  157 0001:0001B369  158 0001:0001B379  161 0001:0001B37B
  166 0001:0001B38D  183 0001:0001B399  184 0001:0001B39E  185 0001:0001B3A2
  186 0001:0001B3A4  187 0001:0001B3A6  189 0001:0001B3AB  190 0001:0001B3C9
  192 0001:0001B3D1  193 0001:0001B3D5  194 0001:0001B3DB  195 0001:0001B3DF
  196 0001:0001B3E3  200 0001:0001B3E7  202 0001:0001B3EE  212 0001:0001B41B
  213 0001:0001B438  214 0001:0001B461  215 0001:0001B46B  218 0001:0001B471
  220 0001:0001B483  224 0001:0001B490  239 0001:0001B49C  240 0001:0001B4A3
  241 0001:0001B4A7  242 0001:0001B4AC  243 0001:0001B4AE  244 0001:0001B4B6
  246 0001:0001B4B9  248 0001:0001B4C1  249 0001:0001B4C8  250 0001:0001B4CE
  251 0001:0001B4D5  252 0001:0001B4D9  253 0001:0001B4E0  257 0001:0001B4E7
  259 0001:0001B4EE  261 0001:0001B504  262 0001:0001B50C  264 0001:0001B5F4
  272 0001:0001B61E  273 0001:0001B63B  274 0001:0001B668  275 0001:0001B675
  278 0001:0001B67B  279 0001:0001B68D  280 0001:0001B6AB  281 0001:0001B6B3
  282 0001:0001B6D8  285 0001:0001B70C  334 0001:0001B739  335 0001:0001B74A
  338 0001:0001B75B  339 0001:0001B75F  341 0001:0001B769  342 0001:0001B773
  344 0001:0001B78F  345 0001:0001B7A8  347 0001:0001B7C1  349 0001:0001B7F1
  352 0001:0001B800  355 0001:0001B82E  357 0001:0001B854  366 0001:0001B8AC
  367 0001:0001B8BA  385 0001:0001B8BF  386 0001:0001B8DD  387 0001:0001B8E3
  389 0001:0001B8EF  391 0001:0001B91A  392 0001:0001B939  395 0001:0001B952
  398 0001:0001B97D  400 0001:0001B9A3  410 0001:0001B9FD  413 0001:0001BA1E
  418 0001:0001BA49  419 0001:0001BA69  420 0001:0001BA75  422 0001:0001BAAC
  423 0001:0001BAC5  425 0001:0001BAEF  434 0001:0001BAF4  436 0001:0001BB0F
  437 0001:0001BB6C  439 0001:0001BB91  441 0001:0001BBA8  443 0001:0001BBBD
  462 0001:0001BBC2  466 0001:0001BBD3  467 0001:0001BBE3  468 0001:0001BBE8
  469 0001:0001BBF0  471 0001:0001BC06  473 0001:0001BC18  474 0001:0001BC68
  478 0001:0001BC8C  479 0001:0001BC9E  481 0001:0001BCA7  485 0001:0001BD27
  490 0001:0001BD33  493 0001:0001BD66  496 0001:0001BD86  497 0001:0001BDBE
  498 0001:0001BDD5  514 0001:0001BDDA  515 0001:0001BDE3  516 0001:0001BE29
  518 0001:0001BE32  520 0001:0001BE4D  521 0001:0001BEAA  524 0001:0001BECE
  525 0001:0001BEDE  526 0001:0001BEE3  529 0001:0001BEF2  530 0001:0001BF10
  531 0001:0001BF1C  533 0001:0001BF28  534 0001:0001BF38  535 0001:0001BF4A
  536 0001:0001BF63  538 0001:0001BF7C  540 0001:0001BF8E  541 0001:0001BF9A
  542 0001:0001BF9F  543 0001:0001BFA9  544 0001:0001BFAE  546 0001:0001BFB8
  547 0001:0001BFC3  549 0001:0001BFD1  551 0001:0001BFD7  552 0001:0001BFE2
  554 0001:0001BFE8  558 0001:0001BFEE  559 0001:0001C02E  560 0001:0001C058
  563 0001:0001C0F4  566 0001:0001C111  571 0001:0001C13C  572 0001:0001C165
  574 0001:0001C1A8  596 0001:0001C1C0  598 0001:0001C1DB  599 0001:0001C23A
  602 0001:0001C25F  603 0001:0001C26F  604 0001:0001C274  606 0001:0001C283
  607 0001:0001C2BD  610 0001:0001C387  613 0001:0001C39F  617 0001:0001C3D9
  633 0001:0001C434  637 0001:0001C45F  638 0001:0001C47F  639 0001:0001C53D
  641 0001:0001C57B  644 0001:0001C592  663 0001:0001C5A5  666 0001:0001C5B6
  668 0001:0001C5C5  669 0001:0001C61D  673 0001:0001C642  676 0001:0001C648
  677 0001:0001C652  678 0001:0001C65C  679 0001:0001C666  681 0001:0001C670
  682 0001:0001C678  684 0001:0001C68C  685 0001:0001C69A  688 0001:0001C6AE
  689 0001:0001C6C0  690 0001:0001C6C5  695 0001:0001C6D4  696 0001:0001C6DC
  697 0001:0001C6E4  700 0001:0001C6E9  701 0001:0001C6F7  702 0001:0001C6FF
  708 0001:0001C704  710 0001:0001C70D  712 0001:0001C721  715 0001:0001C729
  717 0001:0001C732  719 0001:0001C746  724 0001:0001C74E  726 0001:0001C756
  728 0001:0001C76A  731 0001:0001C773  733 0001:0001C781  735 0001:0001C795
  738 0001:0001C7A2  739 0001:0001C7A5  741 0001:0001C7B8  742 0001:0001C7C7
  744 0001:0001C7D7  745 0001:0001C7D9  746 0001:0001C7EE  744 0001:0001C7F0
  749 0001:0001C7F5  763 0001:0001C80D  764 0001:0001C816  768 0001:0001C85C
  770 0001:0001C877  771 0001:0001C8D4  774 0001:0001C8F9  775 0001:0001C90B
  776 0001:0001C910  778 0001:0001C91F  779 0001:0001C931  780 0001:0001C943
  781 0001:0001C94E  783 0001:0001C95D  784 0001:0001C973  787 0001:0001C995
  788 0001:0001C9C0  789 0001:0001C9D8  790 0001:0001C9E7  791 0001:0001C9F0
  792 0001:0001CA06  793 0001:0001CA0F  796 0001:0001CA25  798 0001:0001CA65
  799 0001:0001CA82  800 0001:0001CAA4  801 0001:0001CB4C  803 0001:0001CB8A
  821 0001:0001CB9C  822 0001:0001CBAD  825 0001:0001CBBE  827 0001:0001CBD0
  828 0001:0001CC1D  831 0001:0001CC42  832 0001:0001CC52  835 0001:0001CC5B
  837 0001:0001CC8F  838 0001:0001CCE3  843 0001:0001CCFB  845 0001:0001CD0D
  846 0001:0001CD5D  849 0001:0001CD81  850 0001:0001CD91  851 0001:0001CD99
  852 0001:0001CDA1  865 0001:0001CDB9  867 0001:0001CDCB  868 0001:0001CE1B
  871 0001:0001CE40  872 0001:0001CE6C  883 0001:0001CE84  885 0001:0001CE96
  886 0001:0001CEE3  889 0001:0001CF08  892 0001:0001CF11  893 0001:0001CF27
  894 0001:0001CF2C  897 0001:0001CF3E  902 0001:0001CF6B  904 0001:0001CFA1
  913 0001:0001D008  914 0001:0001D016  920 0001:0001D02E  921 0001:0001D038
  922 0001:0001D03C  923 0001:0001D046  924 0001:0001D050  925 0001:0001D05A
  926 0001:0001D064  927 0001:0001D06E  928 0001:0001D078  929 0001:0001D082
  930 0001:0001D08C  931 0001:0001D096  932 0001:0001D0A0  933 0001:0001D0AA
  934 0001:0001D0B4  935 0001:0001D0BE  936 0001:0001D0C9  937 0001:0001D0D4
  938 0001:0001D0DC  939 0001:0001D0E7  941 0001:0001D0F2  943 0001:0001D0FE
  944 0001:0001D10A 1006 0001:0001D23E  983 0001:0001D24B 1011 0001:0001D275
 1014 0001:0001D2BE 1015 0001:0001D2CB 1016 0001:0001D2D4 1018 0001:0001D311
 1019 0001:0001D31A 1021 0001:0001D35D 1022 0001:0001D366 1024 0001:0001D3A9
 1025 0001:0001D3B2 1027 0001:0001D3F5 1028 0001:0001D3FE 1030 0001:0001D441
 1031 0001:0001D44A 1033 0001:0001D48D 1034 0001:0001D496 1036 0001:0001D4D9
 1037 0001:0001D4E2 1039 0001:0001D525 1040 0001:0001D52E 1041 0001:0001D537
 1044 0001:0001D57A 1045 0001:0001D587 1046 0001:0001D594 1049 0001:0001D5BE
 1050 0001:0001D5C7 1052 0001:0001D60A 1054 0001:0001D64D 1055 0001:0001D656
 1057 0001:0001D699 1058 0001:0001D6A2 1060 0001:0001D6DF 1061 0001:0001D6E8
 1063 0001:0001D72B 1064 0001:0001D734 1065 0001:0001D73D 1068 0001:0001D77A
 1069 0001:0001D783 1070 0001:0001D78C 1075 0001:0001D7CF 1076 0001:0001D8A1
 1078 0001:0001D8AE 1079 0001:0001D8C2 1081 0001:0001D8D6 1083 0001:0001D8DF
 1084 0001:0001D91D 1086 0001:0001D95C 1088 0001:0001D987 1090 0001:0001D99B
 1091 0001:0001D9E5 1093 0001:0001DA2A 1095 0001:0001DA3D 1096 0001:0001DA49
 1098 0001:0001DA55 1099 0001:0001DA75 1100 0001:0001DAC2 1102 0001:0001DB74
 1105 0001:0001DBB2 1108 0001:0001DBF3 1106 0001:0001DC26 1111 0001:0001DC3F
 1112 0001:0001DC4C 1113 0001:0001DC55 1115 0001:0001DC98 1116 0001:0001DCA1
 1118 0001:0001DCDE 1119 0001:0001DCE7 1121 0001:0001DD2A 1122 0001:0001DD33
 1124 0001:0001DD70 1125 0001:0001DD79 1127 0001:0001DDB6 1128 0001:0001DDBF
 1130 0001:0001DDFC 1131 0001:0001DE05 1133 0001:0001DE42 1134 0001:0001DE4B
 1136 0001:0001DE8E 1137 0001:0001DE97 1138 0001:0001DEA0 1141 0001:0001DEE3
 1142 0001:0001DEF0 1143 0001:0001DEFD 1146 0001:0001DF21 1147 0001:0001DF2A
 1149 0001:0001DF6D 1151 0001:0001DFB0 1152 0001:0001DFB9 1154 0001:0001DFF6
 1155 0001:0001DFFF 1157 0001:0001E03C 1158 0001:0001E045 1160 0001:0001E088
 1161 0001:0001E091 1162 0001:0001E09A 1165 0001:0001E0D7 1166 0001:0001E0E0
 1167 0001:0001E0E9 1171 0001:0001E12C 1174 0001:0001E16D 1172 0001:0001E19A
 1177 0001:0001E1B3 1178 0001:0001E1C2 1179 0001:0001E1CA 1181 0001:0001E207
 1182 0001:0001E210 1184 0001:0001E24D 1185 0001:0001E256 1187 0001:0001E293
 1188 0001:0001E29C 1190 0001:0001E2D9 1191 0001:0001E2E2 1193 0001:0001E325
 1194 0001:0001E32E 1196 0001:0001E371 1197 0001:0001E37A 1199 0001:0001E3BD
 1200 0001:0001E3C6 1202 0001:0001E409 1203 0001:0001E412 1204 0001:0001E41B
 1207 0001:0001E45E 1208 0001:0001E46B 1209 0001:0001E478 1212 0001:0001E4A2
 1213 0001:0001E4AB 1215 0001:0001E4EE 1217 0001:0001E531 1218 0001:0001E53A
 1220 0001:0001E57D 1221 0001:0001E586 1223 0001:0001E5C9 1224 0001:0001E5D2
 1226 0001:0001E615 1227 0001:0001E61E 1228 0001:0001E627 1231 0001:0001E66A
 1232 0001:0001E673 1233 0001:0001E67C 1240 0001:0001E6BF 1241 0001:0001E6D0
 1242 0001:0001E6DE 1243 0001:0001E713 1245 0001:0001E727 1246 0001:0001E784
 1248 0001:0001E797 1251 0001:0001E7C0 1252 0001:0001E7D1 1253 0001:0001E805
 1255 0001:0001E819 1256 0001:0001E87B 1258 0001:0001E88E 1262 0001:0001E8BA
 1263 0001:0001E8EC 1265 0001:0001E900 1266 0001:0001E95F 1268 0001:0001E972
 1272 0001:0001E9A2 1310 0001:0001E9B8 1312 0001:0001E9C7 1313 0001:0001EA03
 1315 0001:0001EA17 1316 0001:0001EA7D 1318 0001:0001EB70 1320 0001:0001EB83
 1323 0001:0001EB98 1324 0001:0001EBE1 1326 0001:0001EC08 1327 0001:0001EC17
 1328 0001:0001EC1C 1331 0001:0001EC22 1332 0001:0001EC25 1333 0001:0001EC3C
 1335 0001:0001EC3F 1342 0001:0001EC69 1346 0001:0001EC6E 1351 0001:0001EC77
 1353 0001:0001EC82 1355 0001:0001EC92 1357 0001:0001ED09 1358 0001:0001ED14
 1360 0001:0001ED1A 1361 0001:0001ED27 1363 0001:0001ED31 1365 0001:0001ED4C
 1366 0001:0001ED50 1371 0001:0001ED64 1378 0001:0001ED6F 1379 0001:0001ED7A
 1381 0001:0001ED93 1382 0001:0001ED97 1387 0001:0001EDB0 1388 0001:0001EDBA
 1391 0001:0001EDEB 1395 0001:0001EE05 1402 0001:0001EE10 1403 0001:0001EE2D
 1412 0001:0001EE35 1415 0001:0001EE3A 1420 0001:0001EE43 1422 0001:0001EE4E
 1424 0001:0001EF2D 1425 0001:0001EFC5 1427 0001:0001EFE0 1428 0001:0001EFE4
 1432 0001:0001F001 1437 0001:0001F010 1439 0001:0001F01B 1441 0001:0001F037
 1442 0001:0001F03A 1443 0001:0001F03C 1445 0001:0001F040 1447 0001:0001F04E
 1450 0001:0001F06E 1453 0001:0001F073 1470 0001:0001F07F 1471 0001:0001F09C
 1472 0001:0001F0A0 1474 0001:0001F0BD 1475 0001:0001F0C0 1476 0001:0001F0C6
 1477 0001:0001F0C8 1478 0001:0001F0CA 1480 0001:0001F0D1 1482 0001:0001F0D9
 1483 0001:0001F0DD 1484 0001:0001F0E3 1485 0001:0001F0E7 1486 0001:0001F0EB
 1490 0001:0001F0F2 1492 0001:0001F0F9 1493 0001:0001F117 1496 0001:0001F147
 1497 0001:0001F151 1501 0001:0001F182 1502 0001:0001F19B 1503 0001:0001F1A0
 1504 0001:0001F1A6 1505 0001:0001F1B0 1508 0001:0001F1B6 1512 0001:0001F1CB
 1527 0001:0001F1D7 1528 0001:0001F1F4 1529 0001:0001F1F8 1531 0001:0001F215
 1532 0001:0001F21B 1533 0001:0001F221 1534 0001:0001F226 1535 0001:0001F228
 1536 0001:0001F230 1538 0001:0001F233 1540 0001:0001F23B 1541 0001:0001F242
 1542 0001:0001F248 1543 0001:0001F24F 1544 0001:0001F253 1548 0001:0001F25A
 1550 0001:0001F261 1552 0001:0001F277 1553 0001:0001F27F 1555 0001:0001F366
 1564 0001:0001F390 1565 0001:0001F39A 1569 0001:0001F3CB 1570 0001:0001F3E4
 1571 0001:0001F3E9 1572 0001:0001F3EF 1573 0001:0001F3FC 1576 0001:0001F402
 1580 0001:0001F40E 1585 0001:0001F415 1588 0001:0001F420 1589 0001:0001F428
 1590 0001:0001F42D 1591 0001:0001F449 1592 0001:0001F44B 1593 0001:0001F44E
 1596 0001:0001F450 1598 0001:0001F454 1599 0001:0001F458 1600 0001:0001F462
 1602 0001:0001F464 1603 0001:0001F46A 1607 0001:0001F47E 1608 0001:0001F4B3
 1611 0001:0001F4B9 1616 0001:0001F4C2 1619 0001:0001F4CD 1620 0001:0001F4D5
 1621 0001:0001F4DA 1622 0001:0001F4F6 1623 0001:0001F4F8 1624 0001:0001F4FB
 1626 0001:0001F4FD 1628 0001:0001F501 1629 0001:0001F505 1630 0001:0001F50F
 1632 0001:0001F511 1633 0001:0001F517 1637 0001:0001F52B 1638 0001:0001F607
 1640 0001:0001F618 1642 0001:0001F6AE 1643 0001:0001F6C7 1646 0001:0001F6CF
 1650 0001:0001F6E2 1657 0001:0001F6ED 1659 0001:0001F6F5 1660 0001:0001F70E
 1661 0001:0001F712 1663 0001:0001F738 1664 0001:0001F748 1668 0001:0001F74D
 1670 0001:0001F75A 1675 0001:0001F76C 1682 0001:0001F76F 1684 0001:0001F776
 1685 0001:0001F787 1688 0001:0001F789 1695 0001:0001F790 1697 0001:0001F79B
 1699 0001:0001F7B5 1700 0001:0001F7B9 1701 0001:0001F7CA 1705 0001:0001F7CC
 1707 0001:0001F7D9 1708 0001:0001F7E9 1711 0001:0001F7EE 1724 0001:0001F7F9
 1725 0001:0001F801 1726 0001:0001F803 1727 0001:0001F80B 1728 0001:0001F80F
 1730 0001:0001F81D 1731 0001:0001F836 1732 0001:0001F83A 1734 0001:0001F854
 1736 0001:0001F87F 1739 0001:0001F884 1746 0001:0001F88B 1748 0001:0001F892
 1749 0001:0001F8B5 1750 0001:0001F8B9 1752 0001:0001F8D4 1753 0001:0001F8F9
 1756 0001:0001F8FE 1758 0001:0001F901 1759 0001:0001F917 1762 0001:0001F919
 1767 0001:0001F91C 1771 0001:0001F93A 1775 0001:0001F945 1776 0001:0001F960
 1777 0001:0001F99D 1780 0001:0001F9AA 1784 0001:0001F9B5 1785 0001:0001F9D0
 1786 0001:0001F9FB 1789 0001:0001F9FD 1796 0001:0001FA06 1798 0001:0001FA11
 1799 0001:0001FAA5 1805 0001:0001FAD0 1806 0001:0001FAE3 1810 0001:0001FAEC
 1817 0001:0001FAF5 1819 0001:0001FB00 1820 0001:0001FB95 1822 0001:0001FC22
 1827 0001:0001FC4E 1829 0001:0001FC50 1830 0001:0001FC63 1831 0001:0001FC6E
 1833 0001:0001FC73 1835 0001:0001FC8B 1836 0001:0001FC93 1837 0001:0001FC9D
 1839 0001:0001FCA2 1842 0001:0001FCA5 1844 0001:0001FCAC 1845 0001:0001FCC8
 1848 0001:0001FCCB 1859 0001:0001FCDA 1861 0001:0001FCE2 1863 0001:0001FD7E
 1864 0001:0001FDA3 1865 0001:0001FDA7 1869 0001:0001FDB1 1870 0001:0001FDCF
 1875 0001:0001FDD3 1877 0001:0001FDE3 1878 0001:0001FE16 1881 0001:0001FE29
 1888 0001:0001FE32 1891 0001:0001FE3D 1892 0001:0001FE97 1894 0001:0001FEB9
 1895 0001:0001FF51 1897 0001:0001FF73 1898 0001:0002000F 1900 0001:00020031
 1901 0001:000200CC 1903 0001:000200EE 1904 0001:00020189 1906 0001:000201AB
 1907 0001:00020246 1909 0001:00020268 1911 0001:000202FE 1912 0001:00020358
 1914 0001:0002037A 1915 0001:00020392 1917 0001:000203AD 1918 0001:00020458
 1919 0001:00020503 1920 0001:000205AE 1924 0001:0002065E 1932 0001:0002066A
 1933 0001:00020672 1934 0001:00020709 1935 0001:0002071F 1937 0001:00020737
 1938 0001:0002073F 1939 0001:000207D8 1940 0001:000207EE 1941 0001:00020807
 1942 0001:0002087D 1955 0001:00020893 1967 0001:00020899 1968 0001:0002089B
 1969 0001:000208A2 1970 0001:000208AA 1971 0001:000208B2 1972 0001:000208BA
 1973 0001:000208C1 1974 0001:000208C5 1975 0001:000208CB 1976 0001:000208D9
 1977 0001:000208E0 1978 0001:000208E8 1980 0001:000208F0 1981 0001:000208F8
 1983 0001:00020900 1989 0001:00020903 1990 0001:0002090A 1991 0001:00020911
 1993 0001:00020918 1994 0001:0002091F 1995 0001:00020923 1998 0001:00020926
 2001 0001:00020935 2003 0001:0002093B 2004 0001:0002094E 2005 0001:00020952
 2006 0001:00020955 2009 0001:00020957 2010 0001:00020967 2011 0001:00020978
 2012 0001:0002098C 2015 0001:000209A0 2016 0001:000209AB 2017 0001:000209B4
 2020 0001:000209DA 2021 0001:000209DF 2022 0001:000209E5 2024 0001:000209E9
 2027 0001:00020A23 2029 0001:00020A49 2034 0001:00020A8E 2035 0001:00020A92
 2038 0001:00020ABD 2039 0001:00020AE7 2040 0001:00020AF0 2043 0001:00020AFB
 2046 0001:00020B0A 2048 0001:00020B10 2049 0001:00020B26 2050 0001:00020B2A
 2051 0001:00020B2E 2053 0001:00020B31 2054 0001:00020B5B 2056 0001:00020B69
 2057 0001:00020C48 2059 0001:00020D27 2061 0001:00020D33 2063 0001:00020E1A
 2064 0001:00020E2A 2065 0001:00020E34 2066 0001:00020E36 2067 0001:00020E41
 2069 0001:00020E44 2070 0001:00020E50 2071 0001:00020E53 2072 0001:00020E5F
 2076 0001:00020E64 2077 0001:00020E69 2078 0001:00020E6C 2079 0001:00020E6F
 2082 0001:00020E72 2083 0001:00020E87 2084 0001:00020E9C 2087 0001:00020EC3
 2088 0001:00020EC8 2089 0001:00020ECE 2091 0001:00020ED2 2094 0001:00020F0C
 2096 0001:00020F32 2099 0001:00020F3C 2100 0001:00020FDC 2102 0001:000210B7
 2104 0001:000210C3 2108 0001:000211AA 2109 0001:000211B4 2113 0001:000211CF
 2114 0001:000211D5 2117 0001:00021203 2119 0001:000212B2 2120 0001:000212BC
 2124 0001:00021330 2125 0001:00021336 2128 0001:00021364 2132 0001:00021413
 2135 0001:0002141B 2146 0001:00021427 2147 0001:0002142B 2148 0001:00021432
 2149 0001:00021439 2150 0001:0002143B 2151 0001:00021443 2153 0001:00021447
 2157 0001:00021462 2158 0001:0002147A 2159 0001:00021483 2164 0001:0002148A
 2165 0001:000214E6 2167 0001:0002158B 2168 0001:00021595 2169 0001:0002162A
 2170 0001:000216CC 2178 0001:0002174B 2192 0001:0002175A 2194 0001:00021778
 2196 0001:0002179F 2200 0001:000217B9 2201 0001:000217BD 2203 0001:000217C1
 2204 0001:000217C5 2208 0001:000217CC 2209 0001:000217D3 2211 0001:000217DA
 2212 0001:000217E1 2214 0001:00021810 2215 0001:00021818 2216 0001:0002181D
 2217 0001:00021820 2220 0001:00021823 2221 0001:0002182B 2222 0001:0002182E
 2223 0001:00021831 2230 0001:00021833 2231 0001:00021839 2232 0001:0002183C
 2233 0001:00021849 2235 0001:00021855 2236 0001:00021865 2242 0001:00021877
 2244 0001:000218CF 2246 0001:00021928 2248 0001:00021979 2250 0001:000219C1
 2253 0001:000219E4 2273 0001:00021A1F 2276 0001:00021A27 2279 0001:00021A2C
 2283 0001:00021A31 2284 0001:00021A39 2287 0001:00021A3E 2288 0001:00021A46
 2291 0001:00021A4B 2299 0001:00021A6C 2301 0001:00021A7B 2302 0001:00021B1F
 2304 0001:00021B40 2305 0001:00021BE1 2306 0001:00021C01 2309 0001:00021C07
 2314 0001:00021C42 2315 0001:00021C44 2316 0001:00021C49 2318 0001:00021C4C
 2319 0001:00021C58 2320 0001:00021C5B 2321 0001:00021C5E 2323 0001:00021C70
 2324 0001:00021C79 2325 0001:00021C7C 2326 0001:00021C7F 2328 0001:00021C91
 2329 0001:00021CAA 2330 0001:00021CAF 2331 0001:00021CCF 2334 0001:00021CD6
 2335 0001:00021CEB 2336 0001:00021CF0 2340 0001:00021D09 2341 0001:00021D12
 2343 0001:00021D1B 2344 0001:00021D24 2346 0001:00021D2D 2347 0001:00021D39
 2349 0001:00021D3F 2350 0001:00021D4D 2352 0001:00021D53 2353 0001:00021D5F
 2354 0001:00021D62 2357 0001:00021D67 2358 0001:00021D71 2359 0001:00021D74
 2362 0001:00021D79 2363 0001:00021D80 2364 0001:00021D85 2365 0001:00021D8A
 2366 0001:00021D92 2369 0001:00021D97 2370 0001:00021D9B 2371 0001:00021D9E
 2372 0001:00021DA8 2373 0001:00021DAD 2377 0001:00021DAF 2379 0001:00021DC4
 2381 0001:00021DF1 2382 0001:00021DFD 2383 0001:00021E03 2387 0001:00021E64
 2388 0001:00021EA8 2390 0001:00021EAE 2391 0001:00021ED6 2392 0001:00021F02
 2393 0001:00021F9C 2395 0001:00021FAE 2396 0001:00021FCB 2398 0001:00021FF3
 2399 0001:00022031 2400 0001:000220EA 2402 0001:000220EE 2404 0001:00022105
 2405 0001:0002212B 2406 0001:00022134 2408 0001:00022137 2409 0001:00022158
 2411 0001:000221EC 2413 0001:000221FB 2414 0001:00022218 2415 0001:00022240
 2417 0001:0002227E 2418 0001:00022284 2421 0001:000222A0 2438 0001:000222AB
 2440 0001:000222AF 2441 0001:000222B8 2449 0001:000222E7 2453 0001:000222F5
 2457 0001:00022308 2461 0001:0002231E 2468 0001:00022322 2445 0001:00022340
 2447 0001:0002235B

Line numbers for M:\GAMES\NETADV\PROG\interp\graphmgr.cpp(M:\GAMES\NETADV\PROG\interp\graphmgr.cpp) segment FOO

   27 0001:0002236C   29 0001:0002237C   31 0001:000223B1   33 0001:00022449
   34 0001:0002244F   35 0001:00022458   36 0001:00022462   37 0001:0002246C
   38 0001:00022473   39 0001:0002247A   42 0001:0002247D   44 0001:00022486
   45 0001:0002248A   48 0001:0002249E   52 0001:000224BB   53 0001:000224C2
   58 0001:000224D7   59 0001:000224DE   60 0001:000224F7   63 0001:000224FC
   67 0001:00022504   70 0001:0002250B   71 0001:00022520   72 0001:0002252A
   73 0001:00022536   75 0001:0002253A   76 0001:00022550   77 0001:00022557
   79 0001:0002255E   82 0001:00022562   85 0001:0002256A   86 0001:0002256D
   90 0001:00022587   91 0001:00022595   94 0001:00022599   96 0001:000225A5
  100 0001:000225BC  102 0001:000225D5  103 0001:000225DF  105 0001:0002265D
  106 0001:00022669  109 0001:0002266E  111 0001:00022672  112 0001:00022685
  120 0001:00022689  121 0001:00022696  124 0001:00022699  126 0001:000226A5
  130 0001:000226B8  131 0001:000226BF  132 0001:000226C9  134 0001:000226CE
  135 0001:000226DE  136 0001:000226E5  138 0001:000226EF  142 0001:000226F4
  147 0001:00022700  148 0001:0002270F  151 0001:0002271E  152 0001:0002272A
  154 0001:00022756  155 0001:00022777  156 0001:00022799  157 0001:000227AE
  161 0001:000227C1  163 0001:000227CD  164 0001:000227DB  165 0001:000227FE
  168 0001:0002281C  169 0001:0002282E  171 0001:0002283A  172 0001:0002284F
  175 0001:00022870  178 0001:0002287F  179 0001:00022886  178 0001:00022896
  181 0001:0002289B  185 0001:0002289F  184 0001:000228C1  189 0001:000228E0
  192 0001:000228FF  193 0001:00022906  194 0001:0002290D  195 0001:0002292A
  193 0001:0002293B  200 0001:00022941  202 0001:0002296D  203 0001:00022976
  204 0001:00022987  207 0001:00022997  208 0001:000229AB  209 0001:000229B3
  210 0001:000229BB  211 0001:000229C0  215 0001:000229C2  217 0001:000229CE
  219 0001:000229E8  220 0001:000229FC  221 0001:00022A04  222 0001:00022A0C
  223 0001:00022A11  227 0001:00022A13  228 0001:00022A36  229 0001:00022A52
  234 0001:00022A71  236 0001:00022A92  237 0001:00022A9F  239 0001:00022AA7
  242 0001:00022ABA  247 0001:00022AC4  248 0001:00022AC8  247 0001:00022AD6
  250 0001:00022AE2  251 0001:00022AF4  253 0001:00022AFD  256 0001:00022B1E
  259 0001:00022B2A  260 0001:00022B2E  259 0001:00022B3E  262 0001:00022B44
  266 0001:00022B48  265 0001:00022B6A  270 0001:00022B89  273 0001:00022BAB
  274 0001:00022BAF  275 0001:00022BB9  276 0001:00022BD6  273 0001:00022BEA
  279 0001:00022BF0  280 0001:00022C13  281 0001:00022C29  283 0001:00022C42
  284 0001:00022C4F  287 0001:00022C56  288 0001:00022C60  289 0001:00022C7F
  291 0001:00022CA0  294 0001:00022CA8  299 0001:00022CB1  300 0001:00022CBE
  301 0001:00022CC3  305 0001:00022CD7  307 0001:00022CE6  308 0001:00022CF9
  309 0001:00022D1A  312 0001:00022D36  313 0001:00022D48  315 0001:00022D54
  318 0001:00022D75  321 0001:00022D84  322 0001:00022D8B  321 0001:00022D9B
  324 0001:00022DA0  328 0001:00022DA4  327 0001:00022DC6  332 0001:00022DE5
  335 0001:00022E07  336 0001:00022E0B  337 0001:00022E15  338 0001:00022E32
  335 0001:00022E43  342 0001:00022E49  346 0001:00022E68  347 0001:00022E6E
  348 0001:00022E7B  351 0001:00022E85  352 0001:00022E91  353 0001:00022EB0
  357 0001:00022ED1  362 0001:00022EDC  370 0001:00022EE8  371 0001:00022EFD
  372 0001:00022F09  381 0001:00022F10  383 0001:00022F32  381 0001:00022F45
  395 0001:00022FC6  402 0001:00022FD2  404 0001:00022FDA  405 0001:00022FDE
  407 0001:00023004  408 0001:0002300C  410 0001:00023016  404 0001:00023054
  416 0001:0002305A  419 0001:0002305F  421 0001:00023066  422 0001:0002307A
  423 0001:00023087  424 0001:00023091  427 0001:00023094  429 0001:000230A0
  430 0001:000230B9  432 0001:000230C9  433 0001:000230D4  434 0001:00023114
  436 0001:00023150  439 0001:00023189  440 0001:0002318F  443 0001:00023199
  445 0001:000231A2  447 0001:000231AD  448 0001:000231B6  449 0001:000231C7
  450 0001:000231D0  452 0001:000231D9  453 0001:00023204  455 0001:00023235
  456 0001:0002323B  457 0001:00023248  458 0001:00023265  462 0001:0002327D
  465 0001:000232C5  468 0001:000232CA  499 0001:000232D9  500 0001:000232EF
  501 0001:00023308  502 0001:0002330F  503 0001:00023318  504 0001:00023322
  505 0001:00023327  514 0001:0002332B  517 0001:00023330  518 0001:00023342
  519 0001:00023359  521 0001:00023370  522 0001:00023375  523 0001:0002338A
  525 0001:00023394  526 0001:0002339B  528 0001:0002341D  529 0001:00023426
  530 0001:0002342B  534 0001:0002343D  536 0001:00023440  537 0001:00023455
  538 0001:00023467  539 0001:00023473  542 0001:00023475  551 0001:0002347C
  552 0001:0002348F  553 0001:00023494  555 0001:00023498  556 0001:000234B3


Line numbers for M:\GAMES\NETADV\PROG\interp\graphmw.cpp(M:\GAMES\NETADV\PROG\interp\graphmw.cpp) segment FOO

   28 0001:000234BC   32 0001:000235E3   33 0001:000235F5   35 0001:00023615
   36 0001:0002361E   38 0001:00023649   40 0001:00023678   41 0001:0002369F
   43 0001:000236BC   44 0001:000236C5   46 0001:000236CB   49 0001:000236D1
   50 0001:000236DB   51 0001:000236E4   52 0001:000236ED   53 0001:000236F5
   54 0001:000236FB   55 0001:00023701   56 0001:00023707   57 0001:00023711
   59 0001:00023716   61 0001:00023729   62 0001:00023732   63 0001:00023738
   64 0001:0002373A   66 0001:00023744   67 0001:00023748   66 0001:00023750
   69 0001:00023758   72 0001:0002375F   74 0001:00023790   75 0001:000237B8
   76 0001:000237CC   77 0001:000237E0   78 0001:000237F4   81 0001:0002383D
   90 0001:00023847   97 0001:0002384E   98 0001:0002385A   99 0001:00023872
  100 0001:00023888  104 0001:000238ED  105 0001:000238F5  106 0001:000238F7
  107 0001:000238F9  110 0001:000238FE  113 0001:00023901  114 0001:00023922
  115 0001:00023938  117 0001:0002393D  118 0001:0002394B  119 0001:00023961
  123 0001:000239C6  124 0001:000239CE  125 0001:000239D0  126 0001:000239D2
  129 0001:000239D7  130 0001:000239DA  133 0001:00023A22  134 0001:00023A4F
  135 0001:00023A7D  137 0001:00023A82  139 0001:00023AE1  141 0001:00023AFE
  144 0001:00023B09  148 0001:00023B15  149 0001:00023B23  152 0001:00023B2B
  153 0001:00023B3D  154 0001:00023B41  155 0001:00023B65  156 0001:00023B6C
  157 0001:00023B70  153 0001:00023BA4  159 0001:00023BA9  160 0001:00023BBF
  161 0001:00023BC3  162 0001:00023BE5  163 0001:00023BEC  164 0001:00023BF0
  160 0001:00023C04  166 0001:00023C12  167 0001:00023C28  168 0001:00023C2C
  169 0001:00023C2E  170 0001:00023C32  169 0001:00023C48  171 0001:00023C53
  173 0001:00023C5C  177 0001:00023C64  181 0001:00023C6D  182 0001:00023C70
  183 0001:00023C74  184 0001:00023C78  187 0001:00023C7C  188 0001:00023C80
  194 0001:00023C83  195 0001:00023C8F  197 0001:00023C9B  209 0001:00023CF2
  252 0001:00023CF7  257 0001:00023D03  261 0001:00023D0D  262 0001:00023D1B
  263 0001:00023D28  264 0001:00023D30  265 0001:00023D33  266 0001:00023D44
  267 0001:00023D53  268 0001:00023D6B  269 0001:00023D74  270 0001:00023D7E
  271 0001:00023D83  272 0001:00023D85  273 0001:00023D99  274 0001:00023D9F
  271 0001:00023DA2  276 0001:00023DA8  277 0001:00023DB7  280 0001:00023DCB
  281 0001:00023DDE  282 0001:00023DE3  283 0001:00023DED  284 0001:00023DF1
  285 0001:00023E05  286 0001:00023E0B  283 0001:00023E0E  288 0001:00023E14
  289 0001:00023E1E  291 0001:00023E31  292 0001:00023E38  293 0001:00023E54
  297 0001:00023E58  298 0001:00023E62  299 0001:00023E67  300 0001:00023E6A
  301 0001:00023E7C  302 0001:00023E8B  304 0001:00023E90  311 0001:00023E96
  314 0001:00023E9B  317 0001:00023EA2  318 0001:00023EB5  319 0001:00023EC2
  333 0001:00023EC5  334 0001:00023EF6  337 0001:00023EF7  341 0001:00023F03
  342 0001:00023F15  343 0001:00023F2E  344 0001:00023F47  345 0001:00023F63
  346 0001:00023F6C  347 0001:00023F76  348 0001:00023F7E  349 0001:00023F87
  350 0001:00023F91  351 0001:00023F9D  352 0001:00023FB9  354 0001:00023FCC
  357 0001:00023FD1  361 0001:00023FDD  362 0001:00023FEF  363 0001:00024008
  364 0001:00024021  365 0001:0002403D  366 0001:00024053  367 0001:0002405D
  368 0001:00024069  374 0001:00024085  377 0001:0002408A  387 0001:0002409F
  388 0001:000240AA  389 0001:000240B4  390 0001:000240BF  393 0001:000240C7
  395 0001:000240DD  397 0001:000240E7  398 0001:000240F7  399 0001:0002410E
  400 0001:00024111  401 0001:00024114  404 0001:00024116  415 0001:00024128
  417 0001:0002412C  418 0001:00024137  419 0001:00024145  420 0001:00024152
  423 0001:0002415C  425 0001:00024177  427 0001:00024181  428 0001:00024191
  429 0001:000241A8  430 0001:000241AB  431 0001:000241AE  434 0001:000241B0
  446 0001:000241C5  447 0001:000241D0  448 0001:000241DA  449 0001:000241E5
  452 0001:000241ED  454 0001:00024203  456 0001:0002420D  457 0001:0002421D
  458 0001:00024234  459 0001:00024237  460 0001:0002423A  463 0001:0002423C
  476 0001:0002424E  478 0001:00024252  479 0001:0002425D  480 0001:0002426B
  481 0001:00024278  484 0001:00024282  486 0001:0002429D  488 0001:000242A7
  489 0001:000242B7  490 0001:000242CE  491 0001:000242D1  492 0001:000242D4
  493 0001:000242D8    1 0001:00024518

Line numbers for M:\GAMES\NETADV\PROG\interp\integ.cpp(M:\GAMES\NETADV\PROG\interp\integ.cpp) segment FOO

   29 0001:00024524   30 0001:00024538   31 0001:0002454C   32 0001:00024560
   33 0001:00024574   34 0001:00024588   35 0001:0002459C   36 0001:000245B0
   45 0001:000245C5   47 0001:000245D0   49 0001:000245DC   50 0001:000245DF
   51 0001:000245E8   52 0001:000245FB   53 0001:00024660   55 0001:0002467D
   57 0001:00024690   58 0001:000246A1   59 0001:000246A3   60 0001:000246BA
   64 0001:000246C1   68 0001:000246D0   70 0001:000246D7   71 0001:000246DD
   72 0001:000246F1   73 0001:000246F6   74 0001:000246FD   75 0001:00024711
   76 0001:00024713   78 0001:0002471B   79 0001:0002472B   81 0001:0002472E
   82 0001:00024730   83 0001:0002473D   84 0001:00024745   85 0001:00024749
   86 0001:00024763   87 0001:00024776   89 0001:00024791   91 0001:00024798
   95 0001:0002479D   98 0001:000247A9   99 0001:000247BB  100 0001:000247CF
  101 0001:000247D4  103 0001:000247F2  104 0001:000247FF  105 0001:0002480C
  106 0001:00024822  107 0001:00024836  109 0001:00024838  111 0001:00024850
  112 0001:00024854  113 0001:00024868  119 0001:00024884  120 0001:0002488A
  121 0001:000248A0  122 0001:000248A4  123 0001:000248AA  125 0001:000248B0
  128 0001:000248BF  131 0001:000248C7  134 0001:000248D1  135 0001:000248DC
  136 0001:000248E2  139 0001:000248E3  144 0001:000248EF  145 0001:000248F9
  146 0001:0002490C  147 0001:00024971  149 0001:0002498E  150 0001:000249A4
  153 0001:000249A7  156 0001:000249BC  160 0001:000249CB  161 0001:000249D5
  162 0001:000249DE  165 0001:000249E3  167 0001:000249EF  168 0001:000249F8
  171 0001:00024A02  173 0001:00024A09  174 0001:00024A0F  175 0001:00024A23
  176 0001:00024A28  177 0001:00024A2F  178 0001:00024A43  179 0001:00024A45
  181 0001:00024A4D  182 0001:00024A5E  185 0001:00024A63  186 0001:00024A65
  188 0001:00024A80  189 0001:00024A93  190 0001:00024AB1  191 0001:00024AB6
  200 0001:00024AB8  203 0001:00024AD0  204 0001:00024AD4  207 0001:00024AF9
  208 0001:00024AFB

Line numbers for M:\GAMES\NETADV\PROG\interp\intrptw.cpp(M:\GAMES\NETADV\PROG\interp\intrptw.cpp) segment FOO

   11 0001:00024B00

Line numbers for M:\GAMES\NETADV\PROG\interp\kbdmgr.cpp(M:\GAMES\NETADV\PROG\interp\kbdmgr.cpp) segment FOO

   10 0001:00024B04   34 0001:00024B09   35 0001:00024B0D   37 0001:00024B14
   38 0001:00024B1E   39 0001:00024B30   40 0001:00024B35   42 0001:00024B5B


Line numbers for M:\GAMES\NETADV\PROG\interp\kbdmgrw.cpp(M:\GAMES\NETADV\PROG\interp\kbdmgrw.cpp) segment FOO

   11 0001:00024B7C   21 0001:00024BA5   48 0001:00024BAC   52 0001:00024BD9
   25 0001:00024BE0   63 0001:00024C1F   75 0001:00024C29   88 0001:00024C3F
   93 0001:00024C46   95 0001:00024C52   96 0001:00024C58   97 0001:00024C61
   98 0001:00024C77

Line numbers for M:\GAMES\NETADV\PROG\interp\kbdw.cpp(M:\GAMES\NETADV\PROG\interp\kbdw.cpp) segment FOO

    9 0001:00024C80   15 0001:00024C83   20 0001:00024C87   22 0001:00024CD6


Line numbers for M:\GAMES\NETADV\PROG\interp\kernel.cpp(M:\GAMES\NETADV\PROG\interp\kernel.cpp) segment FOO

   10 0001:00024CDC

Line numbers for M:\GAMES\NETADV\PROG\interp\language.cpp(M:\GAMES\NETADV\PROG\interp\language.cpp) segment FOO

   22 0001:00024CE0   24 0001:00024CE9   25 0001:00024D03   35 0001:00024D17
   36 0001:00024E2C   26 0001:00024E2E   39 0001:00024E6F   40 0001:00024E8A


Line numbers for M:\GAMES\NETADV\PROG\interp\line.cpp(M:\GAMES\NETADV\PROG\interp\line.cpp) segment FOO

   12 0001:00024E94   61 0001:00024EC3   62 0001:00024EC8   64 0001:00024ECA
   65 0001:00024ECF   59 0001:00024ED1   70 0001:00024ED5   71 0001:00024ED7
   72 0001:00024ED9   76 0001:00024EEE   71 0001:00024EF0   80 0001:00024EF6
   83 0001:00024F0F   85 0001:00024F16   86 0001:00024F18   87 0001:00024F2B
   89 0001:00024F45   90 0001:00024F50   91 0001:00024F5D   92 0001:00024F72
   93 0001:00024F7B   94 0001:00024F7C   95 0001:00024F7E   98 0001:00024F80
  100 0001:00024F88  102 0001:00024F8A  103 0001:00024F94  104 0001:00024F9B
  105 0001:00024FA4  106 0001:00024FB4  107 0001:00024FBD  108 0001:00024FBE
  109 0001:00024FBF  114 0001:00024FC1  118 0001:00024FCD  119 0001:00024FD9
  120 0001:00024FDB  121 0001:00024FE2  123 0001:00024FE4  124 0001:00024FEE
  125 0001:00024FF3  126 0001:00025011  127 0001:00025018  128 0001:0002501F
  129 0001:00025026  130 0001:0002502D  131 0001:0002502F  135 0001:00025031
  136 0001:0002508F  140 0001:000250FB  141 0001:00025104  143 0001:00025116
  144 0001:00025121  145 0001:00025128  149 0001:0002513F  150 0001:00025165
  153 0001:00025171  154 0001:00025177  156 0001:00025180  157 0001:00025185
  158 0001:0002518F  159 0001:00025193  161 0001:0002519A  162 0001:000251A1
  164 0001:000251A3  167 0001:000251AA  170 0001:000251BA  171 0001:000251CF
  173 0001:000251DA  176 0001:000251E5  227 0001:0002520D  228 0001:00025212
  230 0001:00025214  231 0001:00025219  225 0001:0002521B  236 0001:0002521F
  237 0001:00025221  238 0001:00025223  242 0001:00025231  237 0001:00025233
  246 0001:00025239  249 0001:00025259  251 0001:00025265  252 0001:00025267
  253 0001:0002527A  255 0001:0002528D  256 0001:000252A3  257 0001:000252AB
  259 0001:000252C0  260 0001:000252CB  261 0001:000252D6  265 0001:000252E0
  266 0001:000252E1  267 0001:000252E8  270 0001:000252EA  272 0001:000252F8
  274 0001:000252FA  275 0001:00025313  276 0001:00025324  277 0001:00025327
  278 0001:00025330  280 0001:00025345  281 0001:0002534E  282 0001:00025358
  283 0001:0002535A  284 0001:00025363  282 0001:0002536A  287 0001:0002536F
  288 0001:00025370  289 0001:00025371  296 0001:00025373  297 0001:0002537E
  299 0001:0002538C  300 0001:000253C7  301 0001:000253DF  305 0001:000253E8
  309 0001:000253FF  310 0001:00025404  311 0001:00025406  312 0001:0002540D
  314 0001:0002540F  315 0001:00025419  316 0001:0002541E  319 0001:0002543D
  320 0001:0002543F  321 0001:00025446  322 0001:00025448  323 0001:0002544F
  324 0001:00025451  328 0001:00025453  329 0001:00025492  333 0001:000254E9
  334 0001:000254F2  336 0001:00025504  337 0001:00025510  338 0001:00025517
  339 0001:0002552E  342 0001:00025530  343 0001:00025548  346 0001:00025559
  347 0001:0002555F  348 0001:00025572  351 0001:00025583  354 0001:0002558F
  358 0001:0002559D  365 0001:000255A8  366 0001:000255AD  367 0001:000255BB
  368 0001:000255BF  370 0001:000255C6  371 0001:000255CD  373 0001:000255CF
  376 0001:000255D6  379 0001:000255E6  380 0001:000255FB  381 0001:0002560E
  384 0001:0002561F  392 0001:0002562B  393 0001:00025634  391 0001:0002563B
  398 0001:00025645

Line numbers for M:\GAMES\NETADV\PROG\interp\list.cpp(M:\GAMES\NETADV\PROG\interp\list.cpp) segment FOO

   12 0001:00025650   14 0001:0002565C   16 0001:000256D9   17 0001:000256E1
   19 0001:000256F3   23 0001:000256FA   25 0001:00025706   27 0001:00025783
   29 0001:00025795   30 0001:0002579A   32 0001:000257A1   34 0001:000257A6
   40 0001:000257BD   42 0001:000257C9   44 0001:00025846   46 0001:00025858
   47 0001:0002585D   49 0001:00025864   50 0001:00025867   56 0001:00025877
   58 0001:00025883   60 0001:00025900   62 0001:00025903   66 0001:0002591C
   68 0001:00025928   70 0001:000259AA   71 0001:000259C0   75 0001:000259C7
   77 0001:000259D3   79 0001:00025A50   80 0001:00025A64   85 0001:00025A6E
   88 0001:00025A7B   90 0001:00025A87   92 0001:00025B04   93 0001:00025B1C
  101 0001:00025B28  103 0001:00025B34  105 0001:00025BB1  107 0001:00025BC3
  108 0001:00025BC8  110 0001:00025BCF  112 0001:00025BD2  115 0001:00025BDB
  118 0001:00025BE0  120 0001:00025BEC  122 0001:00025C6A  124 0001:00025C7B
  140 0001:00025C82  141 0001:00025C89  142 0001:00025C9C  143 0001:00025C9F
  149 0001:00025CED  151 0001:00025CF6  153 0001:00025D6F  155 0001:00025D80
  159 0001:00025D8A  161 0001:00025E23  163 0001:00025E26  164 0001:00025E38
  165 0001:00025E3F  167 0001:00025F24  168 0001:00025F44  169 0001:00025F47
  171 0001:00025F4E  172 0001:00025F51  176 0001:00025F56  177 0001:00025F60
  178 0001:00025F72  179 0001:00025F78  184 0001:00025FF0  186 0001:00025FFF
  188 0001:0002607A  190 0001:00026087  191 0001:00026093  192 0001:0002609D
  194 0001:000260A2  195 0001:000260A7  198 0001:000260AC  200 0001:000260B5
  201 0001:000260CC  202 0001:000260D5  205 0001:000260D9  207 0001:000260E2
  208 0001:000260F9  209 0001:00026102  214 0001:00026168  245 0001:00026192
  246 0001:0002619D  248 0001:00026205  249 0001:0002620F  251 0001:00026222
  253 0001:000262AD  254 0001:000262DF  256 0001:000262F3  257 0001:000262FE
  258 0001:00026307  259 0001:00026309  262 0001:00026324  268 0001:00026332
  270 0001:0002633D  271 0001:0002634F  272 0001:00026359  275 0001:0002635E
  276 0001:000263AB  278 0001:000263D0  279 0001:0002640E  285 0001:00026439
  291 0001:00026453  297 0001:00026462  303 0001:00026470  305 0001:0002647B
  306 0001:0002648D  307 0001:00026497  310 0001:0002649C  311 0001:000264E9
  313 0001:0002650E  319 0001:0002652E  325 0001:00026538  331 0001:00026542
  337 0001:00026554  339 0001:00026562  344 0001:0002657B  345 0001:000265D4
  347 0001:000265FC  353 0001:0002662B  355 0001:00026636  360 0001:0002664C
  361 0001:00026699  363 0001:000266BD  369 0001:000266DF  371 0001:000266EA
  376 0001:00026700  377 0001:0002674C  379 0001:00026771  385 0001:00026793
  387 0001:0002679E  392 0001:000267B4  393 0001:00026800  395 0001:00026824
  401 0001:0002684D  403 0001:00026858  408 0001:0002686E  409 0001:000268BB
  411 0001:000268E0  417 0001:00026902  419 0001:0002690D  424 0001:00026923
  425 0001:00026970  427 0001:00026995  433 0001:000269B7  439 0001:000269C1
  441 0001:000269CC  442 0001:000269DE  443 0001:000269E6  446 0001:000269EB
  447 0001:00026A38  449 0001:00026A5C  455 0001:00026A86  457 0001:00026A91
  458 0001:00026AA0  459 0001:00026AA8  462 0001:00026AAD  463 0001:00026AF9
  465 0001:00026B1E  471 0001:00026B46  473 0001:00026B51  478 0001:00026B64
  479 0001:00026BB0  481 0001:00026BD4  487 0001:00026BF6  489 0001:00026C01
  492 0001:00026C14  493 0001:00026C61  495 0001:00026C86  496 0001:00026C90
  500 0001:00026C96  501 0001:00026CCB  503 0001:00026CDD  504 0001:00026D38
  506 0001:00026D60  507 0001:00026D7D  508 0001:00026D83  513 0001:00026DD3
  516 0001:00026DDC  519 0001:00026DE0  522 0001:00026DE9  526 0001:00026DFD
  528 0001:00026E13  529 0001:00026E60  533 0001:00026E85  540 0001:00026EB0
  543 0001:00026EB9  546 0001:00026EBE  548 0001:00026EC6  550 0001:00026ED4
  553 0001:00026EE7  554 0001:00026F39  556 0001:00026F61  557 0001:00026F6B
  559 0001:00026F74  562 0001:00026F81  563 0001:00026FAB  565 0001:00026FDC
  566 0001:00026FFF  567 0001:00027005  570 0001:00027088  573 0001:00027091
  576 0001:00027095  579 0001:000270A1  583 0001:000270B5  585 0001:000270CE
  586 0001:00027120  588 0001:00027148  589 0001:00027155  595 0001:00027163
  601 0001:0002716B  604 0001:00027176  606 0001:00027181  609 0001:00027194
  610 0001:000271DD  612 0001:00027201  613 0001:0002720B  615 0001:00027211
  618 0001:0002721E  619 0001:00027245  621 0001:0002726D  622 0001:0002728A
  623 0001:00027290  626 0001:00027310  629 0001:00027319  632 0001:0002731F
  635 0001:00027328  639 0001:0002733C  641 0001:00027352  642 0001:0002739E
  644 0001:000273C3  651 0001:000273D0  657 0001:000273D8  659 0001:000273E6
  662 0001:000273F9  663 0001:0002744F  665 0001:00027477  666 0001:00027483
  668 0001:000274B5  674 0001:000274F2  676 0001:000274FD  677 0001:0002750C
  681 0001:00027513  682 0001:00027560  684 0001:00027585  686 0001:0002759C
  687 0001:000275A4

Line numbers for M:\GAMES\NETADV\PROG\interp\longint.cpp(M:\GAMES\NETADV\PROG\interp\longint.cpp) segment FOO

   25 0001:00027620   59 0001:0002762C   60 0001:00027634   63 0001:00027648
   66 0001:0002764F   69 0001:00027657   70 0001:000276AE   73 0001:000276CC
   74 0001:00027808   79 0001:0002780B   81 0001:0002780D   83 0001:00027817
   84 0001:0002781F   86 0001:00027833   87 0001:0002783B   88 0001:00027841
   89 0001:0002784C   90 0001:00027851   91 0001:00027855   99 0001:00027869
  100 0001:0002786B  104 0001:00027870  105 0001:00027872  109 0001:00027877
  110 0001:00027879  114 0001:0002787E  115 0001:00027881  119 0001:00027886
  120 0001:0002788A  122 0001:0002789E  123 0001:000278A9  127 0001:000278AE
  128 0001:000278B0  132 0001:000278B5  133 0001:000278B7  137 0001:000278BC
  138 0001:000278BE  142 0001:000278C3  143 0001:000278C5  147 0001:000278CA
  148 0001:000278D7  152 0001:000278DC  153 0001:000278ED  157 0001:000278F2
  158 0001:000278FF  162 0001:00027904  163 0001:0002791E  167 0001:00027923
  168 0001:00027929  172 0001:0002792E  173 0001:00027934  177 0001:00027939
  179 0001:0002793B  180 0001:0002793E  183 0001:00027943  187 0001:00027948
  188 0001:0002794B  192 0001:00027950  193 0001:0002795B  197 0001:00027960
  198 0001:0002796F  202 0001:00027974  207 0001:0002797B  212 0001:00027982
  217 0001:00027989  223 0001:00027990  224 0001:00027997  225 0001:000279A1
  226 0001:000279A3  229 0001:000279B5  230 0001:000279C8  233 0001:000279D8
  236 0001:000279DA  237 0001:000279ED  243 0001:00027A13  246 0001:00027A19
  249 0001:00027A1B  252 0001:00027A21  256 0001:00027A23  260 0001:00027A3C
  261 0001:00027A45  262 0001:00027AF9  264 0001:00027BA5

Line numbers for M:\GAMES\NETADV\PROG\interp\lzss.cpp(M:\GAMES\NETADV\PROG\interp\lzss.cpp) segment FOO

   29 0001:00027BB0   31 0001:00027BB7   32 0001:00027BBD   33 0001:00027BC4
   34 0001:00027BCB   35 0001:00027BDB   36 0001:00027BEB   37 0001:00027BFB
   39 0001:00027C0B   40 0001:00027C21   42 0001:00027C27   44 0001:00027C2C
   46 0001:00027C35   47 0001:00027C41   48 0001:00027C4D   49 0001:00027C59
   55 0001:00027C6C   67 0001:00027C71   68 0001:00027C78   67 0001:00027C83
   70 0001:00027C8B   71 0001:00027C8F   70 0001:00027C9A   73 0001:00027CA2
   75 0001:00027CA4   86 0001:00027CAF   87 0001:00027CB4   88 0001:00027CBF
   89 0001:00027CCA   90 0001:00027CDE   93 0001:00027CE4   94 0001:00027CEB
   95 0001:00027D00   97 0001:00027D16   98 0001:00027D2B  100 0001:00027D2E
  101 0001:00027D3E  102 0001:00027D59  103 0001:00027D5F  104 0001:00027D63
  107 0001:00027D73  108 0001:00027D93  109 0001:00027DA7  110 0001:00027DB3
  111 0001:00027DC8  112 0001:00027DDD  113 0001:00027DF0  114 0001:00027DF9
  115 0001:00027E04  116 0001:00027E12  118 0001:00027E1A  122 0001:00027E29
  123 0001:00027E3D  124 0001:00027E5A  126 0001:00027E72  127 0001:00027E75
  128 0001:00027E84  129 0001:00027E9F  130 0001:00027ED3  132 0001:00027EEF
  134 0001:00027F15  135 0001:00027F2A  136 0001:00027F49  137 0001:00027F55
  139 0001:00027F5A  143 0001:00027F66  145 0001:00027F6D  146 0001:00027F72
  148 0001:00027F79  149 0001:00027F82  153 0001:00027F87  154 0001:00027F92
  155 0001:00027F9C  158 0001:00027FAE  159 0001:00027FB5  158 0001:00027FCB
  162 0001:00027FE4  164 0001:00027FF3  168 0001:00028012  171 0001:0002801F
  173 0001:0002802F  174 0001:0002803C  175 0001:00028042  176 0001:00028048
  177 0001:0002805A  178 0001:0002805C  179 0001:00028067  184 0001:0002808A
  185 0001:0002809A  186 0001:0002809E  185 0001:000280B0  188 0001:000280B9
  189 0001:000280BF  191 0001:000280CF  192 0001:000280D6  199 0001:000280DA
  202 0001:000280EB  192 0001:000280F8  193 0001:0002810C  194 0001:00028117
  195 0001:0002812B  196 0001:00028136  205 0001:0002814B  206 0001:00028154
  207 0001:00028162  208 0001:00028173  210 0001:0002818C  211 0001:00028198
  212 0001:000281A1  213 0001:000281A5  212 0001:000281B7  215 0001:000281C0
  223 0001:000281C6  224 0001:000281C9  226 0001:000281D1  230 0001:000281E8
  232 0001:000281EC  233 0001:000281F1  235 0001:000281F8  236 0001:00028217
  238 0001:00028223  239 0001:0002822F  241 0001:00028237  242 0001:0002823B
  240 0001:00028243  246 0001:00028245  248 0001:0002824F  249 0001:00028256
  251 0001:0002825E  250 0001:00028262  252 0001:00028268  253 0001:00028271
  255 0001:00028279  257 0001:0002827B  258 0001:0002828B  263 0001:0002828E
  265 0001:00028290  267 0001:00028298  272 0001:000282A0  274 0001:000282AC
  279 0001:000282B4  280 0001:000282C0  273 0001:000282C9  282 0001:000282D4
  288 0001:000282DC  289 0001:000282DE  290 0001:000282EE  282 0001:000282F1
  283 0001:00028304  284 0001:00028323  285 0001:0002832C  294 0001:00028335
  296 0001:0002833D

Line numbers for M:\GAMES\NETADV\PROG\interp\magnify.cpp(M:\GAMES\NETADV\PROG\interp\magnify.cpp) segment FOO

   25 0001:00028348   32 0001:00028787   33 0001:0002886D   34 0001:00028965
   37 0001:00028A60   40 0001:00028A7B   44 0001:00028D6B   45 0001:00028E63
   47 0001:00028F55   48 0001:0002904C   49 0001:00029067   56 0001:00029082
   58 0001:00029186   61 0001:0002918F   64 0001:00029195   65 0001:0002919E
   66 0001:000291A7   67 0001:000291B0   71 0001:000291E6   75 0001:0002923F
   76 0001:00029248   84 0001:000292AC   87 0001:000292CE   90 0001:000292DA
   91 0001:00029303   94 0001:0002932C   95 0001:00029356   98 0001:00029394
   99 0001:000293BE  102 0001:000293FC  105 0001:00029425  106 0001:0002942F
  107 0001:00029439  108 0001:00029460  111 0001:0002949E  112 0001:0002954E
  115 0001:00029600  118 0001:00029628  119 0001:00029657  121 0001:00029678
  123 0001:00029688  130 0001:00029808  131 0001:0002981B  134 0001:00029857
  136 0001:00029864  138 0001:0002986D  139 0001:00029892  140 0001:000298B7
  141 0001:000298DC  150 0001:000298E3  154 0001:000298EE  156 0001:00029938
  174 0001:00029944  175 0001:0002995B  179 0001:00029988  180 0001:0002999A
  184 0001:000299AA  187 0001:000299C3  188 0001:000299D2  190 0001:000299ED
  192 0001:000299EF  204 0001:000299F3  205 0001:000299F4  192 0001:000299F5
  194 0001:000299FB  198 0001:00029A02  199 0001:00029A14  201 0001:00029A20
  210 0001:00029A25  211 0001:00029A37  212 0001:00029A47  213 0001:00029A51
  217 0001:00029A55  218 0001:00029A56  213 0001:00029A57  214 0001:00029A5D
  215 0001:00029A64  216 0001:00029A69  222 0001:00029A6B  225 0001:00029A73
  227 0001:00029A82  233 0001:00029A84  234 0001:00029B2D  235 0001:00029B30
  238 0001:00029B35  239 0001:00029BE0  240 0001:00029BE3  243 0001:00029BE8
  244 0001:00029C8F  245 0001:00029C92  248 0001:00029C97  250 0001:00029C9F
  253 0001:00029CBA  256 0001:00029CC1  257 0001:00029CCA  258 0001:00029CD3
  259 0001:00029CDC  260 0001:00029CE5  263 0001:00029CEE  265 0001:00029CF9
  266 0001:00029D09  270 0001:00029D1D  273 0001:00029D67  276 0001:00029D89
  279 0001:00029D8F  280 0001:00029DB8  284 0001:00029DE1  285 0001:00029E0B
  288 0001:00029E61  290 0001:00029E90  292 0001:00029EE1  293 0001:00029F86
  295 0001:0002A00A  297 0001:0002A021  298 0001:0002A0C4  302 0001:0002A16B
  305 0001:0002A186

Line numbers for M:\GAMES\NETADV\PROG\interp\math.cpp(M:\GAMES\NETADV\PROG\interp\math.cpp) segment FOO

   76 0001:0002A1A0   82 0001:0002A1A5   83 0001:0002A1A9   85 0001:0002A1AD
   87 0001:0002A1AF   88 0001:0002A1B9   93 0001:0002A1BF   94 0001:0002A1C9
   95 0001:0002A1D3   96 0001:0002A1DD  102 0001:0002A1DF  103 0001:0002A1E9
  105 0001:0002A1F8  106 0001:0002A204  112 0001:0002A205  113 0001:0002A20F
  115 0001:0002A21E  116 0001:0002A22A  119 0001:0002A22B  122 0001:0002A23E
  125 0001:0002A23F  127 0001:0002A242  128 0001:0002A25D  131 0001:0002A25F
  135 0001:0002A26B  136 0001:0002A26F  137 0001:0002A273  139 0001:0002A277
  140 0001:0002A27B  141 0001:0002A28F  142 0001:0002A291  145 0001:0002A296
  146 0001:0002A2D4  147 0001:0002A2FD  149 0001:0002A2FF  150 0001:0002A305
  153 0001:0002A30D  155 0001:0002A317  156 0001:0002A322  158 0001:0002A328
  159 0001:0002A32F  160 0001:0002A336  161 0001:0002A33D  162 0001:0002A344
  163 0001:0002A359  166 0001:0002A35F  173 0001:0002A367  174 0001:0002A37B
  176 0001:0002A38D  177 0001:0002A395  179 0001:0002A3C1  180 0001:0002A3D7
  183 0001:0002A3DB  185 0001:0002A3E2  189 0001:0002A406  191 0001:0002A40D
  195 0001:0002A41D  197 0001:0002A424  201 0001:0002A45C  203 0001:0002A463
  207 0001:0002A487  209 0001:0002A48D  213 0001:0002A4AE  220 0001:0002A4B6
  221 0001:0002A4BE  222 0001:0002A4C2  223 0001:0002A4C6  225 0001:0002A4CB
  226 0001:0002A4D8  227 0001:0002A4DB  228 0001:0002A4DE  232 0001:0002A4E0
  234 0001:0002A4E7  235 0001:0002A4F5  237 0001:0002A4FD  238 0001:0002A506
  239 0001:0002A511  244 0001:0002A51D  246 0001:0002A527  249 0001:0002A52B
  256 0001:0002A533  257 0001:0002A53B  258 0001:0002A53F  259 0001:0002A543
  261 0001:0002A548  262 0001:0002A555  263 0001:0002A558  264 0001:0002A55B
  268 0001:0002A55D  270 0001:0002A564  271 0001:0002A572  273 0001:0002A57A
  274 0001:0002A583  275 0001:0002A58E  280 0001:0002A59A  282 0001:0002A5A4
  285 0001:0002A5A8  289 0001:0002A5AB  293 0001:0002A5BD  297 0001:0002A5C9
  298 0001:0002A5DF  301 0001:0002A5E4  307 0001:0002A5ED  308 0001:0002A5F1
  310 0001:0002A5FD  311 0001:0002A602  312 0001:0002A610  313 0001:0002A617
  315 0001:0002A620  321 0001:0002A642  322 0001:0002A64A  323 0001:0002A654
  324 0001:0002A65C  325 0001:0002A672  326 0001:0002A67A  328 0001:0002A684
  329 0001:0002A693  332 0001:0002A698  334 0001:0002A69E  335 0001:0002A6A2
  337 0001:0002A6B2  338 0001:0002A6B7  340 0001:0002A6C9  341 0001:0002A6D0
  342 0001:0002A6E4  343 0001:0002A6EB  344 0001:0002A6F3  345 0001:0002A6FA
  347 0001:0002A704  348 0001:0002A712  351 0001:0002A714  356 0001:0002A719
  359 0001:0002A733  360 0001:0002A737  361 0001:0002A73F  363 0001:0002A747
  365 0001:0002A74E  366 0001:0002A756  367 0001:0002A75D  368 0001:0002A764
  371 0001:0002A766  374 0001:0002A76A  378 0001:0002A770  379 0001:0002A77E
  384 0001:0002A78C  385 0001:0002A798  388 0001:0002A79C  389 0001:0002A7B8
  390 0001:0002A7BF  392 0001:0002A7E5  395 0001:0002A7F3  398 0001:0002A814
  401 0001:0002A819  403 0001:0002A821  406 0001:0002A835  410 0001:0002A864


Line numbers for M:\GAMES\NETADV\PROG\interp\memid.cpp(M:\GAMES\NETADV\PROG\interp\memid.cpp) segment FOO

   11 0001:0002A86C   12 0001:0002A887   17 0001:0002A888   18 0001:0002A8A3
   21 0001:0002A8A4   23 0001:0002A8A7   24 0001:0002A8C2   27 0001:0002A8C4
   29 0001:0002A8C7   30 0001:0002A8D5   35 0001:0002A8D7   36 0001:0002A901
   39 0001:0002A902   41 0001:0002A906   42 0001:0002A93C   45 0001:0002A93F
   47 0001:0002A942   48 0001:0002A95D   51 0001:0002A95F   53 0001:0002A962
   54 0001:0002A97D   57 0001:0002A97F   59 0001:0002A985   60 0001:0002A9F0
   63 0001:0002A9F5   65 0001:0002A9FB   66 0001:0002AA66   69 0001:0002AA6B
   71 0001:0002AA72   72 0001:0002AA8E   73 0001:0002AA9D   76 0001:0002AAA0
   78 0001:0002AAA7   79 0001:0002AACE   82 0001:0002AAD4   84 0001:0002AAD7
   85 0001:0002AAFD   88 0001:0002AAFF   92 0001:0002AB0B   93 0001:0002AB26
   95 0001:0002AB2D   96 0001:0002AB38   98 0001:0002AB66   99 0001:0002AB72
  100 0001:0002AB76  101 0001:0002AB98  104 0001:0002AB9A  106 0001:0002ABA6
  107 0001:0002ABA8  110 0001:0002ABB0  112 0001:0002ABB4  113 0001:0002ABD4
  117 0001:0002ABD5  119 0001:0002ABD9

Line numbers for M:\GAMES\NETADV\PROG\interp\memmgr.cpp(M:\GAMES\NETADV\PROG\interp\memmgr.cpp) segment FOO

    1 0001:0002ABFC   55 0001:0002AC38   60 0001:0002AC4E   74 0001:0002AC6D
   76 0001:0002AC76   79 0001:0002AC84   80 0001:0002AC8F   82 0001:0002AC9A
   83 0001:0002ACA1   84 0001:0002ACA5   86 0001:0002ACB5   92 0001:0002ACB9
   86 0001:0002ACBA   87 0001:0002ACC3   88 0001:0002ACC8   89 0001:0002ACD2
   90 0001:0002AD16   95 0001:0002AD18  101 0001:0002AD1C   95 0001:0002AD1F
   96 0001:0002AD2C   97 0001:0002AD34   98 0001:0002AD3E   99 0001:0002AD82
  105 0001:0002AD84  107 0001:0002AD8B  108 0001:0002AD8F  109 0001:0002AD95
  111 0001:0002ADEC  133 0001:0002ADF2  139 0001:0002AE04  140 0001:0002AE0C
  141 0001:0002AE28  142 0001:0002AE2D  143 0001:0002AE4A  144 0001:0002AE51
  147 0001:0002AE5A  150 0001:0002AE66  152 0001:0002AE6D  154 0001:0002AE74
  156 0001:0002AE80  157 0001:0002AE87  159 0001:0002AE89  160 0001:0002AEA7
  166 0001:0002AEC0  167 0001:0002AEC6  168 0001:0002AECD  169 0001:0002AED5
  170 0001:0002AED8  172 0001:0002AEF1  174 0001:0002AF06  175 0001:0002AF22
  177 0001:0002AF28  178 0001:0002AF43  180 0001:0002AF48  182 0001:0002AF4F
  183 0001:0002AF5F  180 0001:0002AF68  181 0001:0002AF6D  186 0001:0002AF8C
  187 0001:0002AF97  188 0001:0002AF9F  189 0001:0002AFA3  188 0001:0002AFAB
  191 0001:0002AFB7  193 0001:0002AFC2  195 0001:0002AFCC  196 0001:0002AFDB
  197 0001:0002AFF1  198 0001:0002B001  199 0001:0002B01A  200 0001:0002B02D
  202 0001:0002B03D  208 0001:0002B04D  210 0001:0002B06A  213 0001:0002B085
  217 0001:0002B08A  221 0001:0002B093  224 0001:0002B09A  225 0001:0002B0AC
  227 0001:0002B0CD  228 0001:0002B0DE  229 0001:0002B0E6  231 0001:0002B0E8
  232 0001:0002B0ED  233 0001:0002B0F3  234 0001:0002B104  236 0001:0002B109
  239 0001:0002B11E  240 0001:0002B129  241 0001:0002B12E  243 0001:0002B135
  244 0001:0002B148  247 0001:0002B15C  248 0001:0002B162  251 0001:0002B180
  252 0001:0002B18C  253 0001:0002B1A1  257 0001:0002B1A2  258 0001:0002B1AF
  262 0001:0002B1B7  266 0001:0002B1BE  268 0001:0002B1C1  269 0001:0002B1D5
  273 0001:0002B1D7  275 0001:0002B1E5  277 0001:0002B1F0  278 0001:0002B1FC
  279 0001:0002B211  282 0001:0002B212  287 0001:0002B217  289 0001:0002B226
  291 0001:0002B22F  290 0001:0002B237  292 0001:0002B244  293 0001:0002B24E
  295 0001:0002B25E  299 0001:0002B263  308 0001:0002B272  309 0001:0002B276
  312 0001:0002B27B  313 0001:0002B281  315 0001:0002B296  318 0001:0002B2AC
  320 0001:0002B2C1  321 0001:0002B2C5  330 0001:0002B2FD  331 0001:0002B303
  333 0001:0002B309  334 0001:0002B321  336 0001:0002B32B  339 0001:0002B334
  340 0001:0002B33E  341 0001:0002B345  344 0001:0002B34F  347 0001:0002B359
  348 0001:0002B368  351 0001:0002B370  353 0001:0002B376  354 0001:0002B37F
  356 0001:0002B39B  359 0001:0002B3BA  362 0001:0002B3E3  366 0001:0002B3F3
  367 0001:0002B403  369 0001:0002B407  370 0001:0002B412  372 0001:0002B426
  373 0001:0002B43A  375 0001:0002B446  376 0001:0002B44E  377 0001:0002B468
  379 0001:0002B478  381 0001:0002B487  383 0001:0002B494  384 0001:0002B4A3
  385 0001:0002B4A4  392 0001:0002B4A6  396 0001:0002B4AE  398 0001:0002B4BA
  399 0001:0002B4F2  403 0001:0002B50B  405 0001:0002B551  407 0001:0002B557
  408 0001:0002B56D  411 0001:0002B586  412 0001:0002B594  415 0001:0002B5AE
  416 0001:0002B5B7  418 0001:0002B5D4  419 0001:0002B5E6  430 0001:0002B5F9
  432 0001:0002B604  433 0001:0002B60E  434 0001:0002B629  435 0001:0002B636
  436 0001:0002B647  437 0001:0002B655  438 0001:0002B657  442 0001:0002B66B
  443 0001:0002B67A  445 0001:0002B697  446 0001:0002B6AF  449 0001:0002B6C3
  452 0001:0002B6D3  453 0001:0002B6E1  456 0001:0002B6E9  458 0001:0002B6F2
  461 0001:0002B70C  463 0001:0002B727  464 0001:0002B730  466 0001:0002B742
  471 0001:0002B75A  474 0001:0002B760  475 0001:0002B76A  480 0001:0002B76C
  486 0001:0002B774  487 0001:0002B780  488 0001:0002B78F  489 0001:0002B795
  491 0001:0002B7A6  495 0001:0002B7AC  502 0001:0002B7AF  509 0001:0002B7B4
  511 0001:0002B7C2  513 0001:0002B80B  515 0001:0002B810  516 0001:0002B820
  517 0001:0002B824  518 0001:0002B82C  519 0001:0002B82E  520 0001:0002B83B
  523 0001:0002B840  524 0001:0002B846  528 0001:0002B84F  530 0001:0002B85B
  532 0001:0002B8A2  534 0001:0002B8A7  535 0001:0002B8B8  537 0001:0002B8BF
  538 0001:0002B8CF  540 0001:0002B8D3  541 0001:0002B8D9  545 0001:0002B8E2
  548 0001:0002B8EE  549 0001:0002B8F4  552 0001:0002B902  553 0001:0002B948
  555 0001:0002B94E  557 0001:0002B954  559 0001:0002B97C  560 0001:0002B980
  562 0001:0002B994  563 0001:0002B99A  565 0001:0002B9A6  566 0001:0002B9BB
  567 0001:0002B9BE  570 0001:0002B9D4  571 0001:0002B9E3  573 0001:0002B9EB
  575 0001:0002B9F9  578 0001:0002BA18  595 0001:0002BA2A  597 0001:0002BA33
  598 0001:0002BA37  599 0001:0002BA3D  600 0001:0002BA43  602 0001:0002BA49
  617 0001:0002BA4B  624 0001:0002BA4E  625 0001:0002BA72  637 0001:0002BA8C
  641 0001:0002BAB2  642 0001:0002BAC9  645 0001:0002BACE  649 0001:0002BAE4
  653 0001:0002BAF8  657 0001:0002BB11  658 0001:0002BB54  660 0001:0002BB72
  664 0001:0002BB81  669 0001:0002BB8B  671 0001:0002BBAD  683 0001:0002BBB2
  687 0001:0002BBC3  688 0001:0002BBC8  690 0001:0002BBDE  691 0001:0002BBE7
  695 0001:0002BBEE  701 0001:0002BC20

Line numbers for M:\GAMES\NETADV\PROG\interp\memmgre.cpp(M:\GAMES\NETADV\PROG\interp\memmgre.cpp) segment FOO

   24 0001:0002BC50   31 0001:0002BC55   32 0001:0002BC5C   33 0001:0002BC64
   34 0001:0002BC6B   36 0001:0002BC71   39 0001:0002BC76   41 0001:0002BC7A
   42 0001:0002BC84   43 0001:0002BCA9   53 0001:0002BCAC   57 0001:0002BCB5
   58 0001:0002BCBE   59 0001:0002BCC8   61 0001:0002BCD3   64 0001:0002BCD9
   65 0001:0002BCE2   66 0001:0002BCF6   69 0001:0002BD04   70 0001:0002BD0D
   71 0001:0002BD21   74 0001:0002BD2C   75 0001:0002BD35   76 0001:0002BD48
   79 0001:0002BD53   80 0001:0002BD5C   81 0001:0002BD70   84 0001:0002BD7B
   86 0001:0002BD83   89 0001:0002BD8A   91 0001:0002BD92   93 0001:0002BDDE
   94 0001:0002BDE1   96 0001:0002BDE6  104 0001:0002BDEC  106 0001:0002BDF2
  107 0001:0002BE01  108 0001:0002BE10  109 0001:0002BE1F  110 0001:0002BE30
  111 0001:0002BE48  128 0001:0002BE4D  130 0001:0002BE50  133 0001:0002BE62
  155 0001:0002BE69  204 0001:0002BE6F  209 0001:0002BE79  210 0001:0002BEAD
  211 0001:0002BEE1  212 0001:0002BF15  214 0001:0002BF49  216 0001:0002BF54
  221 0001:0002BFA9  223 0001:0002BFB6  224 0001:0002BFCD  228 0001:0002BFE3
  231 0001:0002BFEC  234 0001:0002BFF8  235 0001:0002C009  236 0001:0002C021
  238 0001:0002C029  239 0001:0002C02E  240 0001:0002C030  243 0001:0002C032
  242 0001:0002C047  245 0001:0002C04F  248 0001:0002C054  255 0001:0002C066
  258 0001:0002C0A2  261 0001:0002C0A7  262 0001:0002C0B7  263 0001:0002C0ED
  264 0001:0002C124  265 0001:0002C13C  266 0001:0002C154  267 0001:0002C16C
  268 0001:0002C196  274 0001:0002C1B1  276 0001:0002C1B5  277 0001:0002C1B7
  278 0001:0002C1BA  279 0001:0002C1BD  274 0001:0002C1C3  284 0001:0002C1CE
  286 0001:0002C202  287 0001:0002C204  288 0001:0002C208  290 0001:0002C20B
  291 0001:0002C20E  292 0001:0002C211  293 0001:0002C215  296 0001:0002C217
  298 0001:0002C24B  299 0001:0002C24E  300 0001:0002C251  302 0001:0002C255
  303 0001:0002C257  304 0001:0002C25B  305 0001:0002C25E  272 0001:0002C260
  307 0001:0002C268  310 0001:0002C270  316 0001:0002C27C  317 0001:0002C287
  319 0001:0002C2EF  320 0001:0002C34E  323 0001:0002C353  325 0001:0002C362
  326 0001:0002C367  328 0001:0002C369  329 0001:0002C370  331 0001:0002C377
  332 0001:0002C387  333 0001:0002C39D  334 0001:0002C3A2  337 0001:0002C3AA
  338 0001:0002C3AD  342 0001:0002C3B3  343 0001:0002C3E8  346 0001:0002C3FA
  348 0001:0002C423  350 0001:0002C42F  351 0001:0002C43D  352 0001:0002C454
  354 0001:0002C4A8  355 0001:0002C4B8  359 0001:0002C4BA  360 0001:0002C4BD
  363 0001:0002C4C7  365 0001:0002C4DD  367 0001:0002C4E9  368 0001:0002C4EF
  370 0001:0002C4F6  372 0001:0002C506  374 0001:0002C537  379 0001:0002C549
  380 0001:0002C554  381 0001:0002C563  383 0001:0002C5A0  386 0001:0002C5A5
  388 0001:0002C5B4  389 0001:0002C5C0  390 0001:0002C5C7  391 0001:0002C5CC
  392 0001:0002C5DC  394 0001:0002C5EA  395 0001:0002C5F4  399 0001:0002C602
  400 0001:0002C60E  401 0001:0002C624  402 0001:0002C629  403 0001:0002C64C
  404 0001:0002C65F  405 0001:0002C6A6  409 0001:0002C6B0

Line numbers for M:\GAMES\NETADV\PROG\interp\memmgrw.cpp(M:\GAMES\NETADV\PROG\interp\memmgrw.cpp) segment FOO

   35 0001:0002C6B8   41 0001:0002C6BE   43 0001:0002C6C1   44 0001:0002C6CE
   45 0001:0002C6E2   46 0001:0002C6F4   49 0001:0002C701   52 0001:0002C708
   55 0001:0002C736   56 0001:0002C74B   57 0001:0002C76B   74 0001:0002C77D
   75 0001:0002C782   77 0001:0002C799   81 0001:0002C7AE   99 0001:0002C7B1
  114 0001:0002C7B9  115 0001:0002C7BF  242 0001:0002C7C0  246 0001:0002C7C7
  247 0001:0002C7CC  248 0001:0002C7D8  249 0001:0002C7E4  250 0001:0002C7F0
  251 0001:0002C7FD  253 0001:0002C802  254 0001:0002C80E  256 0001:0002C816
  260 0001:0002C81D  261 0001:0002C822  262 0001:0002C82E  263 0001:0002C83A
    1 0001:0002C840

Line numbers for M:\GAMES\NETADV\PROG\interp\memtype.cpp(M:\GAMES\NETADV\PROG\interp\memtype.cpp) segment FOO

  217 0001:0002C860  219 0001:0002C863  220 0001:0002C874  223 0001:0002C876
  225 0001:0002C879  226 0001:0002C88A  229 0001:0002C88C  231 0001:0002C88F
  232 0001:0002C8A2  235 0001:0002C8A4  237 0001:0002C8A7  238 0001:0002C8BA
  241 0001:0002C8BC  244 0001:0002C8CB  245 0001:0002C8DA  247 0001:0002C8E5
  248 0001:0002C92E  252 0001:0002C978  254 0001:0002C97D  255 0001:0002C981
  254 0001:0002C9D1  256 0001:0002C9D7  257 0001:0002CA1F  258 0001:0002CA64
  261 0001:0002CA66  263 0001:0002CA6B  264 0001:0002CA75  265 0001:0002CA80
  266 0001:0002CA89  267 0001:0002CA8B  270 0001:0002CA8D  272 0001:0002CA96
  273 0001:0002CAA0  274 0001:0002CAB7  276 0001:0002CAC2  277 0001:0002CAC4
  280 0001:0002CAC9  282 0001:0002CAD2  283 0001:0002CADC  284 0001:0002CAF3
  286 0001:0002CAFE  287 0001:0002CB00  290 0001:0002CB05  292 0001:0002CB09
  293 0001:0002CB1B  295 0001:0002CB1F  296 0001:0002CB32  299 0001:0002CB3A
  300 0001:0002CB3D  303 0001:0002CB40  305 0001:0002CB44  306 0001:0002CB56
  308 0001:0002CB5A  309 0001:0002CB6D  312 0001:0002CB75  313 0001:0002CB78
  316 0001:0002CB7B  327 0001:0002CB8A  329 0001:0002CB96  330 0001:0002CBA2
  331 0001:0002CBB8  332 0001:0002CBC6  333 0001:0002CBD2  334 0001:0002CD54
  335 0001:0002CD5D  336 0001:0002CEC7  337 0001:0002CED0  342 0001:0002CEDB
  345 0001:0002CEE7  347 0001:0002CF2C  348 0001:0002CF4F  351 0001:0002CF54
  353 0001:0002CF5D  355 0001:0002CF6A  356 0001:0002CF71  358 0001:0002CF77
  365 0001:0002CFCC  367 0001:0002D00C  368 0001:0002D01A  371 0001:0002D025
  376 0001:0002D02B  377 0001:0002D032  379 0001:0002D03C  380 0001:0002D045
  381 0001:0002D05C  383 0001:0002D090  384 0001:0002D092  387 0001:0002D097
  389 0001:0002D0A3  390 0001:0002D0AF  391 0001:0002D0BA  393 0001:0002D0BF
  394 0001:0002D0C4  397 0001:0002D0CA  398 0001:0002D0CD  400 0001:0002D103
  402 0001:0002D13F  404 0001:0002D147

Line numbers for M:\GAMES\NETADV\PROG\interp\message.cpp(M:\GAMES\NETADV\PROG\interp\message.cpp) segment FOO

    1 0001:0002D158  117 0001:0002D190  123 0001:0002D1B6  130 0001:0002D200
  133 0001:0002D207  134 0001:0002D232  137 0001:0002D234  143 0001:0002D25B
  151 0001:0002D25D  160 0001:0002D290  161 0001:0002D294  163 0001:0002D2A3
  169 0001:0002D2CD  170 0001:0002D2DF  173 0001:0002D2E4  174 0001:0002D303
  178 0001:0002D308  179 0001:0002D31F  180 0001:0002D329  181 0001:0002D334
  182 0001:0002D33F  183 0001:0002D34A  184 0001:0002D355  188 0001:0002D35A
  193 0001:0002D37E  201 0001:0002D384  203 0001:0002D3B0  204 0001:0002D3C6
  207 0001:0002D3CA  215 0001:0002D3D6  219 0001:0002D3E5  221 0001:0002D400
  222 0001:0002D416  223 0001:0002D420  224 0001:0002D42F  225 0001:0002D43A
  228 0001:0002D484  230 0001:0002D48D  232 0001:0002D48F  233 0001:0002D494
  234 0001:0002D4A2  235 0001:0002D4C6  236 0001:0002D4FD  237 0001:0002D50D
  238 0001:0002D519  239 0001:0002D523  240 0001:0002D52D  241 0001:0002D537
  242 0001:0002D541  245 0001:0002D54E  246 0001:0002D563  250 0001:0002D568
  254 0001:0002D585  255 0001:0002D596  257 0001:0002D5AA  261 0001:0002D5B8
  268 0001:0002D5C1  272 0001:0002D5EC  273 0001:0002D604  274 0001:0002D616
  277 0001:0002D623  278 0001:0002D62F  279 0001:0002D66A  282 0001:0002D69C
  284 0001:0002D6C6  286 0001:0002D6ED  289 0001:0002D6F2  297 0001:0002D6F9
  300 0001:0002D724  301 0001:0002D72A  302 0001:0002D75B  304 0001:0002D75F
  305 0001:0002D76D  306 0001:0002D775  307 0001:0002D77D  309 0001:0002D785
  310 0001:0002D78A  313 0001:0002D790  319 0001:0002D79C  320 0001:0002D7B8
  323 0001:0002D7C7  324 0001:0002D7CF  329 0001:0002D7EC  331 0001:0002D7F8
  334 0001:0002D813  339 0001:0002D82C  340 0001:0002D836  343 0001:0002D849
  346 0001:0002D856  347 0001:0002D86E  348 0001:0002D877  349 0001:0002D891
  353 0001:0002D896  354 0001:0002D89D  355 0001:0002D8A5  356 0001:0002D8AC
  357 0001:0002D8BD  359 0001:0002D8C6  363 0001:0002D8D1  368 0001:0002D8DA
  369 0001:0002D8FA  372 0001:0002D909  373 0001:0002D911  376 0001:0002D92E
  379 0001:0002D943  384 0001:0002D97C  385 0001:0002D98A  388 0001:0002D997
  390 0001:0002D9A5  394 0001:0002D9AA  402 0001:0002D9B6  404 0001:0002D9B9
  418 0001:0002D9BE  419 0001:0002D9C6  423 0001:0002D9C7  424 0001:0002D9D4
  425 0001:0002D9E9  426 0001:0002D9EA  428 0001:0002D9EF  430 0001:0002D9FF
  432 0001:0002DA07  434 0001:0002DA10  435 0001:0002DA1B  438 0001:0002DA20
  439 0001:0002DA21  440 0001:0002DA36  442 0001:0002DA39  444 0001:0002DA3B
  446 0001:0002DA45  447 0001:0002DA4A  451 0001:0002DA88  453 0001:0002DA8C
  458 0001:0002DA93  460 0001:0002DA9C  462 0001:0002DAA2  464 0001:0002DAAE
  465 0001:0002DACF  466 0001:0002DB0A  467 0001:0002DB39  468 0001:0002DB3B
  470 0001:0002DB4C  471 0001:0002DB5A  472 0001:0002DB85  473 0001:0002DBAC
  479 0001:0002DBB1  483 0001:0002DBB7  484 0001:0002DBBD  486 0001:0002DBC4
  487 0001:0002DBE5  490 0001:0002DBE7  494 0001:0002DBEF  495 0001:0002DBFB
  496 0001:0002DC1A  497 0001:0002DC24  498 0001:0002DC2E  499 0001:0002DC38
  500 0001:0002DC46  503 0001:0002DC4A  508 0001:0002DC51  509 0001:0002DC60
  510 0001:0002DC67  511 0001:0002DC6E  513 0001:0002DC75  516 0001:0002DC80
  520 0001:0002DC84  521 0001:0002DC95  524 0001:0002DC96  528 0001:0002DC9A
  529 0001:0002DCA1  533 0001:0002DCA2  535 0001:0002DCBF  538 0001:0002DCC1
  542 0001:0002DCCA  543 0001:0002DCD6  545 0001:0002DCF5  546 0001:0002DD19
  547 0001:0002DD36  550 0001:0002DD3B  554 0001:0002DD48  555 0001:0002DD4E
  557 0001:0002DD6B  558 0001:0002DD7C  559 0001:0002DD92  561 0001:0002DDAD
   57 0001:0002DDD0   57 0001:0002DDE4

Line numbers for M:\GAMES\NETADV\PROG\interp\motion.cpp(M:\GAMES\NETADV\PROG\interp\motion.cpp) segment FOO

   34 0001:0002DDF0   36 0001:0002DDF9   37 0001:0002DE04   39 0001:0002DE98
   42 0001:0002DEAE   43 0001:0002DEB7   51 0001:0002E215   52 0001:0002E2C5
   53 0001:0002E370   55 0001:0002E375   63 0001:0002E6D3   64 0001:0002E783
   73 0001:0002E830   74 0001:0002E8C4   75 0001:0002E96B   79 0001:0002EAB6
   82 0001:0002EAC2   84 0001:0002EADA   85 0001:0002EAE7   87 0001:0002EAF4
   88 0001:0002EAFA   89 0001:0002EB2C   91 0001:0002EB2E   93 0001:0002EB65
   94 0001:0002EB94   95 0001:0002EBCD   96 0001:0002EBF6   99 0001:0002EC02
  102 0001:0002EC11  104 0001:0002EC29  105 0001:0002EC34  107 0001:0002EC3D
  108 0001:0002EC43  109 0001:0002EC78  111 0001:0002EC7A  113 0001:0002ECB3
  114 0001:0002ECE5  115 0001:0002ED1C  116 0001:0002ED2F  119 0001:0002ED34
  121 0001:0002ED40  123 0001:0002ED58  125 0001:0002ED60  126 0001:0002ED68
  128 0001:0002ED9E  130 0001:0002EDC8  131 0001:0002EED0  132 0001:0002EFD9
  133 0001:0002F0E1  137 0001:0002F1EE  139 0001:0002F1F7  140 0001:0002F210
  143 0001:0002F214  148 0001:0002F220  149 0001:0002F228  152 0001:0002F2C0
  153 0001:0002F2D3  154 0001:0002F36A  155 0001:0002F403  156 0001:0002F4A4
  158 0001:0002F53C  159 0001:0002F546  161 0001:0002F54B  163 0001:0002F54E
  166 0001:0002F556  167 0001:0002F5EE  171 0001:0002F680  172 0001:0002F683
  174 0001:0002F689  176 0001:0002F6A8  177 0001:0002F6AD  178 0001:0002F6B1
  179 0001:0002F6B3  181 0001:0002F6CB  183 0001:0002F6CD  184 0001:0002F6CF
  185 0001:0002F6D5  186 0001:0002F6D8  187 0001:0002F6F2  190 0001:0002F6FE
  191 0001:0002F70D  192 0001:0002F714  193 0001:0002F726  194 0001:0002F728
  197 0001:0002F72F  198 0001:0002F743  200 0001:0002F755  201 0001:0002F767
  202 0001:0002F769  203 0001:0002F76C  207 0001:0002F76F  208 0001:0002F77B
  209 0001:0002F790  210 0001:0002F799  218 0001:0002F7B6  220 0001:0002F7BE
  221 0001:0002F876  222 0001:0002F932  223 0001:0002F9DF  224 0001:0002FA8E
  225 0001:0002FB40  226 0001:0002FBF6  230 0001:0002FC7C  234 0001:0002FC88
  235 0001:0002FC93  240 0001:0002FD36  246 0001:0002FD3E  247 0001:0002FDD8
  248 0001:0002FE73  249 0001:0002FF0B  250 0001:0002FF9B  251 0001:00030036
  252 0001:000300CE  253 0001:00030168  263 0001:0003021F  264 0001:000302D3
  265 0001:00030389  266 0001:00030441  267 0001:00030447  268 0001:00030450
  269 0001:00030519  275 0001:000305E7  280 0001:00030636  281 0001:00030639
  283 0001:0003063F  285 0001:00030641  286 0001:00030643  287 0001:00030646
  288 0001:0003064D  290 0001:00030658  291 0001:00030661  292 0001:00030667
  294 0001:00030672  299 0001:00030678  300 0001:0003072B  304 0001:000307D9
  313 0001:000307FD  314 0001:000308B6  322 0001:0003096E  324 0001:00030ABB
  326 0001:00030AC0  328 0001:00030C0E  329 0001:00030CD1  330 0001:00030D92
  332 0001:00030E4B  334 0001:00030E58  335 0001:00030E70  339 0001:00030E81
  350 0001:00030E8D  351 0001:00030E95  352 0001:00030E99  353 0001:00030E9D
  359 0001:00030EA4  360 0001:00030EA9  361 0001:00030EBD  364 0001:00030EE0
  365 0001:00030EF2  367 0001:00030F11  368 0001:00030F12  370 0001:00030F14
  375 0001:00030F3C  376 0001:00030F3F  377 0001:00030F43  378 0001:00030F45
  379 0001:00030F49  384 0001:00030F4C  385 0001:00030F54  388 0001:00030F6E
  389 0001:0003101D  393 0001:00031043  398 0001:0003104F  399 0001:00031057
  400 0001:0003105F  401 0001:00031065  402 0001:0003107B  403 0001:0003108C
  404 0001:0003111F  405 0001:00031125  406 0001:0003112C  407 0001:00031133
  414 0001:0003113A  416 0001:00031142  418 0001:000311D8  420 0001:000311E0
  421 0001:000311FD  424 0001:0003120F  428 0001:0003121D  432 0001:000312BC
  433 0001:00031344  434 0001:0003134B  435 0001:00031353  436 0001:0003135B
  439 0001:00031363  442 0001:00031393  450 0001:0003139E  455 0001:000313AA
  457 0001:00031453  461 0001:00031524  462 0001:00031534  463 0001:00031547
  464 0001:00031557  465 0001:0003156A  466 0001:00031573  468 0001:00031577
  471 0001:0003157C  472 0001:00031585  474 0001:0003163A

Line numbers for M:\GAMES\NETADV\PROG\interp\mouse.cpp(M:\GAMES\NETADV\PROG\interp\mouse.cpp) segment FOO

    1 0001:00031640   25 0001:0003164E   27 0001:00031651   28 0001:0003165B
   30 0001:0003166D   31 0001:00031673   35 0001:00031675   47 0001:000316A6
   48 0001:000316C1   52 0001:000316C3   42 0001:000316DD   66 0001:00031710
   67 0001:0003173A   72 0001:0003173F   37 0001:00031779   83 0001:000317BB
   85 0001:000317C2   86 0001:000317CA   88 0001:000317D8   89 0001:000317F6
   92 0001:000317F9   97 0001:0003181A   98 0001:00031821  100 0001:00031834
  106 0001:00031840  107 0001:00031850  108 0001:0003186F  113 0001:00031871
  115 0001:00031874  116 0001:0003187C  117 0001:00031888  118 0001:000318A2
  119 0001:000318AC  123 0001:000318AE  125 0001:000318B7  126 0001:000318BD
  128 0001:000318C7  131 0001:000318D4  134 0001:00031905  135 0001:0003190B
  137 0001:0003190F  138 0001:00031918  139 0001:0003191E  149 0001:00031935
  150 0001:00031942  151 0001:0003194C  152 0001:00031955  153 0001:0003195A
  155 0001:00031971

Line numbers for M:\GAMES\NETADV\PROG\interp\moview.cpp(M:\GAMES\NETADV\PROG\interp\moview.cpp) segment FOO

   50 0001:00031978   56 0001:000319CC   58 0001:000319D7   59 0001:000319E4
   65 0001:00031A03   70 0001:00031A3F   71 0001:00031A47   73 0001:00031A63
   78 0001:00031A69   79 0001:00031A7C   85 0001:00031A81   89 0001:00031AA3
   93 0001:00031AA7   97 0001:00031AAD   83 0001:00031AB7  108 0001:00031AD0
  112 0001:00031ADE  116 0001:00031AE6  120 0001:00031AF3  124 0001:00031B00
  128 0001:00031B08  132 0001:00031B10  136 0001:00031B18  140 0001:00031B20
  144 0001:00031B28  148 0001:00031B30  152 0001:00031B38  153 0001:00031B40
  155 0001:00031B55  159 0001:00031B59  161 0001:00031B60  164 0001:00031B6F
  166 0001:00031B74  167 0001:00031B95  169 0001:00031BAC  171 0001:00031BBD
  180 0001:00031BD0  182 0001:00031BE9  183 0001:00031BFD  185 0001:00031BFF
  187 0001:00031C0D  188 0001:00031C24  193 0001:00031C2B  195 0001:00031C31
  197 0001:00031C55  204 0001:00031C5F  205 0001:00031C7C  207 0001:00031C95
  209 0001:00031C99  210 0001:00031CAD  215 0001:00031CD6  216 0001:00031CE4
  217 0001:00031CE6  219 0001:00031CEE  224 0001:00031CF9  225 0001:00031D14
  226 0001:00031D32  227 0001:00031D4E  228 0001:00031D64  230 0001:00031D6C
  232 0001:00031D8D  234 0001:00031DAD  238 0001:00031DB2  241 0001:00031DB7
  245 0001:00031DC0  248 0001:00031DD3  249 0001:00031DE8  251 0001:00031DF9
  252 0001:00031E15  254 0001:00031E22  255 0001:00031E2A  260 0001:00031E45
  276 0001:00031E51  277 0001:00031E69  278 0001:00031E85  280 0001:00031E89
  283 0001:00031EAA  284 0001:00031ECA  289 0001:00031ED4  291 0001:00031EDA
  293 0001:00031EE2  296 0001:00031EEA  297 0001:00031EEC  298 0001:00031EF4
  299 0001:00031EF6  301 0001:00031EF8  302 0001:00031EFB  303 0001:00031F06
  306 0001:00031F12  308 0001:00031F26  309 0001:00031F6D  310 0001:00031FB8
  311 0001:00031FF8  314 0001:0003203B  315 0001:00032049  317 0001:0003205D
  321 0001:00032076  322 0001:000320C1  323 0001:000320FF  324 0001:00032102
  326 0001:00032105  327 0001:0003213F  330 0001:00032179  333 0001:0003219E
  334 0001:000321B7  336 0001:000321BB  339 0001:000321DC  340 0001:000321FB
  345 0001:00032205  346 0001:0003221B  347 0001:00032222  348 0001:00032229
  349 0001:0003223B  350 0001:0003225E  351 0001:00032271  353 0001:0003229F
  354 0001:000322A1  356 0001:000322A8  369 0001:000322B4  370 0001:000322CC
  371 0001:000322E8  373 0001:000322EC  376 0001:0003230D  377 0001:0003232D
  382 0001:00032337  384 0001:0003233D  386 0001:00032345  389 0001:0003234D
  390 0001:0003234F  391 0001:00032357  392 0001:00032359  394 0001:0003235B
  395 0001:0003235E  396 0001:00032369  399 0001:00032374  400 0001:000323BF
  401 0001:00032402  402 0001:00032404  404 0001:00032409  407 0001:00032428
  408 0001:00032441  410 0001:00032445  420 0001:00032465  421 0001:0003247B
  422 0001:000324B4  423 0001:000324ED  424 0001:000324F3  425 0001:000324F9
  426 0001:0003250B  427 0001:0003252E  428 0001:00032541  431 0001:00032572
  433 0001:00032577  442 0001:0003258C  443 0001:000325A7  444 0001:000325AD
  445 0001:000325C8  446 0001:000325DE  448 0001:000325E2  451 0001:00032603
  457 0001:00032623  458 0001:0003262F  459 0001:00032643  461 0001:00032645
  462 0001:0003265A  465 0001:0003266D  466 0001:00032674  467 0001:0003268C
  472 0001:00032692  475 0001:000326AF  476 0001:000326B3  480 0001:000326D6
  481 0001:000326EE  482 0001:000326FD  483 0001:00032714  486 0001:00032722
  488 0001:00032726  491 0001:00032747  492 0001:00032766  495 0001:00032770
  497 0001:0003277B  498 0001:00032780  505 0001:0003278B  506 0001:00032790
  508 0001:000327C6  509 0001:000327CB  512 0001:000327D0  513 0001:000327F7
  514 0001:000327FD  515 0001:00032802  519 0001:00032804  520 0001:0003282A
  521 0001:0003282F  524 0001:00032831  525 0001:0003283A  526 0001:0003285B
  534 0001:00032860  536 0001:0003286A  539 0001:00032870  540 0001:00032885
  541 0001:00032896  543 0001:0003289A  544 0001:000328A8  547 0001:000328B1
  548 0001:000328BF  549 0001:000328C1  551 0001:000328C5  554 0001:000328CC
  555 0001:000328DB  558 0001:000328E2  559 0001:000328F7  560 0001:00032908
  564 0001:0003290C  567 0001:00032916  569 0001:0003291C  573 0001:00032923
  574 0001:0003293C  575 0001:0003294D  576 0001:00032951  579 0001:00032958
  580 0001:00032965  582 0001:00032967  583 0001:00032969  585 0001:00032971
  586 0001:00032980  589 0001:0003298A  590 0001:000329A3  591 0001:000329B4
  592 0001:000329B8  595 0001:000329C2  598 0001:000329CC  602 0001:000329D1
  612 0001:000329E1  615 0001:000329E2  617 0001:000329E9  618 0001:000329F8
  621 0001:00032A02  622 0001:00032A17  623 0001:00032A28  627 0001:00032A2C
  630 0001:00032A36  642 0001:00032A3B  644 0001:00032A44  649 0001:00032A51
  650 0001:00032A63  651 0001:00032A79  652 0001:00032A7D  654 0001:00032A90
  655 0001:00032A92  657 0001:00032A96  662 0001:00032A9F  663 0001:00032AB7
  664 0001:00032ACD  666 0001:00032AD9  667 0001:00032ADD  672 0001:00032AE6
  678 0001:00032AF1  681 0001:00032AF5

Line numbers for M:\GAMES\NETADV\PROG\interp\msg.cpp(M:\GAMES\NETADV\PROG\interp\msg.cpp) segment FOO

   35 0001:00032B00   37 0001:00032B18   38 0001:00032B1F   39 0001:00032B26
   40 0001:00032B2D   43 0001:00032B2E   49 0001:00032B34   50 0001:00032B47
   53 0001:00032B5F   54 0001:00032B68   57 0001:00032B6F   58 0001:00032B7B
   54 0001:00032B88   55 0001:00032B8E   60 0001:00032BA1   61 0001:00032BAA
   64 0001:00032BAF   66 0001:00032BB8   67 0001:00032BD1   68 0001:00032BD3
   69 0001:00032BD8   70 0001:00032BE6   72 0001:00032BFD   74 0001:00032C0E
   76 0001:00032C18   79 0001:00032C1D   81 0001:00032C20   82 0001:00032C2B
   83 0001:00032C64   86 0001:00032C66   88 0001:00032C6A   89 0001:00032C8F
   92 0001:00032C92   95 0001:00032C9C   96 0001:00032CA2   97 0001:00032CB5
   99 0001:00032CBA  103 0001:00032CCA  106 0001:00032CD4  107 0001:00032CDA
  114 0001:00032CEA  117 0001:00032CF6  118 0001:00032CFC  119 0001:00032D15
  121 0001:00032D1A  125 0001:00032D2A  128 0001:00032D36  129 0001:00032D3C
  136 0001:00032D54  138 0001:00032D57  139 0001:00032D68  142 0001:00032D6A
  148 0001:00032D72  149 0001:00032D7B  150 0001:00032D88  153 0001:00032D92
  155 0001:00032DA6  156 0001:00032DAC  157 0001:00032DBD  158 0001:00032DC2
  159 0001:00032DCB  162 0001:00032DD2  165 0001:00032DDC  166 0001:00032DE2
  167 0001:00032DF3  169 0001:00032DF8  173 0001:00032E0B  176 0001:00032E15
  177 0001:00032E1B  184 0001:00032E2B  187 0001:00032E37  188 0001:00032E3D
  189 0001:00032E58  191 0001:00032E5D  195 0001:00032E73  198 0001:00032E7F
  199 0001:00032E85  205 0001:00032E9D  210 0001:00032EA7  211 0001:00032EAD
  212 0001:00032EC4  214 0001:00032EC9  218 0001:00032EEE  222 0001:00032EFA
  225 0001:00032F07  227 0001:00032F11  229 0001:00032F21  231 0001:00032F2E
  233 0001:00032F43  234 0001:00032F4B  235 0001:00032F59  236 0001:00032F67
  238 0001:00032F6C  240 0001:00032F6F  241 0001:00032F7B  242 0001:00032F7E
  244 0001:00032F81  248 0001:00032F88  245 0001:00032F9A  252 0001:00032FA5
  253 0001:00033026  254 0001:000330AE  255 0001:000330B4  256 0001:000330B6
  258 0001:000330B8  259 0001:000330C9  261 0001:000330F0  263 0001:00033116
  264 0001:00033128  265 0001:0003312C  267 0001:00033137  269 0001:0003315D
  271 0001:00033171  272 0001:00033189  275 0001:0003318E  276 0001:000331A3
  277 0001:000331AF  278 0001:000331B1  282 0001:000331C3  283 0001:000331CD
  284 0001:000331DE  285 0001:000331F3  291 0001:000331F8  292 0001:00033205
  295 0001:0003320A  297 0001:0003321C  299 0001:0003321F  300 0001:00033224
  301 0001:0003322A  302 0001:00033236  304 0001:00033240  306 0001:0003324A
  308 0001:0003324C  309 0001:0003325D  310 0001:0003326D  312 0001:00033283
  317 0001:0003328F  320 0001:00033296  322 0001:000332A5  327 0001:000332A8
  328 0001:000332D9  330 0001:000332EB  333 0001:000332F2  335 0001:000332FF
  340 0001:00033302  342 0001:00033333  345 0001:00033337  347 0001:00033340
  348 0001:00033351  350 0001:00033363  353 0001:0003336A  355 0001:0003336E
  357 0001:00033382  360 0001:00033388  364 0001:0003338F  365 0001:00033395
  370 0001:000333AF  372 0001:000333B6  373 0001:000333C7  377 0001:000333D7
  380 0001:000333DE  381 0001:000333E4  382 0001:000333F8  383 0001:00033402
  384 0001:00033415  385 0001:0003341B  387 0001:00033425  390 0001:00033427
  393 0001:0003342E  398 0001:0003343B  400 0001:00033442  401 0001:0003345D
  404 0001:00033460  408 0001:0003346C  409 0001:00033472  410 0001:00033475
  413 0001:00033478  414 0001:0003347B  415 0001:0003348F  416 0001:00033497
  418 0001:000334B2  420 0001:000334B6  421 0001:000334C5  422 0001:000334CA
  423 0001:000334CC  424 0001:000334DB  425 0001:000334E4  426 0001:000334F8
  429 0001:000334FA  431 0001:00033503  432 0001:00033507  433 0001:0003350A
  434 0001:00033524  437 0001:0003352C  439 0001:0003352F  441 0001:00033533
  443 0001:0003354A  444 0001:0003354E  448 0001:00033556  449 0001:0003355A
  450 0001:0003355D  451 0001:00033577  452 0001:0003357B  456 0001:00033584
  461 0001:00033586  462 0001:0003358A  463 0001:0003358D  464 0001:000335A7
  467 0001:000335AF  468 0001:000335B2  470 0001:000335B7  471 0001:000335B9
  474 0001:000335BE  476 0001:000335C2  477 0001:000335EC  481 0001:00033604
  483 0001:00033608  484 0001:00033632  490 0001:00033640  495 0001:00033646
  496 0001:0003364F  498 0001:00033671  499 0001:0003368A  502 0001:0003368F
  507 0001:00033696  509 0001:0003369C  510 0001:000336DF  513 0001:000336E3
  517 0001:000336ED  518 0001:00033703  520 0001:0003375A  525 0001:00033777
  527 0001:0003377E  528 0001:00033794  533 0001:000337E8  538 0001:000337F1
  539 0001:000337F7  541 0001:0003380E  545 0001:00033833  546 0001:00033842


Line numbers for M:\GAMES\NETADV\PROG\interp\msgw.cpp(M:\GAMES\NETADV\PROG\interp\msgw.cpp) segment FOO

    8 0001:00033848   10 0001:00033859   11 0001:00033862   12 0001:0003386F
   13 0001:00033878   14 0001:0003388C   17 0001:00033891   19 0001:00033894
   20 0001:000338B6

Line numbers for M:\GAMES\NETADV\PROG\interp\networkw.cpp(M:\GAMES\NETADV\PROG\interp\networkw.cpp) segment FOO

    1 0001:000338B8   58 0001:000338F4   63 0001:00033940   64 0001:000339B8
   67 0001:000339BD   71 0001:00033A15   72 0001:00033A25   76 0001:00033A2A
   80 0001:00033A2E   81 0001:00033A33   86 0001:00033A38   87 0001:00033A3D
   84 0001:00033A42   94 0001:00033A50   98 0001:00033A5A  105 0001:00033A64
  116 0001:00033A72  117 0001:00033A80  119 0001:00033A88  121 0001:00033A98
  122 0001:00033AB2  125 0001:00033ACF  128 0001:00033AE5  131 0001:00033B18
  133 0001:00033B4F  134 0001:00033B55   61 0001:00033B5A  143 0001:00033BB8
  146 0001:00033BD0  151 0001:00033BF1  152 0001:00033BFE  153 0001:00033C07
  154 0001:00033C18  179 0001:00033C1A  181 0001:00033C26  183 0001:00033C2E
  185 0001:00033C33  187 0001:00033C44  191 0001:00033C51  192 0001:00033C66
  193 0001:00033C6B  200 0001:00033C7F  204 0001:00033C8F  205 0001:00033C94
  208 0001:00033CAF  209 0001:00033CB5  211 0001:00033CBB  213 0001:00033CD7
  214 0001:00033CE9  216 0001:00033CF2  217 0001:00033D0B  218 0001:00033D1C
  220 0001:00033D1E  222 0001:00033D2B  223 0001:00033D2F  224 0001:00033D32
  225 0001:00033D40  226 0001:00033D43  227 0001:00033D45  230 0001:00033D58
  232 0001:00033D65  233 0001:00033D69  234 0001:00033D6C  235 0001:00033D7A
  236 0001:00033D7D  237 0001:00033D7F  240 0001:00033D93  242 0001:00033DA0
  243 0001:00033DA4  244 0001:00033DA7  245 0001:00033DB5  246 0001:00033DB8
  247 0001:00033DBA  250 0001:00033DCE  252 0001:00033DDC  253 0001:00033DE0
  255 0001:00033DF4  256 0001:00033E00  263 0001:00033E02  265 0001:00033E0D
  266 0001:00033E11  269 0001:00033E29  278 0001:00033E2E  279 0001:00033E36
  280 0001:00033E3F  281 0001:00033E48  286 0001:00033E50  287 0001:00033E60
  290 0001:00033E70  291 0001:00033E82  292 0001:00033E9E  295 0001:00033EA3
  299 0001:00033EAC  301 0001:00033EB9  303 0001:00033EC5  305 0001:00033ECD
  307 0001:00033ED2  311 0001:00033EDB  312 0001:00033EF0  313 0001:00033EF5
  320 0001:00033F09  324 0001:00033F19  325 0001:00033F1E  328 0001:00033F32
  329 0001:00033F38  331 0001:00033F3E  333 0001:00033F5A  334 0001:00033F6C
  336 0001:00033F75  337 0001:00033F7D  338 0001:00033F85  339 0001:00033F8D
  344 0001:00033F95  345 0001:00033FAF  346 0001:00033FD6  348 0001:00033FDB
  354 0001:00033FE0  356 0001:00033FE1  357 0001:00033FEA  358 0001:00033FF5
  359 0001:00033FFB  360 0001:00034000  365 0001:0003400A  368 0001:00034011
  374 0001:0003401A  377 0001:00034020  381 0001:00034031  382 0001:00034033
  385 0001:00034071  386 0001:00034072  389 0001:00034074  390 0001:00034077
  393 0001:00034079  395 0001:000340B4  398 0001:000340DD  406 0001:000340E5
  407 0001:000340EC  408 0001:000340F6  383 0001:000340F8  414 0001:00034139
  417 0001:0003414A  418 0001:0003414E  420 0001:00034155  423 0001:00034158
  426 0001:000341AA  429 0001:000341BB  431 0001:000341CB  433 0001:000341D1
  434 0001:000341D7  435 0001:000341E4  436 0001:000341F4  437 0001:00034201
  440 0001:00034208  443 0001:00034246  444 0001:0003424C  447 0001:0003424E
  449 0001:0003425F  450 0001:00034265  451 0001:00034267  452 0001:0003426B
  453 0001:00034298  454 0001:0003429A  460 0001:0003429E  462 0001:000342D0
  463 0001:000342D9  465 0001:000342E0  467 0001:000342E4  470 0001:000342E6
  471 0001:000342EC  473 0001:0003431B  474 0001:00034325  479 0001:0003432D
  480 0001:00034333  481 0001:0003433E  482 0001:0003434D  483 0001:00034357
  488 0001:0003435F  490 0001:00034366  491 0001:0003436C  492 0001:00034376
  494 0001:00034380  495 0001:0003438A  496 0001:000343A5  497 0001:000343AB
  498 0001:000343B0  499 0001:000343B4  500 0001:000343B6  501 0001:000343B8
  441 0001:000343BF  511 0001:00034426  514 0001:00034437  517 0001:00034458
  522 0001:0003445D  526 0001:00034469  531 0001:00034488  532 0001:0003448D
  534 0001:0003448F  536 0001:0003449A  538 0001:000344A4  539 0001:000344AF
  541 0001:000344B5  543 0001:000344C8  545 0001:000344DD  546 0001:000344EC
  550 0001:00034500  555 0001:00034510  557 0001:00034515  559 0001:00034537
  560 0001:0003453B  562 0001:00034555  563 0001:00034563  565 0001:00034569
  566 0001:00034571  568 0001:00034585  569 0001:0003458C  574 0001:000345A1
  575 0001:000345F8  577 0001:0003460B  578 0001:00034613  579 0001:0003461D
  581 0001:00034623  582 0001:0003462D  588 0001:00034632  589 0001:00034634
  591 0001:00034646  593 0001:00034656  595 0001:0003467A  596 0001:0003467E
  598 0001:00034698  600 0001:000346A6  601 0001:000346A8  602 0001:000346AE
  603 0001:000346B0  604 0001:000346C9  605 0001:000346CF  553 0001:000346D1
  613 0001:000346E7  615 0001:000346EE  617 0001:000346F7  619 0001:00034701
  620 0001:0003470B  622 0001:00034712  626 0001:0003472A  628 0001:00034732
  629 0001:0003473F  630 0001:0003475A  639 0001:00034777  641 0001:000347A6
  642 0001:000347AB  644 0001:000347BF  646 0001:000347ED

Line numbers for M:\GAMES\NETADV\PROG\interp\new.cpp(M:\GAMES\NETADV\PROG\interp\new.cpp) segment FOO

   66 0001:000347F4   68 0001:000347F8   70 0001:00034806   71 0001:0003480A
   74 0001:0003481E   77 0001:00034823   79 0001:00034826   82 0001:0003482D
   83 0001:00034836

Line numbers for M:\GAMES\NETADV\PROG\interp\newroom.cpp(M:\GAMES\NETADV\PROG\interp\newroom.cpp) segment FOO

    1 0001:00034838   37 0001:00034842   40 0001:0003484A   41 0001:00034851
   42 0001:00034858   44 0001:0003485F   45 0001:0003487A   46 0001:0003489D
   47 0001:000348AA   48 0001:000348B6   49 0001:000348C4   50 0001:000348CE
   51 0001:000348D0   53 0001:000348D8   54 0001:000348E7   55 0001:000348FC
   56 0001:00034927   58 0001:0003492D   60 0001:00034936   61 0001:0003494F
   62 0001:00034966   63 0001:0003496A   62 0001:00034995   64 0001:0003499E
   66 0001:000349C8   70 0001:000349DA   78 0001:000349E9   80 0001:00034A05
   83 0001:00034A23   84 0001:00034A2B   85 0001:00034A45   86 0001:00034A4E
   87 0001:00034A68   90 0001:00034A74   91 0001:00034A98   93 0001:00034A9E
   94 0001:00034AAC   95 0001:00034ABA   96 0001:00034ADA   97 0001:00034AF8
   99 0001:00034AFD  100 0001:00034B05  101 0001:00034B0E  103 0001:00034B15
  106 0001:00034B1D  108 0001:00034B29  110 0001:00034B31  112 0001:00034B46
  113 0001:00034B56  114 0001:00034C8E  116 0001:00034C98  117 0001:00034CB8
  120 0001:00034CBD  122 0001:00034CC7  126 0001:00034CD1  127 0001:00034CDD
  133 0001:00034CF4  134 0001:00034D01  135 0001:00034D0C  136 0001:00034D1B
  137 0001:00034D2C  138 0001:00034D3E  139 0001:00034D49  141 0001:00034D53
  142 0001:00034D56  143 0001:00034D5D  146 0001:00034D60  152 0001:00034D6C
  155 0001:00034D78  157 0001:00034D8E  160 0001:00034DAA  165 0001:00034DAE
  170 0001:00034E25  171 0001:00034E31  176 0001:00034E36  179 0001:00034E45
  181 0001:00034E4E  182 0001:00034E68  185 0001:00034E81  186 0001:00034E87
  187 0001:00034E96  188 0001:00034E9E  189 0001:00034EA5  190 0001:00034EAC
  191 0001:00034EB1  193 0001:00034EC0  194 0001:00034EC8  195 0001:00034EEE
  197 0001:00034F05  198 0001:00034F18  200 0001:00034F20  201 0001:00034F2A
  202 0001:00034F34  203 0001:00034F50  206 0001:00034F67  205 0001:00034F6C
  207 0001:00034F76  208 0001:00034F85  209 0001:00034F9F  210 0001:00034FA2
  211 0001:00034FAF  212 0001:00034FB4  214 0001:00034FBE  217 0001:00034FC6
  223 0001:00034FD5  225 0001:00034FD8  226 0001:00034FF1

Line numbers for M:\GAMES\NETADV\PROG\interp\object.cpp(M:\GAMES\NETADV\PROG\interp\object.cpp) segment FOO

   29 0001:00034FF4   32 0001:00035018   33 0001:00035058   35 0001:00035077
   36 0001:000350B4   38 0001:000350D0   41 0001:000350E6   43 0001:000350EE
   44 0001:000350F6   45 0001:00035102   46 0001:0003510E   48 0001:00035116
   49 0001:00035130   52 0001:00035137   54 0001:00035153   56 0001:0003515C
   57 0001:00035165   59 0001:0003516C   64 0001:000351A9   65 0001:000351B0
   67 0001:0003521F   69 0001:00035234   70 0001:00035249   71 0001:00035262
   72 0001:0003527B   74 0001:00035290   76 0001:000352A3   77 0001:000352A7
   79 0001:000352BB   82 0001:000352BE   87 0001:000352FC   88 0001:00035315
   89 0001:0003531E   93 0001:00035322   96 0001:00035326   98 0001:00035338
   99 0001:00035343  101 0001:0003534A  103 0001:00035356  105 0001:0003535D
  106 0001:000353B7  107 0001:000353D0  110 0001:000353D5  112 0001:000353DE
  114 0001:000353E7  115 0001:000353F3  116 0001:0003540D  119 0001:00035414
  120 0001:00035428  123 0001:0003542D  128 0001:00035438  129 0001:00035442
  131 0001:0003544E  132 0001:00035452  134 0001:00035466  135 0001:00035473
  136 0001:0003547A  139 0001:00035480  142 0001:00035487  147 0001:0003548F
  149 0001:00035497  150 0001:0003549B  151 0001:000354AE  152 0001:000354B2
  154 0001:000354B8  156 0001:000354C4  157 0001:000354CD  160 0001:000354CF
  161 0001:000354D1  162 0001:000354D3  164 0001:000354D5  165 0001:000354D9
  167 0001:000354F2  170 0001:000354F6  175 0001:00035500  176 0001:00035532
  178 0001:0003553C  179 0001:0003557C  181 0001:00035583  182 0001:000355B2
  183 0001:000355B6  186 0001:000355BB  189 0001:000355C1  193 0001:000355C4
  197 0001:000355E5  202 0001:000355E7  206 0001:000355F3  211 0001:00035616
  212 0001:00035654  215 0001:00035659  219 0001:00035667  220 0001:0003569C
  221 0001:000356CF  224 0001:000356D4  227 0001:000356DC  228 0001:000356E8
  229 0001:0003573B  231 0001:00035752  234 0001:0003576C  235 0001:0003578E
  238 0001:00035792  243 0001:00035798  244 0001:0003579E  246 0001:000357B8
  247 0001:000357C1  251 0001:000357C8  253 0001:000357CC  254 0001:000357D3
  255 0001:000357D9  256 0001:000357E0  257 0001:000357E7  259 0001:000357E8
  261 0001:000357F0  262 0001:000357F6  263 0001:000357FF  266 0001:0003580D
  267 0001:00035814  268 0001:0003581D  271 0001:0003582C  272 0001:00035833
  273 0001:0003583C  276 0001:0003584B  277 0001:00035852  278 0001:00035858
  279 0001:0003585F  283 0001:0003586C  285 0001:00035878  287 0001:0003588B
  288 0001:00035894  289 0001:0003589A  295 0001:000358AF  296 0001:000358B5
  297 0001:000358D1  300 0001:000358DC  302 0001:000358E1  304 0001:000358F6
  305 0001:000358FD  306 0001:00035918  309 0001:00035924  311 0001:0003592A
  313 0001:0003593F  314 0001:00035946  315 0001:00035963  318 0001:0003596F
  320 0001:00035975  321 0001:00035984  323 0001:00035998  326 0001:0003599F
  327 0001:000359AE  328 0001:000359BA  331 0001:000359C8  333 0001:000359D1
  335 0001:000359D3  336 0001:000359DD  337 0001:000359E1  339 0001:000359F5
  340 0001:00035A03  341 0001:00035A10  342 0001:00035A1B  346 0001:00035A22
  347 0001:00035A27  349 0001:00035A2C  351 0001:00035A35  353 0001:00035A3E
  354 0001:00035A4E  355 0001:00035A63  357 0001:00035A78  358 0001:00035A87
  360 0001:00035A9B  362 0001:00035AB6  363 0001:00035AD5  364 0001:00035AF7
  365 0001:00035B19  370 0001:00035B1E  373 0001:00035B2A  374 0001:00035B30
  376 0001:00035B36  377 0001:00035B3E  379 0001:00035B48  380 0001:00035BCD
  382 0001:00035BD8  383 0001:00035BDA  385 0001:00035BDF  386 0001:00035BE7
  389 0001:00035BEF  394 0001:00035BFA  395 0001:00035C15  396 0001:00035C26
  397 0001:00035C2D  398 0001:00035C2F  401 0001:00035C34  403 0001:00035C3C
  404 0001:00035C55  406 0001:00035C64  409 0001:00035C6A  413 0001:00035C71
  416 0001:00035C9B  417 0001:00035C9F  416 0001:00035CAC  418 0001:00035CB2
  427 0001:00035CB7  429 0001:00035CBE  433 0001:00035D25  435 0001:00035D31
  439 0001:00035DDA  443 0001:00035DE6  445 0001:00035DEE  449 0001:00035E06
  452 0001:00035E12  456 0001:00035F42  457 0001:00035FF1  460 0001:000360A0
  464 0001:000360AB  468 0001:000360B3  470 0001:000360BE  472 0001:0003612B
  474 0001:00036146  478 0001:00036152  481 0001:00036159  485 0001:00036162
  489 0001:00036303  493 0001:0003630C  497 0001:000364AA  499 0001:000364B6
  500 0001:00036536  502 0001:000365B2  503 0001:000365C6  505 0001:000365DA
  507 0001:000365DD  508 0001:000365E4  511 0001:000365F3  512 0001:000365F9
  509 0001:000365FE  514 0001:0003660A  516 0001:0003660C  517 0001:00036616


Line numbers for M:\GAMES\NETADV\PROG\interp\packdata.cpp(M:\GAMES\NETADV\PROG\interp\packdata.cpp) segment FOO

   19 0001:00036648   39 0001:00036676   40 0001:00036691   41 0001:000366AA
   43 0001:000366BB   46 0001:000366C3   47 0001:000366DB   48 0001:000366F1
   53 0001:000366F8   54 0001:00036713   55 0001:0003672C   60 0001:00036739
   61 0001:00036751   62 0001:00036763   67 0001:0003676D   68 0001:00036785
   69 0001:00036797   74 0001:000367A1   75 0001:000367BC   76 0001:000367D0
   81 0001:000367DD   83 0001:000367F8   85 0001:00036809   88 0001:00036811
   89 0001:00036868   91 0001:00036889   92 0001:00036937   93 0001:000369E2
   98 0001:000369EF  101 0001:000369F7  102 0001:00036A4E  104 0001:00036A70
  106 0001:00036BA4  107 0001:00036BBF  108 0001:00036BCF  113 0001:00036BDC
  115 0001:00036BF4  117 0001:00036C09  118 0001:00036C14  123 0001:00036C1E
  124 0001:00036C39  125 0001:00036C7E  130 0001:00036C8B  131 0001:00036CA6
  132 0001:00036CEB  138 0001:00036CF8  140 0001:00036D25  141 0001:00036D7D
  143 0001:00036D91  146 0001:00036D9A  147 0001:00036E81  149 0001:00036E88
  151 0001:00036EB4  153 0001:00036EC7  155 0001:00036ED3  156 0001:00036FC1
  158 0001:000370B6  160 0001:000370BE  161 0001:000370C4  162 0001:000370E2
  164 0001:000370EF  165 0001:000370F2  167 0001:000370F3  169 0001:000370F8
  168 0001:000370FA  170 0001:000370FB  173 0001:000370FD  174 0001:00037215
  177 0001:00037322  179 0001:0003732A  181 0001:00037333  182 0001:0003741B
  184 0001:00037509  185 0001:0003750E  187 0001:0003751B  188 0001:00037527
  190 0001:00037530  191 0001:00037541  192 0001:00037543  193 0001:00037545
  196 0001:00037549  197 0001:0003754C  199 0001:0003754D  200 0001:00037552
  201 0001:00037560  202 0001:00037561  204 0001:0003756B  205 0001:0003756D
  208 0001:0003756F  210 0001:0003757D  211 0001:00037694  214 0001:000377AB
  216 0001:000377B7  218 0001:0003789A  219 0001:0003789E  221 0001:000378AB
  222 0001:00037998  224 0001:00037AAF  227 0001:00037ABE  229 0001:00037AC7
  231 0001:00037BAF  232 0001:00037BB3  233 0001:00037BC4  234 0001:00037BC9
  235 0001:00037CB3  237 0001:00037DC6  239 0001:00037DDC  241 0001:00037DE1
  243 0001:00037DE5  244 0001:00037E06  246 0001:00037E0B  248 0001:00037E0F
  249 0001:00037E2D  250 0001:00037E42  252 0001:00037E45  254 0001:00037E4D
  255 0001:00037E95  257 0001:00037E9B  259 0001:00037EA2  260 0001:00037EBC
  261 0001:00037ED6  262 0001:00037EF0  265 0001:00037EFE  267 0001:00037F0A
  269 0001:00037FF5  270 0001:00037FF9  272 0001:00038008  273 0001:00038014
  275 0001:00038037  277 0001:0003804F  278 0001:00038053  279 0001:0003805C
  281 0001:0003806E  283 0001:00038071  284 0001:00038076  285 0001:00038170
  287 0001:0003817D  288 0001:00038188  290 0001:0003818C  291 0001:0003818E
  294 0001:000382A5  295 0001:000382AE  297 0001:000382B6  299 0001:000382C5
  301 0001:000382D2  302 0001:000382DC  305 0001:000382EA  307 0001:000382EE
  308 0001:00038302

Line numbers for M:\GAMES\NETADV\PROG\interp\palette.cpp(M:\GAMES\NETADV\PROG\interp\palette.cpp) segment FOO

   22 0001:00038308   24 0001:00038324   25 0001:00038331   36 0001:00038336
   38 0001:00038356   39 0001:0003835A   38 0001:00038362   40 0001:0003836A
   52 0001:00038370   54 0001:0003838F   56 0001:0003839D   57 0001:000383A1
   56 0001:000383A9   58 0001:000383B2   72 0001:000383BA   74 0001:000383C8
   76 0001:000383D9   77 0001:000383DD   76 0001:000383E5   79 0001:000383EE
   81 0001:000383F9   82 0001:00038402   84 0001:00038405   85 0001:0003840B
   86 0001:00038418   87 0001:0003841C   88 0001:00038423   89 0001:0003842A
   90 0001:00038431   91 0001:00038437   86 0001:00038441   95 0001:00038448
   96 0001:0003844F   97 0001:0003845C   98 0001:00038460   99 0001:00038467
  100 0001:0003846E  101 0001:00038474   97 0001:0003847E  106 0001:00038483
  119 0001:0003848C  121 0001:00038496  122 0001:0003849A  121 0001:000384A2
  124 0001:000384AA  136 0001:000384AF  138 0001:000384BA  139 0001:000384C7
  142 0001:00038504  145 0001:00038512  149 0001:00038516  151 0001:00038520
  152 0001:00038525  154 0001:00038527  155 0001:0003852E  156 0001:00038537
  159 0001:00038543  160 0001:00038550  161 0001:00038562  162 0001:00038566
  163 0001:00038574  164 0001:00038578  165 0001:00038589  166 0001:0003858D
  167 0001:0003858F  168 0001:00038591  173 0001:00038593  176 0001:0003859C
  178 0001:000385A6  179 0001:000385AB  180 0001:000385B0  181 0001:000385B4
  182 0001:000385BB  183 0001:000385C4  185 0001:000385D1  186 0001:000385DE
  187 0001:000385E8  188 0001:000385FC  189 0001:00038600  190 0001:0003860E
  191 0001:00038612  192 0001:00038624  193 0001:00038628  194 0001:0003862A
  195 0001:0003862C  201 0001:0003862E  207 0001:00038639  209 0001:00038645
  211 0001:0003864A  212 0001:0003864E  213 0001:00038660  214 0001:00038663
  215 0001:00038667  216 0001:000386A2  220 0001:000386A7  232 0001:000386AE
  234 0001:000386B8  235 0001:000386C5  236 0001:000386D3  241 0001:000386DA
  244 0001:000386E3  245 0001:000386E9  246 0001:000386F0  248 0001:000386F7
  249 0001:000386FB  250 0001:000386FD  252 0001:0003870C  255 0001:0003870E
  257 0001:00038716  258 0001:00038721  260 0001:0003873E  261 0001:00038745
  262 0001:00038751  263 0001:00038759  265 0001:00038775  266 0001:0003877B
  269 0001:0003877E  273 0001:00038792  286 0001:000387C0  317 0001:000387F0
  318 0001:00038814  319 0001:00038819  320 0001:00038833  321 0001:00038846
  322 0001:0003884E  323 0001:00038876  324 0001:0003887B  325 0001:000388B9
  326 0001:000388BE  328 0001:000388EE  344 0001:0003892F  345 0001:00038937
  346 0001:00038959  347 0001:0003895E  349 0001:00038995  364 0001:000389C5
  365 0001:000389F1  370 0001:000389F9  371 0001:00038A14  382 0001:00038A16
  383 0001:00038A3E  384 0001:00038A43  385 0001:00038A5D  386 0001:00038A70
  403 0001:00038AB7  404 0001:00038ABE  406 0001:00038ADB  412 0001:00038AF8
  413 0001:00038B20  414 0001:00038B25  415 0001:00038B3F  416 0001:00038B52
  423 0001:00038B76  424 0001:00038B9E  425 0001:00038BA3  426 0001:00038BBD
  427 0001:00038BD0  434 0001:00038BF4  435 0001:00038C1C  436 0001:00038C21
  437 0001:00038C3B  438 0001:00038C4E  445 0001:00038C74  448 0001:00038C84
  459 0001:00038CAB  460 0001:00038CCA  461 0001:00038CEA  463 0001:00038D0A
  464 0001:00038D2B  466 0001:00038D7F  467 0001:00038D84  468 0001:00038D9E
  469 0001:00038DBD  474 0001:00038DC2  475 0001:00038DE1  477 0001:00038E01
  478 0001:00038E2B  483 0001:00038E30  484 0001:00038E4F  485 0001:00038E6F
  486 0001:00038E95  487 0001:00038EBB  489 0001:00038EE1  490 0001:00038EF3
  491 0001:00038F20  496 0001:00038F25  497 0001:00038F44  498 0001:00038F64
  500 0001:00038F88  501 0001:00038F8D  502 0001:00038F92  504 0001:00038FAF
  509 0001:00038FCD  511 0001:00038FED  514 0001:00039008  527 0001:00039026
  528 0001:0003902E  530 0001:0003905D  537 0001:00039078  538 0001:00039080
  540 0001:000390A5  544 0001:000390C0  545 0001:000390C8  547 0001:000390E6
  551 0001:00039109  552 0001:00039111  554 0001:0003912B  558 0001:0003914A
  559 0001:00039152  561 0001:0003916F    1 0001:00039194

Line numbers for M:\GAMES\NETADV\PROG\interp\palmgri.cpp(M:\GAMES\NETADV\PROG\interp\palmgri.cpp) segment FOO

   18 0001:0003919C   20 0001:000391DE   22 0001:000391E5   23 0001:000391EC
   24 0001:000391F3   25 0001:00039200   26 0001:0003920A   27 0001:00039214
   28 0001:0003921B   29 0001:00039222   34 0001:00039229   36 0001:00039248
   38 0001:00039266   39 0001:0003926A   38 0001:00039277   41 0001:0003927D
   42 0001:00039281   43 0001:0003928B   41 0001:00039293   47 0001:0003929B
   48 0001:000392B6   49 0001:000392BB   50 0001:000392D5   51 0001:000392E2
   53 0001:000392EB   55 0001:000392F9   56 0001:00039300   57 0001:0003930F
   59 0001:0003931E   60 0001:00039322   59 0001:00039334   61 0001:0003933A
   64 0001:00039340   67 0001:00039352   71 0001:0003935A   72 0001:0003936A
   73 0001:00039380   75 0001:00039390   76 0001:000393AA   78 0001:000393B4
   79 0001:000393B7   83 0001:000393BE   84 0001:000393CB   87 0001:000393D3
   89 0001:000393E1   90 0001:000393F7   91 0001:00039404   93 0001:0003941E
   95 0001:00039428   96 0001:0003942B   98 0001:00039432  102 0001:00039439
  104 0001:0003943D  105 0001:00039449  106 0001:00039455  107 0001:0003945E
  110 0001:00039461  112 0001:0003946D  113 0001:00039477  116 0001:00039491
  118 0001:0003949A  120 0001:000394A4  122 0001:000394B4  127 0001:000394C4
  129 0001:000394CD  131 0001:000394D4  133 0001:000394DE  135 0001:00039501
  136 0001:0003951D  137 0001:00039520  140 0001:00039522  142 0001:00039525
  143 0001:00039529  142 0001:00039535  148 0001:00039546  149 0001:0003954A
  148 0001:00039556  154 0001:00039565  155 0001:00039573  156 0001:00039584
  157 0001:00039592  158 0001:000395AB  159 0001:000395C5  160 0001:000395DD
  162 0001:000395EB  166 0001:000395F0  162 0001:000395F8  164 0001:00039602
  165 0001:0003960C  171 0001:0003962E  173 0001:0003963D  174 0001:00039647
  177 0001:0003965C  179 0001:00039661  180 0001:0003966F  182 0001:00039688
  183 0001:00039694  185 0001:0003969D  187 0001:000396B7  190 0001:000396BC
  192 0001:000396C5  201 0001:000396CF  205 0001:000396E5  206 0001:000396FA
  215 0001:000396FF  217 0001:00039722  218 0001:0003974E  219 0001:00039755
  218 0001:0003977A  223 0001:00039790  225 0001:0003979C  230 0001:00039824
  232 0001:0003982D  248 0001:00039834  253 0001:00039871  255 0001:0003987D
  260 0001:000398FD  262 0001:00039908  263 0001:00039912  266 0001:00039927
  268 0001:0003992C  269 0001:0003993C  270 0001:00039942  272 0001:0003995E
  275 0001:00039962  277 0001:0003996A  281 0001:0003996E  277 0001:0003998A
  279 0001:00039990  280 0001:000399A0  286 0001:000399A8  288 0001:000399B0
  289 0001:000399B4  288 0001:000399C2  291 0001:000399C8  293 0001:000399D1
  294 0001:000399D5  293 0001:000399E1  295 0001:000399E7  298 0001:000399EB
  300 0001:000399F5  301 0001:000399FF  304 0001:00039A14  305 0001:00039A19
  306 0001:00039A25  309 0001:00039A28  311 0001:00039A33  312 0001:00039A3D
  315 0001:00039A52  316 0001:00039A57  317 0001:00039A5B  316 0001:00039A67
  319 0001:00039A7A  320 0001:00039A83  322 0001:00039A8D  325 0001:00039A91
  327 0001:00039A9A  329 0001:00039A9E  330 0001:00039AB0  327 0001:00039ABB
  332 0001:00039AC1  333 0001:00039AC5  332 0001:00039ACD  334 0001:00039AD6
  337 0001:00039ADB  339 0001:00039AE2  340 0001:00039AF1  341 0001:00039B15
  344 0001:00039B18  346 0001:00039B20  347 0001:00039B2A  349 0001:00039B3B
  350 0001:00039B5F  353 0001:00039B63  355 0001:00039B6A  356 0001:00039B79
  357 0001:00039B9D  360 0001:00039BA0  362 0001:00039BA8  363 0001:00039BB2
  365 0001:00039BC3  366 0001:00039BE7  370 0001:00039BEB  372 0001:00039BFA
  373 0001:00039C09  374 0001:00039C2D  375 0001:00039C41  377 0001:00039C4A
  378 0001:00039C4D  379 0001:00039C5E  381 0001:00039C62  382 0001:00039C69
  383 0001:00039C6C  384 0001:00039C6E  386 0001:00039C70  387 0001:00039C77
  396 0001:00039C79  397 0001:00039C7F  400 0001:00039C86  401 0001:00039C8E
  403 0001:00039C91  404 0001:00039C99  405 0001:00039C9C  408 0001:00039CA1
  410 0001:00039CB0  412 0001:00039CB9  413 0001:00039CCD  415 0001:00039CD6
  416 0001:00039CD9  417 0001:00039CEA  419 0001:00039CEE  420 0001:00039CF5
  421 0001:00039CF8  422 0001:00039CFA  424 0001:00039CFC  425 0001:00039D03
  434 0001:00039D05  435 0001:00039D0B  439 0001:00039D12  440 0001:00039D1A
  442 0001:00039D1D  443 0001:00039D25  444 0001:00039D28  447 0001:00039D2D
  449 0001:00039D38  451 0001:00039D41  452 0001:00039D55  454 0001:00039D61
  455 0001:00039D72  457 0001:00039D76  458 0001:00039D7D  459 0001:00039D80
  460 0001:00039D84  462 0001:00039D86  472 0001:00039D91  473 0001:00039D97
  476 0001:00039D9E  479 0001:00039DA2  481 0001:00039DAE  483 0001:00039DD1
  484 0001:00039DD9  485 0001:00039DE1  487 0001:00039DE8  488 0001:00039DEE
  490 0001:00039DF0  492 0001:00039DFF  494 0001:00039E0F  495 0001:00039E23
  497 0001:00039E39  502 0001:00039E3D  509 0001:00039E44  510 0001:00039E6A
  511 0001:00039E74  513 0001:00039E78  515 0001:00039E84  516 0001:00039EB8
  517 0001:00039EE2  518 0001:00039F0C  519 0001:00039F12  525 0001:00039F43
  527 0001:00039F49  528 0001:00039F50  530 0001:00039F56  532 0001:00039F5F
  534 0001:00039F65  535 0001:00039F75  537 0001:00039F90  540 0001:00039F96
  543 0001:00039F99  545 0001:00039FA0  546 0001:00039FA7  547 0001:00039FB4
  548 0001:00039FBB  549 0001:00039FC2  551 0001:00039FC9  552 0001:00039FD8
  554 0001:00039FE2  555 0001:00039FF1  556 0001:00039FFB  559 0001:00039FFE
  561 0001:0003A00C  562 0001:0003A012  561 0001:0003A018  563 0001:0003A01D
  566 0001:0003A020  568 0001:0003A02B  575 0001:0003A02F  576 0001:0003A03E
  577 0001:0003A061  578 0001:0003A07B  580 0001:0003A0EF  583 0001:0003A0F7
  585 0001:0003A0FC  586 0001:0003A100  585 0001:0003A10A  587 0001:0003A112
  590 0001:0003A114  592 0001:0003A11C  593 0001:0003A126  592 0001:0003A134
  595 0001:0003A13C  597 0001:0003A143  598 0001:0003A15D  599 0001:0003A171
  603 0001:0003A175  605 0001:0003A17C  606 0001:0003A185  608 0001:0003A18C
  609 0001:0003A1AC  610 0001:0003A1C0  613 0001:0003A1C3  615 0001:0003A1C6
  617 0001:0003A1E9  618 0001:0003A1F5  621 0001:0003A1F7  624 0001:0003A205


Line numbers for M:\GAMES\NETADV\PROG\interp\palmgrt.cpp(M:\GAMES\NETADV\PROG\interp\palmgrt.cpp) segment FOO

   10 0001:0003A208   12 0001:0003A20F   13 0001:0003A218   15 0001:0003A21F
   16 0001:0003A23F   17 0001:0003A253   20 0001:0003A256   22 0001:0003A25A
   23 0001:0003A266   24 0001:0003A272   25 0001:0003A276   28 0001:0003A279
   30 0001:0003A285   31 0001:0003A293   33 0001:0003A2A4   35 0001:0003A2B2
   36 0001:0003A2DE   37 0001:0003A2EA   39 0001:0003A2F0   41 0001:0003A306
   42 0001:0003A315   46 0001:0003A317   50 0001:0003A31F   52 0001:0003A328
   53 0001:0003A34B   54 0001:0003A354   55 0001:0003A35C   57 0001:0003A363
   58 0001:0003A369   60 0001:0003A36B   61 0001:0003A375   60 0001:0003A383
   62 0001:0003A38B

Line numbers for M:\GAMES\NETADV\PROG\interp\palmgrw.cpp(M:\GAMES\NETADV\PROG\interp\palmgrw.cpp) segment FOO

   38 0001:0003A390   40 0001:0003A393   41 0001:0003A39C   44 0001:0003A3A5
   49 0001:0003A3B3   52 0001:0003A3C1   54 0001:0003A3C3   55 0001:0003A3CC
   56 0001:0003A3D3   52 0001:0003A3E1   60 0001:0003A3EA   61 0001:0003A3FB
   63 0001:0003A413   64 0001:0003A42F   66 0001:0003A447   72 0001:0003A455
   73 0001:0003A46B   75 0001:0003A483   76 0001:0003A491   78 0001:0003A4A9
   79 0001:0003A4BA   81 0001:0003A4D2   82 0001:0003A4EE   84 0001:0003A506
   89 0001:0003A514   93 0001:0003A518   95 0001:0003A519   96 0001:0003A530
   98 0001:0003A548   99 0001:0003A556  100 0001:0003A56E  103 0001:0003A570
  105 0001:0003A579  106 0001:0003A58D  108 0001:0003A594  112 0001:0003A5A1
  117 0001:0003A5AE  119 0001:0003A5B0  121 0001:0003A5BA  123 0001:0003A5CB
  124 0001:0003A5E4  125 0001:0003A5FC  126 0001:0003A60E  127 0001:0003A620
  130 0001:0003A641  132 0001:0003A649  133 0001:0003A64B  134 0001:0003A64E
  139 0001:0003A653  141 0001:0003A660  142 0001:0003A679  143 0001:0003A683
  144 0001:0003A68A  145 0001:0003A694  148 0001:0003A6B5  150 0001:0003A6B9
  151 0001:0003A6BB  152 0001:0003A6BE  156 0001:0003A6C0  158 0001:0003A6CA
  160 0001:0003A6CE  161 0001:0003A6DC  162 0001:0003A6EA  158 0001:0003A6F8
  165 0001:0003A701  166 0001:0003A709  167 0001:0003A70F  168 0001:0003A715
  172 0001:0003A717  173 0001:0003A720  179 0001:0003A739  180 0001:0003A73E
  189 0001:0003A746  192 0001:0003A752  206 0001:0003A764  208 0001:0003A76A
  209 0001:0003A773  210 0001:0003A77A  206 0001:0003A788  215 0001:0003A791
  216 0001:0003A79C  218 0001:0003A7B7  219 0001:0003A7C7  221 0001:0003A7E2
  223 0001:0003A7EA  224 0001:0003A7F7  226 0001:0003A812  227 0001:0003A81A
  228 0001:0003A827  230 0001:0003A842  231 0001:0003A84A  234 0001:0003A865
  235 0001:0003A86F  238 0001:0003A88E

Line numbers for M:\GAMES\NETADV\PROG\interp\picture.cpp(M:\GAMES\NETADV\PROG\interp\picture.cpp) segment FOO

    8 0001:0003A894

Line numbers for M:\GAMES\NETADV\PROG\interp\plane.cpp(M:\GAMES\NETADV\PROG\interp\plane.cpp) segment FOO

   38 0001:0003A898   42 0001:0003AB3E   44 0001:0003AB5D   50 0001:0003AB67
   51 0001:0003AC5A   52 0001:0003AD4F   53 0001:0003AE3D   61 0001:0003AF31
   66 0001:0003AF3A   71 0001:0003B037   72 0001:0003B126   73 0001:0003B219
   74 0001:0003B222   76 0001:0003B307   78 0001:0003B310   79 0001:0003B324
   80 0001:0003B344   81 0001:0003B347   82 0001:0003B34E   83 0001:0003B355
   84 0001:0003B35C   85 0001:0003B35F   87 0001:0003B369   88 0001:0003B372
   90 0001:0003B379   96 0001:0003B423   97 0001:0003B427   98 0001:0003B42D
   99 0001:0003B433  100 0001:0003B439  103 0001:0003B43F  104 0001:0003B45F
  105 0001:0003B47F  108 0001:0003B49F  109 0001:0003B4AF  111 0001:0003B4B5
  115 0001:0003B55F  116 0001:0003B566  118 0001:0003B56F  119 0001:0003B58C
  122 0001:0003B595  123 0001:0003B599  124 0001:0003B5AE  125 0001:0003B5B5
  127 0001:0003B5BC  128 0001:0003B5C3  129 0001:0003B5CC  131 0001:0003B5D3
  133 0001:0003B5DC  134 0001:0003B5F0  135 0001:0003B610  136 0001:0003B613
  137 0001:0003B61A  138 0001:0003B621  139 0001:0003B628  140 0001:0003B62B
  144 0001:0003B63A  164 0001:0003B64C  165 0001:0003B747  168 0001:0003B843
  179 0001:0003BC33  181 0001:0003BC3C  183 0001:0003BD30  184 0001:0003BE26
  185 0001:0003BE2B  186 0001:0003BE2E  188 0001:0003BE38  193 0001:0003BF25
  202 0001:0003C019  209 0001:0003C024  210 0001:0003C044  211 0001:0003C064
  212 0001:0003C074  213 0001:0003C07A  214 0001:0003C080  215 0001:0003C086
  216 0001:0003C08C  220 0001:0003C092  221 0001:0003C098  222 0001:0003C09E
  223 0001:0003C0A6  224 0001:0003C0AE  225 0001:0003C0CE  227 0001:0003C0D4
  230 0001:0003C0D8  232 0001:0003C0DB  233 0001:0003C0F3  236 0001:0003C0F5
  252 0001:0003C101  254 0001:0003C115  255 0001:0003C119  256 0001:0003C122
  257 0001:0003C12B  258 0001:0003C134  259 0001:0003C13D  260 0001:0003C142
  262 0001:0003C147  265 0001:0003C155  267 0001:0003C176  269 0001:0003C179
  271 0001:0003C17B  278 0001:0003C18E  280 0001:0003C1C4  285 0001:0003C1C7
  286 0001:0003C1CF  289 0001:0003C1D2  291 0001:0003C1EB  292 0001:0003C1F4
  293 0001:0003C1FD  294 0001:0003C206  297 0001:0003C209  298 0001:0003C211
  300 0001:0003C214  301 0001:0003C21B  302 0001:0003C221  303 0001:0003C227
  304 0001:0003C230  305 0001:0003C239  306 0001:0003C259  307 0001:0003C2DD
  310 0001:0003C2E2  312 0001:0003C2EB  314 0001:0003C2FF  315 0001:0003C308
  318 0001:0003C30B  319 0001:0003C32B  320 0001:0003C3A4  323 0001:0003C3BC
  326 0001:0003C3D3  327 0001:0003C3DA  329 0001:0003C3DB  330 0001:0003C3E2
  332 0001:0003C3E3  333 0001:0003C3EA  335 0001:0003C3EB  336 0001:0003C3F2
  338 0001:0003C3F3  340 0001:0003C400  346 0001:0003C408  348 0001:0003C414
  349 0001:0003C41E  353 0001:0003C42F  354 0001:0003C436  355 0001:0003C43D
  356 0001:0003C459  357 0001:0003C47A  358 0001:0003C483  360 0001:0003C489
  361 0001:0003C490  362 0001:0003C493  363 0001:0003C4D4  364 0001:0003C4DA
  365 0001:0003C4E1  366 0001:0003C4EE  367 0001:0003C50D  368 0001:0003C513
  369 0001:0003C51D  371 0001:0003C53B  372 0001:0003C541  374 0001:0003C54D
  375 0001:0003C554  378 0001:0003C559  384 0001:0003C562  385 0001:0003C568
  388 0001:0003C578  389 0001:0003C57F  390 0001:0003C593  391 0001:0003C5B1
  392 0001:0003C5BA  393 0001:0003C5C0  394 0001:0003C601  395 0001:0003C607
  396 0001:0003C60E  397 0001:0003C61B  398 0001:0003C63A  400 0001:0003C640
  401 0001:0003C647  402 0001:0003C650  403 0001:0003C65D  406 0001:0003C67B
  410 0001:0003C686  412 0001:0003C692  413 0001:0003C69E  414 0001:0003C6A2
  415 0001:0003C6A8  416 0001:0003C6C0  417 0001:0003C6D3  418 0001:0003C6DD
  420 0001:0003C6DF  421 0001:0003C6F6  422 0001:0003C6FF  423 0001:0003C708
  427 0001:0003C72B  431 0001:0003C736  433 0001:0003C73A  434 0001:0003C74A
  435 0001:0003C750  438 0001:0003C753  440 0001:0003C75F  441 0001:0003C76B
  442 0001:0003C76F  443 0001:0003C775  444 0001:0003C789  445 0001:0003C7A0
  446 0001:0003C7A9  447 0001:0003C7B2  453 0001:0003C7D6  455 0001:0003C7DF
  456 0001:0003C7F4  457 0001:0003C7FD  458 0001:0003C801  459 0001:0003C807
  461 0001:0003C82D  462 0001:0003C83E  463 0001:0003C846  469 0001:0003C869
  471 0001:0003C86D  472 0001:0003C874  473 0001:0003C87B  476 0001:0003C87C
  478 0001:0003C881  479 0001:0003C8A2  483 0001:0003C8A4  485 0001:0003C8B1
  486 0001:0003C8C9  487 0001:0003C8E9  490 0001:0003C8EF  492 0001:0003C8F6
  493 0001:0003C90A  495 0001:0003C913  496 0001:0003C91A  497 0001:0003C920
  498 0001:0003C938  501 0001:0003C93B  503 0001:0003C947  504 0001:0003C960
  505 0001:0003C970  506 0001:0003C9A5  507 0001:0003C9D7  508 0001:0003C9F9
  510 0001:0003CA02  511 0001:0003CA09  512 0001:0003CA13  513 0001:0003CA2B
  516 0001:0003CA30  518 0001:0003CA3B  519 0001:0003CA5B  520 0001:0003CA76
  521 0001:0003CA87  522 0001:0003CAB8  523 0001:0003CAE5  524 0001:0003CB15
  525 0001:0003CB44  528 0001:0003CB4C  530 0001:0003CB55  531 0001:0003CB79
  532 0001:0003CB82  534 0001:0003CBA2  535 0001:0003CBA9  536 0001:0003CBAF
  538 0001:0003CBBB  539 0001:0003CBD0  540 0001:0003CBE8  543 0001:0003CBFD
  544 0001:0003CC84  547 0001:0003CC89  549 0001:0003CC8C  550 0001:0003CC9F
  553 0001:0003CCA1  555 0001:0003CCA4  556 0001:0003CCB7  559 0001:0003CCB9
  562 0001:0003CCC0  563 0001:0003CCC5  564 0001:0003CCCE  565 0001:0003CCD2
  566 0001:0003CCD8  567 0001:0003CCE7  568 0001:0003CCEE  571 0001:0003CD0F
  577 0001:0003CD14  580 0001:0003CD1A  582 0001:0003CD1E  583 0001:0003CD39
  584 0001:0003CD3E  585 0001:0003CD52  587 0001:0003CD5A  588 0001:0003CD5C
  591 0001:0003CD5F  601 0001:0003CD6E  603 0001:0003CD77  604 0001:0003CD83
  610 0001:0003CD96  612 0001:0003CD9F  613 0001:0003CDA9  614 0001:0003CDB3
  616 0001:0003CDCE  617 0001:0003CE23  618 0001:0003CE2C  620 0001:0003CE3D
  623 0001:0003CE81  625 0001:0003CE8C  628 0001:0003CE9F  629 0001:0003CECE
  630 0001:0003CED7  631 0001:0003CEE7  632 0001:0003CEED  633 0001:0003CEF2
  636 0001:0003CF07  638 0001:0003CF12  639 0001:0003CF25  641 0001:0003CF32
  644 0001:0003CFF7  645 0001:0003D021  646 0001:0003D062  647 0001:0003D079
  648 0001:0003D080  650 0001:0003D085  651 0001:0003D0AD  652 0001:0003D0C8
  655 0001:0003D0DA  656 0001:0003D131  660 0001:0003D143  661 0001:0003D167
  665 0001:0003D17E  666 0001:0003D1D5  676 0001:0003D1ED  680 0001:0003D1FE
  684 0001:0003D20C  692 0001:0003D211  694 0001:0003D21A  695 0001:0003D21F
  697 0001:0003D222  699 0001:0003D22E  700 0001:0003D242  701 0001:0003D249
  702 0001:0003D253  719 0001:0003D286  722 0001:0003D296  723 0001:0003D2A0
  724 0001:0003D2BF  727 0001:0003D2D5  728 0001:0003D2EB  732 0001:0003D2ED
  733 0001:0003D2FD  734 0001:0003D30B  735 0001:0003D312  739 0001:0003D314
  740 0001:0003D322  741 0001:0003D330  742 0001:0003D348  750 0001:0003D37E
  770 0001:0003D38A  771 0001:0003D397  772 0001:0003D3AB  774 0001:0003D3B2
  781 0001:0003D405  787 0001:0003D42E  789 0001:0003D45C  790 0001:0003D46F
  800 0001:0003D499  801 0001:0003D4A8  802 0001:0003D4B4  807 0001:0003D4BC
  814 0001:0003D4C8  817 0001:0003D4D4  818 0001:0003D4DB  820 0001:0003D4F7
  822 0001:0003D510  823 0001:0003D531  824 0001:0003D54A  829 0001:0003D571
  833 0001:0003D57D  835 0001:0003D5A9  840 0001:0003D5B9  845 0001:0003D5CA
  847 0001:0003D5DB  846 0001:0003D5E2  848 0001:0003D5ED  849 0001:0003D5F9
  850 0001:0003D601  853 0001:0003D604  856 0001:0003D609  858 0001:0003D612
  859 0001:0003D621  862 0001:0003D625  865 0001:0003D65C  866 0001:0003D674
  871 0001:0003D69B  876 0001:0003D6A7  878 0001:0003D6BA  881 0001:0003D6C6
  883 0001:0003D6DC  885 0001:0003D6E6  886 0001:0003D6F0  888 0001:0003D721
  893 0001:0003D748  895 0001:0003D74D  897 0001:0003D753  898 0001:0003D771
  899 0001:0003D773  900 0001:0003D780  907 0001:0003D792  911 0001:0003D79D
  916 0001:0003D7A9  917 0001:0003D7BC  920 0001:0003D7C5  922 0001:0003D7D8
  924 0001:0003D7E2  925 0001:0003D7EC  927 0001:0003D812  932 0001:0003D835
  934 0001:0003D83A  936 0001:0003D840  937 0001:0003D857  938 0001:0003D859
  939 0001:0003D869  945 0001:0003D882  950 0001:0003D893  955 0001:0003D89F
  957 0001:0003D8A5  958 0001:0003D8B1  959 0001:0003D8B8  960 0001:0003D8C2
  971 0001:0003D8F0  974 0001:0003D905  975 0001:0003D914  978 0001:0003D918
  979 0001:0003D92E  984 0001:0003D932  988 0001:0003D938  989 0001:0003D958
  994 0001:0003D962  995 0001:0003D978  996 0001:0003D97C  998 0001:0003D985
  999 0001:0003D9A9 1001 0001:0003D9B3 1002 0001:0003D9C0 1009 0001:0003D9EF
 1015 0001:0003D9FB 1017 0001:0003DA03 1020 0001:0003DA1B 1021 0001:0003DA23
 1022 0001:0003DCF6 1026 0001:0003DD12 1028 0001:0003DD1E 1029 0001:0003DD23
 1030 0001:0003DD39 1033 0001:0003DD4D 1034 0001:0003DD5A 1036 0001:0003DD5F
 1037 0001:0003DD69 1038 0001:0003DD78 1039 0001:0003DD7D 1040 0001:0003DD9D
 1041 0001:0003DDBE 1042 0001:0003DDC0 1044 0001:0003DDC2 1045 0001:0003DDE1
 1046 0001:0003DDE6 1048 0001:0003DDEC 1068 0001:0003DDF3 1073 0001:0003DDFF
 1075 0001:0003DE07 1079 0001:0003DE17 1084 0001:0003DE1C 1087 0001:0003DE28
 1088 0001:0003DE2D 1089 0001:0003DE43 1092 0001:0003DE57 1093 0001:0003DE64
 1095 0001:0003DE69 1096 0001:0003DE73 1097 0001:0003DE82 1098 0001:0003DE87
 1099 0001:0003DEA7 1100 0001:0003DEC8 1101 0001:0003DECA 1103 0001:0003DECC
 1104 0001:0003DEEB 1105 0001:0003DEF0 1127 0001:0003DEFB 1134 0001:0003DF07
 1135 0001:0003DF13 1136 0001:0003DF29 1137 0001:0003DF4C 1138 0001:0003DF55
 1139 0001:0003DF59 1140 0001:0003DF5F 1141 0001:0003DF96 1148 0001:0003DFCB
 1156 0001:0003DFDA 1158 0001:0003DFFB 1159 0001:0003E007 1160 0001:0003E01D
 1161 0001:0003E040 1162 0001:0003E04C 1163 0001:0003E050 1164 0001:0003E056
 1165 0001:0003E08D 1172 0001:0003E0C0 1173 0001:0003E0CC 1175 0001:0003E0D6
 1176 0001:0003E107 1177 0001:0003E180 1178 0001:0003E190 1179 0001:0003E19C
 1180 0001:0003E1A0 1181 0001:0003E1A6 1182 0001:0003E1DD 1185 0001:0003E20C
 1186 0001:0003E221 1188 0001:0003E264 1193 0001:0003E26D 1201 0001:0003E279
 1202 0001:0003E281 1203 0001:0003E297 1204 0001:0003E2BC 1205 0001:0003E2C5
 1206 0001:0003E2C9 1207 0001:0003E2CF 1208 0001:0003E306 1215 0001:0003E33B
 1222 0001:0003E34A 1223 0001:0003E372 1225 0001:0003E3E6 1226 0001:0003E3F5
 1228 0001:0003E408 1235 0001:0003E40F 1237 0001:0003E46D 1238 0001:0003E47D
 1242 0001:0003E4B9 1243 0001:0003E4CC 1244 0001:0003E4E2 1246 0001:0003E4E7
 1247 0001:0003E4ED 1248 0001:0003E507 1249 0001:0003E509 1250 0001:0003E519
 1257 0001:0003E5A7 1258 0001:0003E5B6 1259 0001:0003E5BD 1258 0001:0003E5DB
 1261 0001:0003E5E4 1264 0001:0003E5FD 1270 0001:0003E608 1272 0001:0003E61B
 1273 0001:0003E63A 1274 0001:0003E650 1276 0001:0003E656 1277 0001:0003E66A
 1278 0001:0003E66C 1279 0001:0003E679 1281 0001:0003E680 1283 0001:0003E689
 1284 0001:0003E69A 1286 0001:0003E6A3 1287 0001:0003E6A7 1288 0001:0003E6AD
 1293 0001:0003E6DE 1295 0001:0003E6F9 1298 0001:0003E6FE 1300 0001:0003E70D
 1301 0001:0003E726 1302 0001:0003E735 1303 0001:0003E748 1309 0001:0003E74F
 1311 0001:0003E7AD 1312 0001:0003E7BD 1316 0001:0003E7FD 1317 0001:0003E810
 1318 0001:0003E826 1320 0001:0003E82B 1321 0001:0003E831 1322 0001:0003E84B
 1323 0001:0003E84D 1324 0001:0003E85D 1330 0001:0003E8CF 1331 0001:0003E8DE
 1332 0001:0003E8E2 1331 0001:0003E8F6 1334 0001:0003E8FF  604 0001:0003E904
    1 0001:0003E934

Line numbers for M:\GAMES\NETADV\PROG\interp\platfrmw.cpp(M:\GAMES\NETADV\PROG\interp\platfrmw.cpp) segment FOO

   38 0001:0003E96C   40 0001:0003E974   42 0001:0003E97C   43 0001:0003E988
   44 0001:0003E992   54 0001:0003E996   57 0001:0003E9B5   58 0001:0003E9BF
   60 0001:0003E9CD   63 0001:0003E9D4   64 0001:0003E9DB   66 0001:0003E9E9
   67 0001:0003E9F0   74 0001:0003E9FE   75 0001:0003EA1B   76 0001:0003EA23
   47 0001:0003EA40   82 0001:0003EA58   84 0001:0003EA62   90 0001:0003EADA
   93 0001:0003EAE0   95 0001:0003EAEC  103 0001:0003EBC6  106 0001:0003EBCE
  111 0001:0003EBDB  112 0001:0003EBE2  114 0001:0003EC04  118 0001:0003EC15
  124 0001:0003EC1F  129 0001:0003EC2C  133 0001:0003EC42

Line numbers for M:\GAMES\NETADV\PROG\interp\plist.cpp(M:\GAMES\NETADV\PROG\interp\plist.cpp) segment FOO

   10 0001:0003EC4C   12 0001:0003EC50   13 0001:0003EC5A   16 0001:0003EC5B
   18 0001:0003EC63   19 0001:0003EC70   20 0001:0003EC95   22 0001:0003EC9B
   24 0001:0003ECA7   25 0001:0003ECB3   26 0001:0003ECC5   27 0001:0003ECE9
   30 0001:0003ECF0   32 0001:0003ECFC   33 0001:0003ED05   34 0001:0003ED11
   35 0001:0003ED23   42 0001:0003ED47   44 0001:0003ED53   45 0001:0003ED5C
   47 0001:0003ED76   48 0001:0003ED83   52 0001:0003ED92   53 0001:0003ED9A
   52 0001:0003EDA3   55 0001:0003EDA8   56 0001:0003EDAB   58 0001:0003EDB3
   62 0001:0003EDB8   64 0001:0003EDC1   65 0001:0003EDCC   67 0001:0003EDE6
   68 0001:0003EDF8   69 0001:0003EE19   70 0001:0003EE1E   69 0001:0003EE27
   71 0001:0003EE32   72 0001:0003EE3B   76 0001:0003EE40   78 0001:0003EE49
   79 0001:0003EE56   80 0001:0003EE61   82 0001:0003EE63   83 0001:0003EE68
   86 0001:0003EE6A   88 0001:0003EE72   89 0001:0003EE7F   90 0001:0003EEA4
   91 0001:0003EEAE  107 0001:0003EEB2  109 0001:0003EEBD  110 0001:0003EEC8
  112 0001:0003EECD  115 0001:0003EED4  122 0001:0003EEF1  123 0001:0003EEF7
  124 0001:0003EEFE  125 0001:0003EF01  126 0001:0003EF08  128 0001:0003EF0A
  131 0001:0003EF10  134 0001:0003EF18  136 0001:0003EF1C  137 0001:0003EF26
  139 0001:0003EF2E  140 0001:0003EF30  144 0001:0003EF31  149 0001:0003EF36
  150 0001:0003EF38  151 0001:0003EF41  153 0001:0003EF45  151 0001:0003EF47
  152 0001:0003EF50  159 0001:0003EF60

Line numbers for M:\GAMES\NETADV\PROG\interp\polygon.cpp(M:\GAMES\NETADV\PROG\interp\polygon.cpp) segment FOO

    1 0001:000428D8   44 0001:000428ED   46 0001:000428F8   47 0001:0004292E
   48 0001:00042942   50 0001:00042948   51 0001:00042961   52 0001:00042979
   53 0001:0004297E   54 0001:000429A6   55 0001:000429B0   57 0001:00042AA9
   91 0001:00042AC2  106 0001:00042ADB  119 0001:00042B0B  120 0001:00042B41
  121 0001:00042B6D  122 0001:00042B9E  134 0001:00042BDD  157 0001:00042BF6
  159 0001:00042C03  163 0001:00042C21  167 0001:00042C44  168 0001:00042C56
  169 0001:00042C68  173 0001:00042C7A  175 0001:00042C9C  178 0001:00042CB4
  181 0001:00042CBF  182 0001:00042CC1  188 0001:00042D08  210 0001:00042D1A
  211 0001:00042D2F  213 0001:00042D3F  214 0001:00042D44  215 0001:00042D47
  254 0001:00042D60  255 0001:00042D69  256 0001:00042D70  257 0001:00042D7A
  258 0001:00042D81  259 0001:00042D8B  260 0001:00042D96  261 0001:00042D9D
  264 0001:00042DA8  267 0001:00042DC0  271 0001:00042DD7  272 0001:00042DE1
  273 0001:00042DE2  277 0001:00042DE4  290 0001:00042DE8  291 0001:00042DF2
  292 0001:00042DF3  294 0001:00042DF5  295 0001:00042DFD  296 0001:00042E03
  298 0001:00042E7E  301 0001:00042E8A  302 0001:00042E91  305 0001:00042EA7
  308 0001:00042EC2  310 0001:00042EC9  312 0001:00042ECF  313 0001:00042EDF
  316 0001:00042EE4  317 0001:00042F0B  318 0001:00042F19  287 0001:00042F1E
  326 0001:00042F42  328 0001:00042F5E  329 0001:00042F6D  330 0001:00042F71
  332 0001:00042F79  337 0001:00042F7E  344 0001:00042F82  345 0001:00042F87
  346 0001:00042F91  347 0001:00042F92  349 0001:00042F94  350 0001:00042F9C
  351 0001:00042FA2  353 0001:00042FF2  357 0001:00042FFE  359 0001:00043004
  360 0001:0004300B  341 0001:0004301E  368 0001:0004303E  370 0001:0004305A
  372 0001:00043063  373 0001:00043067  381 0001:00043069  385 0001:0004307F
  387 0001:00043086  388 0001:0004309F  392 0001:000430B4  397 0001:000430D7
  401 0001:000430E8  403 0001:000430F3  404 0001:0004310C  413 0001:0004311C
  415 0001:00043123  416 0001:0004313C  417 0001:0004314F  421 0001:0004315F
  426 0001:00043175  428 0001:0004317C  433 0001:00043197  438 0001:000431AD
  439 0001:000431C9  443 0001:000431E9  445 0001:000431F0  446 0001:00043209
  447 0001:0004321C  451 0001:0004322C  456 0001:00043241  457 0001:0004325D
  376 0001:00043266  377 0001:0004326F  462 0001:00043280  464 0001:00043294
  466 0001:0004329A  467 0001:000432A6  471 0001:000432A8  472 0001:000432B8
  477 0001:000432C0  479 0001:000432CC  480 0001:000432DC  482 0001:000432DE
  484 0001:000432F0  485 0001:00043301  486 0001:0004330F  487 0001:00043320
  488 0001:00043322  489 0001:00043330  490 0001:00043336  494 0001:0004333B
  496 0001:00043345  498 0001:00043347  499 0001:00043348  500 0001:0004335A
  501 0001:00043369  502 0001:0004336F  505 0001:00043372  507 0001:0004337E
  509 0001:00043380  512 0001:0004338F  513 0001:000433EB  515 0001:000433FD
  519 0001:00043414  522 0001:0004341E  524 0001:00043429  525 0001:0004343D
  526 0001:00043452  527 0001:00043463  528 0001:00043465  534 0001:0004346C
  537 0001:0004347B  538 0001:00043482  541 0001:000434B7  547 0001:000434C1
  551 0001:000434D6  567 0001:00043526  568 0001:0004355C  569 0001:0004359C
  571 0001:000435D1  602 0001:0004362A  603 0001:0004362E  604 0001:0004363A
  605 0001:0004364D  606 0001:0004366E  607 0001:00043674  609 0001:0004367D
  613 0001:00043680  614 0001:00043692  615 0001:00043696  622 0001:000436C2
  623 0001:000436CF  630 0001:000436FF  665 0001:0004374B  666 0001:0004375F
  667 0001:00043772  669 0001:0004377A  670 0001:0004377D  672 0001:0004378A
  674 0001:00043793  675 0001:00043796  684 0001:000437A4  687 0001:000437AD
  689 0001:000437AF  690 0001:000437D9  691 0001:000437DB  697 0001:000437E2
  698 0001:000437E4  691 0001:000437E6  693 0001:000437F9  694 0001:00043816
  695 0001:00043818  696 0001:00043824  701 0001:00043832  702 0001:0004384E
  703 0001:00043850  704 0001:0004385C  705 0001:00043868  706 0001:0004386A
  707 0001:0004386F  708 0001:0004387B  709 0001:00043887  795 0001:0004388E
  797 0001:0004389A  798 0001:000438A1  802 0001:000438AE  811 0001:000438B3
  815 0001:000438C8  816 0001:000438C9  815 0001:000438D3  817 0001:000438E3
  819 0001:000438E6  821 0001:000438F7  823 0001:0004390A  824 0001:0004390F
  826 0001:0004392B  828 0001:00043948  874 0001:0004394E  875 0001:00043962
  876 0001:0004396B  879 0001:0004396D  882 0001:00043970  884 0001:00043974
  885 0001:00043976  888 0001:00043979  889 0001:00043984  890 0001:0004398A
  891 0001:0004398C  900 0001:0004399E  901 0001:000439AE  904 0001:000439B3
  906 0001:000439B7  908 0001:000439BE  909 0001:000439C0  914 0001:000439C2
  919 0001:000439D8  920 0001:000439E4  921 0001:00043A00  922 0001:00043A03
  923 0001:00043A06  924 0001:00043A23  925 0001:00043A2E  927 0001:00043A4B
  928 0001:00043A59  929 0001:00043A76  930 0001:00043A82  932 0001:00043A86
  934 0001:00043A89  936 0001:00043A8B  938 0001:00043A9C  939 0001:00043AB9
  942 0001:00043ABF  945 0001:00043AC7  949 0001:00043ACB  951 0001:00043AD6
  952 0001:00043AD8  953 0001:00043AE1  954 0001:00043AE3  958 0001:00043AE5
  962 0001:00043AF1  967 0001:00043B06  968 0001:00043B0B  970 0001:00043B31
  992 0001:00043B3B 1000 0001:00043B41 1009 0001:00043BB0 1010 0001:00043BB6
 1011 0001:00043BB8 1012 0001:00043BBB 1013 0001:00043BC2 1015 0001:00043BC7
 1018 0001:00043BCB 1020 0001:00043BD5 1023 0001:00043BDA 1024 0001:00043BDC
 1025 0001:00043BDF 1034 0001:00043CE6 1038 0001:00043CF2 1039 0001:00043D07
 1069 0001:00043D17 1070 0001:00043D1C 1071 0001:00043D2E 1072 0001:00043D40
 1073 0001:00043D42 1075 0001:00043D4A 1076 0001:00043D4F 1077 0001:00043D81
 1079 0001:00043DAE 1082 0001:00043DC4 1083 0001:00043DD7 1085 0001:00043DDA
 1086 0001:00043DDD 1090 0001:00043DE2 1094 0001:00043DEE 1095 0001:00043E10
 1097 0001:00043E12 1098 0001:00043E18 1101 0001:00043E1D 1103 0001:00043E1F
 1106 0001:00043E21 1110 0001:00043E29 1111 0001:00043E2F 1106 0001:00043E31
 1108 0001:00043E3B 1109 0001:00043E40 1114 0001:00043E4A 1117 0001:00043E4F
 1119 0001:00043E5B 1121 0001:00043E60 1123 0001:00043E64 1121 0001:00043E79
 1125 0001:00043E8E 1126 0001:00043E9E 1130 0001:00043EA5 1134 0001:00043EB4
 1153 0001:00043EBF 1134 0001:00043EC1 1136 0001:00043ED5 1137 0001:00043EDF
 1138 0001:00043EE6 1140 0001:00043EED 1142 0001:00043EF2 1143 0001:00043EF9
 1144 0001:00043F0F 1145 0001:00043F23 1148 0001:00043F25 1149 0001:00043F2C
 1150 0001:00043F3F 1155 0001:00043F51 1169 0001:00043F59 1179 0001:00043F68
 1185 0001:00043F7D 1186 0001:00043F83 1188 0001:00043F8B 1189 0001:00043F90
 1191 0001:00043FA5 1192 0001:00043FB8 1196 0001:00043FCB 1197 0001:00043FDA
 1198 0001:00043FF8 1200 0001:0004400A 1202 0001:0004400F 1203 0001:00044025
 1204 0001:00044027 1207 0001:0004402C 1208 0001:00044042 1209 0001:0004404A
 1210 0001:00044052 1213 0001:0004406F 1220 0001:00044082 1222 0001:00044086
 1224 0001:0004408C 1226 0001:00044091 1224 0001:000440A4 1228 0001:000440BB
 1229 0001:000440BC 1230 0001:000440BD 1233 0001:000440EF 1234 0001:000440F2
 1235 0001:000440F7 1238 0001:00044102 1240 0001:00044116 1250 0001:0004414B
 1253 0001:00044150 1254 0001:00044154 1256 0001:00044158 1257 0001:00044165
 1260 0001:0004416D 1261 0001:00044170 1262 0001:00044177 1267 0001:00044179
 1269 0001:00044189 1267 0001:000441A1 1271 0001:000441AA 1272 0001:000441BB
 1273 0001:000441BE 1274 0001:000441C4 1318 0001:000441DC 1328 0001:000441EE
 1330 0001:000441F6 1331 0001:00044220 1334 0001:00044226 1335 0001:0004424B
 1336 0001:0004426F 1341 0001:0004427B 1343 0001:00044287 1344 0001:00044293
 1346 0001:0004429A 1348 0001:000442A6 1350 0001:000442AD 1357 0001:000442B2
 1358 0001:000442BE 1360 0001:000442C3 1363 0001:000442CA 1372 0001:000442D6
 1374 0001:000442D8 1376 0001:000442ED 1377 0001:000442FC 1378 0001:00044309
 1379 0001:00044320 1382 0001:00044325 1383 0001:00044335 1388 0001:0004434A
 1389 0001:00044360 1390 0001:0004436A 1391 0001:0004437C 1398 0001:0004437E
 1399 0001:00044391 1400 0001:000443A1 1421 0001:000443A6 1430 0001:000443B8
 1431 0001:000443C3 1432 0001:0004447E 1434 0001:0004448C 1435 0001:000444A7
 1436 0001:000444C1 1437 0001:000444DC 1438 0001:000444F1 1439 0001:0004450C
 1440 0001:00044514 1441 0001:00044533 1442 0001:00044535 1443 0001:0004454F
 1471 0001:00044558 1472 0001:00044572 1474 0001:000445A7 1479 0001:000445C5
 1561 0001:000445CD 1562 0001:0004461E 1563 0001:00044687 1568 0001:000446A8
 1569 0001:000446F0 1570 0001:0004472C 1580 0001:00044755 1585 0001:00044780
 1586 0001:000447C0 1587 0001:00044812 1589 0001:00044832 1598 0001:00044851
 1601 0001:0004486C 1602 0001:000448AF 1603 0001:000448FC 1612 0001:00044933
 1614 0001:0004493C 1700 0001:00044944 1701 0001:0004498D 1702 0001:000449A1
 1703 0001:000449F3 1704 0001:00044A39 1707 0001:00044A42 1708 0001:00044A80
 1711 0001:00044A9A 1740 0001:00044BC2 1741 0001:00044C0E 1742 0001:00044C61
 1743 0001:00044CD4 1746 0001:00044D5B 1747 0001:00044DA3 1767 0001:00044DBA
 1776 0001:00044DEB 1777 0001:00044E23 1798 0001:00044E36 1825 0001:00044E69
 1826 0001:00044EA0 1892 0001:00044EA5 1893 0001:00044F03 1897 0001:00044F1F
 1898 0001:00044F5C 1907 0001:00044F9B 1908 0001:00044FE6 1912 0001:00044FFE
 1913 0001:00045035 1954 0001:00045072 1956 0001:0004507B 1957 0001:000450D5
 1958 0001:00045127 1990 0001:00045166 1992 0001:0004516F 1993 0001:000451BF
 1994 0001:000451FC 1999 0001:0004522F 2000 0001:0004526F 2002 0001:00045284
 2003 0001:00045287 2004 0001:000452A1 2006 0001:000452A9 2007 0001:000452E9
 2009 0001:000452FA 2010 0001:000452FD 2011 0001:00045317 2014 0001:0004531F
 2015 0001:00045322 1458 0001:00045327 1459 0001:0004533D 2020 0001:0004535B
 2022 0001:00045372 2044 0001:0004538A 2045 0001:000453B9 2046 0001:000453EA
 2048 0001:0004541E 2050 0001:00045452 2054 0001:0004545C 2060 0001:00045491
 2066 0001:0004549B 2068 0001:000454CF 2071 0001:00045500 2099 0001:00045502
 2101 0001:0004550B 2102 0001:0004550D 2103 0001:00045513 2104 0001:0004553E
 2106 0001:0004554D 2108 0001:00045554 2110 0001:00045603 2111 0001:000456E7
 2112 0001:000457D6 2114 0001:000457E6 2116 0001:000457F5 2118 0001:000458D8
 2123 0001:000458DD 2125 0001:000458ED 2126 0001:000458F1 2128 0001:000458F2
 2129 0001:000458F7 2132 0001:0004598A 2133 0001:0004599D 2134 0001:000459A4
 2135 0001:000459A8 2137 0001:000459AC 2142 0001:000459B4 2146 0001:000459C1
 2144 0001:000459D2 2148 0001:000459E5 2152 0001:000459E9 2154 0001:000459EA
 2157 0001:000459FD 2160 0001:00045A12 2161 0001:00045A18 2162 0001:00045A1F
 2163 0001:00045A26 2165 0001:00045A2A 2166 0001:00045A38 2167 0001:00045A40
 2168 0001:00045A45 2170 0001:00045A4A 2190 0001:00045A4C 2198 0001:00045A79
 2200 0001:00045ACD 2201 0001:00045B49 2202 0001:00045BCB 2203 0001:00045C3B
 2204 0001:00045C9D 2205 0001:00045CC2 2207 0001:00045CC4 2210 0001:00045CCE
 2211 0001:00045D2C 2214 0001:00045D75 2217 0001:00045D80 2221 0001:00045D87
 2224 0001:00045D92 2231 0001:00045D9A 2238 0001:00045DC2 2239 0001:00045DD0
 2249 0001:00045DDA 2256 0001:00045DF5 2262 0001:00045DF7 2265 0001:00045E05
 2272 0001:00045E0D 2279 0001:00045E35 2280 0001:00045E43 2290 0001:00045E4D
 2297 0001:00045E68 2304 0001:00045E6A 2305 0001:00045ECC 2310 0001:00045F12
 2312 0001:00045F8D 2313 0001:00045FD2 2314 0001:0004601D 2315 0001:00046035
 2316 0001:00046045 2319 0001:00046047 2322 0001:0004607B 2324 0001:0004607D
 2326 0001:00046082 2327 0001:00046090 2331 0001:0004609A 2333 0001:0004610C
 2334 0001:00046150 2335 0001:0004619A 2336 0001:000461B2 2337 0001:000461C2
 2340 0001:000461C4 2343 0001:000461F8 2345 0001:000461FA 2347 0001:000461FF
 2348 0001:0004620D 2352 0001:00046217 2358 0001:0004622B 2359 0001:00046263
 2360 0001:00046297 2369 0001:000462A4 2370 0001:000462B4 2372 0001:000462BD
 2374 0001:000462E4 2375 0001:00046319 2376 0001:00046320 2377 0001:00046324
 2378 0001:00046326 2379 0001:0004632A 2381 0001:0004632C 2384 0001:0004633A
 2385 0001:0004636F 2386 0001:000463B2 2388 0001:0004641A 2391 0001:00046424
 2392 0001:00046438 2393 0001:0004644C 2395 0001:0004648D 2397 0001:00046497
 2399 0001:000464A5 2400 0001:000464AA 2403 0001:000464B5 2407 0001:000464C0
 2409 0001:000464F6 2410 0001:000464FC 2411 0001:0004650C 2412 0001:00046520
 2413 0001:00046534 2417 0001:0004653E 2421 0001:0004654D 2420 0001:0004654F
 2423 0001:00046557 2421 0001:00046574 2428 0001:0004657C 2425 0001:0004658E
 2427 0001:0004658F 2429 0001:00046590 2432 0001:00046592 2433 0001:000465A3
 2434 0001:000465B5 2437 0001:0004667E 2440 0001:00046686 2444 0001:0004668F
 2452 0001:000466A9 2453 0001:000466C1 2454 0001:000466D9 2457 0001:000466DD
 2458 0001:000466DF 2460 0001:000466E1 2461 0001:000466FA 2463 0001:0004670E
 2464 0001:00046710 2467 0001:00046715 2469 0001:0004671E 2472 0001:0004672B
 2473 0001:00046734 2474 0001:00046742 2476 0001:00046749 2480 0001:00046757
 2481 0001:00046760 2484 0001:0004676F 2488 0001:0004677E 2489 0001:00046780
 2492 0001:00046782 2495 0001:00046789 2497 0001:0004678D 2499 0001:00046793
 2500 0001:00046798 2499 0001:000467AB 2501 0001:000467BF 2502 0001:000467C0
 2504 0001:000467F2 2505 0001:000467F8 2518 0001:000467FC 2520 0001:00046808
 2521 0001:0004680D 2523 0001:00046813 2524 0001:0004682E 2526 0001:00046844
 2527 0001:0004686A 2529 0001:00046879 2531 0001:0004688A 2533 0001:00046890
 2536 0001:0004689A 2537 0001:00046931 2539 0001:0004693D 2541 0001:00046A18
 2546 0001:00046A21 2548 0001:00046B00 2549 0001:00046B10 2552 0001:00046BF5
 2554 0001:00046C1B 2555 0001:00046C2C 2557 0001:00046C39 2558 0001:00046C3D
 2557 0001:00046C56 2560 0001:00046C5B 2561 0001:00046C6D 2562 0001:00046C70
 2564 0001:00046C74 2565 0001:00046C77 2568 0001:00046CF6 2569 0001:00046D05
 2570 0001:00046D0C 2571 0001:00046D10 2573 0001:00046D14 2574 0001:00046D2D
 2575 0001:00046D3C 2578 0001:00046D4D 2582 0001:00046D55 2585 0001:00046D64
 2587 0001:00046D68 2588 0001:00046D86 2585 0001:00046DA1 2592 0001:00046DA7
 2595 0001:00046DAE 2599 0001:00046E1D 2600 0001:00046E21 2599 0001:00046E37
 2601 0001:00046E3F 2602 0001:00046E41 2603 0001:00046E42 2605 0001:00046E82
 2606 0001:00046E85 2626 0001:00046E8D 2635 0001:00046EBA 2636 0001:00046F54
 2638 0001:00046F64 2639 0001:00046FEE 2640 0001:00047084 2641 0001:0004710D
 2643 0001:000471A3 2644 0001:0004722A 2645 0001:0004723E 2650 0001:00047247
 2653 0001:00047251 2654 0001:0004729D 2655 0001:000472DC 2656 0001:00047321
 2659 0001:00047368 2663 0001:00047390 2664 0001:0004743D 2670 0001:00047444
 2674 0001:00047452 2678 0001:0004745B 2682 0001:00047487 2683 0001:0004749D
 2690 0001:000474A7 2694 0001:000474C9 2701 0001:000474CB 2705 0001:000474D9
 2709 0001:000474E2 2713 0001:0004750E 2714 0001:00047524 2721 0001:0004752E
 2725 0001:00047550 2732 0001:00047552 2736 0001:00047560 2740 0001:00047569
 2744 0001:00047595 2745 0001:000475AB 2752 0001:000475B5 2756 0001:000475D7
 2763 0001:000475D9 2767 0001:000475E1 2771 0001:000475EA 2775 0001:00047616
 2776 0001:0004762C 2783 0001:00047636 2787 0001:00047658 2794 0001:0004765A
 2798 0001:00047671 2799 0001:000476BD 2800 0001:00047702 2807 0001:00047712
 2808 0001:00047728 2810 0001:00047735 2812 0001:0004776F 2813 0001:000477A7
 2814 0001:000477C3 2815 0001:000477D1 2816 0001:000477E1 2817 0001:000477EF
 2819 0001:000477FF 2821 0001:00047811 2824 0001:0004781F 2825 0001:000478A9
 2826 0001:0004792F 2829 0001:00047931 2830 0001:00047947 2832 0001:0004795D
 2834 0001:000479D0 2837 0001:000479E2 2838 0001:000479F8 2839 0001:00047A0E
 2841 0001:00047A81 2842 0001:00047A98 2843 0001:00047AAE 2844 0001:00047AB3
 2847 0001:00047ABE 2851 0001:00047AD6 2853 0001:00047B38 2854 0001:00047B3B
 2855 0001:00047B56 2856 0001:00047B74 2857 0001:00047B92 2884 0001:00047B99
 2857 0001:00047BC4 2859 0001:00047BD0 2862 0001:00047BD8 2863 0001:00047C3A
 2864 0001:00047CBB 2867 0001:00047CFE 2868 0001:00047D01 2869 0001:00047D0F
 2868 0001:00047D25 2873 0001:00047D2D 2870 0001:00047D4D 2872 0001:00047D4F
 2874 0001:00047D50 2877 0001:00047D52 2878 0001:00047D72 2881 0001:00047D92
 2886 0001:00047D9A 2889 0001:00047DA5 2892 0001:00047DB1 2894 0001:00047DC6
 2896 0001:00047DD3 2899 0001:00047DEC 2902 0001:00047DF7 2904 0001:00047E02
 2906 0001:00047E0F 2911 0001:00047E56 2912 0001:00047E5B 2915 0001:00047E60
 2918 0001:00047E6A 2920 0001:00047E76 2923 0001:00047E92 2926 0001:00047E9A
 2928 0001:00047EA9 2930 0001:00047EB6 2935 0001:00047EF8 2946 0001:00047F02
 2948 0001:00047F20 2949 0001:00047F83 2950 0001:00047FBB 2952 0001:00047FC2
 2953 0001:00047FDD 2954 0001:00047FFB 2955 0001:00048000 2956 0001:0004804A
 2957 0001:0004804E 2959 0001:0004806A 2976 0001:00048085 2991 0001:000480F1
 2992 0001:0004817B 2993 0001:00048205 3008 0001:00048258 3021 0001:00048290
 3022 0001:0004832C 3023 0001:000483CA 3024 0001:00048454 3036 0001:000484AD
 3059 0001:000484D4 3061 0001:000484E4 3065 0001:00048524 3069 0001:00048569
 3070 0001:00048589 3071 0001:000485B5 3075 0001:000485E1 3077 0001:00048608
 3078 0001:00048630 3080 0001:00048635 3083 0001:00048643 3084 0001:00048645
 3087 0001:0004864F 3093 0001:0004865B 3097 0001:00048661 3098 0001:0004866E
 3099 0001:00048674 3101 0001:00048754 3105 0001:00048830 3106 0001:0004883B
 3107 0001:00048844 3110 0001:0004884C 3112 0001:00048864 3113 0001:0004886C
 3114 0001:00048945 3116 0001:00048B02 3117 0001:00048B0E 3119 0001:00048B1E
 3120 0001:00048B2B 3124 0001:00048B4A 3126 0001:00048B5A 3130 0001:00048B61
 3132 0001:00048C27 3133 0001:00048C95 3136 0001:00048CBD 3140 0001:00048D82
 3141 0001:00048DA9 3144 0001:00048DAE 3151 0001:00048DBA 3153 0001:00048DCA
 3155 0001:00048DD2 3156 0001:00048EAC 3157 0001:00048F8D 3158 0001:00048F9D
 3159 0001:0004907B 3160 0001:00049080 3162 0001:0004909D 3166 0001:000490B0
 3179 0001:000490BC 3180 0001:000490C2 3181 0001:000490C9 3183 0001:000490CB
 3184 0001:000490DB 3186 0001:000490EB 3187 0001:000490F8 3188 0001:000490FE
 3190 0001:000491E4 3194 0001:000492C0 3195 0001:000492CF 3197 0001:0004932A
 3199 0001:0004933A 3200 0001:00049347 3201 0001:00049357 3202 0001:0004935D
 3204 0001:00049363 3206 0001:0004937B 3210 0001:00049380 3213 0001:00049390
 3214 0001:00049398 3216 0001:0004939F 3217 0001:000493A7 3219 0001:000493B1
 3221 0001:000493C9 3222 0001:00049400 3224 0001:00049423 3225 0001:0004942D
 3227 0001:00049432 3237 0001:0004943B 3239 0001:00049446 3240 0001:00049520
 3241 0001:00049602 3243 0001:00049612 3245 0001:000496F4 3246 0001:000496FF
 3247 0001:0004970D 3249 0001:00049718 3251 0001:00049727 3253 0001:00049731
   40 0001:00049738

Line numbers for M:\GAMES\NETADV\PROG\interp\polyfuse.cpp(M:\GAMES\NETADV\PROG\interp\polyfuse.cpp) segment FOO

   27 0001:0004976C   29 0001:0004977E   33 0001:00049797   34 0001:0004979F
   37 0001:000497B9   38 0001:000497C0   37 0001:000497D6   40 0001:000497E6
   41 0001:000497FB   43 0001:00049809   44 0001:0004981C   46 0001:00049822
   47 0001:0004982F   48 0001:00049842   94 0001:00049848  104 0001:00049852
  105 0001:00049856  109 0001:0004985B  110 0001:00049860  111 0001:00049863
  112 0001:00049866  114 0001:0004986D  112 0001:00049896  116 0001:0004989B
  117 0001:000498A8   99 0001:000498AA  100 0001:000498C1  123 0001:000498EC
  126 0001:00049906  128 0001:00049910  130 0001:00049924  132 0001:00049928
  133 0001:0004993B  137 0001:00049945  138 0001:00049958  140 0001:0004995E
  145 0001:00049963  146 0001:0004997C  149 0001:0004998E  151 0001:000499E4
  153 0001:000499F4  154 0001:000499FB  156 0001:00049ACA  157 0001:00049AD9
  174 0001:00049AE4  182 0001:00049AF3  187 0001:00049AF8  188 0001:00049B46
  189 0001:00049B78  190 0001:00049BC0  192 0001:00049BC5  193 0001:00049BCD
  195 0001:00049BD3  197 0001:00049BE6  215 0001:00049BF0  220 0001:00049C10
  256 0001:00049C3C  257 0001:00049CDE  258 0001:00049D7B  261 0001:00049DC2
  262 0001:00049DC7  266 0001:00049E2B  268 0001:00049E47  272 0001:00049EB1
  273 0001:00049EB4  274 0001:00049EC0  275 0001:00049ECC  276 0001:00049ECF
  277 0001:00049ED2  298 0001:00049ED7  301 0001:00049EEA  302 0001:00049EF1
  306 0001:0004A238  309 0001:0004A242  312 0001:0004A24C  314 0001:0004A256
  315 0001:0004A25C  317 0001:0004A281  319 0001:0004A28C  320 0001:0004A299
  321 0001:0004A2A3  322 0001:0004A2D4  323 0001:0004A2E6  324 0001:0004A2F7
  325 0001:0004A320  326 0001:0004A32C  329 0001:0004A689  330 0001:0004A692
  331 0001:0004A69B  332 0001:0004A6CB  333 0001:0004A6DE  334 0001:0004A6EE
  335 0001:0004A71E  337 0001:0004A726  338 0001:0004A736  339 0001:0004A75A
  343 0001:0004A768  344 0001:0004A77A  348 0001:0004A7B4  349 0001:0004A7FB
  351 0001:0004A812  353 0001:0004A825  354 0001:0004A885  363 0001:0004A8BE
  366 0001:0004A8CD  367 0001:0004A8E3  368 0001:0004A8F0  369 0001:0004A921
  370 0001:0004A92E  371 0001:0004A93B  372 0001:0004A970  374 0001:0004A97D
  375 0001:0004A987  376 0001:0004A991  377 0001:0004A9B4  378 0001:0004A9C6
  379 0001:0004A9D9  380 0001:0004A9FF  383 0001:0004AA08  384 0001:0004AA19
  385 0001:0004AA26  386 0001:0004AA57  387 0001:0004AA64  388 0001:0004AA71
  389 0001:0004AA9A  398 0001:0004AAAC  401 0001:0004AAB6  404 0001:0004AABD
  405 0001:0004AAC4  407 0001:0004AAC9  410 0001:0004AADC  411 0001:0004AAF8
  412 0001:0004AB05  413 0001:0004AB22  414 0001:0004AB26  416 0001:0004AB5C
  424 0001:0004AB66  425 0001:0004AB6C  426 0001:0004ABA4  429 0001:0004ABBD
  428 0001:0004ABD9  427 0001:0004ABED  430 0001:0004AC11  431 0001:0004AC33
  432 0001:0004AC6C  437 0001:0004AD2B  438 0001:0004AD64  439 0001:0004AD96
  440 0001:0004ADAC  442 0001:0004ADBA  445 0001:0004ADBF  448 0001:0004ADC7
  450 0001:0004ADDE  451 0001:0004ADE7  452 0001:0004ADEF  453 0001:0004ADF9
  454 0001:0004AE02  455 0001:0004AE0A  458 0001:0004AE15  461 0001:0004AF62
  463 0001:0004AF64  466 0001:0004AF6E  468 0001:0004AF86  469 0001:0004AF88
  470 0001:0004AF8B  471 0001:0004AF8D  472 0001:0004AF97  474 0001:0004B001
  476 0001:0004B00B  479 0001:0004B00F  504 0001:0004B025  535 0001:0004B04B
  538 0001:0004B056  563 0001:0004B07F  592 0001:0004B0B1  593 0001:0004B0BE
  595 0001:0004B0C6  597 0001:0004B0D6  598 0001:0004B0DE  623 0001:0004B291
  651 0001:0004B296  653 0001:0004B29E  677 0001:0004B491  704 0001:0004B496
  726 0001:0004B49E  775 0001:0004B662  778 0001:0004B672  803 0001:0004B852
  825 0001:0004BA2E  848 0001:0004BC0F  849 0001:0004BDF4  867 0001:0004BFAF
  886 0001:0004BFB1   29 0001:0004BFBC  189 0001:0004BFC4

Line numbers for M:\GAMES\NETADV\PROG\interp\ratio.cpp(M:\GAMES\NETADV\PROG\interp\ratio.cpp) segment FOO

    4 0001:0004C054    6 0001:0004C05D    7 0001:0004C061    8 0001:0004C067
   11 0001:0004C069   13 0001:0004C06E   15 0001:0004C075   19 0001:0004C083
   21 0001:0004C08E   22 0001:0004C090   23 0001:0004C093   25 0001:0004C095
   27 0001:0004C0B5   28 0001:0004C0C0   29 0001:0004C0CD   31 0001:0004C0CF
   33 0001:0004C0F3   34 0001:0004C0FE   35 0001:0004C10B   39 0001:0004C10D
   41 0001:0004C116   42 0001:0004C11C   44 0001:0004C12C   58 0001:0004C12E
   61 0001:0004C130   63 0001:0004C134   64 0001:0004C14E   69 0001:0004C151
   71 0001:0004C155   72 0001:0004C160   73 0001:0004C163   74 0001:0004C168


Line numbers for M:\GAMES\NETADV\PROG\interp\rect.cpp(M:\GAMES\NETADV\PROG\interp\rect.cpp) segment FOO

    9 0001:0004C16C   11 0001:0004C17C   12 0001:0004C19A   13 0001:0004C1A1
   15 0001:0004C1BB   16 0001:0004C1C3   17 0001:0004C1C5   18 0001:0004C1CF
   19 0001:0004C1D2   20 0001:0004C1DC   21 0001:0004C1DF   22 0001:0004C1E9
   23 0001:0004C1EC   24 0001:0004C1F1   29 0001:0004C1F6   40 0001:0004C209
   42 0001:0004C20E   43 0001:0004C23D   44 0001:0004C259   48 0001:0004C25A
   49 0001:0004C263   50 0001:0004C270   51 0001:0004C275   52 0001:0004C27D
   53 0001:0004C285   56 0001:0004C28C   57 0001:0004C297   58 0001:0004C2A3
   59 0001:0004C2A9   60 0001:0004C2B1   61 0001:0004C2BA   64 0001:0004C2C1
   65 0001:0004C2C8   66 0001:0004C2D5   67 0001:0004C2DB   68 0001:0004C2E3
   69 0001:0004C2EB   72 0001:0004C2F0   73 0001:0004C2F9   74 0001:0004C306
   75 0001:0004C30D   76 0001:0004C315   81 0001:0004C31E   87 0001:0004C328
   89 0001:0004C32C   90 0001:0004C348   92 0001:0004C34B   95 0001:0004C356
   98 0001:0004C368   99 0001:0004C36D

Line numbers for M:\GAMES\NETADV\PROG\interp\rectlist.cpp(M:\GAMES\NETADV\PROG\interp\rectlist.cpp) segment FOO

   18 0001:0004C370   20 0001:0004C374   21 0001:0004C37E   30 0001:0004C37F
   32 0001:0004C387   33 0001:0004C38B   32 0001:0004C399   34 0001:0004C3A2
   43 0001:0004C3A8   45 0001:0004C3B1   46 0001:0004C3C0   48 0001:0004C3C4
   52 0001:0004C414   63 0001:0004C41B   65 0001:0004C424   66 0001:0004C428
   65 0001:0004C436   68 0001:0004C43F   69 0001:0004C44E   71 0001:0004C452
   76 0001:0004C4A2   87 0001:0004C4A9   89 0001:0004C4B4   90 0001:0004C4C0
   91 0001:0004C4DA   92 0001:0004C51B  103 0001:0004C51F  105 0001:0004C523
  106 0001:0004C537  107 0001:0004C53D  118 0001:0004C540  120 0001:0004C548
  121 0001:0004C54A  122 0001:0004C54C  124 0001:0004C54E  130 0001:0004C552
  129 0001:0004C554  131 0001:0004C55A  132 0001:0004C570  134 0001:0004C576
  145 0001:0004C57D  147 0001:0004C586  148 0001:0004C58A  149 0001:0004C598
  147 0001:0004C59F  151 0001:0004C5A8  152 0001:0004C5B2

Line numbers for M:\GAMES\NETADV\PROG\interp\remap.cpp(M:\GAMES\NETADV\PROG\interp\remap.cpp) segment FOO

   31 0001:0004C5B8   35 0001:0004C5C8   36 0001:0004C5D1   37 0001:0004C5E5
   38 0001:0004C5F9   39 0001:0004C60D   40 0001:0004C620   43 0001:0004C62A
   44 0001:0004C632   45 0001:0004C638   46 0001:0004C63E   47 0001:0004C646
   48 0001:0004C64C   49 0001:0004C64E   48 0001:0004C657   51 0001:0004C65D
   52 0001:0004C661   51 0001:0004C669   53 0001:0004C671   55 0001:0004C678
   57 0001:0004C6A3   58 0001:0004C6A7   57 0001:0004C6B5   59 0001:0004C6BB
   62 0001:0004C6D0   64 0001:0004C6DC   65 0001:0004C6E0   66 0001:0004C6E2
   67 0001:0004C6F0   65 0001:0004C6F7   70 0001:0004C6FD   71 0001:0004C701
   70 0001:0004C709   73 0001:0004C712   74 0001:0004C71A   76 0001:0004C720
   80 0001:0004C725   81 0001:0004C730   83 0001:0004C751   84 0001:0004C759
   87 0001:0004C766   88 0001:0004C76D   92 0001:0004C78A   91 0001:0004C792
   94 0001:0004C7A2   96 0001:0004C7A8   97 0001:0004C7B4   98 0001:0004C7BB
   99 0001:0004C7C5  102 0001:0004C7CA  104 0001:0004C7D6  105 0001:0004C7E3
  106 0001:0004C7EE  108 0001:0004C7FD  111 0001:0004C835  112 0001:0004C83D
  113 0001:0004C84A  115 0001:0004C87C  114 0001:0004C883  119 0001:0004C889
  120 0001:0004C893  122 0001:0004C899  123 0001:0004C8A3  124 0001:0004C8A7
  126 0001:0004C8AD  127 0001:0004C8BA  128 0001:0004C8C2  129 0001:0004C8CA
  130 0001:0004C8D0  131 0001:0004C8DA  134 0001:0004C8DF  136 0001:0004C8E7
  137 0001:0004C8F2  140 0001:0004C913  141 0001:0004C91A  143 0001:0004C92E
  145 0001:0004C936  146 0001:0004C943  148 0001:0004C975  147 0001:0004C97C
  152 0001:0004C982  153 0001:0004C98C  155 0001:0004C992  156 0001:0004C99C
  157 0001:0004C9A0  159 0001:0004C9A6  160 0001:0004C9B5  161 0001:0004C9BB
  162 0001:0004C9C5  165 0001:0004C9C9  167 0001:0004C9D5  168 0001:0004C9E0
  171 0001:0004CA01  172 0001:0004CA0A  174 0001:0004CA1F  175 0001:0004CA27
  176 0001:0004CA34  178 0001:0004CA66  177 0001:0004CA6D  182 0001:0004CA73
  183 0001:0004CA7D  185 0001:0004CA83  186 0001:0004CA8D  187 0001:0004CA91
  189 0001:0004CA97  190 0001:0004CAA4  191 0001:0004CAAA  192 0001:0004CAB4
  195 0001:0004CAB9  197 0001:0004CAC1  198 0001:0004CACC  201 0001:0004CAED
  202 0001:0004CAF5  203 0001:0004CB02  205 0001:0004CB32  204 0001:0004CB39
  209 0001:0004CB3F  210 0001:0004CB49  212 0001:0004CB4F  213 0001:0004CB59
  214 0001:0004CB5D  216 0001:0004CB63  217 0001:0004CB70  218 0001:0004CB78
  219 0001:0004CB7E  220 0001:0004CB88  224 0001:0004CB8C  226 0001:0004CB95
  227 0001:0004CB97  228 0001:0004CBA1  229 0001:0004CBAF  231 0001:0004CBBD
  233 0001:0004CBC5  236 0001:0004CBCC  238 0001:0004CBCF  239 0001:0004CBDB
  240 0001:0004CBE0  241 0001:0004CBE8  249 0001:0004CC04  253 0001:0004CC22
  254 0001:0004CC2A  256 0001:0004CC41  260 0001:0004CC48  261 0001:0004CC50
  263 0001:0004CC7B  267 0001:0004CC82  268 0001:0004CC8A  270 0001:0004CCAB
  274 0001:0004CCB2  275 0001:0004CCBA  277 0001:0004CCDB  281 0001:0004CCE2
  282 0001:0004CCEA  284 0001:0004CD10  288 0001:0004CD17  298 0001:0004CD36
  300 0001:0004CD78  301 0001:0004CD7C  302 0001:0004CD88  303 0001:0004CD8E
  304 0001:0004CD95  305 0001:0004CD9C  306 0001:0004CDA3  307 0001:0004CDA7
  308 0001:0004CDDB  309 0001:0004CDF3  310 0001:0004CE01  311 0001:0004CE0F
  312 0001:0004CE18  306 0001:0004CE23  314 0001:0004CE30  315 0001:0004CE37
  314 0001:0004CE43  316 0001:0004CE4C  321 0001:0004CE54  323 0001:0004CE5D
  325 0001:0004CE5F  328 0001:0004CE63  332 0001:0004CE66  333 0001:0004CE77
  334 0001:0004CE7C  335 0001:0004CE81  340 0001:0004CEA5  343 0001:0004CEAD
  347 0001:0004CEBC  349 0001:0004CED6  350 0001:0004CEF4  353 0001:0004CEFE
  354 0001:0004CF04  355 0001:0004CF0C  358 0001:0004CF21  359 0001:0004CF36
  360 0001:0004CF4D  361 0001:0004CF61  363 0001:0004CF73  364 0001:0004CF77
  365 0001:0004CF80  366 0001:0004CF87  367 0001:0004CF90  368 0001:0004CF97
  369 0001:0004CFA0  372 0001:0004CFA7  373 0001:0004CFB9  374 0001:0004CFE9
  375 0001:0004CFF1  376 0001:0004D003  380 0001:0004D059  381 0001:0004D06B
  382 0001:0004D085  388 0001:0004D08F  392 0001:0004D09E  393 0001:0004D0B8
  394 0001:0004D0D6  396 0001:0004D0E0  397 0001:0004D0E6  398 0001:0004D0EE
  401 0001:0004D103  402 0001:0004D119  403 0001:0004D14F  404 0001:0004D16F
  405 0001:0004D18C  407 0001:0004D1A6  408 0001:0004D1B8  409 0001:0004D1E8
  410 0001:0004D1F0  411 0001:0004D202  415 0001:0004D258  416 0001:0004D26A
  417 0001:0004D284  423 0001:0004D294  427 0001:0004D2A3  428 0001:0004D2BD
  429 0001:0004D2DB  431 0001:0004D2E5  432 0001:0004D2EB  433 0001:0004D2F3
  436 0001:0004D308  437 0001:0004D325  438 0001:0004D356  439 0001:0004D369
  440 0001:0004D385  441 0001:0004D3A2  443 0001:0004D3BC  444 0001:0004D3C0
  445 0001:0004D3C9  446 0001:0004D3D0  447 0001:0004D3D9  448 0001:0004D3E0
  449 0001:0004D3E9  452 0001:0004D3F0  453 0001:0004D402  454 0001:0004D432
  455 0001:0004D43A  456 0001:0004D44C  460 0001:0004D4A2  461 0001:0004D4B4
  462 0001:0004D4CE  469 0001:0004D4D8  474 0001:0004D4E4  475 0001:0004D501
  476 0001:0004D51B  477 0001:0004D525  479 0001:0004D542  480 0001:0004D551
  486 0001:0004D560  487 0001:0004D570  488 0001:0004D572  489 0001:0004D582
  490 0001:0004D599  491 0001:0004D5BA  492 0001:0004D5C1  493 0001:0004D5C2
  496 0001:0004D5C4  497 0001:0004D5C9  498 0001:0004D5D6  502 0001:0004D5EA
  508 0001:0004D610  509 0001:0004D63C  514 0001:0004D6B8  515 0001:0004D70A
  516 0001:0004D72A  517 0001:0004D731  518 0001:0004D736  519 0001:0004D73F
  524 0001:0004D744  525 0001:0004D758  529 0001:0004D75E  535 0001:0004D786
  536 0001:0004D7B8  539 0001:0004D834  540 0001:0004D886  541 0001:0004D8AA
  542 0001:0004D8B1  543 0001:0004D8B9  544 0001:0004D8C2  548 0001:0004D8C7
  550 0001:0004D8D3  554 0001:0004D8DB  556 0001:0004D8E1  557 0001:0004D8F4
  560 0001:0004D8FB  561 0001:0004D900  563 0001:0004D90B  564 0001:0004D910
  566 0001:0004D918  567 0001:0004D91D  569 0001:0004D925  570 0001:0004D92A
  572 0001:0004D932  575 0001:0004D956  576 0001:0004D958  581 0001:0004D95A
  583 0001:0004D968  585 0001:0004D96D  586 0001:0004D975  587 0001:0004D97E
  589 0001:0004D989  590 0001:0004D994  591 0001:0004D9AC  592 0001:0004D9B0
  593 0001:0004D9BD  594 0001:0004D9C1  595 0001:0004D9D1  596 0001:0004D9D5
  597 0001:0004D9D7  598 0001:0004D9D9  603 0001:0004D9DB  606 0001:0004D9E1


Line numbers for M:\GAMES\NETADV\PROG\interp\resource.cpp(M:\GAMES\NETADV\PROG\interp\resource.cpp) segment FOO

    1 0001:0004DA08  125 0001:0004DA1F  126 0001:0004DA7B  127 0001:0004DAD7
  128 0001:0004DB33  129 0001:0004DB89  130 0001:0004DBE5  131 0001:0004DC3B
  132 0001:0004DC97  133 0001:0004DCF3  134 0001:0004DD49  135 0001:0004DDA5
  136 0001:0004DDFB  137 0001:0004DE57  138 0001:0004DEB3  139 0001:0004DF0F
  140 0001:0004DF6B  141 0001:0004DFC7  142 0001:0004E023  143 0001:0004E07F
  144 0001:0004E0DB  145 0001:0004E137  146 0001:0004E193  147 0001:0004E1EF
  148 0001:0004E24B  174 0001:0004E2AD  176 0001:0004E2CF  177 0001:0004E2D9
  179 0001:0004E31E  180 0001:0004E327  182 0001:0004E32E  184 0001:0004E359
  185 0001:0004E368  186 0001:0004E372  189 0001:0004E3B4  190 0001:0004E3C3
  192 0001:0004E3E0  195 0001:0004E3F5  197 0001:0004E3F9  198 0001:0004E424
  201 0001:0004E427  203 0001:0004E42E  204 0001:0004E444  205 0001:0004E450
  206 0001:0004E455  209 0001:0004E458  214 0001:0004E464  216 0001:0004E46D
  219 0001:0004E473  221 0001:0004E485  222 0001:0004E496  225 0001:0004E4B7
  226 0001:0004E4E6  227 0001:0004E4FD  229 0001:0004E509  230 0001:0004E549
  232 0001:0004E567  242 0001:0004E56C  244 0001:0004E5AC  246 0001:0004E5B6
  247 0001:0004E5D1  248 0001:0004E5D7  249 0001:0004E5DD  250 0001:0004E5E3
  251 0001:0004E61B  252 0001:0004E64C  255 0001:0004E653  259 0001:0004E679
  260 0001:0004E68B  261 0001:0004E6B4  263 0001:0004E6CC  265 0001:0004E6DE
  266 0001:0004E6EE  267 0001:0004E6FB  270 0001:0004E705  272 0001:0004E70E
  273 0001:0004E71F  274 0001:0004E735  275 0001:0004E746  282 0001:0004E75C
  284 0001:0004E791  285 0001:0004E79B  286 0001:0004E7C2  287 0001:0004E7F3
  289 0001:0004E7FA  291 0001:0004E818  292 0001:0004E855  294 0001:0004E874
  295 0001:0004E87D  298 0001:0004E885  302 0001:0004E88E  303 0001:0004E898
  304 0001:0004E8A6  305 0001:0004E8C1  307 0001:0004E8D3  308 0001:0004E8D5
  311 0001:0004E8DA  316 0001:0004E8E2  318 0001:0004E8EB  320 0001:0004E8FD
  324 0001:0004E90E  325 0001:0004E938  327 0001:0004E93F  328 0001:0004E94A
  331 0001:0004E951  335 0001:0004E957  336 0001:0004E977  337 0001:0004E981
  339 0001:0004E98D  342 0001:0004E991  346 0001:0004E997  347 0001:0004E9B7
  348 0001:0004E9C1  350 0001:0004E9CD  353 0001:0004E9D1  357 0001:0004E9D7
  358 0001:0004E9F7  359 0001:0004EA01  361 0001:0004EA0D  364 0001:0004EA11
  366 0001:0004EA1A  369 0001:0004EA26  370 0001:0004EA2D  372 0001:0004EABE
  374 0001:0004EACF  375 0001:0004EAD9  377 0001:0004EBE5  381 0001:0004EBED
  385 0001:0004EBF3  386 0001:0004EC13  387 0001:0004EC1D  388 0001:0004EC29
  391 0001:0004EC2D  393 0001:0004EC34  394 0001:0004EC54  395 0001:0004EC62
  399 0001:0004EC86  403 0001:0004EC92  404 0001:0004EC96  405 0001:0004ECB1
  406 0001:0004ECD9  407 0001:0004ECE7  408 0001:0004ED2F  409 0001:0004ED67
  412 0001:0004ED71  413 0001:0004ED76  414 0001:0004ED84  415 0001:0004ED96
  417 0001:0004EDB3  418 0001:0004EDB8  419 0001:0004EDC4  420 0001:0004EDD8
  423 0001:0004EDDF  424 0001:0004EDE7  431 0001:0004EDEC  433 0001:0004EDF7
  434 0001:0004EE0E  435 0001:0004EE14  436 0001:0004EE2B  437 0001:0004EE2E
  440 0001:0004EE2F  443 0001:0004EE33  445 0001:0004EE61  448 0001:0004EE69
  452 0001:0004EE72  453 0001:0004EE8A  455 0001:0004EEA1  457 0001:0004EEA3
  458 0001:0004EEAB  459 0001:0004EEC9  460 0001:0004EED6  463 0001:0004EEE6
  464 0001:0004EEF3  467 0001:0004EF04  469 0001:0004EF17  473 0001:0004EF19
  474 0001:0004EF33  494 0001:0004EF3B  498 0001:0004EF43  499 0001:0004EF4C
  501 0001:0004EF50  502 0001:0004EF57  503 0001:0004EF63  506 0001:0004EF68
  508 0001:0004EF79  514 0001:0004EF95  515 0001:0004EF9A  519 0001:0004EFA1
  524 0001:0004EFA8  525 0001:0004EFBE  527 0001:0004EFD5  530 0001:0004EFD7
  531 0001:0004EFDE  534 0001:0004EFED  539 0001:0004EFEF  542 0001:0004EFF5
  547 0001:0004F001  549 0001:0004F01B  550 0001:0004F036  551 0001:0004F03C
  553 0001:0004F042  554 0001:0004F046  560 0001:0004F05F  562 0001:0004F063
  563 0001:0004F068  565 0001:0004F08F  566 0001:0004F0A8  569 0001:0004F0BD
  571 0001:0004F0C8  574 0001:0004F0D6  579 0001:0004F0E2  580 0001:0004F0FF
  582 0001:0004F122  583 0001:0004F12C  585 0001:0004F144  588 0001:0004F15C
  589 0001:0004F164  591 0001:0004F179  592 0001:0004F186  595 0001:0004F197
  600 0001:0004F1A2  602 0001:0004F1AB  603 0001:0004F1C1  604 0001:0004F1D2
  605 0001:0004F1E4  607 0001:0004F1EF  609 0001:0004F229  610 0001:0004F240
  611 0001:0004F251  612 0001:0004F258  613 0001:0004F25A  614 0001:0004F271
  617 0001:0004F273  620 0001:0004F29A  621 0001:0004F2B5  622 0001:0004F2CE
  623 0001:0004F2E0  624 0001:0004F2F8  625 0001:0004F310  626 0001:0004F315
  627 0001:0004F32D  628 0001:0004F337  629 0001:0004F33E  630 0001:0004F352
  632 0001:0004F369  633 0001:0004F391  634 0001:0004F3A3  635 0001:0004F3BB
  636 0001:0004F3CB  637 0001:0004F3ED  638 0001:0004F40F  640 0001:0004F430
  642 0001:0004F435  644 0001:0004F43F  645 0001:0004F447  649 0001:0004F44C
  652 0001:0004F453  654 0001:0004F474  655 0001:0004F47D  656 0001:0004F486
  659 0001:0004F489  665 0001:0004F495  666 0001:0004F4B9  667 0001:0004F4CA
  668 0001:0004F4DD  669 0001:0004F4E9  671 0001:0004F4FB  672 0001:0004F514
  675 0001:0004F534  677 0001:0004F549  679 0001:0004F55A  681 0001:0004F592
  682 0001:0004F598  683 0001:0004F5AB  685 0001:0004F5B9  687 0001:0004F5DB
  689 0001:0004F5F8  691 0001:0004F618  693 0001:0004F61D  695 0001:0004F636
  697 0001:0004F64B  699 0001:0004F68F  701 0001:0004F69B  704 0001:0004F6A0
  701 0001:0004F6AA  702 0001:0004F6AF  706 0001:0004F6C4  707 0001:0004F6E4
  708 0001:0004F70E  709 0001:0004F729  710 0001:0004F739  711 0001:0004F746
  712 0001:0004F753  713 0001:0004F756  714 0001:0004F76D  718 0001:0004F795
  721 0001:0004F7A4  723 0001:0004F7C3  724 0001:0004F7D7  725 0001:0004F7DE
  726 0001:0004F7EB  728 0001:0004F7FE  729 0001:0004F80C  730 0001:0004F81E
  731 0001:0004F82B  732 0001:0004F838  734 0001:0004F83A  735 0001:0004F84C
  736 0001:0004F86F  737 0001:0004F893  738 0001:0004F8AE  739 0001:0004F8BD
  742 0001:0004F8C2  744 0001:0004F8C7  746 0001:0004F8CC  747 0001:0004F8DF
  748 0001:0004F8EA  749 0001:0004F8F1  750 0001:0004F8F3  753 0001:0004F8F5
  756 0001:0004F90D  759 0001:0004F912  767 0001:0004F91E  768 0001:0004F948
  770 0001:0004F973  771 0001:0004F99D  775 0001:0004F9C7  776 0001:0004F9DB
  779 0001:0004F9EA  801 0001:0004F9F9  802 0001:0004FA00  805 0001:0004FA12
  807 0001:0004FA16  808 0001:0004FA1B  809 0001:0004FA23  811 0001:0004FA29
  812 0001:0004FA2C  813 0001:0004FA30  814 0001:0004FA33  817 0001:0004FA34
  820 0001:0004FB59  821 0001:0004FB81  822 0001:0004FB95  824 0001:0004FBB5
  826 0001:0004FBCD  828 0001:0004FBDC  830 0001:0004FBFA  832 0001:0004FC12
  833 0001:0004FC2C  836 0001:0004FC4F  837 0001:0004FC63  838 0001:0004FC6B
  841 0001:0004FC82  843 0001:0004FC89  844 0001:0004FC8E  845 0001:0004FCA1
  846 0001:0004FCA9  848 0001:0004FCAC  852 0001:0004FCE9  853 0001:0004FCED
  856 0001:0004FD18  858 0001:0004FD1C  861 0001:0004FD30  862 0001:0004FD37
  865 0001:0004FD6A  867 0001:0004FD71  869 0001:0004FD8B  874 0001:0004FD90
  898 0001:0004FD99  901 0001:0004FD9E  907 0001:0004FDA9  908 0001:0004FDB2
  909 0001:0004FDC4  910 0001:0004FDDE  912 0001:0004FDE0  913 0001:0004FDF0
  914 0001:0004FE05  915 0001:0004FE0D  918 0001:0004FE17  921 0001:0004FE1C
  922 0001:0004FE42  923 0001:0004FE55  924 0001:0004FE6D  925 0001:0004FE79
  927 0001:0004FE8D  928 0001:0004FEA0  929 0001:0004FEB1  930 0001:0004FEC5
  931 0001:0004FED9  932 0001:0004FEEA  933 0001:0004FEEF  934 0001:0004FEF6
  935 0001:0004FEFB  936 0001:0004FF04  937 0001:0004FF18  939 0001:0004FF22
  944 0001:0004FF27  946 0001:0004FF31  947 0001:0004FF39  949 0001:0004FF47
  950 0001:0004FF87  953 0001:0004FF8C  955 0001:0004FF97  956 0001:0004FF9E
  955 0001:0004FFD2  957 0001:0004FFDA  960 0001:0004FFDF  962 0001:0004FFE9
  963 0001:0004FFEF  966 0001:0004FFF3  968 0001:0004FFFB  987 0001:0005001C
  993 0001:00050026  994 0001:0005002C  995 0001:00050030  998 0001:00050034
 1000 0001:00050038 1001 0001:0005003C 1002 0001:0005005D 1003 0001:0005006F
 1004 0001:00050071 1009 0001:0005008B 1011 0001:00050096 1018 0001:000500A0
 1019 0001:000500A6 1022 0001:000500AE 1023 0001:000500C1 1024 0001:000500E7
 1033 0001:000500EB  159 0001:000500F0

Line numbers for M:\GAMES\NETADV\PROG\interp\restype.cpp(M:\GAMES\NETADV\PROG\interp\restype.cpp) segment FOO

   99 0001:000501CC  102 0001:000501E6  103 0001:000501F3  106 0001:000501F8
  110 0001:00050201  111 0001:00050223  119 0001:0005022E  122 0001:00050233
  124 0001:00050242  125 0001:0005026A  135 0001:00050284  137 0001:0005028D
  138 0001:00050292  139 0001:00050296  140 0001:000502C0  141 0001:000502C4
  146 0001:000502E3  147 0001:000502EC  149 0001:0005031C  150 0001:0005032D
  151 0001:00050330  153 0001:00050380  154 0001:00050382  155 0001:0005039B
  156 0001:000503B0  157 0001:000503C4  158 0001:000503D6  159 0001:000503E1
  160 0001:00050400  161 0001:0005040F  162 0001:0005041D  163 0001:00050429
  164 0001:0005042E  165 0001:00050439  167 0001:00050459  168 0001:0005047E
  169 0001:00050486  170 0001:000504B7  176 0001:000504D3  177 0001:000504D8
  179 0001:00050509  180 0001:0005051A  181 0001:00050526  185 0001:00050541
  190 0001:00050549  192 0001:00050552  193 0001:00050565  195 0001:00050574
  196 0001:00050593  198 0001:000505CD  199 0001:000505D0  201 0001:000505E8
  202 0001:000505F0  203 0001:000505F8  205 0001:000505FD  207 0001:00050606
  208 0001:00050612  209 0001:0005062B  210 0001:00050644  223 0001:00050646
  224 0001:0005064F  228 0001:0005065D  235 0001:0005066F  236 0001:00050691
  237 0001:000506B1  238 0001:000506D3  239 0001:000506D7  240 0001:000506E7
  241 0001:000506FA  242 0001:0005070E  243 0001:00050720  245 0001:0005073A
  246 0001:00050747  253 0001:0005076E  254 0001:00050787  257 0001:00050798
  258 0001:000507A1  259 0001:000507D5  260 0001:000507F7  261 0001:000507FB
  262 0001:0005080B  263 0001:0005081E  264 0001:00050832  265 0001:00050844
  266 0001:00050866  267 0001:0005087E  269 0001:00050898  270 0001:000508A1
  277 0001:000508D4  278 0001:000508E0  279 0001:00050905  280 0001:00050919
  281 0001:00050929  282 0001:00050947  283 0001:00050957  284 0001:0005096A
  285 0001:0005097E  288 0001:00050990  296 0001:00050995  297 0001:000509C3
  298 0001:000509CC  300 0001:00050A03  304 0001:00050A45  305 0001:00050A67
  306 0001:00050A6B  307 0001:00050A7B  308 0001:00050AAE  309 0001:00050AC1
  310 0001:00050AD5  311 0001:00050AE7  312 0001:00050AE9  313 0001:00050AF1
  315 0001:00050B0B  316 0001:00050B18  324 0001:00050B3F  326 0001:00050B66
  327 0001:00050B78  328 0001:00050B8C  330 0001:00050BA1  331 0001:00050BAB
  329 0001:00050BB5  334 0001:00050BBC  335 0001:00050BC9  344 0001:00050BEF
  351 0001:00050C01  352 0001:00050C1F  353 0001:00050C3F  354 0001:00050C5D
  355 0001:00050C6B  356 0001:00050C6F  357 0001:00050C7F  362 0001:00050C89
  363 0001:00050CA2  366 0001:00050CB3  367 0001:00050CB8  368 0001:00050CEC
  377 0001:00050D0E  378 0001:00050D22  379 0001:00050D47  380 0001:00050D5B
  381 0001:00050D6B  382 0001:00050D89  389 0001:00050D9C  390 0001:00050DCA
  391 0001:00050DD3  393 0001:00050E0A  397 0001:00050E4C  400 0001:00050E6E
  407 0001:00050E73  408 0001:00050E96  413 0001:00050EAC  414 0001:00050EAE
  417 0001:00050EB3  419 0001:00050EB7  420 0001:00050ED3  421 0001:00050EDF
  422 0001:00050EE4  425 0001:00050EE7  429 0001:00050EF1  430 0001:00050F0C
  434 0001:00050F33  444 0001:00050F40  446 0001:00050F6F  447 0001:00050F7F
  448 0001:00050F93  452 0001:00050F99  455 0001:00050FB6  459 0001:00050FFB
  461 0001:00051002  462 0001:0005101C  465 0001:0005101F  467 0001:00051023
  468 0001:0005102E  470 0001:0005103A  471 0001:00051061  472 0001:00051063
  475 0001:00051066  477 0001:0005106F  478 0001:00051078  480 0001:0005109C
  484 0001:000510BE  487 0001:000510CF  488 0001:000510E6  489 0001:000510FD
  492 0001:00051102  494 0001:00051106  495 0001:0005111D  498 0001:00051120
  502 0001:00051127  503 0001:0005113A  504 0001:00051153  508 0001:0005116F
  510 0001:0005117B  512 0001:00051194  515 0001:000511AA  516 0001:000511B7
  517 0001:000511CC  518 0001:000511DC  520 0001:000511E7  521 0001:000511EA
  522 0001:000511EC  524 0001:000511F7  525 0001:000511FD  528 0001:00051206
  529 0001:0005120E  531 0001:0005122F  532 0001:0005123E  533 0001:00051246
  534 0001:0005125D  536 0001:00051265  537 0001:00051267  539 0001:0005126C
  543 0001:00051271  544 0001:00051276  547 0001:0005127B  551 0001:00051287
  554 0001:0005129B  555 0001:000512BE  556 0001:000512D6  557 0001:000512DF
  558 0001:000512E4  561 0001:000512E9  565 0001:000512F1  568 0001:00051317
  569 0001:00051334  570 0001:00051345  571 0001:0005134B  572 0001:00051350
  575 0001:00051354  578 0001:00051357  579 0001:0005137C  584 0001:0005137E
  588 0001:00051385  589 0001:00051398  590 0001:000513B1  594 0001:000513BF
  598 0001:000513C6  599 0001:000513D9  600 0001:000513F2  604 0001:000513FB
  608 0001:00051402  614 0001:0005140B  632 0001:0005140E  634 0001:00051411
  636 0001:00051424

Line numbers for M:\GAMES\NETADV\PROG\interp\sci.cpp(M:\GAMES\NETADV\PROG\interp\sci.cpp) segment FOO

   31 0001:0005142C   35 0001:00051435   37 0001:0005143D   38 0001:00051443
   39 0001:00051449   40 0001:0005144F   41 0001:00051455   42 0001:0005145B
   43 0001:00051461   44 0001:00051467   45 0001:0005146D   46 0001:00051473
   47 0001:00051479   48 0001:0005147F   54 0001:00051485   55 0001:00051493
   56 0001:000514A1   57 0001:000514AD   58 0001:000514BB   59 0001:000514C9
   60 0001:000514DF   61 0001:000514ED   65 0001:000514F6   66 0001:00051507
   68 0001:0005150B   70 0001:00051514   75 0001:0005153E   76 0001:0005154C
   77 0001:0005155A   78 0001:0005156B   79 0001:00051579   80 0001:00051587
   82 0001:00051590   85 0001:0005159E   87 0001:000515A7   89 0001:000515B0
   91 0001:000515B9   95 0001:000515C2   98 0001:000515D1  100 0001:000515D6
  101 0001:000515E7  104 0001:000515EF  106 0001:000515F6  107 0001:0005162C
  108 0001:00051633  109 0001:00051650  110 0001:00051662  113 0001:00051668
  116 0001:0005166C  117 0001:00051684  119 0001:000516A2  120 0001:00051735
  123 0001:00051738  125 0001:0005173B  126 0001:00051752  129 0001:00051754
  133 0001:0005175C  137 0001:0005176D  138 0001:00051782  141 0001:00051794
  142 0001:00051799  144 0001:0005179D  146 0001:000517AC  149 0001:000517B1
  152 0001:000517CE  153 0001:000517E1  154 0001:000517F4  155 0001:00051803
  156 0001:00051812  157 0001:00051829  158 0001:00051840  159 0001:00051854
  160 0001:00051863  161 0001:00051877  162 0001:00051886  167 0001:0005189A
    1 0001:000518A4

Line numbers for M:\GAMES\NETADV\PROG\interp\screen.cpp(M:\GAMES\NETADV\PROG\interp\screen.cpp) segment FOO

   12 0001:000518A8   14 0001:000518AD   15 0001:000518C1   16 0001:000518C6
   18 0001:000518DA   19 0001:000518E7   22 0001:000518EB   24 0001:000518F4
   25 0001:00051903   27 0001:0005190C   28 0001:0005198D   29 0001:0005199A
   32 0001:0005199F   33 0001:000519A6   34 0001:000519AD   36 0001:000519C5
   38 0001:000519D1   41 0001:000519D6   43 0001:000519DC   44 0001:000519EE
   45 0001:000519F3   46 0001:00051A11   47 0001:00051A32   50 0001:00051A37
   52 0001:00051A3D   53 0001:00051A4F   54 0001:00051A54   55 0001:00051A72
   56 0001:00051A8D   59 0001:00051A92   61 0001:00051A98   62 0001:00051AAA
   63 0001:00051AAF   64 0001:00051ACD   65 0001:00051AEC   67 0001:00051AF1
   69 0001:00051AF9   70 0001:00051AFD   69 0001:00051B0B   71 0001:00051B16
   74 0001:00051B1A   76 0001:00051B22   77 0001:00051B34   78 0001:00051B39
   81 0001:00051B57   85 0001:00051B6D   87 0001:00051B79   88 0001:00051B82
   89 0001:00051B8B   90 0001:00051BAE   91 0001:00051BB4   92 0001:00051BB8
   91 0001:00051BE9   94 0001:00051BEE   97 0001:00051BF6   99 0001:00051BF9
  100 0001:00051C05  101 0001:00051C16  128 0001:00051C18  130 0001:00051C21
  131 0001:00051C33  132 0001:00051C38  133 0001:00051C58  134 0001:00051C7F
  137 0001:00051C84  139 0001:00051C89  140 0001:00051C9B  141 0001:00051CA0
  142 0001:00051CC1  143 0001:00051CD4  146 0001:00051CD8  182 0001:00051CE7
  183 0001:00051CFD  184 0001:00051D0C  185 0001:00051D11  187 0001:00051D14
  188 0001:00051D30  189 0001:00051D40  192 0001:00051D47  193 0001:00051D53
  198 0001:00051D59  199 0001:00051D5E  205 0001:00051D66  206 0001:00051D6C
  207 0001:00051D89  209 0001:00051D8C  212 0001:00051D94  215 0001:00051DA8
  223 0001:00051DC9  228 0001:00051DD6  229 0001:00051DF7  234 0001:00051E56
  224 0001:00051E7A  261 0001:00051E87  262 0001:00051E8B  261 0001:00051EA8
  253 0001:00051EAF  266 0001:00051EB4  271 0001:00051EB7  288 0001:00051EC1
  317 0001:00051EC8  320 0001:00051EEA  321 0001:00051EFD  326 0001:00051FB3
  339 0001:0005204A  340 0001:00052054  341 0001:0005206A  343 0001:00052079
  345 0001:0005208A  346 0001:00052099  347 0001:0005209E  350 0001:000520AB
  355 0001:000520BB  356 0001:000520DD  357 0001:000520E5  356 0001:000520F1
  359 0001:000520FA  360 0001:0005210A  361 0001:0005212D  362 0001:00052132
  361 0001:0005213F  364 0001:00052148  366 0001:00052158  372 0001:00052167
  376 0001:00052173  377 0001:00052189  379 0001:0005219A  382 0001:000521B2
  383 0001:000521D2  384 0001:000521E8  407 0001:000521F4  412 0001:00052200
  418 0001:0005224A  419 0001:0005224E  420 0001:0005225C  422 0001:0005225E
  426 0001:00052277  427 0001:00052287  435 0001:000522D7  446 0001:000522F9
  451 0001:00052305  457 0001:00052367  458 0001:00052384  459 0001:00052395
  460 0001:000523A6  462 0001:000523AB  465 0001:000523B9  390 0001:000523BE
  395 0001:000523F6  477 0001:00052410  483 0001:0005241A  484 0001:00052424
  490 0001:0005244C  491 0001:00052450  493 0001:00052470  494 0001:0005249A
  498 0001:000524C0  499 0001:000524D2  500 0001:000524EF  501 0001:000524FC
  504 0001:0005250C  505 0001:00052516  506 0001:0005252A  507 0001:00052532
  512 0001:0005259A  513 0001:000525A4  516 0001:000525BA  517 0001:000525C5
  518 0001:000525DD  519 0001:00052603  522 0001:00052605  524 0001:0005261E
  525 0001:00052623  524 0001:00052651  535 0001:00052656  536 0001:00052669
  537 0001:00052681  541 0001:000526A7  544 0001:000526BD  546 0001:000526C6
  547 0001:000526CC  548 0001:000526D0  547 0001:000526DE  550 0001:000526E3
  553 0001:000526E8  555 0001:000526ED  556 0001:000526FD  557 0001:00052702
  559 0001:00052708  560 0001:00052712  561 0001:0005271F  563 0001:00052724
  564 0001:00052727  567 0001:0005272B  569 0001:0005272F  570 0001:0005273F
  571 0001:00052744  572 0001:00052749  573 0001:00052750

Line numbers for M:\GAMES\NETADV\PROG\interp\script.cpp(M:\GAMES\NETADV\PROG\interp\script.cpp) segment FOO

    1 0001:00052754  182 0001:0005277D  185 0001:0005279C  187 0001:0005279D
  189 0001:000527A5  190 0001:000527A9  189 0001:000527BA  191 0001:000527BF
  195 0001:000527D1  197 0001:000527DA  198 0001:000527E4  199 0001:000527FA
  200 0001:0005280D  201 0001:00052819  203 0001:0005281C  204 0001:00052830
  205 0001:00052839  208 0001:00052841  210 0001:0005284C  211 0001:00052855
  212 0001:00052862  213 0001:00052867  214 0001:0005288C  215 0001:0005288E
  218 0001:00052893  223 0001:000528A2  224 0001:000528AB  226 0001:000528D0
  227 0001:000528D4  229 0001:000528F9  230 0001:00052910  233 0001:00052918
  235 0001:0005291E  236 0001:00052925  237 0001:0005292E  240 0001:00052930
  242 0001:00052935  243 0001:0005293C  245 0001:00052940  246 0001:0005294C
  249 0001:0005294E  251 0001:00052954  252 0001:0005295B  253 0001:00052965
  256 0001:0005296D  258 0001:00052972  260 0001:00052985  261 0001:0005298A
  262 0001:00052991  264 0001:0005299C  265 0001:000529B2  270 0001:000529B8
  275 0001:000529C0  276 0001:000529D0  277 0001:000529D7  278 0001:000529DD
  279 0001:00052A0B  281 0001:00052A29  282 0001:00052A4E  285 0001:00052A5C
  290 0001:00052A6B  292 0001:00052A71  295 0001:00052A80  296 0001:00052A86
  297 0001:00052B01  298 0001:00052B11  300 0001:00052B25  303 0001:00052B48
  304 0001:00052B52  305 0001:00052B6A  309 0001:00052C6A  310 0001:00052C89
  313 0001:00052D0B  311 0001:00052D1F  312 0001:00052D2C  316 0001:00052D43
  320 0001:00052D4C  321 0001:00052D6B  323 0001:00052E3B  322 0001:00052E4F
  324 0001:00052E64  327 0001:00052E6F  328 0001:00052E71  330 0001:00052E79
  331 0001:00052E7F  333 0001:00052E99  336 0001:00052EA5  339 0001:00052EC8
  341 0001:00052ED2  342 0001:00052F91  345 0001:00052FB4  358 0001:00052FCF
  360 0001:00052FD3  361 0001:00052FD9  363 0001:00052FF7  364 0001:00053039
  368 0001:0005303F  369 0001:0005305E  371 0001:0005307B  372 0001:00053085
  373 0001:00053092  375 0001:000530B3  377 0001:000530DB  380 0001:000530EE
  381 0001:000530F2  380 0001:0005310A  383 0001:00053123  386 0001:0005312F
  388 0001:00053142  393 0001:0005314D  394 0001:00053154  395 0001:0005315A
  397 0001:0005315D  393 0001:000531A6  405 0001:00053236  407 0001:0005324C
  409 0001:00053275  410 0001:0005332B  413 0001:00053344  414 0001:00053357
  416 0001:0005335A  422 0001:00053367  423 0001:0005336D  429 0001:000533D0
  430 0001:000533E9  436 0001:000533FF  437 0001:0005340E  442 0001:00053418
  443 0001:0005341D  446 0001:0005342D  447 0001:00053431  453 0001:000534A7
  455 0001:000534B9  454 0001:000534D6  457 0001:000534E3  459 0001:000534F6
  460 0001:00053500  461 0001:00053515  466 0001:0005353E  468 0001:00053550
  467 0001:0005356D  470 0001:0005357A  472 0001:0005358D  473 0001:00053597
  474 0001:000535AC  479 0001:000535C5  480 0001:000535DA  482 0001:00053607
  483 0001:0005361A  484 0001:00053639  486 0001:00053647  485 0001:00053656
  487 0001:0005365A  489 0001:00053667  490 0001:00053670  491 0001:00053675
  492 0001:00053678  497 0001:0005367A  499 0001:00053686  500 0001:000536A8
  502 0001:000536CB  503 0001:000536E2  506 0001:000536ED  511 0001:000536F9
  514 0001:00053730  515 0001:00053736  517 0001:000537AA  521 0001:000537C2
  523 0001:000537E3  524 0001:000537E6  525 0001:000537F9  526 0001:000537FD
  527 0001:00053807  525 0001:0005380A  530 0001:0005380F  534 0001:00053820
  538 0001:00053827  540 0001:0005382D  541 0001:00053856  543 0001:0005386D
  544 0001:00053876  547 0001:0005387F  552 0001:0005388A  553 0001:00053897
  555 0001:000538A9  556 0001:000538BA  559 0001:000538C2  560 0001:000538CA
  563 0001:000538D4  565 0001:000538E0  566 0001:000538E8  568 0001:00053909
  569 0001:00053933  570 0001:0005395C  571 0001:00053984  574 0001:00053995
  578 0001:000539B7  580 0001:000539BE  581 0001:000539D9  583 0001:000539ED
  584 0001:00053A16  585 0001:00053A2A  586 0001:00053A2E  588 0001:00053A5F
  585 0001:00053A82  590 0001:00053A8B  593 0001:00053A90  597 0001:00053A97
  598 0001:00053A9B  599 0001:00053AAD  597 0001:00053ABF  601 0001:00053AC8
  604 0001:00053ACD  606 0001:00053AD9  609 0001:00053AF4  610 0001:00053B12
  611 0001:00053B21  614 0001:00053B2C  617 0001:00053B30  618 0001:00053B39
  620 0001:00053B3B  623 0001:00053B5F  615 0001:00053B97  628 0001:00053BC8
  629 0001:00053BEA  630 0001:00053C1E  631 0001:00053C52  633 0001:00053C83
  635 0001:00053CA1  638 0001:00053CBB  639 0001:00053CD5  641 0001:00053CE9
  642 0001:00053CFF  643 0001:00053D25  648 0001:00053D2A  650 0001:00053D33
  652 0001:00053D65  655 0001:00053D69  669 0001:00053D72  670 0001:00053D7A
  672 0001:00053D84  674 0001:00053D8A  676 0001:00053D93  677 0001:00053DB1
  678 0001:00053DC3  130 0001:00053DC8  132 0001:00053DD4  133 0001:00053E0F
  134 0001:00053E8F  135 0001:00053E98   77 0001:00053EA4   81 0001:00053EAB
   82 0001:00053EC2   83 0001:00053ED4   84 0001:00053EDA   85 0001:00053EE0


Line numbers for M:\GAMES\NETADV\PROG\interp\sendstac.cpp(M:\GAMES\NETADV\PROG\interp\sendstac.cpp) segment FOO

   21 0001:00053EE8   23 0001:00053F29   25 0001:00053F2B   27 0001:00053F38
   28 0001:00053F50   31 0001:00053F55   34 0001:00053F60   37 0001:00053F61
   39 0001:00053F65   40 0001:00053F6C   41 0001:00053F71   42 0001:00053F83
   45 0001:00053F84   49 0001:00053F89   51 0001:00053F95   52 0001:00053F9C
   55 0001:00053F9E   57 0001:00053FA2   58 0001:00053FA5   61 0001:00053FA6
   63 0001:00053FAA   64 0001:00053FB3   67 0001:00053FB6   69 0001:00053FBC
   70 0001:00053FCC   71 0001:00053FCE   73 0001:00053FD9   74 0001:00053FE2
   77 0001:00053FE4   79 0001:00053FEB   80 0001:00054003   81 0001:0005400D
   84 0001:00054010   86 0001:0005401C   91 0001:00054029   94 0001:00054041
   96 0001:0005404C   98 0001:00054058   99 0001:00054065  100 0001:00054076
  105 0001:0005407B  103 0001:0005407D  120 0001:00054085  121 0001:000540CB
  122 0001:00054151  123 0001:00054157  124 0001:00054159  126 0001:0005415B
  127 0001:0005416C  129 0001:00054193  131 0001:000541B9  132 0001:000541CC
  133 0001:000541D4  135 0001:000542B4  141 0001:000542BF  143 0001:000542DA
  145 0001:00054321  146 0001:00054344

Line numbers for M:\GAMES\NETADV\PROG\interp\shiftpal.cpp(M:\GAMES\NETADV\PROG\interp\shiftpal.cpp) segment FOO

   15 0001:00054358   17 0001:0005435C   18 0001:0005436C   21 0001:0005436F
   24 0001:00054370   29 0001:00054379   31 0001:0005437C   36 0001:00054383
   38 0001:0005438E   36 0001:0005439B   42 0001:000543D4   45 0001:000543DC
   50 0001:000543E5   52 0001:000543E7   53 0001:000543EB   54 0001:000543FB
   52 0001:00054405   56 0001:0005440F   59 0001:00054414   61 0001:0005441D
   62 0001:00054423   63 0001:0005442B   65 0001:00054434   66 0001:0005443F
   67 0001:0005444A   68 0001:00054455   70 0001:00054463   71 0001:00054470
   72 0001:00054478   73 0001:00054482   75 0001:00054498   76 0001:000544A6
   77 0001:000544AE   84 0001:000544B2   85 0001:000544BB   86 0001:000544C6
   89 0001:000544CB   91 0001:000544CD   92 0001:000544D4   95 0001:000544D9
   97 0001:000544DE   99 0001:000544EF  100 0001:000544F1  101 0001:000544FC
  103 0001:000544FF  102 0001:00054502  109 0001:00054505  110 0001:00054510
  117 0001:00054517  110 0001:0005451A  111 0001:00054520  112 0001:00054523
  115 0001:00054527  112 0001:00054528  113 0001:0005452D  114 0001:00054539
  123 0001:00054540

Line numbers for M:\GAMES\NETADV\PROG\interp\shwstyle.cpp(M:\GAMES\NETADV\PROG\interp\shwstyle.cpp) segment FOO

   47 0001:0005455C   73 0001:00054568   74 0001:0005456F   75 0001:00054578
   76 0001:0005457F   77 0001:00054584   79 0001:00054586   80 0001:0005458B
   84 0001:00054591   85 0001:00054597   86 0001:000545B9   89 0001:000545BF
   90 0001:000545D1   91 0001:000545D6   95 0001:000545F0   96 0001:000545F7
   97 0001:000545FD   98 0001:00054605  104 0001:0005460D  114 0001:00054646
  115 0001:0005464D  116 0001:00054653  117 0001:0005465C  107 0001:0005465E
  109 0001:00054663  118 0001:0005466A  119 0001:00054671  121 0001:000546C7
  122 0001:000546CA  134 0001:000546CF  137 0001:000546D8  138 0001:000546DA
  139 0001:000546E2  141 0001:00054702  142 0001:00054710  143 0001:00054714
  142 0001:0005473C  147 0001:00054744  150 0001:0005474B  151 0001:00054751
  152 0001:00054757  153 0001:00054768  154 0001:0005476E  157 0001:00054775
  158 0001:00054792  159 0001:00054796  160 0001:0005479D  161 0001:000547A6
  162 0001:000547AF  163 0001:000547CF  166 0001:000547D4  168 0001:000547DB
  171 0001:0005480B  173 0001:00054815  174 0001:0005481D  176 0001:00054828
  178 0001:00054858  183 0001:00054873  184 0001:0005487C  189 0001:0005487E
  192 0001:00054886  195 0001:0005488E  198 0001:00054896  201 0001:0005489E
  204 0001:000548A6  207 0001:000548AE  210 0001:000548B6  213 0001:000548BE
  216 0001:000548C6  243 0001:000548CE  245 0001:000548D2  247 0001:000548D4
  248 0001:000548D8  249 0001:000548DA  250 0001:000548DB  253 0001:000548DD
  256 0001:000548E0  260 0001:000548EC  263 0001:000548EF  264 0001:0005490D
  266 0001:00054913  267 0001:0005491B  269 0001:00054924  270 0001:00054932
  272 0001:0005493E  274 0001:0005494A  275 0001:00054958  277 0001:00054964
  281 0001:00054970  283 0001:0005497E  285 0001:00054986  289 0001:000549A2
  290 0001:000549B2  292 0001:000549BE  293 0001:000549CC  295 0001:000549EC
  297 0001:00054A05  298 0001:00054A35  299 0001:00054A48  300 0001:00054A5F
  301 0001:00054A6F  303 0001:00054A74  304 0001:00054AAE  305 0001:00054AC1
  306 0001:00054AD8  310 0001:00054AEC  312 0001:00054B03  318 0001:00054B2E
  319 0001:00054B4F  320 0001:00054B62  321 0001:00054B79  324 0001:00054B8B
  326 0001:00054B90  327 0001:00054B96  328 0001:00054B9E  330 0001:00054BA0
  331 0001:00054BA3  334 0001:00054BAF  335 0001:00054BC8  336 0001:00054BDB
  337 0001:00054BF2  342 0001:00054C04  343 0001:00054C27  344 0001:00054C3A
  350 0001:00054C42  356 0001:00054C4E  357 0001:00054C54  358 0001:00054C72
  359 0001:00054C77  363 0001:00054C89  364 0001:00054C92  366 0001:00054C9A
  373 0001:00054CAA  375 0001:00054CC1  377 0001:00054CC4  379 0001:00054CD5
  385 0001:00054CD8  386 0001:00054D0F  387 0001:00054D22  388 0001:00054D39
  390 0001:00054D4B  391 0001:00054D4E  392 0001:00054D51  393 0001:00054D54
  397 0001:00054D57  398 0001:00054D6C  400 0001:00054D71  401 0001:00054DAA
  402 0001:00054DBD  403 0001:00054DD4  398 0001:00054DE6  406 0001:00054DEC
  409 0001:00054DF1  410 0001:00054E21  411 0001:00054E34  412 0001:00054E4B
  406 0001:00054E5D  416 0001:00054E63  414 0001:00054E66  417 0001:00054E69
  418 0001:00054EA7  419 0001:00054EBA  420 0001:00054ED1  416 0001:00054EE3
  424 0001:00054EE9  422 0001:00054EEC  425 0001:00054EEF  426 0001:00054F2D
  427 0001:00054F40  428 0001:00054F57  424 0001:00054F69  431 0001:00054F75
  433 0001:00054F78  435 0001:00054F7B  438 0001:00054F81  442 0001:00054F86
  443 0001:00054F9D  444 0001:00054FB0  449 0001:00054FB8  456 0001:00054FC4
  457 0001:00054FCA  458 0001:00054FE8  459 0001:00054FED  460 0001:00054FF7
  461 0001:00055000  462 0001:00055016  474 0001:00055028  475 0001:0005502B
  479 0001:0005502E  482 0001:00055040  483 0001:00055047  484 0001:00055056
  485 0001:00055098  486 0001:000550AB  487 0001:000550C2  482 0001:000550D4
  491 0001:000550E8  494 0001:000550FD  495 0001:00055109  496 0001:0005511C
  497 0001:00055164  498 0001:00055177  499 0001:0005518E  495 0001:000551A0
  503 0001:000551A9  504 0001:000551CD  506 0001:000551DD  507 0001:00055216
  508 0001:00055229  509 0001:00055240  504 0001:00055252  512 0001:00055258
  514 0001:0005525D  515 0001:00055291  516 0001:000552A4  517 0001:000552BB
  512 0001:000552CD  521 0001:000552E3  520 0001:000552E6  522 0001:000552E9
  523 0001:00055324  524 0001:00055337  525 0001:0005534E  521 0001:00055360
  528 0001:00055376  527 0001:00055381  529 0001:00055387  530 0001:000553C4
  531 0001:000553D7  532 0001:000553EE  528 0001:00055400  535 0001:0005540C
  536 0001:00055412  537 0001:00055418  538 0001:0005541B  539 0001:00055421
  542 0001:00055426  543 0001:0005543D  544 0001:00055450  550 0001:00055458
  555 0001:00055464  557 0001:00055467  560 0001:00055478  561 0001:00055496
  562 0001:0005549B  563 0001:000554A4  567 0001:000554AD  568 0001:000554B7
  571 0001:000554E7  572 0001:000554FA  573 0001:00055511  568 0001:00055523
  575 0001:00055547  578 0001:0005555A  579 0001:00055595  580 0001:000555A8
  581 0001:000555BF  582 0001:000555D1  585 0001:000555ED  587 0001:000555FF
  589 0001:00055609  590 0001:0005564A  591 0001:0005565D  592 0001:00055674
  587 0001:00055686  594 0001:000556AB  597 0001:000556BE  598 0001:000556FA
  599 0001:0005570D  600 0001:00055724  605 0001:00055736  606 0001:0005574D
  607 0001:00055760  613 0001:00055768  618 0001:00055774  620 0001:00055777
  623 0001:00055788  624 0001:000557A6  625 0001:000557AB  626 0001:000557B4
  630 0001:000557BD  632 0001:000557CC  633 0001:000557D9  635 0001:000557E3
  636 0001:00055826  637 0001:00055839  638 0001:00055850  633 0001:00055862
  640 0001:00055885  643 0001:00055898  644 0001:000558D5  645 0001:000558E8
  646 0001:000558FF  651 0001:00055911  652 0001:00055924  655 0001:00055954
  656 0001:00055967  657 0001:0005597E  652 0001:00055990  659 0001:000559B4
  662 0001:000559C7  663 0001:000559F8  664 0001:00055A0B  665 0001:00055A22
  666 0001:00055A34  670 0001:00055A47  678 0001:00055A5D  683 0001:00055A69
  685 0001:00055A6C  688 0001:00055A7D  689 0001:00055A9B  690 0001:00055AA0
  691 0001:00055AAA  696 0001:00055AB2  697 0001:00055ABC  700 0001:00055AEF
  701 0001:00055B02  702 0001:00055B19  697 0001:00055B2B  704 0001:00055B4F
  707 0001:00055B62  708 0001:00055B95  709 0001:00055BA8  710 0001:00055BBF
  711 0001:00055BD1  714 0001:00055BED  717 0001:00055BFF  719 0001:00055C06
  720 0001:00055C43  721 0001:00055C56  722 0001:00055C6D  717 0001:00055C7F
  724 0001:00055CA4  727 0001:00055CB9  728 0001:00055CF4  729 0001:00055D07
  730 0001:00055D1E  737 0001:00055D30  745 0001:00055D4C  750 0001:00055D58
  752 0001:00055D5B  755 0001:00055D6C  756 0001:00055D8A  757 0001:00055D8F
  758 0001:00055D99  762 0001:00055DA1  764 0001:00055DB3  765 0001:00055DC0
  767 0001:00055DC7  768 0001:00055E04  769 0001:00055E17  770 0001:00055E2E
  765 0001:00055E40  772 0001:00055E63  775 0001:00055E79  776 0001:00055EBA
  777 0001:00055ECD  778 0001:00055EE4  782 0001:00055EF6  783 0001:00055F09
  786 0001:00055F3C  787 0001:00055F4F  788 0001:00055F66  783 0001:00055F78
  790 0001:00055F9C  793 0001:00055FAF  794 0001:00055FE0  795 0001:00055FF3
  796 0001:0005600A  797 0001:0005601C  802 0001:0005602F  810 0001:00056048
  815 0001:00056054  816 0001:00056057  819 0001:00056068  820 0001:00056086
  821 0001:0005608B  822 0001:00056094  824 0001:0005609D  830 0001:000560A0
  834 0001:000560AB  835 0001:000560BD  838 0001:000560E5  839 0001:000560F8
  840 0001:0005610F  835 0001:00056121  842 0001:0005614B  845 0001:00056158
  846 0001:00056181  847 0001:00056194  848 0001:000561AB  850 0001:000561BD
  852 0001:000561C4  853 0001:000561F6  854 0001:00056209  855 0001:00056220
  850 0001:00056232  858 0001:00056261  861 0001:0005626E  862 0001:00056297
  863 0001:000562AA  864 0001:000562C1  866 0001:000562D3  869 0001:000562E6
  872 0001:000562F8  874 0001:000562FF  875 0001:00056333  876 0001:00056346
  877 0001:0005635D  872 0001:0005636F  880 0001:00056399  882 0001:000563A6
  883 0001:000563D5  884 0001:000563E8  885 0001:000563FF  890 0001:00056411
  891 0001:00056428  892 0001:0005643B  898 0001:0005646C  903 0001:00056478
  904 0001:0005647B  907 0001:00056489  908 0001:000564A7  909 0001:000564AC
  910 0001:000564B5  912 0001:000564BE  921 0001:000564C9  924 0001:000564DB
  926 0001:000564E2  927 0001:00056516  928 0001:00056529  929 0001:00056540
  924 0001:00056552  931 0001:0005657B  934 0001:00056588  935 0001:000565BB
  936 0001:000565CE  937 0001:000565E5  941 0001:000565F7  942 0001:00056601
  945 0001:00056629  946 0001:0005663C  947 0001:00056653  942 0001:00056665
  950 0001:0005668F  953 0001:0005669C  954 0001:000566C3  955 0001:000566D6
  956 0001:000566ED  959 0001:000566FF  961 0001:00056706  962 0001:00056738
  963 0001:0005674B  964 0001:00056762  959 0001:00056774  966 0001:000567A3
  969 0001:000567B0  970 0001:000567D9  971 0001:000567EC  972 0001:00056803
  974 0001:00056815  981 0001:00056834  989 0001:00056850  994 0001:0005685C
  995 0001:0005685F  996 0001:0005687D  997 0001:00056882  998 0001:0005688C
 1000 0001:00056894 1002 0001:000568A2 1008 0001:000568BC 1012 0001:000568CA
 1015 0001:000568DC 1017 0001:000568E3 1018 0001:0005691D 1019 0001:00056930
 1020 0001:00056947 1015 0001:00056959 1023 0001:00056985 1026 0001:0005699B
 1027 0001:000569D9 1028 0001:000569EC 1029 0001:00056A03 1033 0001:00056A15
 1037 0001:00056A1F 1040 0001:00056A4F 1041 0001:00056A62 1042 0001:00056A79
 1037 0001:00056A8B 1045 0001:00056AB7 1048 0001:00056AC6 1049 0001:00056AED
 1050 0001:00056B00 1051 0001:00056B17 1054 0001:00056B29 1056 0001:00056B30
 1057 0001:00056B5E 1058 0001:00056B71 1059 0001:00056B88 1054 0001:00056B9A
 1062 0001:00056BCB 1065 0001:00056BDA 1066 0001:00056C01 1067 0001:00056C14
 1068 0001:00056C2B 1069 0001:00056C3D 1074 0001:00056C5F 1075 0001:00056C76
 1076 0001:00056C89 1082 0001:00056C91 1087 0001:00056C9D 1088 0001:00056CA0
 1089 0001:00056CBE 1092 0001:00056CC3 1093 0001:00056CCD 1095 0001:00056CD5
 1097 0001:00056CE3 1103 0001:00056CE6 1107 0001:00056CF4 1108 0001:00056D06
 1111 0001:00056D34 1112 0001:00056D47 1113 0001:00056D5E 1108 0001:00056D70
 1116 0001:00056D9C 1119 0001:00056DAB 1120 0001:00056DD2 1121 0001:00056DE5
 1122 0001:00056DFC 1125 0001:00056E0E 1127 0001:00056E15 1128 0001:00056E43
 1129 0001:00056E56 1130 0001:00056E6D 1125 0001:00056E7F 1133 0001:00056EB0
 1136 0001:00056EBF 1137 0001:00056EEE 1138 0001:00056F01 1139 0001:00056F18
 1140 0001:00056F2A 1144 0001:00056F3D 1146 0001:00056F4F 1148 0001:00056F56
 1149 0001:00056F92 1150 0001:00056FA5 1151 0001:00056FBC 1146 0001:00056FCE
 1154 0001:00056FFA 1157 0001:0005700F 1158 0001:0005703E 1159 0001:00057051
 1160 0001:00057068 1165 0001:0005707A 1176 0001:00057096 1184 0001:0005709C
 1187 0001:000570A6 1188 0001:000570A8 1189 0001:000570AC 1190 0001:000570B6
 1191 0001:000570C8 1193 0001:000570CB 1194 0001:000570CE 1195 0001:000570D0
 1197 0001:000570DA 1200 0001:000570DD 1204 0001:000570E6 1206 0001:000570F7
 1207 0001:000570F9 1209 0001:000570FB 1210 0001:00057101 1211 0001:00057105
 1212 0001:0005710C 1213 0001:0005711B 1214 0001:00057124 1215 0001:0005712E
 1216 0001:00057139 1219 0001:0005713B 1220 0001:0005713E 1222 0001:00057140
 1223 0001:00057144 1225 0001:00057175 1227 0001:00057185 1230 0001:000571CC
 1232 0001:000571D3 1234 0001:000571D5 1235 0001:000571E3 1241 0001:000571E8
 1244 0001:000571F8 1250 0001:00057200 1253 0001:0005720D 1239 0001:00057212
 1312 0001:00057222 1313 0001:00057224 1319 0001:00057227 1321 0001:0005722B
 1322 0001:00057246 1324 0001:0005724D 1327 0001:00057255 1329 0001:0005725A
 1330 0001:0005725E 1332 0001:00057262 1333 0001:00057264 1332 0001:0005726C
 1334 0001:00057271 1348 0001:00057273 1362 0001:0005727F 1368 0001:00057291
 1369 0001:00057295 1370 0001:0005729B 1371 0001:0005729F 1372 0001:000572A5
 1373 0001:000572C5 1374 0001:000572C8 1376 0001:000572CA 1377 0001:000572D8
 1379 0001:000572F9 1380 0001:00057314 1381 0001:0005731B 1382 0001:00057322
 1383 0001:00057329 1384 0001:0005733A 1385 0001:0005733C 1386 0001:00057343
 1387 0001:0005734B 1390 0001:00057352 1391 0001:00057359 1393 0001:00057360
 1394 0001:0005737F 1395 0001:00057384 1396 0001:000573A2 1398 0001:000573D6
 1399 0001:000573E1 1400 0001:000573EE 1401 0001:000573F2 1402 0001:000573FC
 1403 0001:00057401 1404 0001:00057404 1406 0001:00057406 1407 0001:00057409
 1408 0001:0005740E 1409 0001:00057411 1410 0001:00057413 1412 0001:0005741A
 1413 0001:00057420 1414 0001:00057425 1416 0001:0005742A 1418 0001:0005742C
 1419 0001:00057431 1420 0001:00057434 1424 0001:00057437 1426 0001:0005745A
 1427 0001:00057460 1428 0001:00057468 1429 0001:0005746E 1431 0001:00057473
 1432 0001:00057475 1433 0001:00057479 1434 0001:00057484 1435 0001:000574B2
 1436 0001:000574B7 1437 0001:000574B9 1439 0001:000574BF 1442 0001:000574C4
 1444 0001:000574C6 1445 0001:000574C8 1446 0001:000574CE 1447 0001:000574D6
 1448 0001:000574DF 1450 0001:000574E3 1451 0001:000574E7 1452 0001:000574ED
 1453 0001:000574F6 1454 0001:000574F9 1456 0001:000574FB 1457 0001:00057503
 1459 0001:0005750C 1462 0001:0005750E 1463 0001:00057510 1464 0001:00057513
 1469 0001:00057515 1471 0001:00057521 1472 0001:00057526 1473 0001:00057534
 1474 0001:00057539 1475 0001:00057540 1476 0001:00057543 1477 0001:00057546
 1478 0001:00057555 1479 0001:00057559 1480 0001:00057568 1481 0001:0005756C
 1482 0001:0005756F 1483 0001:00057577 1485 0001:00057581 1486 0001:000575A3
 1488 0001:000575AA 1490 0001:000575C2 1491 0001:000575C5 1504 0001:000575CA
 1507 0001:000575D3 1508 0001:000575D5 1509 0001:000575DA 1510 0001:000575DE
 1511 0001:000575E2 1512 0001:000575E4 1513 0001:000575E7 1515 0001:000575E9
 1516 0001:000575ED 1517 0001:000575F3 1518 0001:000575FA 1519 0001:00057603
 1520 0001:0005760C 1521 0001:0005760F 1523 0001:00057611 1524 0001:00057619
 1525 0001:00057620 1526 0001:00057629 1527 0001:00057632 1530 0001:00057638
 1534 0001:0005763F 1537 0001:00057647 1538 0001:00057649 1539 0001:0005764E
 1540 0001:00057652 1541 0001:00057656 1542 0001:00057658 1543 0001:0005765B
 1545 0001:0005765D 1546 0001:00057661 1547 0001:00057667 1548 0001:0005766E
 1551 0001:00057677 1553 0001:00057679 1554 0001:00057681 1555 0001:00057688
 1556 0001:00057691 1559 0001:0005769A 1562 0001:0005769E 1564 0001:000576A5
 1565 0001:000576AB 1566 0001:000576C8 1568 0001:000576CA 1569 0001:000576EE
 1575 0001:000576F3 1577 0001:000576FF 1580 0001:00057704 1582 0001:00057712
 1583 0001:00057718 1585 0001:0005771D 1587 0001:00057726 1588 0001:0005772D
 1591 0001:0005775F 1592 0001:00057763 1591 0001:000577A6 1596 0001:000577AE
 1598 0001:000577B4 1597 0001:000577B6 1600 0001:000577B9 1601 0001:000577CD
 1602 0001:000577DA

Line numbers for M:\GAMES\NETADV\PROG\interp\si.cpp(M:\GAMES\NETADV\PROG\interp\si.cpp) segment FOO

   26 0001:000577E4   28 0001:000577ED   29 0001:00057803   35 0001:0005780B
   40 0001:000578CA   41 0001:000578D0   42 0001:000578D6   48 0001:000578DD
   49 0001:000578EA   52 0001:0005790A   53 0001:00057910   54 0001:00057916
   55 0001:0005791A   56 0001:00057940   57 0001:0005794A   58 0001:00057950
   59 0001:00057956   61 0001:0005795A   64 0001:00057A18   65 0001:00057A29
   66 0001:00057A2F   67 0001:00057A36   68 0001:00057A3D   69 0001:00057A43
   70 0001:00057A50   71 0001:00057A57   72 0001:00057A5E   73 0001:00057A65
   74 0001:00057A6C   75 0001:00057A73   76 0001:00057A7A   80 0001:00057A8E
   82 0001:00057B4F   83 0001:00057B60   84 0001:00057B67   85 0001:00057B70
   86 0001:00057B77   87 0001:00057B7D   88 0001:00057B8F   89 0001:00057B96
   90 0001:00057B9D   91 0001:00057BA4   92 0001:00057BAB   93 0001:00057BB2
   94 0001:00057BC7   95 0001:00057BCE   96 0001:00057BD5   98 0001:00057BE5
   99 0001:00057C0E  101 0001:00057C18  103 0001:00057CD6  104 0001:00057CE7
  105 0001:00057CF7  106 0001:00057CFE  107 0001:00057D04  108 0001:00057D11
  109 0001:00057D18  110 0001:00057D22  111 0001:00057D29  112 0001:00057D30
  113 0001:00057D37  114 0001:00057D3E  115 0001:00057D45  119 0001:00057D68
  121 0001:00057E26  137 0001:00057E2E  142 0001:00057EF7  145 0001:00057F05
  146 0001:00057FA8  148 0001:00058054  149 0001:00058106  150 0001:000581B8
  151 0001:0005826A  153 0001:0005831A  154 0001:000583BD  155 0001:00058464
  157 0001:00058517  160 0001:00058521  161 0001:00058527  163 0001:0005854B
  165 0001:0005855A  167 0001:00058567  168 0001:0005856B  171 0001:00058644
  172 0001:00058658  173 0001:00058660  175 0001:0005866E  177 0001:0005867C
  178 0001:00058687  181 0001:0005875B  184 0001:00058797  185 0001:00058845
  187 0001:0005884E  188 0001:0005885D  191 0001:00058863  193 0001:00058919
  195 0001:000589C7  196 0001:00058A72  197 0001:00058A79  200 0001:00058A7E
  201 0001:00058A88  205 0001:00058B45  206 0001:00058BF6  209 0001:00058BF9
  211 0001:00058BFF  213 0001:00058CBE  214 0001:00058D62  215 0001:00058DFF
  216 0001:00058E9D  217 0001:00058F3B  218 0001:00058F42  221 0001:00058F44
  238 0001:00058F4A  239 0001:00058F54  241 0001:00058F5B  243 0001:00058F6E
  245 0001:00058F78  246 0001:00058F90  247 0001:00058F99  254 0001:00058FA5
  260 0001:00058FB4  261 0001:00059063  263 0001:00059113  264 0001:000591BF
  265 0001:0005926A  266 0001:00059318  268 0001:000593C1  269 0001:0005946A
  270 0001:00059512  273 0001:000595BF  277 0001:000595E0  280 0001:000595EA
  281 0001:00059607  283 0001:00059616  285 0001:00059623  286 0001:00059627
  289 0001:000596FF  290 0001:00059713  291 0001:0005971B  293 0001:00059729
  295 0001:00059737  296 0001:00059742  299 0001:00059818  300 0001:00059854
  304 0001:0005986E  305 0001:00059910  308 0001:00059919  309 0001:00059928
  310 0001:0005992E  313 0001:00059948  315 0001:000599F0  316 0001:00059A9A
  317 0001:00059AA1  320 0001:00059AA6  321 0001:00059AB0  325 0001:00059B78
  326 0001:00059C24  329 0001:00059C27  331 0001:00059C2D  333 0001:00059CEB
  334 0001:00059D8C  335 0001:00059E2A  336 0001:00059EC8  337 0001:00059F66
  338 0001:00059F6D  341 0001:00059F6F  358 0001:00059F75  359 0001:00059F7F
  361 0001:00059F86  363 0001:00059F99  364 0001:00059FA2  365 0001:00059FBA
  371 0001:00059FC9  379 0001:00059FD4  380 0001:00059FE1  383 0001:0005A001
  384 0001:0005A007  385 0001:0005A00D  386 0001:0005A015  404 0001:0005A040
  406 0001:0005A04C  409 0001:0005A055  410 0001:0005A075  419 0001:0005A092
  420 0001:0005A09C  431 0001:0005A168  432 0001:0005A17E  433 0001:0005A18F
  437 0001:0005A194  438 0001:0005A19F  439 0001:0005A1C2  440 0001:0005A1DF
  441 0001:0005A20A  449 0001:0005A215  426 0001:0005A237  454 0001:0005A23B
  456 0001:0005A24F  457 0001:0005A267  458 0001:0005A26E  460 0001:0005A28F
  463 0001:0005A2A6  464 0001:0005A2AC  473 0001:0005A2AF  475 0001:0005A2D3
  476 0001:0005A2E9  478 0001:0005A2FF  479 0001:0005A30F  481 0001:0005A324
  483 0001:0005A33A  484 0001:0005A34A  486 0001:0005A35F  488 0001:0005A375
  489 0001:0005A394  491 0001:0005A3B3  492 0001:0005A3C5  496 0001:0005A3D7
  497 0001:0005A3DE  498 0001:0005A3E6  501 0001:0005A3F8  503 0001:0005A41B
  504 0001:0005A442  506 0001:0005A469  508 0001:0005A480  509 0001:0005A4A1
  510 0001:0005A4B3  512 0001:0005A4B6  513 0001:0005A4B9  517 0001:0005A4BF
  518 0001:0005A4C7  519 0001:0005A4CA  520 0001:0005A4CD  521 0001:0005A4D0
  524 0001:0005A4DC  525 0001:0005A4E6  527 0001:0005A4EF  528 0001:0005A4FC
  532 0001:0005A505  533 0001:0005A539  535 0001:0005A579  536 0001:0005A595
  538 0001:0005A610  539 0001:0005A61A  542 0001:0005A62A  543 0001:0005A648
  547 0001:0005A64D  549 0001:0005A659  552 0001:0005A665  562 0001:0005A685
  563 0001:0005A6A1  565 0001:0005A6AE  566 0001:0005A6CD  575 0001:0005A78F
  576 0001:0005A7AF  577 0001:0005A7CF  578 0001:0005A7E7  579 0001:0005A7FF
  583 0001:0005A804  584 0001:0005A81B  585 0001:0005A83B  586 0001:0005A86C
  594 0001:0005A874  572 0001:0005A896  600 0001:0005A89A  603 0001:0005A8AE
  604 0001:0005A8C7  605 0001:0005A8D0  614 0001:0005A8D3  616 0001:0005A8F7
  617 0001:0005A90B  619 0001:0005A921  620 0001:0005A931  622 0001:0005A946
  624 0001:0005A95C  625 0001:0005A96C  627 0001:0005A981  629 0001:0005A997
  630 0001:0005A9B5  632 0001:0005A9D4  633 0001:0005A9E6  637 0001:0005A9F8
  638 0001:0005A9FF  639 0001:0005AA07  640 0001:0005AA12  643 0001:0005AA18
  966 0001:0005AA28  968 0001:0005AA33  973 0001:0005AA44  974 0001:0005AA6A
  977 0001:0005AA6C  978 0001:0005AA8B  981 0001:0005AA8D  982 0001:0005AABF
  985 0001:0005AAC4  989 0001:0005AAFD  970 0001:0005AB26

Line numbers for M:\GAMES\NETADV\PROG\interp\silist.cpp(M:\GAMES\NETADV\PROG\interp\silist.cpp) segment FOO

   11 0001:0005AB38   13 0001:0005AB3C   14 0001:0005AB46   18 0001:0005AB47
   20 0001:0005AB4F   21 0001:0005AB5C   23 0001:0005AB7B   29 0001:0005AB81
   31 0001:0005AB8A   33 0001:0005AB8E   31 0001:0005AB97   32 0001:0005ABA0
   36 0001:0005ABBF   37 0001:0005ABCE   42 0001:0005ABD2   46 0001:0005AC14
   52 0001:0005AC1B   54 0001:0005AC22   55 0001:0005AC2E   56 0001:0005AC48
   57 0001:0005AC54   58 0001:0005AC5A   64 0001:0005AC66   66 0001:0005AC6E
   68 0001:0005AC72   66 0001:0005AC7B   67 0001:0005AC84   70 0001:0005ACA3
   71 0001:0005ACAD   78 0001:0005ACB1   80 0001:0005ACB8   81 0001:0005ACBA
   82 0001:0005ACBC   84 0001:0005ACBE   85 0001:0005ACCE   86 0001:0005ACD4
   87 0001:0005ACD9   88 0001:0005ACDA   90 0001:0005ACDC   91 0001:0005ACE2
   98 0001:0005ACE6  100 0001:0005ACEC  101 0001:0005ACF3  102 0001:0005AD00
  103 0001:0005AD14  105 0001:0005AD19  106 0001:0005AD1E  109 0001:0005AD21
  111 0001:0005AD2B  112 0001:0005AD38  113 0001:0005AD4C  115 0001:0005AD51
  116 0001:0005AD56  121 0001:0005AD59  123 0001:0005AD5D  125 0001:0005AD6F
  128 0001:0005AD74  129 0001:0005AD94  130 0001:0005ADA2  135 0001:0005ADA5
  138 0001:0005ADB1  139 0001:0005ADC5  140 0001:0005ADE2  141 0001:0005ADFF
  142 0001:0005AE06  147 0001:0005AE0B  156 0001:0005AE16  157 0001:0005AE1A
  156 0001:0005AE23  158 0001:0005AE2E  159 0001:0005AE3C  161 0001:0005AE41
  166 0001:0005AE4C  181 0001:0005AE88  182 0001:0005AE8E  183 0001:0005AE95
  185 0001:0005AE98  186 0001:0005AE9F  187 0001:0005AEAD  188 0001:0005AEB4
  189 0001:0005AEBB  191 0001:0005AEBD  194 0001:0005AEC7  197 0001:0005AECF
  200 0001:0005AED7  201 0001:0005AEE6  202 0001:0005AEF7  203 0001:0005AEFC
  205 0001:0005AF03  206 0001:0005AF08  208 0001:0005AF15  209 0001:0005AF17
  210 0001:0005AF1D

Line numbers for M:\GAMES\NETADV\PROG\interp\sound.cpp(M:\GAMES\NETADV\PROG\interp\sound.cpp) segment FOO

   38 0001:0005AF20   40 0001:0005AF28   42 0001:0005AF45   43 0001:0005AF5B
   46 0001:0005AF6B   47 0001:0005AF78   48 0001:0005AF82   53 0001:0005AF92
   55 0001:0005AF98   57 0001:0005AFA0   59 0001:0005AFC0   60 0001:0005AFD6
   63 0001:0005AFE6   64 0001:0005AFF3   70 0001:0005AFFD   74 0001:0005AFFF
   77 0001:0005B027   78 0001:0005B02D   80 0001:0005B034   82 0001:0005B03B
   83 0001:0005B044   90 0001:0005B04F   92 0001:0005B063   94 0001:0005B06F
   95 0001:0005B074   96 0001:0005B078   97 0001:0005B088   98 0001:0005B090
   99 0001:0005B09B   95 0001:0005B0A6  103 0001:0005B0AC  104 0001:0005B0B2
  105 0001:0005B0B6  107 0001:0005B0CA  108 0001:0005B0D5  104 0001:0005B0E0
  113 0001:0005B0E6  114 0001:0005B0EC  133 0001:0005B106  134 0001:0005B110
  136 0001:0005B12A  138 0001:0005B131  141 0001:0005B15E  142 0001:0005B165
  144 0001:0005B16C  147 0001:0005B197  149 0001:0005B19C  152 0001:0005B1A2
  153 0001:0005B1A9  155 0001:0005B1AB  162 0001:0005B1BA  163 0001:0005B1BC
  156 0001:0005B1BE  157 0001:0005B1C5  166 0001:0005B1CB  169 0001:0005B1CD
  172 0001:0005B1DC  175 0001:0005B1DD  178 0001:0005B1EC  179 0001:0005B20E
  181 0001:0005B210  188 0001:0005B214  181 0001:0005B216  182 0001:0005B21C
  184 0001:0005B222  191 0001:0005B22C  193 0001:0005B234  194 0001:0005B240
  196 0001:0005B24B  197 0001:0005B260  199 0001:0005B266  200 0001:0005B26E
  201 0001:0005B279  202 0001:0005B286  203 0001:0005B292  205 0001:0005B29A
  209 0001:0005B2A2  211 0001:0005B2BB  213 0001:0005B2CE  214 0001:0005B2E2
  216 0001:0005B2E5  218 0001:0005B2F9  221 0001:0005B30B  222 0001:0005B326
  223 0001:0005B33A  258 0001:0005B34C  259 0001:0005B351  261 0001:0005B359
  263 0001:0005B362  264 0001:0005B36C  265 0001:0005B37B  268 0001:0005B380
  269 0001:0005B382  271 0001:0005B384  273 0001:0005B38D  274 0001:0005B397
  275 0001:0005B3A6  278 0001:0005B3AE  279 0001:0005B3B0  281 0001:0005B3B2
  284 0001:0005B3B6  286 0001:0005B3C6  287 0001:0005B3CA  288 0001:0005B3D2
  291 0001:0005B3DA  293 0001:0005B3E7  294 0001:0005B3EB  299 0001:0005B3F5
  300 0001:0005B3FA  302 0001:0005B3FD  305 0001:0005B401  307 0001:0005B411
  308 0001:0005B415  309 0001:0005B421  313 0001:0005B429  314 0001:0005B42E
  316 0001:0005B431  319 0001:0005B436  321 0001:0005B446  322 0001:0005B44A
  323 0001:0005B456  326 0001:0005B45F  328 0001:0005B46C  329 0001:0005B470
  334 0001:0005B480  335 0001:0005B485  337 0001:0005B489  340 0001:0005B48E
  342 0001:0005B49E  343 0001:0005B4A2  344 0001:0005B4AE  347 0001:0005B4B7
  349 0001:0005B4C4  350 0001:0005B4C8  355 0001:0005B4D6  356 0001:0005B4DB
  358 0001:0005B4DF  360 0001:0005B4F0  361 0001:0005B4F6  362 0001:0005B50D
  364 0001:0005B512  366 0001:0005B541  368 0001:0005B554  372 0001:0005B563
  373 0001:0005B570  375 0001:0005B599  380 0001:0005B5A4  381 0001:0005B5B0
  382 0001:0005B5BD  383 0001:0005B5D7  384 0001:0005B5DF  386 0001:0005B5E6
  392 0001:0005B5EF  397 0001:0005B5F7  398 0001:0005B604  400 0001:0005B61A
  402 0001:0005B637  403 0001:0005B647  404 0001:0005B64E  406 0001:0005B661
  407 0001:0005B66F  408 0001:0005B672  415 0001:0005B67D  416 0001:0005B67F
  418 0001:0005B684  420 0001:0005B68D  421 0001:0005B69A  422 0001:0005B6AB
  426 0001:0005B6AE  428 0001:0005B6D0  444 0001:0005B6F7  445 0001:0005B6FF
  448 0001:0005B735  451 0001:0005B73A  457 0001:0005B750  463 0001:0005B768
  465 0001:0005B7A8  466 0001:0005B7B3  472 0001:0005B7F2  489 0001:0005B80C
  491 0001:0005B821  492 0001:0005B83D  498 0001:0005B83F  499 0001:0005B850
  478 0001:0005B857  479 0001:0005B85D  480 0001:0005B861  481 0001:0005B865
  482 0001:0005B869  484 0001:0005B870  486 0001:0005B872  505 0001:0005B889
  506 0001:0005B891  507 0001:0005B8A5  508 0001:0005B8D8

Line numbers for M:\GAMES\NETADV\PROG\interp\stampver.cpp(M:\GAMES\NETADV\PROG\interp\stampver.cpp) segment FOO

   43 0001:0005B908   46 0001:0005B909

Line numbers for M:\GAMES\NETADV\PROG\interp\string.cpp(M:\GAMES\NETADV\PROG\interp\string.cpp) segment FOO

   22 0001:0005B914   28 0001:0005B91D   30 0001:0005B92B   31 0001:0005B93E
   32 0001:0005B940   34 0001:0005B943   36 0001:0005B94C   34 0001:0005B950
   41 0001:0005B957   85 0001:0005B990   91 0001:0005B9BA   92 0001:0005BA5F
   98 0001:0005BAF8   99 0001:0005BB04  101 0001:0005BB39  102 0001:0005BB41
  104 0001:0005BB47  105 0001:0005BB86  106 0001:0005BB8B  109 0001:0005BBFB
  110 0001:0005BC18  115 0001:0005BC1D  117 0001:0005BCC2  124 0001:0005BD03
  125 0001:0005BDA2  133 0001:0005BDE5  134 0001:0005BE84  135 0001:0005BF1D
  141 0001:0005BF54  142 0001:0005BFF3  150 0001:0005C031  151 0001:0005C0D0
  152 0001:0005C0D8  154 0001:0005C120  160 0001:0005C146  161 0001:0005C1E1
  162 0001:0005C21A  168 0001:0005C223  169 0001:0005C2BC  179 0001:0005C2FA
  180 0001:0005C389  181 0001:0005C418  182 0001:0005C4AB  183 0001:0005C53E
  184 0001:0005C60D  194 0001:0005C61B  195 0001:0005C6AE  196 0001:0005C741
  197 0001:0005C7D4  198 0001:0005C867  204 0001:0005C935  206 0001:0005C9C8
  207 0001:0005C9CA  208 0001:0005C9FF  209 0001:0005CA0A  211 0001:0005CA13
  212 0001:0005CA1E  213 0001:0005CA2B  214 0001:0005CA2C  216 0001:0005CA2E
  221 0001:0005CA37  224 0001:0005CA3F  233 0001:0005CA4B  234 0001:0005CA5C
  240 0001:0005CA6F  241 0001:0005CA7B  242 0001:0005CAA0  243 0001:0005CC08
  244 0001:0005CC71  247 0001:0005CC7D  248 0001:0005CCA5  250 0001:0005CCC8
  251 0001:0005CCD4  254 0001:0005CCDC  276 0001:0005CCE4  277 0001:0005CCEA
  278 0001:0005CCEC  280 0001:0005CCF0  279 0001:0005CCF1  282 0001:0005CD0C
  285 0001:0005CD16  286 0001:0005CD1C  291 0001:0005CD2D  290 0001:0005CD30
  288 0001:0005CD31  294 0001:0005CD4B  309 0001:0005CD55  310 0001:0005CD5A
  311 0001:0005CD73  313 0001:0005CD76  315 0001:0005CD7F  317 0001:0005CD82
  319 0001:0005CD9B  321 0001:0005CD9E  322 0001:0005CDA6  323 0001:0005CDAB
  326 0001:0005CDB0  329 0001:0005CDCA  333 0001:0005CDCD  337 0001:0005CDE7
  342 0001:0005CDEF  344 0001:0005CDF0  347 0001:0005CE0B  352 0001:0005CE0C
  357 0001:0005CE16  360 0001:0005CE1C  384 0001:0005CE28  385 0001:0005CE2A
  387 0001:0005CE2D  388 0001:0005CE3E  389 0001:0005CE48  392 0001:0005CE4F
  393 0001:0005CE5D  395 0001:0005CE6C  396 0001:0005CE71  397 0001:0005CE83
  398 0001:0005CE90  399 0001:0005CE92  400 0001:0005CE95  401 0001:0005CE97
  403 0001:0005CE9F  404 0001:0005CEA4  408 0001:0005CEA9  429 0001:0005CEB5
  430 0001:0005CEB7  432 0001:0005CEBA  433 0001:0005CECB  434 0001:0005CED5
  437 0001:0005CEDC  438 0001:0005CEEA  440 0001:0005CEF9  441 0001:0005CEFE
  442 0001:0005CF10  443 0001:0005CF1D  444 0001:0005CF1F  445 0001:0005CF22
  451 0001:0005CF24  458 0001:0005CF2B  459 0001:0005CF45  460 0001:0005CF4F
  469 0001:0005CF52  471 0001:0005CF5A  472 0001:0005CF5C  473 0001:0005CF68
  474 0001:0005CF70  475 0001:0005CF72  476 0001:0005CF76  477 0001:0005CF79
  483 0001:0005CF7B  485 0001:0005CF7F  486 0001:0005CF88  488 0001:0005CF8D
  489 0001:0005CF93  490 0001:0005CFA3  493 0001:0005CFA8  550 0001:0005CFAB
  552 0001:0005CFAF  553 0001:0005CFBD  554 0001:0005CFC0  555 0001:0005CFDF
  557 0001:0005CFEA  558 0001:0005CFEC  563 0001:0005CFED  580 0001:0005CFF6
  581 0001:0005D000  582 0001:0005D00B  585 0001:0005D017  587 0001:0005D01C
  591 0001:0005D01F  592 0001:0005D02A  594 0001:0005D032  597 0001:0005D035
  598 0001:0005D04C  601 0001:0005D050  603 0001:0005D062  604 0001:0005D063
  605 0001:0005D077  607 0001:0005D07C  608 0001:0005D08B  612 0001:0005D08D
  613 0001:0005D092  615 0001:0005D093  617 0001:0005D0A5  618 0001:0005D0A6
  619 0001:0005D0BA  621 0001:0005D0BF  622 0001:0005D0CE  627 0001:0005D0CF
  628 0001:0005D0E3  631 0001:0005D0E4  633 0001:0005D102  634 0001:0005D10B
  637 0001:0005D2A5  638 0001:0005D2B3  641 0001:0005D2B4  650 0001:0005D2BD
  657 0001:0005D2C7

Line numbers for M:\GAMES\NETADV\PROG\interp\table.cpp(M:\GAMES\NETADV\PROG\interp\table.cpp) segment FOO

    1 0001:0005D2D4  241 0001:0005D30C  247 0001:0005D33A  248 0001:0005D34A
  249 0001:0005D354  250 0001:0005D37D  254 0001:0005D385  256 0001:0005D38F
  259 0001:0005D397  260 0001:0005D3EE  263 0001:0005D40F  265 0001:0005D554
  266 0001:0005D56A  267 0001:0005D583  268 0001:0005D588  269 0001:0005D599
  276 0001:0005D59E  278 0001:0005D5AC  281 0001:0005D5B4  282 0001:0005D60B
  285 0001:0005D62D  287 0001:0005D764  288 0001:0005D77A  289 0001:0005D78E
  290 0001:0005D794  291 0001:0005D7A1  298 0001:0005D7A6  299 0001:0005D7AE
  301 0001:0005D7BC  304 0001:0005D7C4  305 0001:0005D819  308 0001:0005D83B
  310 0001:0005D96F  311 0001:0005D985  312 0001:0005D996  313 0001:0005D99F
  320 0001:0005D9A4  321 0001:0005D9AC  322 0001:0005D9BA  323 0001:0005D9BE
  324 0001:0005D9D4  325 0001:0005D9E9  333 0001:0005D9ED  335 0001:0005D9F5
  336 0001:0005DA03  337 0001:0005DA17  338 0001:0005DA28  339 0001:0005DA2E
  347 0001:0005DA30  348 0001:0005DA32  350 0001:0005DA36  352 0001:0005DA38
  353 0001:0005DA51  354 0001:0005DA55  356 0001:0005DA6B  357 0001:0005DA8D
  358 0001:0005DAA3  359 0001:0005DAA4  364 0001:0005DAA6  365 0001:0005DAA7
  371 0001:0005DAA9  372 0001:0005DAB2  374 0001:0005DAC5  376 0001:0005DAC9
  377 0001:0005DAE2  378 0001:0005DAE6  380 0001:0005DB03  381 0001:0005DB16
  384 0001:0005DB1B  385 0001:0005DB1C  386 0001:0005DB1D  391 0001:0005DB1F
  392 0001:0005DB20  243 0001:0005DB24  230 0001:0005DB3C  232 0001:0005DB43
  221 0001:0005DB54  223 0001:0005DB64

Line numbers for M:\GAMES\NETADV\PROG\interp\textid.cpp(M:\GAMES\NETADV\PROG\interp\textid.cpp) segment FOO

   11 0001:0005DB68   13 0001:0005DB71   15 0001:0005DB72   17 0001:0005DB80
   19 0001:0005DB83   21 0001:0005DB8E   24 0001:0005DB8F   26 0001:0005DB97
   27 0001:0005DBA4   28 0001:0005DBAA   30 0001:0005DBCC   31 0001:0005DBD6
   34 0001:0005DC00   37 0001:0005DC06   41 0001:0005DC0C   42 0001:0005DC1C
   43 0001:0005DC2C   46 0001:0005DC30   50 0001:0005DC37   51 0001:0005DC4D
   52 0001:0005DC77   55 0001:0005DC7A   59 0001:0005DC86   60 0001:0005DCB6
   61 0001:0005DCF6   64 0001:0005DCFB   70 0001:0005DD05   71 0001:0005DD0B
   72 0001:0005DD22   74 0001:0005DD27   75 0001:0005DD3A   78 0001:0005DD40
   82 0001:0005DD47   83 0001:0005DD4F   84 0001:0005DD73   85 0001:0005DD8E
   86 0001:0005DD91   87 0001:0005DDBF   90 0001:0005DDC2   92 0001:0005DDC5
   93 0001:0005DDD1   96 0001:0005DDD3  100 0001:0005DDDA  101 0001:0005DDE2
  102 0001:0005DE0D

Line numbers for M:\GAMES\NETADV\PROG\interp\time.cpp(M:\GAMES\NETADV\PROG\interp\time.cpp) segment FOO

   16 0001:0005DE10   30 0001:0005DE42   31 0001:0005DE45   32 0001:0005DE49
   33 0001:0005DE4E   34 0001:0005DE53   35 0001:0005DE56   38 0001:0005DE63
   44 0001:0005DE65   47 0001:0005DE79   52 0001:0005DE7B   58 0001:0005DE92
   59 0001:0005DE94   25 0001:0005DE96   63 0001:0005DE9D   66 0001:0005DEA3
   70 0001:0005DEA9   71 0001:0005DEB1   73 0001:0005DEC7   74 0001:0005DEDA
   77 0001:0005DEDC   83 0001:0005DEE0   85 0001:0005DEE7   86 0001:0005DEEB
   89 0001:0005DF05   90 0001:0005DF20   91 0001:0005DF33

Line numbers for M:\GAMES\NETADV\PROG\interp\timew.cpp(M:\GAMES\NETADV\PROG\interp\timew.cpp) segment FOO

   18 0001:0005DF38   20 0001:0005DF45   24 0001:0005DF4C   26 0001:0005DF56
   30 0001:0005DF7B   33 0001:0005DF94   35 0001:0005DF98   36 0001:0005DFAE
   39 0001:0005DFBA   41 0001:0005DFBB   42 0001:0005DFCE   45 0001:0005DFD0
   47 0001:0005DFD3   48 0001:0005DFDA   51 0001:0005DFDC   53 0001:0005DFE4
   55 0001:0005DFF7   58 0001:0005E000   59 0001:0005E00A   61 0001:0005E01F
   63 0001:0005E029   66 0001:0005E02D   68 0001:0005E031   70 0001:0005E03D
   73 0001:0005E046   74 0001:0005E04F   75 0001:0005E05D   77 0001:0005E065
    1 0001:0005E068

Line numbers for M:\GAMES\NETADV\PROG\interp\vocab.cpp(M:\GAMES\NETADV\PROG\interp\vocab.cpp) segment FOO

    9 0001:0005E06C   12 0001:0005E077   13 0001:0005E094   17 0001:0005E0A1
   18 0001:0005E0AB   21 0001:0005E0AF   22 0001:0005E0B6   25 0001:0005E0B8
   29 0001:0005E0BB   26 0001:0005E0BD   30 0001:0005E0C2   29 0001:0005E0C8
   31 0001:0005E0CD   34 0001:0005E0D0   35 0001:0005E0D2

Line numbers for M:\GAMES\NETADV\PROG\interp\windll.cpp(M:\GAMES\NETADV\PROG\interp\windll.cpp) segment FOO

   15 0001:0005E0DC

Line numbers for M:\GAMES\NETADV\PROG\interp\window.cpp(M:\GAMES\NETADV\PROG\interp\window.cpp) segment FOO

   20 0001:0005E0E0   30 0001:0005E0EB   31 0001:0005E10F   36 0001:0005E171
   38 0001:0005E178   39 0001:0005E180   40 0001:0005E19C   41 0001:0005E1BE
   44 0001:0005E1C1   61 0001:0005E2B6   62 0001:0005E2BC   65 0001:0005E2D6
   66 0001:0005E2E6   69 0001:0005E2F6   72 0001:0005E382   73 0001:0005E38A
   76 0001:0005E392   78 0001:0005E3A3   79 0001:0005E3AA   80 0001:0005E3B1
   82 0001:0005E3B8   83 0001:0005E3D0   86 0001:0005E3E3   89 0001:0005E3F0
   96 0001:0005E403   97 0001:0005E45B   98 0001:0005E4C9  100 0001:0005E4D3
  101 0001:0005E4DA  102 0001:0005E4E1  103 0001:0005E4EC  107 0001:0005E4F8
  108 0001:0005E504  109 0001:0005E50F  110 0001:0005E519  111 0001:0005E525
  112 0001:0005E536  114 0001:0005E55E  115 0001:0005E58A  116 0001:0005E5B4
  117 0001:0005E603  120 0001:0005E620  121 0001:0005E62F  122 0001:0005E63C
  123 0001:0005E649  125 0001:0005E656  128 0001:0005E663  144 0001:0005E6E7
  145 0001:0005E6FA  148 0001:0005E701  161 0001:0005E7F6  164 0001:0005E806
  167 0001:0005E892  168 0001:0005E89A  170 0001:0005E8A2  171 0001:0005E8A9
  172 0001:0005E8B0  175 0001:0005E8B7  176 0001:0005E8CF  177 0001:0005E8E2
  178 0001:0005E922  179 0001:0005E97F  180 0001:0005E989  181 0001:0005E990
  182 0001:0005E997  183 0001:0005E9A2  186 0001:0005E9AE  187 0001:0005E9BA
  188 0001:0005E9C5  189 0001:0005E9CF  190 0001:0005E9F5  192 0001:0005EA06
  193 0001:0005EA2F  194 0001:0005EA84  195 0001:0005EAD3  198 0001:0005EAED
  201 0001:0005EAFA  204 0001:0005EB06  211 0001:0005EB19  223 0001:0005EB7A
  224 0001:0005EB7E  226 0001:0005EB83  228 0001:0005EBB5  229 0001:0005EBC8
  230 0001:0005EBE3  231 0001:0005EBFE  232 0001:0005EC19  233 0001:0005EC36
  234 0001:0005EC54  235 0001:0005EC71  236 0001:0005EC7C  240 0001:0005EC92
  242 0001:0005EC9D  243 0001:0005ECA8  244 0001:0005ECAF  245 0001:0005ECD2
  246 0001:0005ECE7  247 0001:0005ECF1  248 0001:0005ECF7  250 0001:0005ED50
  252 0001:0005ED70  254 0001:0005ED85  257 0001:0005ED8C  260 0001:0005ED92
  261 0001:0005ED98  262 0001:0005EDAE  263 0001:0005EDB5  264 0001:0005EDBF
  265 0001:0005EDCA  266 0001:0005EDD6  267 0001:0005EDDF  270 0001:0005EDEA
  273 0001:0005EDED  276 0001:0005EDF4  277 0001:0005EDFC  278 0001:0005EE14
  279 0001:0005EE1B  280 0001:0005EE21  281 0001:0005EE2C  282 0001:0005EE36
  285 0001:0005EE41  288 0001:0005EE45  291 0001:0005EE4A  292 0001:0005EE50
  293 0001:0005EE68  294 0001:0005EE6F  295 0001:0005EE76  296 0001:0005EE7C
  297 0001:0005EE86  300 0001:0005EE91  303 0001:0005EE93  306 0001:0005EE98
  307 0001:0005EEA0  308 0001:0005EEB6  309 0001:0005EEBC  310 0001:0005EEC3
  311 0001:0005EECF  312 0001:0005EED8  315 0001:0005EEE3  318 0001:0005EEE5
  321 0001:0005EEF1  322 0001:0005EEFD  323 0001:0005EF12  324 0001:0005EF2A
  325 0001:0005EF42  326 0001:0005EF5A  327 0001:0005EF60  328 0001:0005EF67
  329 0001:0005EF78  330 0001:0005EF81  331 0001:0005EF8C  332 0001:0005EF92
  334 0001:0005EFD4  335 0001:0005EFEA  336 0001:0005EFF4  337 0001:0005F014
  338 0001:0005F015  339 0001:0005F026  340 0001:0005F037  341 0001:0005F053
  342 0001:0005F05D  348 0001:0005F075  351 0001:0005F081  352 0001:0005F08D
  353 0001:0005F0A2  354 0001:0005F0BA  355 0001:0005F0D2  356 0001:0005F0EA
  357 0001:0005F0ED  358 0001:0005F0F4  359 0001:0005F0FE  360 0001:0005F107
  361 0001:0005F112  362 0001:0005F134  363 0001:0005F13F  365 0001:0005F17F
  366 0001:0005F195  367 0001:0005F1A6  368 0001:0005F1B7  369 0001:0005F1C5
  373 0001:0005F1E9  375 0001:0005F1EB  380 0001:0005F207  387 0001:0005F20C
  390 0001:0005F214  392 0001:0005F219  393 0001:0005F242  394 0001:0005F26D
  395 0001:0005F271  396 0001:0005F273  398 0001:0005F275  399 0001:0005F27B
  401 0001:0005F27D  402 0001:0005F2A6  403 0001:0005F2AD  404 0001:0005F2AF
  406 0001:0005F2B1  407 0001:0005F2B7  408 0001:0005F2B9  409 0001:0005F2E4
  412 0001:0005F2EB  413 0001:0005F2F1  415 0001:0005F2F3  418 0001:0005F2FA
  421 0001:0005F302  423 0001:0005F307  424 0001:0005F330  425 0001:0005F35B
  426 0001:0005F363  427 0001:0005F365  429 0001:0005F367  430 0001:0005F36D
  432 0001:0005F36F  433 0001:0005F398  434 0001:0005F3A3  435 0001:0005F3A5
  437 0001:0005F3A7  438 0001:0005F3AD  440 0001:0005F3AF  443 0001:0005F3B6
  445 0001:0005F3C2  446 0001:0005F3DA  447 0001:0005F3F2  450 0001:0005F40A
  451 0001:0005F415  453 0001:0005F454  455 0001:0005F46A  456 0001:0005F47B
  457 0001:0005F48C  458 0001:0005F49D  459 0001:0005F4AF  461 0001:0005F4BA
  462 0001:0005F4C4  464 0001:0005F4CF  468 0001:0005F4D4  470 0001:0005F4E0
  471 0001:0005F4EA  472 0001:0005F4F1  473 0001:0005F50A  474 0001:0005F538
  475 0001:0005F53B  479 0001:0005F540  481 0001:0005F549  482 0001:0005F568
  483 0001:0005F57B  484 0001:0005F581  485 0001:0005F594  487 0001:0005F5A7
  490 0001:0005F5AC  492 0001:0005F5BB  494 0001:0005F5DB  496 0001:0005F5F4
  499 0001:0005F651  508 0001:0005F677  512 0001:0005F6CF  513 0001:0005F6EB
  514 0001:0005F705  517 0001:0005F721  521 0001:0005F72E  522 0001:0005F743
  523 0001:0005F75B  524 0001:0005F773  525 0001:0005F78B  526 0001:0005F792
  527 0001:0005F7A6  528 0001:0005F7AD  529 0001:0005F7B7  530 0001:0005F7C0
  531 0001:0005F7CB  532 0001:0005F7D1  534 0001:0005F813  536 0001:0005F829
  537 0001:0005F83B  538 0001:0005F84C  539 0001:0005F85D  546 0001:0005F88A
  549 0001:0005F88F  551 0001:0005F89E  552 0001:0005F8A5  554 0001:0005F8B2
  555 0001:0005F8DE  558 0001:0005F8FB  560 0001:0005F908  561 0001:0005F91D
  565 0001:0005F935  566 0001:0005F93C  567 0001:0005F947  569 0001:0005F94D
  571 0001:0005F954  572 0001:0005F95B  574 0001:0005F95E  575 0001:0005F967
  577 0001:0005F972  578 0001:0005F97A  581 0001:0005F9B9  582 0001:0005F9CF
  584 0001:0005F9E6  585 0001:0005F9F8  588 0001:0005FA24  589 0001:0005FA39
  591 0001:0005FA4E  592 0001:0005FA62  593 0001:0005FA72  594 0001:0005FA7E
  595 0001:0005FA90  596 0001:0005FAA1  598 0001:0005FAAC  599 0001:0005FABF
  604 0001:0005FAF8  607 0001:0005FB04  608 0001:0005FB16  609 0001:0005FB22
  612 0001:0005FB2E  613 0001:0005FB36  615 0001:0005FB48  616 0001:0005FB60
  617 0001:0005FB85  618 0001:0005FB87  621 0001:0005FB94  622 0001:0005FBAE
  623 0001:0005FBD3  624 0001:0005FBD5  627 0001:0005FBE2  628 0001:0005FBFC
  629 0001:0005FC22  630 0001:0005FC24  633 0001:0005FC31  634 0001:0005FC4B
  635 0001:0005FC71  636 0001:0005FC73  639 0001:0005FC80  640 0001:0005FC8F
  641 0001:0005FC9F  642 0001:0005FCAE  645 0001:0005FCC0  646 0001:0005FCC6
  647 0001:0005FCCC  648 0001:0005FCD2  651 0001:0005FCE1  652 0001:0005FCF3
  655 0001:0005FD1E  657 0001:0005FD45  658 0001:0005FD5B  659 0001:0005FD6D
  665 0001:0005FD98  666 0001:0005FDA4  669 0001:0005FDB2  672 0001:0005FDBD
  677 0001:0005FDCC  675 0001:0005FDD6  679 0001:0005FDF4  680 0001:0005FE02
  681 0001:0005FE0A  682 0001:0005FE27  684 0001:0005FE30  685 0001:0005FE45
  686 0001:0005FE52  687 0001:0005FE5F  689 0001:0005FE6C  690 0001:0005FE79
  691 0001:0005FE89  692 0001:0005FE96  693 0001:0005FEA6  696 0001:0005FEAB
  697 0001:0005FEB7  698 0001:0005FEC3  699 0001:0005FECC  700 0001:0005FED7
  702 0001:0005FEDC  703 0001:0005FEE8  704 0001:0005FEF4  705 0001:0005FF00
  707 0001:0005FF0C  709 0001:0005FF38  711 0001:0005FF3F  712 0001:0005FF46
  713 0001:0005FF51  716 0001:0005FF55  718 0001:0005FF57  720 0001:0005FF5D
  721 0001:0005FF65  722 0001:0005FF85  725 0001:0005FF8A  727 0001:0005FFB8
  728 0001:0005FFBF  729 0001:0005FFCF  734 0001:0005FFF1  754 0001:00060021
  755 0001:0006002E  756 0001:00060033  758 0001:00060035  762 0001:00060041
  766 0001:0006004D  770 0001:00060059  774 0001:00060065  752 0001:00060071
  787 0001:000600B1  789 0001:000600C0  791 0001:000600FB  792 0001:0006010B
  793 0001:00060127  794 0001:0006014B  799 0001:00060180  800 0001:0006018B
  801 0001:0006019D  802 0001:000601C2  804 0001:000601D6  805 0001:000601E4
  806 0001:000601F8  807 0001:0006020B  808 0001:00060239  810 0001:00060247
  811 0001:00060256  812 0001:00060274  821 0001:0006028B  822 0001:00060296
  823 0001:000602A8  824 0001:000602C9  826 0001:000602DD  829 0001:000602F9
  830 0001:0006030A  832 0001:00060318  833 0001:00060327  834 0001:00060345
  836 0001:00060357  845 0001:0006035C  847 0001:00060368  848 0001:00060372
  849 0001:00060379  850 0001:0006038C  851 0001:00060393  852 0001:0006039A
  856 0001:000603CB  858 0001:000603D6  859 0001:000603E0  860 0001:000603FF
  861 0001:00060420  862 0001:00060426  863 0001:00060439  866 0001:0006046A
  869 0001:00060471  871 0001:00060478  872 0001:00060494  873 0001:000604B2
  875 0001:000604BF  878 0001:000604C2  880 0001:000604CD  882 0001:000604D3
  883 0001:000604D9  888 0001:000604FA  889 0001:00060516  890 0001:0006052C
  891 0001:00060535  897 0001:00060568  909 0001:000605DB  910 0001:000605E5
  911 0001:000605EF  913 0001:00060621  914 0001:00060628  918 0001:00060659
  915 0001:00060665  916 0001:00060688  917 0001:000606A0  913 0001:000606B7
  919 0001:000606C4  921 0001:000606C9  923 0001:000606FB  924 0001:0006070E
  925 0001:00060748  926 0001:0006076A  929 0001:0006078D  931 0001:0006079C
  932 0001:000607AA  933 0001:000607B1  934 0001:000607B6  936 0001:00060808
  937 0001:00060813  939 0001:00060828  940 0001:0006082B  942 0001:00060862
  946 0001:00060893  947 0001:0006089F  950 0001:000608B9  951 0001:000608E0
  952 0001:00060901  953 0001:00060922  956 0001:00060942  957 0001:00060983
  959 0001:00060996  960 0001:0006099C  962 0001:000609D8  963 0001:000609E1
  965 0001:000609F6  966 0001:00060A1F  969 0001:00060A27  972 0001:00060A36
  973 0001:00060A43  976 0001:00060A6E  977 0001:00060A7A  979 0001:00060AC1
  980 0001:00060AFD  982 0001:00060B15  983 0001:00060B3B  984 0001:00060B5C
  985 0001:00060B7D  981 0001:00060B95  987 0001:00060BA4  988 0001:00060BD2
  989 0001:00060BF7 1002 0001:00060BFB  989 0001:00060C2D  991 0001:00060C3A
  993 0001:00060C4C  994 0001:00060C55  996 0001:00060C82  997 0001:00060C8B
  999 0001:00060CBB 1000 0001:00060CC8 1004 0001:00060CFD 1007 0001:00060D12
 1010 0001:00060D17 1012 0001:00060D20 1013 0001:00060D2D 1014 0001:00060D6E
 1015 0001:00060D78 1016 0001:00060D8E 1019 0001:00060D93 1021 0001:00060D9C
 1022 0001:00060DA2 1027 0001:00060DAE 1029 0001:00060DD2 1030 0001:00060DF9
 1031 0001:00060E05 1032 0001:00060E14 1034 0001:00060E27 1035 0001:00060E43
 1037 0001:00060E6D 1038 0001:00060E7E 1041 0001:00060EA5 1043 0001:00060EC8
 1045 0001:00060EDC 1046 0001:00060EF1 1048 0001:00060EF6 1052 0001:00060F04
 1054 0001:00060F0F 1055 0001:00060F37 1056 0001:00060F46 1059 0001:00060F4A
 1060 0001:00060F5E 1056 0001:00060F64 1057 0001:00060F6D 1062 0001:00060F94
 1063 0001:00060FBB 1064 0001:00060FD0 1067 0001:00060FD5 1069 0001:00060FDE
 1070 0001:00060FE4 1072 0001:00060FF8 1073 0001:00061000 1075 0001:00061014
 1076 0001:0006102B 1077 0001:00061040 1078 0001:00061046 1079 0001:00061050
 1080 0001:0006105C 1082 0001:00061067 1085 0001:0006106C 1087 0001:00061071
 1088 0001:00061077 1089 0001:0006108C 1090 0001:0006108E 1093 0001:00061090
 1096 0001:0006109F 1097 0001:000610AC 1100 0001:000610D7 1101 0001:000610E5
 1102 0001:000610F1 1103 0001:000610F8 1104 0001:0006112E 1105 0001:00061151
 1106 0001:00061172 1102 0001:0006118D 1108 0001:0006119E 1109 0001:000611A7
 1110 0001:000611AC 1111 0001:000611E3 1112 0001:000611EA 1113 0001:00061222
 1114 0001:00061245 1115 0001:00061266 1111 0001:00061282 1120 0001:0006128D
 1121 0001:00061299 1124 0001:000612B3 1125 0001:000612D4 1126 0001:000612EA
 1127 0001:00061300 1129 0001:00061317 1130 0001:00061339 1131 0001:0006133E
 1133 0001:00061345 1134 0001:00061356 1135 0001:0006136B 1136 0001:00061371
 1137 0001:000613A1 1138 0001:000613A7 1139 0001:000613D7 1140 0001:000613DD
 1144 0001:00061472 1145 0001:00061487 1147 0001:000614AE 1148 0001:000614BC
 1151 0001:000614C1 1154 0001:000614D0 1155 0001:000614DD 1158 0001:00061508
 1160 0001:00061510 1162 0001:0006154D 1163 0001:00061559 1164 0001:00061573
 1166 0001:00061594 1167 0001:000615AA 1168 0001:000615C0 1169 0001:000615D7
 1170 0001:000615FA 1171 0001:000615FF 1173 0001:00061606 1174 0001:00061617
 1175 0001:0006162C 1176 0001:00061632 1177 0001:00061662 1178 0001:00061668
 1179 0001:00061698 1180 0001:0006169E 1183 0001:00061733 1184 0001:00061739
 1185 0001:0006173F 1186 0001:00061754 1192 0001:00061775 1194 0001:0006177B
 1195 0001:00061786 1197 0001:000617AC 1198 0001:000617BA 1201 0001:000617BF
 1203 0001:000617C9 1204 0001:000617D6 1205 0001:00061804 1207 0001:0006180B
 1208 0001:00061810 1218 0001:00061815 1231 0001:00061824 1232 0001:0006183A
 1233 0001:00061846 1234 0001:00061852 1236 0001:0006185E 1237 0001:00061862
 1239 0001:00061868 1240 0001:00061878 1241 0001:0006187C 1245 0001:00061889
 1247 0001:000618A0 1248 0001:000618C1 1251 0001:000618DE 1252 0001:00061905
 1253 0001:0006190A 1254 0001:00061927 1256 0001:0006195E 1257 0001:00061976
 1259 0001:0006199D 1260 0001:000619A4 1262 0001:000619A8 1263 0001:000619B3
 1264 0001:000619B7 1265 0001:000619C3 1266 0001:000619C7 1269 0001:000619CD
 1273 0001:000619E9 1276 0001:00061A2A 1278 0001:00061A31 1299 0001:00061B0B
 1300 0001:00061B2E 1302 0001:00061B51 1305 0001:00061B5B 1306 0001:00061B64
 1307 0001:00061B68 1308 0001:00061B6A 1309 0001:00061B7C 1310 0001:00061B7E
 1314 0001:00061B83 1316 0001:00061B8E 1317 0001:00061B97 1319 0001:00061B9E
 1321 0001:00061BAA 1322 0001:00061BC2 1325 0001:00061BD7 1331 0001:00061BEF
 1332 0001:00061C00 1333 0001:00061C0B 1335 0001:00061C16 1338 0001:00061C21
 1340 0001:00061C30 1343 0001:00061C80 1348 0001:00061C8F 1349 0001:00061C95
 1351 0001:00061CA0 1355 0001:00061CA4 1356 0001:00061CAC 1357 0001:00061CC0
 1358 0001:00061CCC 1359 0001:00061CEB 1362 0001:00061CF4 1363 0001:00061DDC
 1364 0001:00061EC1 1365 0001:00061FA3 1373 0001:00062085 1382 0001:000625D5
 1386 0001:000625E0 1388 0001:000625E8 1389 0001:00062604 1403 0001:00062653
 1404 0001:0006269A 1407 0001:000626BC 1408 0001:000626C4 1409 0001:000626DE
 1410 0001:000626E3 1412 0001:00062727 1417 0001:00062754 1418 0001:0006275C
 1419 0001:00062771 1420 0001:00062787 1423 0001:0006278C 1424 0001:00062794
 1425 0001:000627A9 1429 0001:000627C2 1430 0001:000627CA 1431 0001:000627DE
 1435 0001:000627F7 1436 0001:000627FF 1437 0001:00062814 1441 0001:00062830
 1442 0001:00062838 1443 0001:0006284D 1447 0001:00062869 1448 0001:00062871
 1449 0001:00062886 1453 0001:000628A2 1454 0001:000628AA 1455 0001:000628BE
 1459 0001:000628DA 1460 0001:000628E2 1461 0001:000628F6 1463 0001:00062902
 1464 0001:000629E3 1465 0001:00062AC2 1466 0001:00062BA1 1474 0001:00062C80
 1475 0001:00062CA1 1478 0001:00062CA6 1479 0001:00062CAE 1480 0001:00062CC1
 1484 0001:00062CE1 1485 0001:00062CE9 1486 0001:00062CFD 1490 0001:00062D1F
 1491 0001:00062D27 1492 0001:00062D3B 1496 0001:00062D8E 1497 0001:00062D96
 1498 0001:00062DAA 1502 0001:00062DD6 1503 0001:00062DDE 1504 0001:00062E43
 1505 0001:00062E48 1507 0001:00062E89 1511 0001:00062E9F 1512 0001:00062EA7
 1513 0001:00062EBB 1517 0001:00062ED7 1518 0001:00062EDF 1519 0001:00062EF2
 1523 0001:00062F0E 1524 0001:00062F16 1525 0001:00062F2A 1526 0001:00062F44
 1530 0001:00062F52 1531 0001:00062F5A 1532 0001:00062F6E 1537 0001:00062F8D
 1538 0001:00062F95 1539 0001:00062FA9 1543 0001:00062FCD 1547 0001:00062FE9
 1557 0001:00062FFF 1563 0001:00063008 1571 0001:00063044 1576 0001:00063050
 1579 0001:0006305F 1580 0001:00063065 1583 0001:0006308A 1585 0001:000630C1
 1587 0001:000630D1 1588 0001:000630DB 1589 0001:000630E5 1591 0001:000630E9
 1598 0001:00063103 1599 0001:00063119 1603 0001:0006313B 1604 0001:00063154
 1606 0001:00063166 1607 0001:00063197 1608 0001:0006319D 1609 0001:000631B5
 1611 0001:0006320A 1612 0001:0006321D 1615 0001:00063260 1617 0001:0006327B
 1625 0001:000632A1 1626 0001:000632AF 1628 0001:000632F2 1633 0001:00063304
 1634 0001:0006330F 1635 0001:00063321 1636 0001:00063344 1638 0001:00063358
 1639 0001:00063364 1640 0001:0006336F 1641 0001:0006337F 1642 0001:000633C2
 1644 0001:000633CE 1645 0001:000633EC 1650 0001:00063403 1651 0001:00063413
 1652 0001:00063429 1656 0001:00063461 1663 0001:0006346D 1665 0001:0006347C
 1667 0001:0006348F 1668 0001:000634A5 1672 0001:000634CB 1673 0001:000634E4
 1675 0001:000634F6 1676 0001:00063527 1677 0001:0006352D 1678 0001:00063542
 1680 0001:000635A3 1681 0001:000635B6 1684 0001:000635E7 1686 0001:00063602
 1694 0001:00063628 1695 0001:00063636 1697 0001:00063679 1702 0001:0006368B
 1703 0001:00063696 1704 0001:000636A8 1705 0001:000636CB 1707 0001:000636DF
 1708 0001:000636EB 1709 0001:000636F6 1710 0001:00063706 1711 0001:00063749
 1713 0001:00063755 1714 0001:00063773 1719 0001:0006378A 1720 0001:0006379A
 1721 0001:000637B0    1 0001:000638DC

Line numbers for M:\GAMES\NETADV\PROG\interp\winfuncs.cpp(M:\GAMES\NETADV\PROG\interp\winfuncs.cpp) segment FOO

   39 0001:000639C0   46 0001:000639CC   52 0001:00063A1E   53 0001:00063A22
   56 0001:00063A24   57 0001:00063A26   64 0001:00063A28   65 0001:00063A2F
   66 0001:00063A36   67 0001:00063A3D   68 0001:00063A44   69 0001:00063A4B
   72 0001:00063A52   73 0001:00063A57   74 0001:00063A5A   81 0001:00063A5C
   82 0001:00063A5E   49 0001:00063A60   85 0001:00063A6A   86 0001:00063A6E
   87 0001:00063A7F  135 0001:00063A87  138 0001:00063A91  142 0001:00063B0B


Line numbers for M:\GAMES\NETADV\PROG\interp\mousew.cpp(M:\GAMES\NETADV\PROG\interp\mousew.cpp) segment FOO

    1 0001:00063B14   38 0001:00063B4C   41 0001:00063B5D   43 0001:00063B68
   46 0001:00063B70   49 0001:00063B7E   50 0001:00063B81   51 0001:00063B84
   52 0001:00063B91   55 0001:00063B9A   57 0001:00063BBF   60 0001:00063BD8
   63 0001:00063BDC   65 0001:00063BEB   69 0001:00063BF1   72 0001:00063BF9
   76 0001:00063C03   77 0001:00063C12   79 0001:00063C14   81 0001:00063C20
   85 0001:00063C2A   91 0001:00063C30   93 0001:00063C3C  100 0001:00063C47
  102 0001:00063C77  104 0001:00063C7E  108 0001:00063C80  109 0001:00063C8D
  110 0001:00063C97  111 0001:00063CB6  119 0001:00063CBF  120 0001:00063CCC
  121 0001:00063CD2  122 0001:00063CF1  127 0001:00063CF9  128 0001:00063D04
  129 0001:00063D1A  131 0001:00063D34  132 0001:00063D51  133 0001:00063D6B
  134 0001:00063D7D  137 0001:00063D94  138 0001:00063D9A  139 0001:00063DA7
  140 0001:00063DDD  141 0001:00063DE6  142 0001:00063DF0  143 0001:00063DFA
  145 0001:00063DFC  146 0001:00063E05  147 0001:00063E0D  149 0001:00063E17
  152 0001:00063E27  154 0001:00063E37  155 0001:00063E40  159 0001:00063E54
  163 0001:00063E62  164 0001:00063E6C  165 0001:00063E70  166 0001:00063E72
  167 0001:00063E74  168 0001:00063E93  171 0001:00063E9C  175 0001:00063EA4
  177 0001:00063EA8  178 0001:00063ECC  179 0001:00063ED7  180 0001:00063EDD
  183 0001:00063EDE  185 0001:00063EE1  186 0001:00063EE9  187 0001:00063EEF
  188 0001:00063EF9  189 0001:00063F01  193 0001:00063F03  195 0001:00063F12
  197 0001:00063F1D  202 0001:00063F28  203 0001:00063F35  204 0001:00063F3D
  205 0001:00063F58  210 0001:00063F75  213 0001:00063FC6  216 0001:00063FD6
  219 0001:00063FE6  221 0001:00063FFE  222 0001:00064007  223 0001:00064011
  226 0001:00064013  227 0001:0006401C  230 0001:00064023  234 0001:00064037
  236 0001:00064047  240 0001:0006404E  242 0001:0006405E  245 0001:00064065
  246 0001:0006407C  283 0001:00064081  285 0001:0006408F  286 0001:00064097
  290 0001:000640A1  292 0001:000640AF  293 0001:000640BC  295 0001:000640CE
  296 0001:000640D7  298 0001:000640D9  302 0001:000640ED  305 0001:000640F3
  307 0001:0006411C  309 0001:00064125  311 0001:00064134  324 0001:00064148
  326 0001:00064152  327 0001:0006419A  329 0001:000641E4  333 0001:000641F0
  337 0001:000641FD  338 0001:0006420A  339 0001:00064217  352 0001:00064229
  354 0001:00064233  355 0001:0006424E  357 0001:0006425F  358 0001:00064295
  359 0001:000642C5  360 0001:000642F6  363 0001:00064326  364 0001:00064332
  365 0001:0006433B  366 0001:0006433D  369 0001:00064343  370 0001:0006434D
  371 0001:0006434F  375 0001:00064355  378 0001:0006435A  380 0001:0006435E
  381 0001:000643A6  385 0001:000643AB  388 0001:000643B4  392 0001:000643B5
  398 0001:000643BD  403 0001:000643CB  405 0001:000643FB  407 0001:00064402
  409 0001:00064404  410 0001:00064413  411 0001:0006441E  414 0001:00064429
  418 0001:00064440  426 0001:0006444E  427 0001:00064457  428 0001:00064461
  429 0001:00064469  430 0001:00064473  433 0001:0006447B  438 0001:00064483
  439 0001:00064490  440 0001:0006449A  441 0001:000644B5  442 0001:000644BF
  450 0001:000644C7  451 0001:000644D4  452 0001:000644DA  453 0001:000644F5
  454 0001:000644FF  457 0001:00064507  462 0001:0006450B  468 0001:00064511
  471 0001:0006451C  475 0001:00064529  478 0001:0006453C  480 0001:00064554
  481 0001:0006455D  482 0001:00064567  485 0001:00064569  486 0001:00064572
  489 0001:0006457A  493 0001:0006458E  495 0001:0006459E  499 0001:000645A5
  501 0001:000645B5  504 0001:000645BC  505 0001:000645D4

Line numbers for M:\GAMES\NETADV\PROG\interp\sciw.cpp(M:\GAMES\NETADV\PROG\interp\sciw.cpp) segment FOO

    1 0001:000645F4   43 0001:00064616   51 0001:00064617   54 0001:0006461E
   55 0001:0006463A   56 0001:00064654   57 0001:00064671   58 0001:0006468D
   59 0001:000646A8   60 0001:000646C6   61 0001:000646CF   69 0001:000646D5
   71 0001:000646D9   74 0001:00064704   76 0001:00064717   79 0001:0006471C
   81 0001:0006471F   82 0001:00064736   85 0001:00064738   87 0001:0006473B
   88 0001:00064755   91 0001:00064757   93 0001:0006475B   94 0001:00064785
   95 0001:0006478E   97 0001:00064797  100 0001:0006479C  102 0001:0006479F
  103 0001:000647C4  106 0001:000647C6  110 0001:000647CA  111 0001:000647E6
  112 0001:00064802  113 0001:00064808  114 0001:00064825  116 0001:00064841
  117 0001:0006484A  119 0001:00064850  122 0001:00064855  124 0001:00064858
  125 0001:0006487C  128 0001:0006487E  130 0001:00064881  131 0001:00064898
  138 0001:0006489A  147 0001:0006489D  155 0001:000648A1  157 0001:000648AC
  160 0001:000648C0   38 0001:000648C8   38 0001:0006490C

Line numbers for M:\GAMES\NETADV\PROG\interp\sciwin.cpp(M:\GAMES\NETADV\PROG\interp\sciwin.cpp) segment FOO

  209 0001:00064918  216 0001:0006494E  217 0001:0006495F  220 0001:00064964
  224 0001:0006496B  228 0001:00064972  232 0001:00064979  236 0001:00064980
  240 0001:00064987  244 0001:0006498E  245 0001:000649A0  214 0001:00064AC6
  275 0001:00064B03  296 0001:00064B29  298 0001:00064B36  299 0001:00064B4A
  300 0001:00064B5A  302 0001:00064B63  304 0001:00064B80  307 0001:00064B89
  317 0001:00064B95  327 0001:00064BA1  328 0001:00064BAD  330 0001:00064BB9
  335 0001:00064BC6  365 0001:00064BD2  367 0001:00064BE6  368 0001:00064BF3
  371 0001:00064BFC  372 0001:00064C04  374 0001:00064C09  375 0001:00064C13
  376 0001:00064C19  377 0001:00064C20  379 0001:00064C27  380 0001:00064C2A
  381 0001:00064C2D  382 0001:00064C30  383 0001:00064C40  384 0001:00064C45
  385 0001:00064C51  386 0001:00064C56  388 0001:00064C5D  389 0001:00064C6F
  390 0001:00064C86  391 0001:00064C90  393 0001:00064C98  394 0001:00064CA8
  396 0001:00064CAF  397 0001:00064CC1  398 0001:00064CD9  399 0001:00064CE3
  406 0001:00064CEB  408 0001:00064D14  410 0001:00064D20  412 0001:00064D25
  413 0001:00064D2E  414 0001:00064D38  417 0001:00064D40  419 0001:00064D45
  424 0001:00064D81  484 0001:00064D86  485 0001:00064D95  487 0001:00064DA3
  489 0001:00064DB6  491 0001:00064DC0  493 0001:00064DC5  495 0001:00064DE4
  497 0001:00064DE9  500 0001:00064DEE  501 0001:00064E06  502 0001:00064E12
  503 0001:00064E1E  505 0001:00064E20  506 0001:00064E2A  573 0001:00064E35
  575 0001:00064E52  582 0001:00064E61  583 0001:00064E66  585 0001:00064E6B
  587 0001:00064E75  591 0001:00064E7D  693 0001:00064E8E  695 0001:00064EA3
  698 0001:00064EBA  699 0001:00064ED6  701 0001:00064EE6  702 0001:00064EF3
  709 0001:00064F01  711 0001:00064F30  713 0001:00064F44  714 0001:00064F5D
  717 0001:00064F6C  718 0001:00064F75  719 0001:00064F7E  723 0001:00065081
  726 0001:0006508C  724 0001:00065095  729 0001:000650BB  730 0001:000650BF
  734 0001:000650C5  735 0001:000650D9  737 0001:000650EA  739 0001:000650FB
  740 0001:000650FD  742 0001:00065100  743 0001:00065105  745 0001:00065106
  748 0001:00065124  749 0001:00065142  751 0001:00065145  752 0001:0006515C
  754 0001:0006515F  755 0001:00065176  757 0001:00065179  760 0001:0006517D
  762 0001:00065189  763 0001:0006519E  765 0001:000651B5  770 0001:000651BA
  771 0001:000651C6  772 0001:000651D2  777 0001:000651D7  785 0001:000651DE
  786 0001:000651E8  787 0001:000651EB  788 0001:000651F0  790 0001:000651F5
  791 0001:000651FA  792 0001:000651FD  793 0001:00065211  794 0001:0006521C
  795 0001:00065222  796 0001:00065226  799 0001:00065228  800 0001:00065238
  801 0001:0006524B  802 0001:0006525E  803 0001:0006526B  806 0001:0006526D
  808 0001:00065283  809 0001:00065299  810 0001:000652AA  812 0001:000652B4
  814 0001:000652BA  817 0001:000652BB  819 0001:000652E1  821 0001:000652F3
  822 0001:0006531C  824 0001:0006532E  825 0001:00065354  827 0001:00065366
  832 0001:00065388  833 0001:000653A8  834 0001:000653C8  835 0001:000653E5
  836 0001:000653EF  837 0001:000653F9  838 0001:00065416  839 0001:0006541B
  840 0001:00065420  841 0001:00065440  843 0001:00065460  844 0001:0006547D
  845 0001:00065495  846 0001:000654A3  852 0001:000654C0  853 0001:000654DF
  854 0001:000654F0  855 0001:000654F5  856 0001:000654FF  858 0001:0006551C
  859 0001:00065530  860 0001:00065544  861 0001:00065558  862 0001:0006556C
  863 0001:00065580  864 0001:00065594  865 0001:000655A8  866 0001:000655BC
  867 0001:000655D0  868 0001:000655E4  869 0001:000655F8  870 0001:0006560C
  872 0001:00065620  873 0001:00065634  874 0001:00065648  875 0001:0006565C
  876 0001:00065670  878 0001:00065684  879 0001:0006569C  881 0001:000656A4
  882 0001:000656AD  883 0001:000656B7  885 0001:000656B9  889 0001:000656BF
  891 0001:000656DF  892 0001:000656EC  893 0001:000656F5  894 0001:000656FF
  895 0001:00065705  896 0001:00065708  898 0001:0006570C  903 0001:00065712
  905 0001:00065732  906 0001:00065738  908 0001:0006573F  909 0001:00065763
  911 0001:0006577A  912 0001:0006578F  913 0001:000657B3  914 0001:000657B9
  915 0001:000657DD  917 0001:000657E1  918 0001:000657E4  920 0001:000657E8
  927 0001:000657F4  929 0001:00065814  931 0001:0006581A  932 0001:0006581D
  933 0001:00065821  934 0001:00065831  932 0001:00065833  936 0001:0006583B
  937 0001:0006583F  938 0001:0006584C  940 0001:0006585D  941 0001:00065860
  943 0001:00065865  950 0001:00065871  952 0001:00065891  954 0001:00065897
  955 0001:0006589A  956 0001:0006589E  957 0001:000658AE  955 0001:000658B0
  959 0001:000658B8  960 0001:000658BC  961 0001:000658C9  963 0001:000658D3
  964 0001:000658D5  967 0001:000658DA  979 0001:000658E3  980 0001:000658FA
  981 0001:00065909  982 0001:00065919  983 0001:00065929  984 0001:0006593E
  985 0001:00065943  986 0001:0006594D  987 0001:00065962  988 0001:00065977
  990 0001:00065985  991 0001:00065994  992 0001:000659A0  993 0001:000659AB
  994 0001:000659B6  995 0001:000659C1  996 0001:000659CD  999 0001:000659D9
 1000 0001:000659E7 1003 0001:000659F9 1004 0001:00065A03 1007 0001:00065A08
 1008 0001:00065A11 1009 0001:00065A14 1010 0001:00065A1D 1011 0001:00065A27
 1012 0001:00065A2E 1017 0001:00065A31 1019 0001:00065A3A 1022 0001:00065A46
 1025 0001:00065A50 1027 0001:00065A58 1028 0001:00065A61 1029 0001:00065A78
 1030 0001:00065A8A 1031 0001:00065A8C 1032 0001:00065AA4 1036 0001:00065AA9
 1037 0001:00065AB0 1040 0001:00065AB5 1041 0001:00065AC7 1042 0001:00065AD1
 1047 0001:00065AD6 1049 0001:00065ADF 1050 0001:00065AE6 1051 0001:00065AEB
 1052 0001:00065AED 1053 0001:00065B02 1054 0001:00065B17 1055 0001:00065B20
 1060 0001:00065B27 1062 0001:00065B3A 1063 0001:00065B44 1064 0001:00065B4E
 1065 0001:00065B58 1066 0001:00065B62 1067 0001:00065B64 1068 0001:00065B6E
 1072 0001:00065B74 1073 0001:00065B86 1075 0001:00065B87 1076 0001:00065B8F
 1077 0001:00065B95 1078 0001:00065B9D 1079 0001:00065BA3 1080 0001:00065BB6
 1081 0001:00065BC8 1099 0001:00065BE2 1104 0001:00065BF6 1106 0001:00065C02
 1108 0001:00065C24 1114 0001:00065C39 1117 0001:00065C43 1119 0001:00065C58
 1121 0001:00065C7A 1127 0001:00065C8F 1129 0001:00065C99 1133 0001:00065C9A
 1137 0001:00065CA1 1138 0001:00065CB3 1141 0001:00065CCB 1144 0001:00065CCE
 1146 0001:00065CD5 1147 0001:00065CE7 1148 0001:00065D0A 1151 0001:00065D0D
 1159 0001:00065D16 1160 0001:00065D24 1161 0001:00065D2D 1167 0001:00065D5B
 1171 0001:00065D69 1172 0001:00065D79 1174 0001:00065D97 1175 0001:00065DA6
 1176 0001:00065DAB 1177 0001:00065DC5 1178 0001:00065DDB 1181 0001:00065DE0
 1183 0001:00065DE5 1184 0001:00065DED 1185 0001:00065DF6 1186 0001:00065E02
 1190 0001:00065E07 1197 0001:00065E1C 1200 0001:00065E27 1201 0001:00065E36
 1210 0001:00065E47 1211 0001:00065E55 1212 0001:00065E70 1214 0001:00065E7F
 1231 0001:00065E8B 1232 0001:00065EA6 1233 0001:00065EAE 1234 0001:00065EC0
 1235 0001:00065EC9 1236 0001:00065EDC 1237 0001:00065EE1 1243 0001:00065EF4
 1244 0001:00065F0F 1245 0001:00065F15 1246 0001:00065F23 1247 0001:00065F35
 1253 0001:00065F4D 1257 0001:00065F57 1262 0001:00065F61 1263 0001:00065F7D
 1264 0001:00065F8A 1268 0001:00065F8C 1269 0001:00065F91 1274 0001:00065F93
 1275 0001:00065FA0 1280 0001:00065FAF 1281 0001:00065FB9 1282 0001:00065FC3
 1283 0001:00065FCD 1287 0001:00065FD2 1288 0001:00065FDC 1289 0001:00065FE6
 1290 0001:00065FEB 1291 0001:00065FF1 1292 0001:00065FF6 1296 0001:00066003
 1272 0001:00066012 1306 0001:0006606D 1307 0001:00066084 1308 0001:00066092
 1309 0001:0006609F 1310 0001:00066106 1311 0001:00066118 1312 0001:00066120
 1316 0001:00066125 1317 0001:00066134 1318 0001:0006613E 1321 0001:00066148
 1322 0001:0006615A 1325 0001:0006616C 1326 0001:0006617E 1328 0001:00066181
 1329 0001:0006618A 1330 0001:0006619D 1338 0001:000661C1 1341 0001:000661FF
 1342 0001:00066211 1344 0001:00066219 1345 0001:00066241 1350 0001:00066250
 1351 0001:00066255 1352 0001:0006625A 1354 0001:00066264 1203 0001:00066269
 1371 0001:00066328 1377 0001:0006632B 1379 0001:00066349 1383 0001:00066354
 1387 0001:00066356 1392 0001:00066372 1400 0001:0006637C 1401 0001:000663A0
 1402 0001:000663B2 1395 0001:000663B4 1412 0001:000663C5 1418 0001:000663EA
 1419 0001:000663FD 1420 0001:00066403 1422 0001:00066409 1423 0001:00066418
 1424 0001:0006641E 1426 0001:00066424 1427 0001:00066433 1429 0001:00066440
 1432 0001:00066451 1435 0001:0006645B

Line numbers for M:\GAMES\NETADV\PROG\interp\winthunk.cpp(M:\GAMES\NETADV\PROG\interp\winthunk.cpp) segment FOO

  257 0001:00066478

