	TITLE	C:\Documents and Settings\don\Desktop\sciw\Interp\Language.cpp
	.386P
include listing.inc
if @Version gt 510
.model FLAT
else
_TEXT	SEGMENT PARA USE32 PUBLIC 'CODE'
_TEXT	ENDS
_DATA	SEGMENT DWORD USE32 PUBLIC 'DATA'
_DATA	ENDS
CONST	SEGMENT DWORD USE32 PUBLIC 'CONST'
CONST	ENDS
_BSS	SEGMENT DWORD USE32 PUBLIC 'BSS'
_BSS	ENDS
_TLS	SEGMENT DWORD USE32 PUBLIC 'TLS'
_TLS	ENDS
;	COMDAT ??_C@_07CCG@ResView?$AA@
_DATA	SEGMENT DWORD USE32 PUBLIC 'DATA'
_DATA	ENDS
;	COMDAT ??_C@_04KCEF@?4v56?$AA@
_DATA	SEGMENT DWORD USE32 PUBLIC 'DATA'
_DATA	ENDS
;	COMDAT ??_C@_06IAEF@ResPic?$AA@
_DATA	SEGMENT DWORD USE32 PUBLIC 'DATA'
_DATA	ENDS
;	COMDAT ??_C@_04EODC@?4p56?$AA@
_DATA	SEGMENT DWORD USE32 PUBLIC 'DATA'
_DATA	ENDS
;	COMDAT ??_C@_08OCKJ@ResChunk?$AA@
_DATA	SEGMENT DWORD USE32 PUBLIC 'DATA'
_DATA	ENDS
;	COMDAT ??_C@_04PIPI@?4chk?$AA@
_DATA	SEGMENT DWORD USE32 PUBLIC 'DATA'
_DATA	ENDS
;	COMDAT ??_C@_07ICMB@ResHunk?$AA@
_DATA	SEGMENT DWORD USE32 PUBLIC 'DATA'
_DATA	ENDS
;	COMDAT ??_C@_04GG@?4scr?$AA@
_DATA	SEGMENT DWORD USE32 PUBLIC 'DATA'
_DATA	ENDS
;	COMDAT ??_C@_08BLBP@ResSound?$AA@
_DATA	SEGMENT DWORD USE32 PUBLIC 'DATA'
_DATA	ENDS
;	COMDAT ??_C@_04KPDA@?4snd?$AA@
_DATA	SEGMENT DWORD USE32 PUBLIC 'DATA'
_DATA	ENDS
;	COMDAT ??_C@_08NNMB@ResVocab?$AA@
_DATA	SEGMENT DWORD USE32 PUBLIC 'DATA'
_DATA	ENDS
;	COMDAT ??_C@_04PGDD@?4voc?$AA@
_DATA	SEGMENT DWORD USE32 PUBLIC 'DATA'
_DATA	ENDS
;	COMDAT ??_C@_08FLKK@ResPatch?$AA@
_DATA	SEGMENT DWORD USE32 PUBLIC 'DATA'
_DATA	ENDS
;	COMDAT ??_C@_04CEHK@?4pat?$AA@
_DATA	SEGMENT DWORD USE32 PUBLIC 'DATA'
_DATA	ENDS
;	COMDAT ??_C@_07MKGC@ResFont?$AA@
_DATA	SEGMENT DWORD USE32 PUBLIC 'DATA'
_DATA	ENDS
;	COMDAT ??_C@_04IDCK@?4fon?$AA@
_DATA	SEGMENT DWORD USE32 PUBLIC 'DATA'
_DATA	ENDS
;	COMDAT ??_C@_06DEEM@ResPal?$AA@
_DATA	SEGMENT DWORD USE32 PUBLIC 'DATA'
_DATA	ENDS
;	COMDAT ??_C@_04NJLC@?4pal?$AA@
_DATA	SEGMENT DWORD USE32 PUBLIC 'DATA'
_DATA	ENDS
;	COMDAT ??_C@_07HFNL@ResHeap?$AA@
_DATA	SEGMENT DWORD USE32 PUBLIC 'DATA'
_DATA	ENDS
;	COMDAT ??_C@_04GFFD@?4hep?$AA@
_DATA	SEGMENT DWORD USE32 PUBLIC 'DATA'
_DATA	ENDS
;	COMDAT ??_C@_06HDCC@ResMsg?$AA@
_DATA	SEGMENT DWORD USE32 PUBLIC 'DATA'
_DATA	ENDS
;	COMDAT ??_C@_04JONM@?4msg?$AA@
_DATA	SEGMENT DWORD USE32 PUBLIC 'DATA'
_DATA	ENDS
;	COMDAT ??_C@_08NFDN@ResAudio?$AA@
_DATA	SEGMENT DWORD USE32 PUBLIC 'DATA'
_DATA	ENDS
;	COMDAT ??_C@_04MOHF@?4aud?$AA@
_DATA	SEGMENT DWORD USE32 PUBLIC 'DATA'
_DATA	ENDS
;	COMDAT ??_C@_07BKMJ@ResWave?$AA@
_DATA	SEGMENT DWORD USE32 PUBLIC 'DATA'
_DATA	ENDS
;	COMDAT ??_C@_04MPDF@?4wav?$AA@
_DATA	SEGMENT DWORD USE32 PUBLIC 'DATA'
_DATA	ENDS
;	COMDAT ??_C@_0L@IMEI@ResAudio36?$AA@
_DATA	SEGMENT DWORD USE32 PUBLIC 'DATA'
_DATA	ENDS
;	COMDAT ??_C@_00A@?$AA@
_DATA	SEGMENT DWORD USE32 PUBLIC 'DATA'
_DATA	ENDS
;	COMDAT ??_C@_07BONB@ResSync?$AA@
_DATA	SEGMENT DWORD USE32 PUBLIC 'DATA'
_DATA	ENDS
;	COMDAT ??_C@_04KFFK@?4syn?$AA@
_DATA	SEGMENT DWORD USE32 PUBLIC 'DATA'
_DATA	ENDS
;	COMDAT ??_C@_09CBJE@ResSync36?$AA@
_DATA	SEGMENT DWORD USE32 PUBLIC 'DATA'
_DATA	ENDS
;	COMDAT ??_C@_06MIEL@ResMap?$AA@
_DATA	SEGMENT DWORD USE32 PUBLIC 'DATA'
_DATA	ENDS
;	COMDAT ??_C@_04CFLF@?4map?$AA@
_DATA	SEGMENT DWORD USE32 PUBLIC 'DATA'
_DATA	ENDS
;	COMDAT ??_C@_0BC@LIAH@ResMsgTranslation?$AA@
_DATA	SEGMENT DWORD USE32 PUBLIC 'DATA'
_DATA	ENDS
;	COMDAT ??_C@_04JFJA@?4trn?$AA@
_DATA	SEGMENT DWORD USE32 PUBLIC 'DATA'
_DATA	ENDS
;	COMDAT ??_C@_08JLOL@ResRobot?$AA@
_DATA	SEGMENT DWORD USE32 PUBLIC 'DATA'
_DATA	ENDS
;	COMDAT ??_C@_04LLKI@?4rbt?$AA@
_DATA	SEGMENT DWORD USE32 PUBLIC 'DATA'
_DATA	ENDS
;	COMDAT ??_C@_06OEMP@ResVMD?$AA@
_DATA	SEGMENT DWORD USE32 PUBLIC 'DATA'
_DATA	ENDS
;	COMDAT ??_C@_04IOID@?4vmd?$AA@
_DATA	SEGMENT DWORD USE32 PUBLIC 'DATA'
_DATA	ENDS
;	COMDAT ??8@YAHABU_GUID@@0@Z
_TEXT	SEGMENT PARA USE32 PUBLIC 'CODE'
_TEXT	ENDS
;	COMDAT ??0MemInfo@@QAE@XZ
_TEXT	SEGMENT PARA USE32 PUBLIC 'CODE'
_TEXT	ENDS
;	COMDAT ??1MemoryMgr@@UAE@XZ
_TEXT	SEGMENT PARA USE32 PUBLIC 'CODE'
_TEXT	ENDS
;	COMDAT ?GetAddr@MemoryMgr@@QAEPAXG@Z
_TEXT	SEGMENT PARA USE32 PUBLIC 'CODE'
_TEXT	ENDS
;	COMDAT ?CheckValid@MemoryMgr@@QAEXG@Z
_TEXT	SEGMENT PARA USE32 PUBLIC 'CODE'
_TEXT	ENDS
;	COMDAT ?IsValid@MemoryMgr@@QAEHG@Z
_TEXT	SEGMENT PARA USE32 PUBLIC 'CODE'
_TEXT	ENDS
;	COMDAT ??_GMemoryMgr@@UAEPAXI@Z
_TEXT	SEGMENT PARA USE32 PUBLIC 'CODE'
_TEXT	ENDS
;	COMDAT ??0MemID@@QAE@XZ
_TEXT	SEGMENT PARA USE32 PUBLIC 'CODE'
_TEXT	ENDS
;	COMDAT ??0MemID@@QAE@ABV0@@Z
_TEXT	SEGMENT PARA USE32 PUBLIC 'CODE'
_TEXT	ENDS
;	COMDAT ??0MemID@@QAE@G@Z
_TEXT	SEGMENT PARA USE32 PUBLIC 'CODE'
_TEXT	ENDS
;	COMDAT ?Get@MemID@@QAEXW4MemType@@IIIPAUMemClient@@DW4ReservedHandle@@@Z
_TEXT	SEGMENT PARA USE32 PUBLIC 'CODE'
_TEXT	ENDS
;	COMDAT ?Get@MemID@@QAEXW4MemType@@V1@III@Z
_TEXT	SEGMENT PARA USE32 PUBLIC 'CODE'
_TEXT	ENDS
;	COMDAT ?IsValid@MemID@@QBEHXZ
_TEXT	SEGMENT PARA USE32 PUBLIC 'CODE'
_TEXT	ENDS
;	COMDAT ??BMemID@@QBEGXZ
_TEXT	SEGMENT PARA USE32 PUBLIC 'CODE'
_TEXT	ENDS
;	COMDAT ??DMemID@@QBEPAXXZ
_TEXT	SEGMENT PARA USE32 PUBLIC 'CODE'
_TEXT	ENDS
;	COMDAT ??AMemID@@QBEAADI@Z
_TEXT	SEGMENT PARA USE32 PUBLIC 'CODE'
_TEXT	ENDS
;	COMDAT ??8MemID@@QBEHABV0@@Z
_TEXT	SEGMENT PARA USE32 PUBLIC 'CODE'
_TEXT	ENDS
;	COMDAT ??7MemID@@QBEHXZ
_TEXT	SEGMENT PARA USE32 PUBLIC 'CODE'
_TEXT	ENDS
;	COMDAT ??2@YAPAXIG@Z
_TEXT	SEGMENT PARA USE32 PUBLIC 'CODE'
_TEXT	ENDS
;	COMDAT ?GetExtension@SOL_ResType@@UBEPBDXZ
_TEXT	SEGMENT PARA USE32 PUBLIC 'CODE'
_TEXT	ENDS
;	COMDAT ?IsSupported@SOL_ResType@@UBEHXZ
_TEXT	SEGMENT PARA USE32 PUBLIC 'CODE'
_TEXT	ENDS
;	COMDAT ?GetAttrs@SOL_ResType@@UBEIXZ
_TEXT	SEGMENT PARA USE32 PUBLIC 'CODE'
_TEXT	ENDS
;	COMDAT ?GetFileType@SOL_ResType@@MBE?AW4MemType@@XZ
_TEXT	SEGMENT PARA USE32 PUBLIC 'CODE'
_TEXT	ENDS
;	COMDAT ?GetType@ResView@@UBE?AW4MemType@@XZ
_TEXT	SEGMENT PARA USE32 PUBLIC 'CODE'
_TEXT	ENDS
;	COMDAT ?GetType@ResPic@@UBE?AW4MemType@@XZ
_TEXT	SEGMENT PARA USE32 PUBLIC 'CODE'
_TEXT	ENDS
;	COMDAT ?GetType@ResChunk@@UBE?AW4MemType@@XZ
_TEXT	SEGMENT PARA USE32 PUBLIC 'CODE'
_TEXT	ENDS
;	COMDAT ?GetType@ResScript@@UBE?AW4MemType@@XZ
_TEXT	SEGMENT PARA USE32 PUBLIC 'CODE'
_TEXT	ENDS
;	COMDAT ?GetType@ResSound@@UBE?AW4MemType@@XZ
_TEXT	SEGMENT PARA USE32 PUBLIC 'CODE'
_TEXT	ENDS
;	COMDAT ?GetType@ResVocab@@UBE?AW4MemType@@XZ
_TEXT	SEGMENT PARA USE32 PUBLIC 'CODE'
_TEXT	ENDS
;	COMDAT ?GetType@ResPatch@@UBE?AW4MemType@@XZ
_TEXT	SEGMENT PARA USE32 PUBLIC 'CODE'
_TEXT	ENDS
;	COMDAT ?GetType@ResFont@@UBE?AW4MemType@@XZ
_TEXT	SEGMENT PARA USE32 PUBLIC 'CODE'
_TEXT	ENDS
;	COMDAT ?GetType@ResPal@@UBE?AW4MemType@@XZ
_TEXT	SEGMENT PARA USE32 PUBLIC 'CODE'
_TEXT	ENDS
;	COMDAT ?GetType@ResHeap@@UBE?AW4MemType@@XZ
_TEXT	SEGMENT PARA USE32 PUBLIC 'CODE'
_TEXT	ENDS
;	COMDAT ?GetType@ResMsg@@UBE?AW4MemType@@XZ
_TEXT	SEGMENT PARA USE32 PUBLIC 'CODE'
_TEXT	ENDS
;	COMDAT ?GetType@ResAudio@@UBE?AW4MemType@@XZ
_TEXT	SEGMENT PARA USE32 PUBLIC 'CODE'
_TEXT	ENDS
;	COMDAT ?GetType@ResWave@@UBE?AW4MemType@@XZ
_TEXT	SEGMENT PARA USE32 PUBLIC 'CODE'
_TEXT	ENDS
;	COMDAT ?GetType@ResAudio36@@UBE?AW4MemType@@XZ
_TEXT	SEGMENT PARA USE32 PUBLIC 'CODE'
_TEXT	ENDS
;	COMDAT ?GetType@ResSync@@UBE?AW4MemType@@XZ
_TEXT	SEGMENT PARA USE32 PUBLIC 'CODE'
_TEXT	ENDS
;	COMDAT ?GetType@ResSync36@@UBE?AW4MemType@@XZ
_TEXT	SEGMENT PARA USE32 PUBLIC 'CODE'
_TEXT	ENDS
;	COMDAT ?GetType@ResMap@@UBE?AW4MemType@@XZ
_TEXT	SEGMENT PARA USE32 PUBLIC 'CODE'
_TEXT	ENDS
;	COMDAT ?GetType@ResMsgTranslation@@UBE?AW4MemType@@XZ
_TEXT	SEGMENT PARA USE32 PUBLIC 'CODE'
_TEXT	ENDS
;	COMDAT ?GetFileType@ResMsgTranslation@@UBE?AW4MemType@@XZ
_TEXT	SEGMENT PARA USE32 PUBLIC 'CODE'
_TEXT	ENDS
;	COMDAT ?GetType@ResRobot@@UBE?AW4MemType@@XZ
_TEXT	SEGMENT PARA USE32 PUBLIC 'CODE'
_TEXT	ENDS
;	COMDAT ?GetType@ResVMD@@UBE?AW4MemType@@XZ
_TEXT	SEGMENT PARA USE32 PUBLIC 'CODE'
_TEXT	ENDS
;	COMDAT ??0FakeArrayID@@QAE@XZ
_TEXT	SEGMENT PARA USE32 PUBLIC 'CODE'
_TEXT	ENDS
;	COMDAT ??0FakeArrayID@@QAE@ABVMemID@@@Z
_TEXT	SEGMENT PARA USE32 PUBLIC 'CODE'
_TEXT	ENDS
;	COMDAT ??0FakeArrayID@@QAE@G@Z
_TEXT	SEGMENT PARA USE32 PUBLIC 'CODE'
_TEXT	ENDS
;	COMDAT ??DFakeArrayID@@QBEPAUArrayHeader@@XZ
_TEXT	SEGMENT PARA USE32 PUBLIC 'CODE'
_TEXT	ENDS
;	COMDAT ??0ArrayID@@QAE@HW4ArrayType@@@Z
_TEXT	SEGMENT PARA USE32 PUBLIC 'CODE'
_TEXT	ENDS
;	COMDAT ?Get@ArrayID@@QAEXI@Z
_TEXT	SEGMENT PARA USE32 PUBLIC 'CODE'
_TEXT	ENDS
;	COMDAT ??0Array@@QAE@XZ
_TEXT	SEGMENT PARA USE32 PUBLIC 'CODE'
_TEXT	ENDS
;	COMDAT ??1Array@@QAE@XZ
_TEXT	SEGMENT PARA USE32 PUBLIC 'CODE'
_TEXT	ENDS
;	COMDAT ?dataID@Array@@QAE?AVMemID@@XZ
_TEXT	SEGMENT PARA USE32 PUBLIC 'CODE'
_TEXT	ENDS
;	COMDAT ?dataID@Array@@QAEXVMemID@@@Z
_TEXT	SEGMENT PARA USE32 PUBLIC 'CODE'
_TEXT	ENDS
;	COMDAT ??0SOL_List@@QAE@XZ
_TEXT	SEGMENT PARA USE32 PUBLIC 'CODE'
_TEXT	ENDS
;	COMDAT ?size@SOL_List@@QAEAAHXZ
_TEXT	SEGMENT PARA USE32 PUBLIC 'CODE'
_TEXT	ENDS
;	COMDAT ??0FakeSOL_ListID@@QAE@XZ
_TEXT	SEGMENT PARA USE32 PUBLIC 'CODE'
_TEXT	ENDS
;	COMDAT ??0FakeSOL_ListID@@QAE@ABVMemID@@@Z
_TEXT	SEGMENT PARA USE32 PUBLIC 'CODE'
_TEXT	ENDS
;	COMDAT ??0FakeSOL_ListID@@QAE@G@Z
_TEXT	SEGMENT PARA USE32 PUBLIC 'CODE'
_TEXT	ENDS
;	COMDAT ??0FakeDispatchTblID@@QAE@XZ
_TEXT	SEGMENT PARA USE32 PUBLIC 'CODE'
_TEXT	ENDS
;	COMDAT ??0FakeDispatchTblID@@QAE@ABVMemID@@@Z
_TEXT	SEGMENT PARA USE32 PUBLIC 'CODE'
_TEXT	ENDS
;	COMDAT ??DFakeDispatchTblID@@QBEPAUDispatchTbl@@XZ
_TEXT	SEGMENT PARA USE32 PUBLIC 'CODE'
_TEXT	ENDS
;	COMDAT ??0DispatchTblID@@QAE@XZ
_TEXT	SEGMENT PARA USE32 PUBLIC 'CODE'
_TEXT	ENDS
;	COMDAT ??0FakeScriptEntryID@@QAE@XZ
_TEXT	SEGMENT PARA USE32 PUBLIC 'CODE'
_TEXT	ENDS
;	COMDAT ??0FakeScriptEntryID@@QAE@ABVMemID@@@Z
_TEXT	SEGMENT PARA USE32 PUBLIC 'CODE'
_TEXT	ENDS
;	COMDAT ??DFakeScriptEntryID@@QBEPAUScriptEntry@@XZ
_TEXT	SEGMENT PARA USE32 PUBLIC 'CODE'
_TEXT	ENDS
;	COMDAT ??0ScriptEntry@@QAE@XZ
_TEXT	SEGMENT PARA USE32 PUBLIC 'CODE'
_TEXT	ENDS
;	COMDAT ??0ScriptEntryID@@QAE@XZ
_TEXT	SEGMENT PARA USE32 PUBLIC 'CODE'
_TEXT	ENDS
;	COMDAT ??0FakeVariableID@@QAE@XZ
_TEXT	SEGMENT PARA USE32 PUBLIC 'CODE'
_TEXT	ENDS
;	COMDAT ??0FakeVariableID@@QAE@ABVMemID@@@Z
_TEXT	SEGMENT PARA USE32 PUBLIC 'CODE'
_TEXT	ENDS
;	COMDAT ??DFakeVariableID@@QBEPAUVariable@@XZ
_TEXT	SEGMENT PARA USE32 PUBLIC 'CODE'
_TEXT	ENDS
;	COMDAT ??0VariableID@@QAE@XZ
_TEXT	SEGMENT PARA USE32 PUBLIC 'CODE'
_TEXT	ENDS
;	COMDAT ??0Script@@QAE@XZ
_TEXT	SEGMENT PARA USE32 PUBLIC 'CODE'
_TEXT	ENDS
;	COMDAT ??0Object@@QAE@XZ
_TEXT	SEGMENT PARA USE32 PUBLIC 'CODE'
_TEXT	ENDS
;	COMDAT ?SetGraphicsUpdate@Object@@QAEXXZ
_TEXT	SEGMENT PARA USE32 PUBLIC 'CODE'
_TEXT	ENDS
;	COMDAT ?selectorDict@Object@@QAEPAVSelectorDict@@XZ
_TEXT	SEGMENT PARA USE32 PUBLIC 'CODE'
_TEXT	ENDS
;	COMDAT ??AObject@@QAEAAFH@Z
_TEXT	SEGMENT PARA USE32 PUBLIC 'CODE'
_TEXT	ENDS
;	COMDAT ?GetPropAddr@Object@@QAEPAFG@Z
_TEXT	SEGMENT PARA USE32 PUBLIC 'CODE'
_TEXT	ENDS
;	COMDAT ?GetIndexedPropAddr@Object@@QAEPBFH@Z
_TEXT	SEGMENT PARA USE32 PUBLIC 'CODE'
_TEXT	ENDS
;	COMDAT ?GetIndexedProperty@Object@@QAEFH@Z
_TEXT	SEGMENT PARA USE32 PUBLIC 'CODE'
_TEXT	ENDS
;	COMDAT ?GetPropAddrCheck@Object@@QAEPAFG@Z
_TEXT	SEGMENT PARA USE32 PUBLIC 'CODE'
_TEXT	ENDS
;	COMDAT ?GetPropAtOffset@Object@@QAEAAFI@Z
_TEXT	SEGMENT PARA USE32 PUBLIC 'CODE'
_TEXT	ENDS
;	COMDAT ?GetProperty@Object@@QAEFG@Z
_TEXT	SEGMENT PARA USE32 PUBLIC 'CODE'
_TEXT	ENDS
;	COMDAT ?GetPropOffset@Object@@QAEIG@Z
_TEXT	SEGMENT PARA USE32 PUBLIC 'CODE'
_TEXT	ENDS
;	COMDAT ?SetIndexedProperty@Object@@QAEXHF@Z
_TEXT	SEGMENT PARA USE32 PUBLIC 'CODE'
_TEXT	ENDS
;	COMDAT ?SetPropAtOffset@Object@@QAEAAFI@Z
_TEXT	SEGMENT PARA USE32 PUBLIC 'CODE'
_TEXT	ENDS
;	COMDAT ?SetProperty@Object@@QAEXGF@Z
_TEXT	SEGMENT PARA USE32 PUBLIC 'CODE'
_TEXT	ENDS
;	COMDAT ??0FakeObjectID@@QAE@XZ
_TEXT	SEGMENT PARA USE32 PUBLIC 'CODE'
_TEXT	ENDS
;	COMDAT ??0FakeObjectID@@QAE@ABVMemID@@@Z
_TEXT	SEGMENT PARA USE32 PUBLIC 'CODE'
_TEXT	ENDS
;	COMDAT ??0FakeObjectID@@QAE@G@Z
_TEXT	SEGMENT PARA USE32 PUBLIC 'CODE'
_TEXT	ENDS
;	COMDAT ??CFakeObjectID@@QBEPAUObject@@XZ
_TEXT	SEGMENT PARA USE32 PUBLIC 'CODE'
_TEXT	ENDS
;	COMDAT ??0ObjectID@@QAE@G@Z
_TEXT	SEGMENT PARA USE32 PUBLIC 'CODE'
_TEXT	ENDS
;	COMDAT ?AssureValid@ObjectID@@QBEXXZ
_TEXT	SEGMENT PARA USE32 PUBLIC 'CODE'
_TEXT	ENDS
;	COMDAT ?IsObject@ObjectID@@QBEHXZ
_TEXT	SEGMENT PARA USE32 PUBLIC 'CODE'
_TEXT	ENDS
;	COMDAT ?SetProperty@ObjectID@@QBEXGF@Z
_TEXT	SEGMENT PARA USE32 PUBLIC 'CODE'
_TEXT	ENDS
;	COMDAT ??0FakeClassTblID@@QAE@XZ
_TEXT	SEGMENT PARA USE32 PUBLIC 'CODE'
_TEXT	ENDS
;	COMDAT ??0FakeClassTblID@@QAE@ABVMemID@@@Z
_TEXT	SEGMENT PARA USE32 PUBLIC 'CODE'
_TEXT	ENDS
;	COMDAT ??DFakeClassTblID@@QBEPAUClassTbl@@XZ
_TEXT	SEGMENT PARA USE32 PUBLIC 'CODE'
_TEXT	ENDS
;	COMDAT ??_7ResPic@@6B@
CONST	SEGMENT DWORD USE32 PUBLIC 'CONST'
CONST	ENDS
;	COMDAT ??_7ResView@@6B@
CONST	SEGMENT DWORD USE32 PUBLIC 'CONST'
CONST	ENDS
;	COMDAT ??_7ResPal@@6B@
CONST	SEGMENT DWORD USE32 PUBLIC 'CONST'
CONST	ENDS
;	COMDAT ??_7ResHeap@@6B@
CONST	SEGMENT DWORD USE32 PUBLIC 'CONST'
CONST	ENDS
;	COMDAT ??_7ResWave@@6B@
CONST	SEGMENT DWORD USE32 PUBLIC 'CONST'
CONST	ENDS
;	COMDAT ??_7ResRobot@@6B@
CONST	SEGMENT DWORD USE32 PUBLIC 'CONST'
CONST	ENDS
;	COMDAT ??_7ResPatch@@6B@
CONST	SEGMENT DWORD USE32 PUBLIC 'CONST'
CONST	ENDS
;	COMDAT ??_7ResMsgTranslation@@6B@
CONST	SEGMENT DWORD USE32 PUBLIC 'CONST'
CONST	ENDS
;	COMDAT ??_7ResScript@@6B@
CONST	SEGMENT DWORD USE32 PUBLIC 'CONST'
CONST	ENDS
;	COMDAT ??_7ResSync36@@6B@
CONST	SEGMENT DWORD USE32 PUBLIC 'CONST'
CONST	ENDS
;	COMDAT ??_7ResMsg@@6B@
CONST	SEGMENT DWORD USE32 PUBLIC 'CONST'
CONST	ENDS
;	COMDAT ??_7ResAudio36@@6B@
CONST	SEGMENT DWORD USE32 PUBLIC 'CONST'
CONST	ENDS
;	COMDAT ??_7ResAudio@@6B@
CONST	SEGMENT DWORD USE32 PUBLIC 'CONST'
CONST	ENDS
;	COMDAT ??_7ResFont@@6B@
CONST	SEGMENT DWORD USE32 PUBLIC 'CONST'
CONST	ENDS
;	COMDAT ??_7ResMap@@6B@
CONST	SEGMENT DWORD USE32 PUBLIC 'CONST'
CONST	ENDS
;	COMDAT ??_7MemoryMgr@@6B@
CONST	SEGMENT DWORD USE32 PUBLIC 'CONST'
CONST	ENDS
;	COMDAT ??_7ResVMD@@6B@
CONST	SEGMENT DWORD USE32 PUBLIC 'CONST'
CONST	ENDS
;	COMDAT ??_7ResChunk@@6B@
CONST	SEGMENT DWORD USE32 PUBLIC 'CONST'
CONST	ENDS
;	COMDAT ??_7ResSync@@6B@
CONST	SEGMENT DWORD USE32 PUBLIC 'CONST'
CONST	ENDS
;	COMDAT ??_7ResVocab@@6B@
CONST	SEGMENT DWORD USE32 PUBLIC 'CONST'
CONST	ENDS
;	COMDAT ??_7ResSound@@6B@
CONST	SEGMENT DWORD USE32 PUBLIC 'CONST'
CONST	ENDS
FLAT	GROUP _DATA, CONST, _BSS
	ASSUME	CS: FLAT, DS: FLAT, SS: FLAT
endif
PUBLIC	??0ObjectID@@QAE@G@Z				; ObjectID::ObjectID
PUBLIC	?SetProperty@ObjectID@@QBEXGF@Z			; ObjectID::SetProperty
PUBLIC	?InitLanguage@@YAXXZ				; InitLanguage
EXTRN	?pm@@3VPMachine@@A:BYTE				; pm
EXTRN	?GetNum@ConfigMgr@@QAEHPADHH@Z:NEAR		; ConfigMgr::GetNum
EXTRN	?Fatal@MsgMgr@@QAAXDPADHHZZ:NEAR		; MsgMgr::Fatal
EXTRN	?configMgr@@3PAVConfigMgr@@A:DWORD		; configMgr
EXTRN	?msgMgr@@3PAVMsgMgr@@A:DWORD			; msgMgr
_DATA	SEGMENT
$SG58498 DB	'language', 00H
	ORG $+3
$SG58508 DB	'C:\Documents and Settings\don\Desktop\sciw\Interp\Langua'
	DB	'ge.cpp', 00H
_DATA	ENDS
_TEXT	SEGMENT
_language$ = -4
$T58670 = -8
?InitLanguage@@YAXXZ PROC NEAR				; InitLanguage

; 23   : {

  00000	55		 push	 ebp
  00001	8b ec		 mov	 ebp, esp
  00003	83 ec 0c	 sub	 esp, 12			; 0000000cH

; 24   : 	int language = configMgr->GetNum("language", 0, ENGLISH);

  00006	6a 01		 push	 1
  00008	6a 00		 push	 0
  0000a	68 00 00 00 00	 push	 OFFSET FLAT:$SG58498
  0000f	8b 0d 00 00 00
	00		 mov	 ecx, DWORD PTR ?configMgr@@3PAVConfigMgr@@A ; configMgr
  00015	e8 00 00 00 00	 call	 ?GetNum@ConfigMgr@@QAEHPADHH@Z ; ConfigMgr::GetNum
  0001a	89 45 fc	 mov	 DWORD PTR _language$[ebp], eax

; 25   : 	if ((int) pm.game)

  0001d	0f bf 05 00 00
	00 00		 movsx	 eax, WORD PTR ?pm@@3VPMachine@@A
  00024	85 c0		 test	 eax, eax
  00026	74 63		 je	 SHORT $L58502

; 26   : 		switch(language) {

  00028	8b 4d fc	 mov	 ecx, DWORD PTR _language$[ebp]
  0002b	89 4d f4	 mov	 DWORD PTR -12+[ebp], ecx
  0002e	83 7d f4 31	 cmp	 DWORD PTR -12+[ebp], 49	; 00000031H
  00032	7f 27		 jg	 SHORT $L58671
  00034	83 7d f4 31	 cmp	 DWORD PTR -12+[ebp], 49	; 00000031H
  00038	74 32		 je	 SHORT $L58505
  0003a	8b 55 f4	 mov	 edx, DWORD PTR -12+[ebp]
  0003d	83 ea 01	 sub	 edx, 1
  00040	89 55 f4	 mov	 DWORD PTR -12+[ebp], edx
  00043	83 7d f4 26	 cmp	 DWORD PTR -12+[ebp], 38	; 00000026H
  00047	77 42		 ja	 SHORT $L58502
  00049	8b 4d f4	 mov	 ecx, DWORD PTR -12+[ebp]
  0004c	33 c0		 xor	 eax, eax
  0004e	8a 81 00 00 00
	00		 mov	 al, BYTE PTR $L58672[ecx]
  00054	ff 24 85 00 00
	00 00		 jmp	 DWORD PTR $L58673[eax*4]
$L58671:
  0005b	83 7d f4 51	 cmp	 DWORD PTR -12+[ebp], 81	; 00000051H
  0005f	74 0b		 je	 SHORT $L58505
  00061	81 7d f4 5f 01
	00 00		 cmp	 DWORD PTR -12+[ebp], 351 ; 0000015fH
  00068	74 02		 je	 SHORT $L58505
  0006a	eb 1f		 jmp	 SHORT $L58502
$L58505:

; 27   : 			case ENGLISH:
; 28   : 			case JAPANESE:
; 29   : 			case GERMAN:
; 30   : 			case FRENCH:
; 31   : 			case SPANISH:
; 32   : 			case ITALIAN:
; 33   : 			case PORTUGUESE:
; 34   : 				( (ObjectID) pm.game).SetProperty(s_printLang, language);

  0006c	66 8b 55 fc	 mov	 dx, WORD PTR _language$[ebp]
  00070	52		 push	 edx
  00071	6a 59		 push	 89			; 00000059H
  00073	66 a1 00 00 00
	00		 mov	 ax, WORD PTR ?pm@@3VPMachine@@A
  00079	50		 push	 eax
  0007a	8d 4d f8	 lea	 ecx, DWORD PTR $T58670[ebp]
  0007d	e8 00 00 00 00	 call	 ??0ObjectID@@QAE@G@Z	; ObjectID::ObjectID
  00082	8b c8		 mov	 ecx, eax
  00084	e8 00 00 00 00	 call	 ?SetProperty@ObjectID@@QBEXGF@Z ; ObjectID::SetProperty

; 35   : 				return;

  00089	eb 1e		 jmp	 SHORT $L58496
$L58502:

; 37   : 
; 38   : 	msgMgr->Fatal(SrcLoc, Msg_UnknownLanguage, language);

  0008b	8b 4d fc	 mov	 ecx, DWORD PTR _language$[ebp]
  0008e	51		 push	 ecx
  0008f	6a 21		 push	 33			; 00000021H
  00091	6a 26		 push	 38			; 00000026H
  00093	68 00 00 00 00	 push	 OFFSET FLAT:$SG58508
  00098	6a 61		 push	 97			; 00000061H
  0009a	8b 15 00 00 00
	00		 mov	 edx, DWORD PTR ?msgMgr@@3PAVMsgMgr@@A ; msgMgr
  000a0	52		 push	 edx
  000a1	e8 00 00 00 00	 call	 ?Fatal@MsgMgr@@QAAXDPADHHZZ ; MsgMgr::Fatal
  000a6	83 c4 18	 add	 esp, 24			; 00000018H
$L58496:

; 39   : }

  000a9	8b e5		 mov	 esp, ebp
  000ab	5d		 pop	 ebp
  000ac	c3		 ret	 0
$L58673:
  000ad	00 00 00 00	 DD	 $L58505
  000b1	00 00 00 00	 DD	 $L58502
$L58672:
  000b5	00		 DB	 0
  000b6	01		 DB	 1
  000b7	01		 DB	 1
  000b8	01		 DB	 1
  000b9	01		 DB	 1
  000ba	01		 DB	 1
  000bb	01		 DB	 1
  000bc	01		 DB	 1
  000bd	01		 DB	 1
  000be	01		 DB	 1
  000bf	01		 DB	 1
  000c0	01		 DB	 1
  000c1	01		 DB	 1
  000c2	01		 DB	 1
  000c3	01		 DB	 1
  000c4	01		 DB	 1
  000c5	01		 DB	 1
  000c6	01		 DB	 1
  000c7	01		 DB	 1
  000c8	01		 DB	 1
  000c9	01		 DB	 1
  000ca	01		 DB	 1
  000cb	01		 DB	 1
  000cc	01		 DB	 1
  000cd	01		 DB	 1
  000ce	01		 DB	 1
  000cf	01		 DB	 1
  000d0	01		 DB	 1
  000d1	01		 DB	 1
  000d2	01		 DB	 1
  000d3	01		 DB	 1
  000d4	01		 DB	 1
  000d5	00		 DB	 0
  000d6	00		 DB	 0
  000d7	01		 DB	 1
  000d8	01		 DB	 1
  000d9	01		 DB	 1
  000da	01		 DB	 1
  000db	00		 DB	 0
?InitLanguage@@YAXXZ ENDP				; InitLanguage
_TEXT	ENDS
PUBLIC	??0FakeObjectID@@QAE@G@Z			; FakeObjectID::FakeObjectID
;	COMDAT ??0ObjectID@@QAE@G@Z
_TEXT	SEGMENT
_h$ = 8
_this$ = -4
??0ObjectID@@QAE@G@Z PROC NEAR				; ObjectID::ObjectID, COMDAT

; 230  : 	ObjectID(SOL_Handle h) : FakeObjectID(h) {}

  00000	55		 push	 ebp
  00001	8b ec		 mov	 ebp, esp
  00003	51		 push	 ecx
  00004	89 4d fc	 mov	 DWORD PTR _this$[ebp], ecx
  00007	66 8b 45 08	 mov	 ax, WORD PTR _h$[ebp]
  0000b	50		 push	 eax
  0000c	8b 4d fc	 mov	 ecx, DWORD PTR _this$[ebp]
  0000f	e8 00 00 00 00	 call	 ??0FakeObjectID@@QAE@G@Z ; FakeObjectID::FakeObjectID
  00014	8b 45 fc	 mov	 eax, DWORD PTR _this$[ebp]
  00017	8b e5		 mov	 esp, ebp
  00019	5d		 pop	 ebp
  0001a	c2 04 00	 ret	 4
??0ObjectID@@QAE@G@Z ENDP				; ObjectID::ObjectID
_TEXT	ENDS
PUBLIC	??0MemID@@QAE@G@Z				; MemID::MemID
;	COMDAT ??0FakeObjectID@@QAE@G@Z
_TEXT	SEGMENT
_h$ = 8
_this$ = -4
??0FakeObjectID@@QAE@G@Z PROC NEAR			; FakeObjectID::FakeObjectID, COMDAT

; 224  : FakeTemplateID(FakeObjectID, Object, MemObject)

  00000	55		 push	 ebp
  00001	8b ec		 mov	 ebp, esp
  00003	51		 push	 ecx
  00004	89 4d fc	 mov	 DWORD PTR _this$[ebp], ecx
  00007	66 8b 45 08	 mov	 ax, WORD PTR _h$[ebp]
  0000b	50		 push	 eax
  0000c	8b 4d fc	 mov	 ecx, DWORD PTR _this$[ebp]
  0000f	e8 00 00 00 00	 call	 ??0MemID@@QAE@G@Z	; MemID::MemID
  00014	8b 45 fc	 mov	 eax, DWORD PTR _this$[ebp]
  00017	8b e5		 mov	 esp, ebp
  00019	5d		 pop	 ebp
  0001a	c2 04 00	 ret	 4
??0FakeObjectID@@QAE@G@Z ENDP				; FakeObjectID::FakeObjectID
_TEXT	ENDS
;	COMDAT ??0MemID@@QAE@G@Z
_TEXT	SEGMENT
_h$ = 8
_this$ = -4
??0MemID@@QAE@G@Z PROC NEAR				; MemID::MemID, COMDAT

; 23   : 	{

  00000	55		 push	 ebp
  00001	8b ec		 mov	 ebp, esp
  00003	51		 push	 ecx
  00004	89 4d fc	 mov	 DWORD PTR _this$[ebp], ecx
  00007	8b 45 fc	 mov	 eax, DWORD PTR _this$[ebp]
  0000a	66 8b 4d 08	 mov	 cx, WORD PTR _h$[ebp]
  0000e	66 89 08	 mov	 WORD PTR [eax], cx

; 24   : 	}

  00011	8b 45 fc	 mov	 eax, DWORD PTR _this$[ebp]
  00014	8b e5		 mov	 esp, ebp
  00016	5d		 pop	 ebp
  00017	c2 04 00	 ret	 4
??0MemID@@QAE@G@Z ENDP					; MemID::MemID
_TEXT	ENDS
PUBLIC	?SetProperty@Object@@QAEXGF@Z			; Object::SetProperty
PUBLIC	??CFakeObjectID@@QBEPAUObject@@XZ		; FakeObjectID::operator->
PUBLIC	?AssureValid@ObjectID@@QBEXXZ			; ObjectID::AssureValid
;	COMDAT ?SetProperty@ObjectID@@QBEXGF@Z
_TEXT	SEGMENT
_selector$ = 8
_value$ = 12
_this$ = -4
?SetProperty@ObjectID@@QBEXGF@Z PROC NEAR		; ObjectID::SetProperty, COMDAT

; 340  : 	{

  00000	55		 push	 ebp
  00001	8b ec		 mov	 ebp, esp
  00003	51		 push	 ecx
  00004	89 4d fc	 mov	 DWORD PTR _this$[ebp], ecx

; 341  : 		//	set a property given a selector
; 342  : 		AssureValid();

  00007	8b 4d fc	 mov	 ecx, DWORD PTR _this$[ebp]
  0000a	e8 00 00 00 00	 call	 ?AssureValid@ObjectID@@QBEXXZ ; ObjectID::AssureValid

; 343  : 		(*this)->SetProperty(selector, value);

  0000f	66 8b 45 0c	 mov	 ax, WORD PTR _value$[ebp]
  00013	50		 push	 eax
  00014	66 8b 4d 08	 mov	 cx, WORD PTR _selector$[ebp]
  00018	51		 push	 ecx
  00019	8b 4d fc	 mov	 ecx, DWORD PTR _this$[ebp]
  0001c	e8 00 00 00 00	 call	 ??CFakeObjectID@@QBEPAUObject@@XZ ; FakeObjectID::operator->
  00021	8b c8		 mov	 ecx, eax
  00023	e8 00 00 00 00	 call	 ?SetProperty@Object@@QAEXGF@Z ; Object::SetProperty

; 344  : 	}

  00028	8b e5		 mov	 esp, ebp
  0002a	5d		 pop	 ebp
  0002b	c2 08 00	 ret	 8
?SetProperty@ObjectID@@QBEXGF@Z ENDP			; ObjectID::SetProperty
_TEXT	ENDS
PUBLIC	?SetGraphicsUpdate@Object@@QAEXXZ		; Object::SetGraphicsUpdate
PUBLIC	?GetPropAddrCheck@Object@@QAEPAFG@Z		; Object::GetPropAddrCheck
;	COMDAT ?SetProperty@Object@@QAEXGF@Z
_TEXT	SEGMENT
_selector$ = 8
_value$ = 12
_this$ = -12
_property$ = -8
_index$ = -4
?SetProperty@Object@@QAEXGF@Z PROC NEAR			; Object::SetProperty, COMDAT

; 206  : 	{

  00000	55		 push	 ebp
  00001	8b ec		 mov	 ebp, esp
  00003	83 ec 0c	 sub	 esp, 12			; 0000000cH
  00006	89 4d f4	 mov	 DWORD PTR _this$[ebp], ecx

; 207  : 		//	set a property given a selector
; 208  : 		Property* property = GetPropAddrCheck(selector);

  00009	66 8b 45 08	 mov	 ax, WORD PTR _selector$[ebp]
  0000d	50		 push	 eax
  0000e	8b 4d f4	 mov	 ecx, DWORD PTR _this$[ebp]
  00011	e8 00 00 00 00	 call	 ?GetPropAddrCheck@Object@@QAEPAFG@Z ; Object::GetPropAddrCheck
  00016	89 45 f8	 mov	 DWORD PTR _property$[ebp], eax

; 209  : 		int index = property - (Property*) this;

  00019	8b 4d f8	 mov	 ecx, DWORD PTR _property$[ebp]
  0001c	2b 4d f4	 sub	 ecx, DWORD PTR _this$[ebp]
  0001f	d1 f9		 sar	 ecx, 1
  00021	89 4d fc	 mov	 DWORD PTR _index$[ebp], ecx

; 210  : 		if (index <= MaxGraphUpdateIndex && index >= MinGraphUpdateIndex)

  00024	83 7d fc 2b	 cmp	 DWORD PTR _index$[ebp], 43 ; 0000002bH
  00028	7f 0e		 jg	 SHORT $L57968
  0002a	83 7d fc 18	 cmp	 DWORD PTR _index$[ebp], 24 ; 00000018H
  0002e	7c 08		 jl	 SHORT $L57968

; 211  : 			SetGraphicsUpdate();

  00030	8b 4d f4	 mov	 ecx, DWORD PTR _this$[ebp]
  00033	e8 00 00 00 00	 call	 ?SetGraphicsUpdate@Object@@QAEXXZ ; Object::SetGraphicsUpdate
$L57968:

; 212  : 		*property = value;

  00038	8b 55 f8	 mov	 edx, DWORD PTR _property$[ebp]
  0003b	66 8b 45 0c	 mov	 ax, WORD PTR _value$[ebp]
  0003f	66 89 02	 mov	 WORD PTR [edx], ax

; 213  : 	}

  00042	8b e5		 mov	 esp, ebp
  00044	5d		 pop	 ebp
  00045	c2 08 00	 ret	 8
?SetProperty@Object@@QAEXGF@Z ENDP			; Object::SetProperty
_TEXT	ENDS
;	COMDAT ?SetGraphicsUpdate@Object@@QAEXXZ
_TEXT	SEGMENT
_this$ = -4
?SetGraphicsUpdate@Object@@QAEXXZ PROC NEAR		; Object::SetGraphicsUpdate, COMDAT

; 97   : 	void		SetGraphicsUpdate()		{ info |= GRAPH_UPD; }

  00000	55		 push	 ebp
  00001	8b ec		 mov	 ebp, esp
  00003	51		 push	 ecx
  00004	89 4d fc	 mov	 DWORD PTR _this$[ebp], ecx
  00007	8b 45 fc	 mov	 eax, DWORD PTR _this$[ebp]
  0000a	66 8b 48 0e	 mov	 cx, WORD PTR [eax+14]
  0000e	80 c9 08	 or	 cl, 8
  00011	8b 55 fc	 mov	 edx, DWORD PTR _this$[ebp]
  00014	66 89 4a 0e	 mov	 WORD PTR [edx+14], cx
  00018	8b e5		 mov	 esp, ebp
  0001a	5d		 pop	 ebp
  0001b	c3		 ret	 0
?SetGraphicsUpdate@Object@@QAEXXZ ENDP			; Object::SetGraphicsUpdate
_TEXT	ENDS
PUBLIC	?GetPropAddr@Object@@QAEPAFG@Z			; Object::GetPropAddr
EXTRN	?Fatal@MsgMgr@@QAAXHZZ:NEAR			; MsgMgr::Fatal
;	COMDAT ?GetPropAddrCheck@Object@@QAEPAFG@Z
_TEXT	SEGMENT
_selector$ = 8
_this$ = -8
_property$ = -4
?GetPropAddrCheck@Object@@QAEPAFG@Z PROC NEAR		; Object::GetPropAddrCheck, COMDAT

; 153  : 	{

  00000	55		 push	 ebp
  00001	8b ec		 mov	 ebp, esp
  00003	83 ec 08	 sub	 esp, 8
  00006	89 4d f8	 mov	 DWORD PTR _this$[ebp], ecx

; 154  : 		//	get a property's address, checking for valid property
; 155  : 		Property* property = GetPropAddr(selector);

  00009	66 8b 45 08	 mov	 ax, WORD PTR _selector$[ebp]
  0000d	50		 push	 eax
  0000e	8b 4d f8	 mov	 ecx, DWORD PTR _this$[ebp]
  00011	e8 00 00 00 00	 call	 ?GetPropAddr@Object@@QAEPAFG@Z ; Object::GetPropAddr
  00016	89 45 fc	 mov	 DWORD PTR _property$[ebp], eax

; 156  : 		if (!property)

  00019	83 7d fc 00	 cmp	 DWORD PTR _property$[ebp], 0
  0001d	75 1b		 jne	 SHORT $L57944

; 157  : 			msgMgr->Fatal(Msg_InvalidProperty, selector);

  0001f	8b 4d 08	 mov	 ecx, DWORD PTR _selector$[ebp]
  00022	81 e1 ff ff 00
	00		 and	 ecx, 65535		; 0000ffffH
  00028	51		 push	 ecx
  00029	6a 29		 push	 41			; 00000029H
  0002b	8b 15 00 00 00
	00		 mov	 edx, DWORD PTR ?msgMgr@@3PAVMsgMgr@@A ; msgMgr
  00031	52		 push	 edx
  00032	e8 00 00 00 00	 call	 ?Fatal@MsgMgr@@QAAXHZZ	; MsgMgr::Fatal
  00037	83 c4 0c	 add	 esp, 12			; 0000000cH
$L57944:

; 158  : 		return property;

  0003a	8b 45 fc	 mov	 eax, DWORD PTR _property$[ebp]

; 159  : 	}

  0003d	8b e5		 mov	 esp, ebp
  0003f	5d		 pop	 ebp
  00040	c2 04 00	 ret	 4
?GetPropAddrCheck@Object@@QAEPAFG@Z ENDP		; Object::GetPropAddrCheck
_TEXT	ENDS
PUBLIC	?selectorDict@Object@@QAEPAVSelectorDict@@XZ	; Object::selectorDict
PUBLIC	??AObject@@QAEAAFH@Z				; Object::operator[]
EXTRN	?get@SelectorDict@@QAEHG@Z:NEAR			; SelectorDict::get
;	COMDAT ?GetPropAddr@Object@@QAEPAFG@Z
_TEXT	SEGMENT
_selector$ = 8
_this$ = -8
_index$ = -4
?GetPropAddr@Object@@QAEPAFG@Z PROC NEAR		; Object::GetPropAddr, COMDAT

; 127  : 	{

  00000	55		 push	 ebp
  00001	8b ec		 mov	 ebp, esp
  00003	83 ec 08	 sub	 esp, 8
  00006	89 4d f8	 mov	 DWORD PTR _this$[ebp], ecx

; 128  : 		int index = selectorDict()->get ( selector );

  00009	66 8b 45 08	 mov	 ax, WORD PTR _selector$[ebp]
  0000d	50		 push	 eax
  0000e	8b 4d f8	 mov	 ecx, DWORD PTR _this$[ebp]
  00011	e8 00 00 00 00	 call	 ?selectorDict@Object@@QAEPAVSelectorDict@@XZ ; Object::selectorDict
  00016	8b c8		 mov	 ecx, eax
  00018	e8 00 00 00 00	 call	 ?get@SelectorDict@@QAEHG@Z ; SelectorDict::get
  0001d	89 45 fc	 mov	 DWORD PTR _index$[ebp], eax

; 129  : 
; 130  : 		if ( index != -1 && !selectorDict()->script )

  00020	83 7d fc ff	 cmp	 DWORD PTR _index$[ebp], -1
  00024	74 2b		 je	 SHORT $L57935
  00026	8b 4d f8	 mov	 ecx, DWORD PTR _this$[ebp]
  00029	e8 00 00 00 00	 call	 ?selectorDict@Object@@QAEPAVSelectorDict@@XZ ; Object::selectorDict
  0002e	33 c9		 xor	 ecx, ecx
  00030	66 8b 48 16	 mov	 cx, WORD PTR [eax+22]
  00034	85 c9		 test	 ecx, ecx
  00036	75 19		 jne	 SHORT $L57935

; 131  : 			return &(*this)[selectorDict()->offset]; 

  00038	8b 4d f8	 mov	 ecx, DWORD PTR _this$[ebp]
  0003b	e8 00 00 00 00	 call	 ?selectorDict@Object@@QAEPAVSelectorDict@@XZ ; Object::selectorDict
  00040	33 d2		 xor	 edx, edx
  00042	66 8b 50 14	 mov	 dx, WORD PTR [eax+20]
  00046	52		 push	 edx
  00047	8b 4d f8	 mov	 ecx, DWORD PTR _this$[ebp]
  0004a	e8 00 00 00 00	 call	 ??AObject@@QAEAAFH@Z	; Object::operator[]
  0004f	eb 02		 jmp	 SHORT $L57933
$L57935:

; 132  : 
; 133  : 		return 0;

  00051	33 c0		 xor	 eax, eax
$L57933:

; 134  : 	}

  00053	8b e5		 mov	 esp, ebp
  00055	5d		 pop	 ebp
  00056	c2 04 00	 ret	 4
?GetPropAddr@Object@@QAEPAFG@Z ENDP			; Object::GetPropAddr
_TEXT	ENDS
;	COMDAT ?selectorDict@Object@@QAEPAVSelectorDict@@XZ
_TEXT	SEGMENT
_this$ = -4
?selectorDict@Object@@QAEPAVSelectorDict@@XZ PROC NEAR	; Object::selectorDict, COMDAT

; 102  : 	SelectorDict *selectorDict ( void ) {

  00000	55		 push	 ebp
  00001	8b ec		 mov	 ebp, esp
  00003	51		 push	 ecx
  00004	89 4d fc	 mov	 DWORD PTR _this$[ebp], ecx

; 103  : 		return _selectorDict;

  00007	8b 45 fc	 mov	 eax, DWORD PTR _this$[ebp]
  0000a	8b 40 04	 mov	 eax, DWORD PTR [eax+4]

; 104  : 	};

  0000d	8b e5		 mov	 esp, ebp
  0000f	5d		 pop	 ebp
  00010	c3		 ret	 0
?selectorDict@Object@@QAEPAVSelectorDict@@XZ ENDP	; Object::selectorDict
_TEXT	ENDS
;	COMDAT ??AObject@@QAEAAFH@Z
_TEXT	SEGMENT
_index$ = 8
_this$ = -4
??AObject@@QAEAAFH@Z PROC NEAR				; Object::operator[], COMDAT

; 117  : 	{

  00000	55		 push	 ebp
  00001	8b ec		 mov	 ebp, esp
  00003	51		 push	 ecx
  00004	89 4d fc	 mov	 DWORD PTR _this$[ebp], ecx

; 118  : 		//	get a reference to a property given the number of the property
; 119  : 		return ((Property*) this)[index];

  00007	8b 45 08	 mov	 eax, DWORD PTR _index$[ebp]
  0000a	8b 4d fc	 mov	 ecx, DWORD PTR _this$[ebp]
  0000d	8d 04 41	 lea	 eax, DWORD PTR [ecx+eax*2]

; 120  : 	}

  00010	8b e5		 mov	 esp, ebp
  00012	5d		 pop	 ebp
  00013	c2 04 00	 ret	 4
??AObject@@QAEAAFH@Z ENDP				; Object::operator[]
_TEXT	ENDS
PUBLIC	??DMemID@@QBEPAXXZ				; MemID::operator*
;	COMDAT ??CFakeObjectID@@QBEPAUObject@@XZ
_TEXT	SEGMENT
_this$ = -4
??CFakeObjectID@@QBEPAUObject@@XZ PROC NEAR		; FakeObjectID::operator->, COMDAT

; 224  : FakeTemplateID(FakeObjectID, Object, MemObject)

  00000	55		 push	 ebp
  00001	8b ec		 mov	 ebp, esp
  00003	51		 push	 ecx
  00004	89 4d fc	 mov	 DWORD PTR _this$[ebp], ecx
  00007	8b 4d fc	 mov	 ecx, DWORD PTR _this$[ebp]
  0000a	e8 00 00 00 00	 call	 ??DMemID@@QBEPAXXZ	; MemID::operator*
  0000f	8b e5		 mov	 esp, ebp
  00011	5d		 pop	 ebp
  00012	c3		 ret	 0
??CFakeObjectID@@QBEPAUObject@@XZ ENDP			; FakeObjectID::operator->
_TEXT	ENDS
PUBLIC	?GetAddr@MemoryMgr@@QAEPAXG@Z			; MemoryMgr::GetAddr
EXTRN	_memMgr:DWORD
;	COMDAT ??DMemID@@QBEPAXXZ
_TEXT	SEGMENT
_this$ = -4
??DMemID@@QBEPAXXZ PROC NEAR				; MemID::operator*, COMDAT

; 98   : 	{

  00000	55		 push	 ebp
  00001	8b ec		 mov	 ebp, esp
  00003	51		 push	 ecx
  00004	89 4d fc	 mov	 DWORD PTR _this$[ebp], ecx

; 99   : 		return memMgr->GetAddr(handle);

  00007	8b 45 fc	 mov	 eax, DWORD PTR _this$[ebp]
  0000a	66 8b 08	 mov	 cx, WORD PTR [eax]
  0000d	51		 push	 ecx
  0000e	8b 0d 00 00 00
	00		 mov	 ecx, DWORD PTR _memMgr
  00014	e8 00 00 00 00	 call	 ?GetAddr@MemoryMgr@@QAEPAXG@Z ; MemoryMgr::GetAddr

; 100  : 	}

  00019	8b e5		 mov	 esp, ebp
  0001b	5d		 pop	 ebp
  0001c	c3		 ret	 0
??DMemID@@QBEPAXXZ ENDP					; MemID::operator*
_TEXT	ENDS
EXTRN	__descPtrTable:BYTE
;	COMDAT ?GetAddr@MemoryMgr@@QAEPAXG@Z
_TEXT	SEGMENT
_theID$ = 8
_this$ = -4
?GetAddr@MemoryMgr@@QAEPAXG@Z PROC NEAR			; MemoryMgr::GetAddr, COMDAT

; 462  : 	inline void* MemoryMgr::GetAddr(SOL_Handle theID) {

  00000	55		 push	 ebp
  00001	8b ec		 mov	 ebp, esp
  00003	51		 push	 ecx
  00004	89 4d fc	 mov	 DWORD PTR _this$[ebp], ecx

; 463  : //		CheckValid(theID);
; 464  : 		return _descPtrTable[(unsigned int)((unsigned short)theID)];

  00007	8b 45 08	 mov	 eax, DWORD PTR _theID$[ebp]
  0000a	25 ff ff 00 00	 and	 eax, 65535		; 0000ffffH
  0000f	8b 04 85 00 00
	00 00		 mov	 eax, DWORD PTR __descPtrTable[eax*4]

; 465  : 	}

  00016	8b e5		 mov	 esp, ebp
  00018	5d		 pop	 ebp
  00019	c2 04 00	 ret	 4
?GetAddr@MemoryMgr@@QAEPAXG@Z ENDP			; MemoryMgr::GetAddr
_TEXT	ENDS
PUBLIC	??BMemID@@QBEGXZ				; MemID::operator unsigned short
PUBLIC	?IsObject@ObjectID@@QBEHXZ			; ObjectID::IsObject
;	COMDAT ?AssureValid@ObjectID@@QBEXXZ
_TEXT	SEGMENT
_this$ = -4
?AssureValid@ObjectID@@QBEXXZ PROC NEAR			; ObjectID::AssureValid, COMDAT

; 238  : 	{

  00000	55		 push	 ebp
  00001	8b ec		 mov	 ebp, esp
  00003	51		 push	 ecx
  00004	89 4d fc	 mov	 DWORD PTR _this$[ebp], ecx

; 239  : 		if (!IsObject())

  00007	8b 4d fc	 mov	 ecx, DWORD PTR _this$[ebp]
  0000a	e8 00 00 00 00	 call	 ?IsObject@ObjectID@@QBEHXZ ; ObjectID::IsObject
  0000f	85 c0		 test	 eax, eax
  00011	75 1e		 jne	 SHORT $L58103

; 240  : 			msgMgr->Fatal(Msg_NotObject, (int) *this);

  00013	8b 4d fc	 mov	 ecx, DWORD PTR _this$[ebp]
  00016	e8 00 00 00 00	 call	 ??BMemID@@QBEGXZ	; MemID::operator unsigned short
  0001b	25 ff ff 00 00	 and	 eax, 65535		; 0000ffffH
  00020	50		 push	 eax
  00021	6a 2f		 push	 47			; 0000002fH
  00023	a1 00 00 00 00	 mov	 eax, DWORD PTR ?msgMgr@@3PAVMsgMgr@@A ; msgMgr
  00028	50		 push	 eax
  00029	e8 00 00 00 00	 call	 ?Fatal@MsgMgr@@QAAXHZZ	; MsgMgr::Fatal
  0002e	83 c4 0c	 add	 esp, 12			; 0000000cH
$L58103:

; 241  : 	}

  00031	8b e5		 mov	 esp, ebp
  00033	5d		 pop	 ebp
  00034	c3		 ret	 0
?AssureValid@ObjectID@@QBEXXZ ENDP			; ObjectID::AssureValid
_TEXT	ENDS
;	COMDAT ??BMemID@@QBEGXZ
_TEXT	SEGMENT
_this$ = -4
??BMemID@@QBEGXZ PROC NEAR				; MemID::operator unsigned short, COMDAT

; 93   : 	{

  00000	55		 push	 ebp
  00001	8b ec		 mov	 ebp, esp
  00003	51		 push	 ecx
  00004	89 4d fc	 mov	 DWORD PTR _this$[ebp], ecx

; 94   : 		return handle;

  00007	8b 45 fc	 mov	 eax, DWORD PTR _this$[ebp]
  0000a	66 8b 00	 mov	 ax, WORD PTR [eax]

; 95   : 	}

  0000d	8b e5		 mov	 esp, ebp
  0000f	5d		 pop	 ebp
  00010	c3		 ret	 0
??BMemID@@QBEGXZ ENDP					; MemID::operator unsigned short
_TEXT	ENDS
PUBLIC	?IsValid@MemID@@QBEHXZ				; MemID::IsValid
EXTRN	?GetMemType@MemID@@QBE?AW4MemType@@XZ:NEAR	; MemID::GetMemType
;	COMDAT ?IsObject@ObjectID@@QBEHXZ
_TEXT	SEGMENT
_this$ = -4
?IsObject@ObjectID@@QBEHXZ PROC NEAR			; ObjectID::IsObject, COMDAT

; 247  : 	{

  00000	55		 push	 ebp
  00001	8b ec		 mov	 ebp, esp
  00003	83 ec 08	 sub	 esp, 8
  00006	89 4d fc	 mov	 DWORD PTR _this$[ebp], ecx

; 248  : 		return IsValid() && GetMemType() == MemObject;

  00009	8b 4d fc	 mov	 ecx, DWORD PTR _this$[ebp]
  0000c	e8 00 00 00 00	 call	 ?IsValid@MemID@@QBEHXZ	; MemID::IsValid
  00011	85 c0		 test	 eax, eax
  00013	74 16		 je	 SHORT $L58690
  00015	8b 4d fc	 mov	 ecx, DWORD PTR _this$[ebp]
  00018	e8 00 00 00 00	 call	 ?GetMemType@MemID@@QBE?AW4MemType@@XZ ; MemID::GetMemType
  0001d	83 f8 34	 cmp	 eax, 52			; 00000034H
  00020	75 09		 jne	 SHORT $L58690
  00022	c7 45 f8 01 00
	00 00		 mov	 DWORD PTR -8+[ebp], 1
  00029	eb 07		 jmp	 SHORT $L58691
$L58690:
  0002b	c7 45 f8 00 00
	00 00		 mov	 DWORD PTR -8+[ebp], 0
$L58691:
  00032	8b 45 f8	 mov	 eax, DWORD PTR -8+[ebp]

; 249  : 	}

  00035	8b e5		 mov	 esp, ebp
  00037	5d		 pop	 ebp
  00038	c3		 ret	 0
?IsObject@ObjectID@@QBEHXZ ENDP				; ObjectID::IsObject
_TEXT	ENDS
PUBLIC	?IsValid@MemoryMgr@@QAEHG@Z			; MemoryMgr::IsValid
;	COMDAT ?IsValid@MemID@@QBEHXZ
_TEXT	SEGMENT
_this$ = -4
?IsValid@MemID@@QBEHXZ PROC NEAR			; MemID::IsValid, COMDAT

; 62   : 	{

  00000	55		 push	 ebp
  00001	8b ec		 mov	 ebp, esp
  00003	51		 push	 ecx
  00004	89 4d fc	 mov	 DWORD PTR _this$[ebp], ecx

; 63   : 		return memMgr->IsValid(handle);

  00007	8b 45 fc	 mov	 eax, DWORD PTR _this$[ebp]
  0000a	66 8b 08	 mov	 cx, WORD PTR [eax]
  0000d	51		 push	 ecx
  0000e	8b 0d 00 00 00
	00		 mov	 ecx, DWORD PTR _memMgr
  00014	e8 00 00 00 00	 call	 ?IsValid@MemoryMgr@@QAEHG@Z ; MemoryMgr::IsValid

; 64   : 	}

  00019	8b e5		 mov	 esp, ebp
  0001b	5d		 pop	 ebp
  0001c	c3		 ret	 0
?IsValid@MemID@@QBEHXZ ENDP				; MemID::IsValid
_TEXT	ENDS
;	COMDAT ?IsValid@MemoryMgr@@QAEHG@Z
_TEXT	SEGMENT
_theID$ = 8
_this$ = -8
_tempID$ = -4
?IsValid@MemoryMgr@@QAEHG@Z PROC NEAR			; MemoryMgr::IsValid, COMDAT

; 475  : 	inline Bool MemoryMgr::IsValid(SOL_Handle theID) {

  00000	55		 push	 ebp
  00001	8b ec		 mov	 ebp, esp
  00003	83 ec 0c	 sub	 esp, 12			; 0000000cH
  00006	89 4d f8	 mov	 DWORD PTR _this$[ebp], ecx

; 476  : 		unsigned short tempID = (unsigned short)theID;

  00009	66 8b 45 08	 mov	 ax, WORD PTR _theID$[ebp]
  0000d	66 89 45 fc	 mov	 WORD PTR _tempID$[ebp], ax

; 477  : 
; 478  : 		return(
; 479  : 				(tempID)															&&
; 480  : 				(tempID < maxDescriptors)									&&
; 481  : 				(desc[tempID].memInfo.bits.freeDescriptor == False)	&&
; 482  : 				(desc[tempID].memInfo.bits.freeMemory == False)
; 483  : 				);

  00011	8b 4d fc	 mov	 ecx, DWORD PTR _tempID$[ebp]
  00014	81 e1 ff ff 00
	00		 and	 ecx, 65535		; 0000ffffH
  0001a	85 c9		 test	 ecx, ecx
  0001c	74 58		 je	 SHORT $L58694
  0001e	8b 55 fc	 mov	 edx, DWORD PTR _tempID$[ebp]
  00021	81 e2 ff ff 00
	00		 and	 edx, 65535		; 0000ffffH
  00027	8b 45 f8	 mov	 eax, DWORD PTR _this$[ebp]
  0002a	3b 50 04	 cmp	 edx, DWORD PTR [eax+4]
  0002d	73 47		 jae	 SHORT $L58694
  0002f	8b 4d fc	 mov	 ecx, DWORD PTR _tempID$[ebp]
  00032	81 e1 ff ff 00
	00		 and	 ecx, 65535		; 0000ffffH
  00038	c1 e1 04	 shl	 ecx, 4
  0003b	8b 55 f8	 mov	 edx, DWORD PTR _this$[ebp]
  0003e	8b 42 08	 mov	 eax, DWORD PTR [edx+8]
  00041	8b 0c 08	 mov	 ecx, DWORD PTR [eax+ecx]
  00044	c1 e1 0e	 shl	 ecx, 14			; 0000000eH
  00047	c1 f9 1f	 sar	 ecx, 31			; 0000001fH
  0004a	85 c9		 test	 ecx, ecx
  0004c	75 28		 jne	 SHORT $L58694
  0004e	8b 55 fc	 mov	 edx, DWORD PTR _tempID$[ebp]
  00051	81 e2 ff ff 00
	00		 and	 edx, 65535		; 0000ffffH
  00057	c1 e2 04	 shl	 edx, 4
  0005a	8b 45 f8	 mov	 eax, DWORD PTR _this$[ebp]
  0005d	8b 48 08	 mov	 ecx, DWORD PTR [eax+8]
  00060	8b 14 11	 mov	 edx, DWORD PTR [ecx+edx]
  00063	c1 e2 14	 shl	 edx, 20			; 00000014H
  00066	c1 fa 1f	 sar	 edx, 31			; 0000001fH
  00069	85 d2		 test	 edx, edx
  0006b	75 09		 jne	 SHORT $L58694
  0006d	c7 45 f4 01 00
	00 00		 mov	 DWORD PTR -12+[ebp], 1
  00074	eb 07		 jmp	 SHORT $L58695
$L58694:
  00076	c7 45 f4 00 00
	00 00		 mov	 DWORD PTR -12+[ebp], 0
$L58695:
  0007d	8b 45 f4	 mov	 eax, DWORD PTR -12+[ebp]

; 484  : 	}

  00080	8b e5		 mov	 esp, ebp
  00082	5d		 pop	 ebp
  00083	c2 04 00	 ret	 4
?IsValid@MemoryMgr@@QAEHG@Z ENDP			; MemoryMgr::IsValid
_TEXT	ENDS
END
