 Sciw

 Timestamp is 5e362044 (Sat Feb 01 17:05:08 2020)

 Preferred load address is 00400000

 Start         Length     Name                   Class
 0001:00000000 00199e76H .text                   CODE
 0001:00199e80 000104dfH .text$x                 CODE
 0001:001aa35f 00101e01H .textbss                CODE
 0002:00000000 000024c5H CODESEG                 CODE
 0003:00000000 00021c54H .rdata                  DATA
 0003:00021c58 000001a8H .rdata$r                DATA
 0003:00021e00 0000f4b1H .xdata$x                DATA
 0003:000312c0 0000016fH .edata                  DATA
 0004:00000000 00000104H .CRT$XCA                DATA
 0004:00000104 00000104H .CRT$XCL                DATA
 0004:00000208 000002e4H .CRT$XCU                DATA
 0004:000004ec 00000104H .CRT$XCZ                DATA
 0004:000005f0 00000104H .CRT$XIA                DATA
 0004:000006f4 00000104H .CRT$XIZ                DATA
 0004:00000800 00014c7eH .data                   DATA
 0004:00015480 00093180H .bss                    DATA
 0005:00000000 00000104H .idata$2                DATA
 0005:00000104 00000014H .idata$3                DATA
 0005:00000118 00000ee8H .idata$4                DATA
 0005:00001000 00000ee8H .idata$5                DATA
 0005:00001ee8 0000241bH .idata$6                DATA
 0006:00000000 00000b16H .rsrc$01                DATA
 0006:00000b20 0000dc26H .rsrc$02                DATA

  Address         Publics by Value              Rva+Base     Lib:Object

 0001:00010b30       ?KArgList@@YAXPAF@Z        00411b30 f   Arglist.obj
 0001:00010e00       ?Free@MemID@@QAEXXZ        00411e00 f i Arglist.obj
 0001:00010e70       ??BMemID@@QBEGXZ           00411e70 f i Arglist.obj
 0001:00010eb0       ??DTextID@@QAEPADXZ        00411eb0 f i Arglist.obj
 0001:00010f20       ??DMemID@@QBEPAXXZ         00411f20 f i Arglist.obj
 0001:00010f70       ?GetAddr@MemoryMgr@@QAEPAXG@Z 00411f70 f i Arglist.obj
 0001:00010fc0       ?Get@TextID@@QAEXII@Z      00411fc0 f i Arglist.obj
 0001:00011020       ?Get@MemID@@QAEXW4MemType@@IIIPAUMemClient@@DW4ReservedHandle@@@Z 00412020 f i Arglist.obj
 0001:000110a0       ?KArray@@YAXPAF@Z          004120a0 f   Array.obj
 0001:00011700       ?ValidateArray@@YAXVMemID@@PADH@Z 00412700 f i Array.obj
 0001:000117a0       ?size@Array@@QAEGXZ        004127a0 f   Array.obj
 0001:00011830       ?elementSize@Array@@QAEGXZ 00412830 f   Array.obj
 0001:000118b0       ?checkBounds@Array@@QAEHH@Z 004128b0 f   Array.obj
 0001:00011930       ?calcAddress@Array@@QAEPAXH@Z 00412930 f   Array.obj
 0001:00011aa0       ?resize@Array@@QAEXH@Z     00412aa0 f   Array.obj
 0001:00011c20       ?at@Array@@QAEHH@Z         00412c20 f   Array.obj
 0001:00011d20       ?at@Array@@QAEXHH@Z        00412d20 f   Array.obj
 0001:00011e10       ?at@Array@@QAEXHHPAX@Z     00412e10 f   Array.obj
 0001:00011f90       ??0MemID@@QAE@ABV0@@Z      00412f90 f i Array.obj
 0001:00011fe0       ??0MemID@@QAE@G@Z          00412fe0 f i Array.obj
 0001:00012020       ?fill@Array@@QAEXHHH@Z     00413020 f   Array.obj
 0001:000121b0       ?IsValid@MemID@@QBEHXZ     004131b0 f i Array.obj
 0001:00012200       ?IsValid@MemoryMgr@@QAEHG@Z 00413200 f i Array.obj
 0001:000122d0       ?Duplicate@MemID@@QAE?AV1@XZ 004132d0 f i Array.obj
 0001:00012390       ??0MemID@@QAE@XZ           00413390 f i Array.obj
 0001:000123d0       ?copy@Array@@QAEXHVMemID@@HH@Z 004133d0 f   Array.obj
 0001:00012590       ?copy@Array@@QAEXHPAXHH@Z  00413590 f   Array.obj
 0001:00012690       ?insert@Array@@QAEXHH@Z    00413690 f   Array.obj
 0001:00012720       ?del@Array@@QAEXH@Z        00413720 f   Array.obj
 0001:000127f0       ??0ArrayID@@QAE@XZ         004137f0 f i Array.obj
 0001:00012840       ??0FakeArrayID@@QAE@XZ     00413840 f i Array.obj
 0001:00012890       ??0ArrayID@@QAE@G@Z        00413890 f i Array.obj
 0001:000128e0       ??0FakeArrayID@@QAE@G@Z    004138e0 f i Array.obj
 0001:00012930       ??0ArrayID@@QAE@HW4ArrayType@@@Z 00413930 f i Array.obj
 0001:000129d0       ??DFakeArrayID@@QBEPAUArrayHeader@@XZ 004139d0 f i Array.obj
 0001:00012a20       ?Get@ArrayID@@QAEXI@Z      00413a20 f i Array.obj
 0001:00012a80       ??0Array@@QAE@XZ           00413a80 f i Array.obj
 0001:00012ae0       ??0Array@@QAE@VMemID@@@Z   00413ae0 f i Array.obj
 0001:00012b50       ??1Array@@QAE@XZ           00413b50 f i Array.obj
 0001:00012b80       ?memType@Array@@QAE?AW4MemType@@XZ 00413b80 f i Array.obj
 0001:00012be0       ?dataID@Array@@QAE?AVMemID@@XZ 00413be0 f i Array.obj
 0001:00012c30       ?dataID@Array@@QAEXVMemID@@@Z 00413c30 f i Array.obj
 0001:00012c70       ??0ObjectID@@QAE@XZ        00413c70 f i Array.obj
 0001:00012cc0       ??0FakeObjectID@@QAE@XZ    00413cc0 f i Array.obj
 0001:00012d10       ??0ObjectID@@QAE@G@Z       00413d10 f i Array.obj
 0001:00012d60       ??0FakeObjectID@@QAE@G@Z   00413d60 f i Array.obj
 0001:00012db0       ?IsObject@ObjectID@@QBEHXZ 00413db0 f i Array.obj
 0001:00012e20       ?GetProperty@ObjectID@@QBEFG@Z 00413e20 f i Array.obj
 0001:00012e80       ?GetProperty@Object@@QAEFG@Z 00413e80 f i Array.obj
 0001:00012ed0       ?GetPropAddrCheck@Object@@QAEPAFG@Z 00413ed0 f i Array.obj
 0001:00012f50       ?GetPropAddr@Object@@QAEPAFG@Z 00413f50 f i Array.obj
 0001:00012ff0       ?selectorDict@Object@@QAEPAVSelectorDict@@XZ 00413ff0 f i Array.obj
 0001:00013030       ??AObject@@QAEAAFH@Z       00414030 f i Array.obj
 0001:00013070       ??CFakeObjectID@@QBEPAUObject@@XZ 00414070 f i Array.obj
 0001:000130c0       ?AssureValid@ObjectID@@QBEXXZ 004140c0 f i Array.obj
 0001:00013ac0       ?Clear@Breakpoint@@UAEXXZ  00414ac0 f   Breakpt.obj
 0001:00013b10       ?Test@Breakpoint@@UAEXXZ   00414b10 f   Breakpt.obj
 0001:00013c20       ??0OpcodeBreakpoint@@QAE@XZ 00414c20 f i Breakpt.obj
 0001:00013c80       ?Set@Breakpoint@@UAEHH@Z   00414c80 f i Breakpt.obj
 0001:00013cc0       ??0Breakpoint@@QAE@XZ      00414cc0 f i Breakpt.obj
 0001:00013d00       ?Triggered@Breakpoint@@UAEHXZ 00414d00 f i Breakpt.obj
 0001:00013d30       ?AddOpcode@OpcodeBreakpoint@@IAEXE@Z 00414d30 f   Breakpt.obj
 0001:00013dd0       ?Clear@OpcodeBreakpoint@@UAEXXZ 00414dd0 f   Breakpt.obj
 0001:00013e20       ?Set@OpcodeBreakpoint@@QAAXEZZ 00414e20 f   Breakpt.obj
 0001:00013eb0       ?Triggered@OpcodeBreakpoint@@UAEHXZ 00414eb0 f   Breakpt.obj
 0001:00013fc0       ??0StepOverSourceBreakpoint@@QAE@XZ 00414fc0 f i Breakpt.obj
 0001:00014020       ?Set@StepOverSourceBreakpoint@@QAEXXZ 00415020 f   Breakpt.obj
 0001:00014080       ?Triggered@StepOverSourceBreakpoint@@UAEHXZ 00415080 f   Breakpt.obj
 0001:00014180       ??0PMIPStackBreakpoint@@QAE@XZ 00415180 f i Breakpt.obj
 0001:000141e0       ?Set@PMIPStackBreakpoint@@QAEXPAF@Z 004151e0 f   Breakpt.obj
 0001:00014220       ?Triggered@PMIPStackBreakpoint@@UAEHXZ 00415220 f   Breakpt.obj
 0001:000142f0       ??0ScriptBreakpoint@@QAE@XZ 004152f0 f i Breakpt.obj
 0001:00014350       ?Set@ScriptBreakpoint@@QAEXIIH@Z 00415350 f   Breakpt.obj
 0001:000143b0       ?Set@ScriptBreakpoint@@UAEHH@Z 004153b0 f   Breakpt.obj
 0001:00014470       ??0ScriptID@@QAE@ABU0@@Z   00415470 f i Breakpt.obj
 0001:000144c0       ?Triggered@ScriptBreakpoint@@UAEHXZ 004154c0 f   Breakpt.obj
 0001:000145b0       ??0MethodBreakpoint@@QAE@XZ 004155b0 f i Breakpt.obj
 0001:00014610       ?IsInMethod@MethodBreakpoint@@QAEHXZ 00415610 f   Breakpt.obj
 0001:000146e0       ??0Entry@SendStack@@QAE@ABU01@@Z 004156e0 f i Breakpt.obj
 0001:00014740       ?Set@MethodBreakpoint@@UAEHH@Z 00415740 f   Breakpt.obj
 0001:00014800       ?Test@MethodBreakpoint@@UAEXXZ 00415800 f   Breakpt.obj
 0001:00014940       ??0MemoryBreakpoint@@QAE@XZ 00415940 f i Breakpt.obj
 0001:000149a0       ?Set@MemoryBreakpoint@@UAEHH@Z 004159a0 f   Breakpt.obj
 0001:00014ad0       ?Test@MemoryBreakpoint@@UAEXXZ 00415ad0 f   Breakpt.obj
 0001:00014c70       ??AMemID@@QBEAADI@Z        00415c70 f i Breakpt.obj
 0001:00014cd0       ??0PropertyBreakpoint@@QAE@XZ 00415cd0 f i Breakpt.obj
 0001:00014d30       ?Set@PropertyBreakpoint@@QAEHVObjectID@@H@Z 00415d30 f   Breakpt.obj
 0001:00014e00       ??8MemID@@QBEHABV0@@Z      00415e00 f i Breakpt.obj
 0001:00014e50       ?Test@PropertyBreakpoint@@UAEXXZ 00415e50 f   Breakpt.obj
 0001:00015020       ??0KernelBreakpoint@@QAE@XZ 00416020 f i Breakpt.obj
 0001:00015080       ?Set@KernelBreakpoint@@UAEHH@Z 00416080 f   Breakpt.obj
 0001:000151d0       ?Triggered@KernelBreakpoint@@UAEHXZ 004161d0 f   Breakpt.obj
 0001:00015280       ??0Breakpoints@@QAE@XZ     00416280 f   Breakpt.obj
 0001:000152c0       ?Add@Breakpoints@@IAEXAAVBreakpoint@@@Z 004162c0 f   Breakpt.obj
 0001:00015380       ?Clear@Breakpoints@@QAEXXZ 00416380 f   Breakpt.obj
 0001:00015410       ?HandleEvent@Breakpoints@@QAEHH@Z 00416410 f   Breakpt.obj
 0001:000156d0       ?Remove@Breakpoints@@QAEXAAVBreakpoint@@@Z 004166d0 f   Breakpt.obj
 0001:000157d0       ?Set@Breakpoints@@IAEXAAVBreakpoint@@H@Z 004167d0 f   Breakpt.obj
 0001:00015840       ?SetPropertyBreakpoint@Breakpoints@@QAEXVObjectID@@H@Z 00416840 f   Breakpt.obj
 0001:000158c0       ?StepOut@Breakpoints@@IAEXXZ 004168c0 f   Breakpt.obj
 0001:00015930       ?StepSource@Breakpoints@@QAEXXZ 00416930 f   Breakpt.obj
 0001:000159a0       ?StepOverSource@Breakpoints@@QAEXXZ 004169a0 f   Breakpt.obj
 0001:00015a10       ?StepOver@Breakpoints@@QAEXXZ 00416a10 f   Breakpt.obj
 0001:00015b80       ?Test@Breakpoints@@QAEXXZ  00416b80 f   Breakpt.obj
 0001:00015c10       ??CScriptID@@QBEPAUScript@@XZ 00416c10 f i Breakpt.obj
 0001:00015c60       ??0ObjectID@@QAE@ABVMemID@@@Z 00416c60 f i Breakpt.obj
 0001:00015cb0       ??0FakeObjectID@@QAE@ABVMemID@@@Z 00416cb0 f i Breakpt.obj
 0001:00015d00       ??0ObjectID@@QAE@ABV0@@Z   00416d00 f i Breakpt.obj
 0001:00015d50       ?GetPropAtOffset@ObjectID@@QBEFI@Z 00416d50 f i Breakpt.obj
 0001:00015dc0       ?GetPropAtOffset@Object@@QAEAAFI@Z 00416dc0 f i Breakpt.obj
 0001:00015e00       ?GetPropOffset@ObjectID@@QBEIG@Z 00416e00 f i Breakpt.obj
 0001:00015e60       ?GetPropOffset@Object@@QAEIG@Z 00416e60 f i Breakpt.obj
 0001:00015ee0       ?Name@ObjectID@@QBEPBDXZ   00416ee0 f i Breakpt.obj
 0001:00015f50       ??0BufferStd@@QAE@HHPAE@Z  00416f50 f   Bufferd.obj
 0001:00015fc0       ??0BufferStd@@QAE@ABV0@@Z  00416fc0 f   Bufferd.obj
 0001:00016030       ??4BufferStd@@QAEAAV0@ABV0@@Z 00417030 f   Bufferd.obj
 0001:00016080       ??0Buffer@@IAE@HH@Z        00417080 f i Bufferd.obj
 0001:000160e0       ??0Buffer@@IAE@ABV0@@Z     004170e0 f i Bufferd.obj
 0001:00016140       ?Clear@BufferStd@@UBEXE@Z  00417140 f i Bufferd.obj
 0001:000161b0       ?IsNull@BufferStd@@UBEHXZ  004171b0 f i Bufferd.obj
 0001:000161f0       ?Addr@BufferStd@@UBEPAEHH@Z 004171f0 f i Bufferd.obj
 0001:00016240       ??0BufferWin@@QAE@HHPAE@Z  00417240 f   Bufferw.obj
 0001:000162b0       ??0BufferWin@@QAE@ABV0@@Z  004172b0 f   Bufferw.obj
 0001:00016320       ??4BufferWin@@QAEAAV0@ABV0@@Z 00417320 f   Bufferw.obj
 0001:00016370       ?Clear@BufferWin@@UBEXE@Z  00417370 f i Bufferw.obj
 0001:000163e0       ?IsNull@BufferWin@@UBEHXZ  004173e0 f i Bufferw.obj
 0001:00016420       ?Addr@BufferWin@@UBEPAEHH@Z 00417420 f i Bufferw.obj
 0001:000165c0       ??1CelObjArray@CelObj@@QAE@XZ 004175c0 f i Celobj.obj
 0001:00016610       ??0CelObjArray@CelObj@@QAE@XZ 00417610 f i Celobj.obj
 0001:00016670       ?ValidateControlTable@@YAXVMemID@@HHHPADH@Z 00417670 f   Celobj.obj
 0001:00016910       ?ValidateControlTable@@YAXHHHPADH@Z 00417910 f   Celobj.obj
 0001:000169c0       ?CheckBuffer@@YAHPAJ0PAEH@Z 004179c0 f   Celobj.obj
 0001:000169f0       ?ValidateView@@YAXVMemID@@HPADH@Z 004179f0 f   Celobj.obj
 0001:00016ba0       ?CheckView@@YAHVMemID@@@Z  00417ba0 f   Celobj.obj
 0001:00016d90       ?ValidateViews@@YAXPADH@Z  00417d90 f   Celobj.obj
 0001:00016e50       ?size@SOL_List@@QAEAAHXZ   00417e50 f i Celobj.obj
 0001:00016e90       ??0CelObj@@QAE@ABV0@@Z     00417e90 f   Celobj.obj
 0001:00016fe0       ??8CelObj@@QBEHABV0@@Z     00417fe0 f   Celobj.obj
 0001:00017100       ?SearchCache@CelObj@@QBEHVBitmap@@PAH@Z 00418100 f   Celobj.obj
 0001:000171f0       ?FindReplacementEntryInCache@CelObj@@QBEHXZ 004181f0 f   Celobj.obj
 0001:00017300       ?PutCopyInCache@CelObj@@QAEXXZ 00418300 f   Celobj.obj
 0001:00017400       ?SubmitPalette@CelObj@@QAEXXZ 00418400 f   Celobj.obj
 0001:000174d0       ?Draw@CelObj@@QAEXABVBuffer@@ABVScreenItem@@ABVSOL_Rect@@@Z 004184d0 f   Celobj.obj
 0001:00017d10       ?DrawTo@CelObj@@QAEXABVBuffer@@ABVSOL_Rect@@VSOL_Point@@VRatio@@3@Z 00418d10 f   Celobj.obj
 0001:00018040       ?AnalyzeForRemap@CelObjView@@QAEHXZ 00419040 f   Celobj.obj
 0001:00018340       ?AnalyzeUncompForRemap@CelObjView@@QAEHXZ 00419340 f   Celobj.obj
 0001:000184a0       ?AnalyzeForSkip@CelObjPic@@IAEHXZ 004194a0 f   Celobj.obj
 0001:000186a0       ?AnalyzeUncompForSkip@CelObjPic@@IAEHXZ 004196a0 f   Celobj.obj
 0001:000187b0       ?ScaleTables@CelObj@@QAEXABVRatio@@0@Z 004197b0 f   Celobj.obj
 0001:00018c60       ??_H@YGXPAXIHP6EX0@Z@Z     00419c60 f i Celobj.obj
 0001:00018cd0       ?DoTable@CelObj@@QAEXPAHABVRatio@@@Z 00419cd0 f   Celobj.obj
 0001:00018e50       ?ReadPix@CelObj@@UAEEHHH@Z 00419e50 f   Celobj.obj
 0001:00019100       ?ReadLineSpan@CelObj@@QAE?AVSOL_Rect@@H@Z 0041a100 f   Celobj.obj
 0001:000193d0       ?CompareLinkArray@@YAHPBX0@Z 0041a3d0 f   Celobj.obj
 0001:00019450       ?GetFirstLink@CelObj@@QAEFXZ 0041a450 f   Celobj.obj
 0001:00019600       ?GetNextLink@CelObj@@QAEFH@Z 0041a600 f   Celobj.obj
 0001:00019820       ?GetLinkPoint@CelObj@@QAEFHH@Z 0041a820 f   Celobj.obj
 0001:00019a40       ?ResPointer@CelObjView@@UAEPAEXZ 0041aa40 f   Celobj.obj
 0001:00019ad0       ?Draw@CelObjView@@UAEXABVBuffer@@ABVScreenItem@@ABVSOL_Rect@@H@Z 0041aad0 f   Celobj.obj
 0001:00019b50       ?Draw@CelObjView@@UAEXABVBuffer@@ABVSOL_Rect@@VSOL_Point@@H@Z 0041ab50 f   Celobj.obj
 0001:00019c20       ?Draw@CelObjView@@QAEXABVBuffer@@ABVSOL_Rect@@VSOL_Point@@HVRatio@@3@Z 0041ac20 f   Celobj.obj
 0001:00019cd0       ??0CelObjView@@QAE@HHH@Z   0041acd0 f   Celobj.obj
 0001:0001a300       ??0Bitmap@@QAE@ABV0@@Z     0041b300 f i Celobj.obj
 0001:0001a3a0       ??4CelObjView@@QAEAAV0@ABV0@@Z 0041b3a0 f i Celobj.obj
 0001:0001a3f0       ??4CelObj@@QAEAAV0@ABV0@@Z 0041b3f0 f i Celobj.obj
 0001:0001a510       ??0CelObjMem@@QAE@VMemID@@@Z 0041b510 f   Celobj.obj
 0001:0001a6e0       ?ResPointer@CelObjMem@@UAEPAEXZ 0041b6e0 f   Celobj.obj
 0001:0001a7e0       ?Draw@CelObjMem@@UAEXABVBuffer@@ABVScreenItem@@ABVSOL_Rect@@H@Z 0041b7e0 f   Celobj.obj
 0001:0001a840       ?Draw@CelObjMem@@QAEXABVBuffer@@ABVSOL_Rect@@VSOL_Point@@HVRatio@@3@Z 0041b840 f   Celobj.obj
 0001:0001a8d0       ?Draw@CelObjMem@@UAEXABVBuffer@@ABVSOL_Rect@@VSOL_Point@@H@Z 0041b8d0 f   Celobj.obj
 0001:0001a980       ?CreateHBitmap@CelObj@@QAEPAUHBITMAP__@@NPAK@Z 0041b980 f   Celobj.obj
 0001:0001aa00       ?CreateHBitmap@CelObj@@QAEPAUHBITMAP__@@NAAVRatio@@0PAK@Z 0041ba00 f   Celobj.obj
 0001:0001b220       ??0CelObjColor@@QAE@EHH@Z  0041c220 f   Celobj.obj
 0001:0001b2f0       ?Draw@CelObjColor@@UAEXABVBuffer@@ABVScreenItem@@ABVSOL_Rect@@H@Z 0041c2f0 f   Celobj.obj
 0001:0001b350       ?Draw@CelObjColor@@QAEXABVBuffer@@ABVSOL_Rect@@@Z 0041c350 f   Celobj.obj
 0001:0001b440       ?Draw@CelObjColor@@UAEXABVBuffer@@ABVSOL_Rect@@VSOL_Point@@H@Z 0041c440 f   Celobj.obj
 0001:0001b4b0       ?ResPointer@CelObjColor@@MAEPAEXZ 0041c4b0 f   Celobj.obj
 0001:0001b520       ??0CelObjPic@@QAE@HH@Z     0041c520 f   Celobj.obj
 0001:0001b990       ??_GCelObjPic@@UAEPAXI@Z   0041c990 f i Celobj.obj
 0001:0001b990       ??_ECelObjPic@@UAEPAXI@Z   0041c990 f i Celobj.obj
 0001:0001ba00       ??4CelObjPic@@QAEAAV0@ABV0@@Z 0041ca00 f i Celobj.obj
 0001:0001ba90       ??1CelObjPic@@UAE@XZ       0041ca90 f i Celobj.obj
 0001:0001bae0       ??0CelObjPic@@QAE@ABV0@@Z  0041cae0 f   Celobj.obj
 0001:0001bbc0       ?Draw@CelObjPic@@UAEXABVBuffer@@ABVScreenItem@@ABVSOL_Rect@@H@Z 0041cbc0 f   Celobj.obj
 0001:0001bc20       ?Draw@CelObjPic@@UAEXABVBuffer@@ABVSOL_Rect@@VSOL_Point@@H@Z 0041cc20 f   Celobj.obj
 0001:0001bcd0       ?ResPointer@CelObjPic@@MAEPAEXZ 0041ccd0 f   Celobj.obj
 0001:0001bd60       ?CheckValid@MemoryMgr@@QAEXG@Z 0041cd60 f i Celobj.obj
 0001:0001bdd0       ??0SOL_Point@@QAE@XZ       0041cdd0 f i Celobj.obj
 0001:0001be20       ??0SOL_Point@@QAE@HH@Z     0041ce20 f i Celobj.obj
 0001:0001be70       ??0SOL_Point@@QAE@ABV0@@Z  0041ce70 f i Celobj.obj
 0001:0001bec0       ??4SOL_Point@@QAEAAV0@ABV0@@Z 0041cec0 f i Celobj.obj
 0001:0001bf10       ??ASOLPalette@@QAEAAVRgb24F@@H@Z 0041cf10 f i Celobj.obj
 0001:0001bf50       ??0HunkPalette@@QAE@XZ     0041cf50 f i Celobj.obj
 0001:0001bf90       ??0Ratio@@QAE@XZ           0041cf90 f i Celobj.obj
 0001:0001bfe0       ??0Ratio@@QAE@H@Z          0041cfe0 f i Celobj.obj
 0001:0001c030       ??0Ratio@@QAE@HH@Z         0041d030 f i Celobj.obj
 0001:0001c080       ?IsOne@Ratio@@QBEHXZ       0041d080 f i Celobj.obj
 0001:0001c0d0       ??0Bitmap@@QAE@XZ          0041d0d0 f i Celobj.obj
 0001:0001c150       ?IsPic@Bitmap@@QBEHXZ      0041d150 f i Celobj.obj
 0001:0001c190       ?View@Bitmap@@QBEHXZ       0041d190 f i Celobj.obj
 0001:0001c1d0       ?Loop@Bitmap@@QBEHXZ       0041d1d0 f i Celobj.obj
 0001:0001c210       ?Cel@Bitmap@@QBEHXZ        0041d210 f i Celobj.obj
 0001:0001c250       ?Pic@Bitmap@@QBEHXZ        0041d250 f i Celobj.obj
 0001:0001c290       ?Color@Bitmap@@QBEHXZ      0041d290 f i Celobj.obj
 0001:0001c2d0       ?Handle@Bitmap@@QBE?AVMemID@@XZ 0041d2d0 f i Celobj.obj
 0001:0001c330       ?SetCel@Bitmap@@QAEXH@Z    0041d330 f i Celobj.obj
 0001:0001c370       ?SetLoop@Bitmap@@QAEXH@Z   0041d370 f i Celobj.obj
 0001:0001c3b0       ??1CelObj@@UAE@XZ          0041d3b0 f i Celobj.obj
 0001:0001c3f0       ?Skip@CelObj@@QBEEXZ       0041d3f0 f i Celobj.obj
 0001:0001c430       ??0CelObj@@QAE@HHH@Z       0041d430 f i Celobj.obj
 0001:0001c4d0       ??0Bitmap@@QAE@HHH@Z       0041d4d0 f i Celobj.obj
 0001:0001c550       ??0CelObj@@QAE@HH@Z        0041d550 f i Celobj.obj
 0001:0001c5f0       ??0Bitmap@@QAE@HH@Z        0041d5f0 f i Celobj.obj
 0001:0001c670       ??0CelObj@@QAE@VMemID@@@Z  0041d670 f i Celobj.obj
 0001:0001c710       ??0Bitmap@@QAE@VMemID@@@Z  0041d710 f i Celobj.obj
 0001:0001c7a0       ??0CelObj@@QAE@E@Z         0041d7a0 f i Celobj.obj
 0001:0001c800       ??0Bitmap@@QAE@E@Z         0041d800 f i Celobj.obj
 0001:0001c890       ??0CelObjArrayItem@CelObjArray@CelObj@@QAE@XZ 0041d890 f i Celobj.obj
 0001:0001c8e0       ??ACelObjArray@CelObj@@QAEAAUCelObjArrayItem@01@H@Z 0041d8e0 f i Celobj.obj
 0001:0001c920       ??_GCelObj@@UAEPAXI@Z      0041d920 f i Celobj.obj
 0001:0001c920       ??_ECelObj@@UAEPAXI@Z      0041d920 f i Celobj.obj
 0001:0001c990       ?Duplicate@CelObjView@@UBEPAVCelObj@@XZ 0041d990 f i Celobj.obj
 0001:0001ca50       ??0CelObjView@@QAE@ABV0@@Z 0041da50 f i Celobj.obj
 0001:0001cab0       ??_ECelObjView@@UAEPAXI@Z  0041dab0 f i Celobj.obj
 0001:0001cab0       ??_GCelObjView@@UAEPAXI@Z  0041dab0 f i Celobj.obj
 0001:0001cb20       ??1CelObjView@@UAE@XZ      0041db20 f i Celobj.obj
 0001:0001cb70       ?Duplicate@CelObjMem@@UBEPAVCelObj@@XZ 0041db70 f i Celobj.obj
 0001:0001cc30       ??0CelObjMem@@QAE@ABV0@@Z  0041dc30 f i Celobj.obj
 0001:0001cc90       ??_ECelObjMem@@UAEPAXI@Z   0041dc90 f i Celobj.obj
 0001:0001cc90       ??_GCelObjMem@@UAEPAXI@Z   0041dc90 f i Celobj.obj
 0001:0001cd00       ??1CelObjMem@@UAE@XZ       0041dd00 f i Celobj.obj
 0001:0001cd50       ?Duplicate@CelObjPic@@UBEPAVCelObj@@XZ 0041dd50 f i Celobj.obj
 0001:0001ce10       ?Duplicate@CelObjColor@@UBEPAVCelObj@@XZ 0041de10 f i Celobj.obj
 0001:0001ced0       ??0CelObjColor@@QAE@ABV0@@Z 0041ded0 f i Celobj.obj
 0001:0001cf30       ??_ECelObjColor@@UAEPAXI@Z 0041df30 f i Celobj.obj
 0001:0001cf30       ??_GCelObjColor@@UAEPAXI@Z 0041df30 f i Celobj.obj
 0001:0001cfa0       ??1CelObjColor@@UAE@XZ     0041dfa0 f i Celobj.obj
 0001:0001cff0       ??1CelObjArrayItem@CelObjArray@CelObj@@QAE@XZ 0041dff0 f i Celobj.obj
 0001:0001d070       ??8Bitmap@@QBEHABV0@@Z     0041e070 f i Celobj.obj
 0001:0001d130       ??0SOL_Rect@@QAE@XZ        0041e130 f i Celobj.obj
 0001:0001d190       ??0SOL_Rect@@QAE@HHHH@Z    0041e190 f i Celobj.obj
 0001:0001d220       ?Xlen@SOL_Rect@@QBEHXZ     0041e220 f i Celobj.obj
 0001:0001d260       ?Ylen@SOL_Rect@@QBEHXZ     0041e260 f i Celobj.obj
 0001:0001d2a0       ?Scale@SOL_Rect@@QAEXHHHH@Z 0041e2a0 f i Celobj.obj
 0001:0001d340       ?ScaleX@ScreenItem@@QBE?AVRatio@@XZ 0041e340 f i Celobj.obj
 0001:0001d3a0       ?ScaleY@ScreenItem@@QBE?AVRatio@@XZ 0041e3a0 f i Celobj.obj
 0001:0001d400       ?X1@ScreenItem@@QBEHXZ     0041e400 f i Celobj.obj
 0001:0001d440       ?Y1@ScreenItem@@QBEHXZ     0041e440 f i Celobj.obj
 0001:0001d480       ?XDim@Buffer@@QBEHXZ       0041e480 f i Celobj.obj
 0001:0001d4c0       ??0SOL_Rect@@QAE@ABV0@@Z   0041e4c0 f i Celobj.obj
 0001:0001d530       ?DrawHzFlip@CelObj@@QAEXABVBuffer@@ABVSOL_Rect@@VSOL_Point@@@Z 0041e530 f   Celobj1.obj
 0001:0001dae0       ?DrawNoFlip@CelObj@@QAEXABVBuffer@@ABVSOL_Rect@@VSOL_Point@@@Z 0041eae0 f   Celobj1.obj
 0001:0001e060       ?DrawUncompNoFlip@CelObj@@QAEXABVBuffer@@ABVSOL_Rect@@VSOL_Point@@@Z 0041f060 f   Celobj1.obj
 0001:0001e2c0       ?DrawUncompHzFlip@CelObj@@QAEXABVBuffer@@ABVSOL_Rect@@VSOL_Point@@@Z 0041f2c0 f   Celobj1.obj
 0001:0001e540       ?ScaleDraw@CelObj@@QAEXABVBuffer@@ABVRatio@@1ABVSOL_Rect@@ABVSOL_Point@@@Z 0041f540 f   Celobj1.obj
 0001:0001eda0       ?ScaleDrawUncomp@CelObj@@QAEXABVBuffer@@ABVRatio@@1ABVSOL_Rect@@ABVSOL_Point@@@Z 0041fda0 f   Celobj1.obj
 0001:0001f180       ?YDim@Buffer@@QBEHXZ       00420180 f i Celobj1.obj
 0001:0001f1c0       ?Assert@Buffer@@QBEHXZ     004201c0 f i Celobj1.obj
 0001:0001f220       ?DrawHzFlipMap@CelObj@@QAEXABVBuffer@@ABVSOL_Rect@@VSOL_Point@@@Z 00420220 f   Celobj2.obj
 0001:0001f8a0       ?DrawNoFlipMap@CelObj@@QAEXABVBuffer@@ABVSOL_Rect@@VSOL_Point@@@Z 004208a0 f   Celobj2.obj
 0001:0001fef0       ?DrawUncompNoFlipMap@CelObj@@QAEXABVBuffer@@ABVSOL_Rect@@VSOL_Point@@@Z 00420ef0 f   Celobj2.obj
 0001:000201a0       ?DrawUncompHzFlipMap@CelObj@@QAEXABVBuffer@@ABVSOL_Rect@@VSOL_Point@@@Z 004211a0 f   Celobj2.obj
 0001:00020480       ?ScaleDrawMap@CelObj@@QAEXABVBuffer@@ABVRatio@@1ABVSOL_Rect@@ABVSOL_Point@@@Z 00421480 f   Celobj2.obj
 0001:00020d40       ?ScaleDrawUncompMap@CelObj@@QAEXABVBuffer@@ABVRatio@@1ABVSOL_Rect@@ABVSOL_Point@@@Z 00421d40 f   Celobj2.obj
 0001:00021400       ?DrawHzFlipNoMD@CelObj@@QAEXABVBuffer@@ABVSOL_Rect@@VSOL_Point@@@Z 00422400 f   Celobja.obj
 0001:000216e0       ?DrawNoFlipNoMD@CelObj@@QAEXABVBuffer@@ABVSOL_Rect@@VSOL_Point@@@Z 004226e0 f   Celobja.obj
 0001:000219a0       ?DrawUncompNoFlipNoMD@CelObj@@QAEXABVBuffer@@ABVSOL_Rect@@VSOL_Point@@@Z 004229a0 f   Celobja.obj
 0001:00021b80       ?DrawUncompNoFlipNoMDNoSkip@CelObj@@QAEXABVBuffer@@ABVSOL_Rect@@VSOL_Point@@@Z 00422b80 f   Celobja.obj
 0001:00021d30       ?DrawUncompHzFlipNoMD@CelObj@@QAEXABVBuffer@@ABVSOL_Rect@@VSOL_Point@@@Z 00422d30 f   Celobja.obj
 0001:00021f20       ?DrawUncompHzFlipNoMDNoSkip@CelObj@@QAEXABVBuffer@@ABVSOL_Rect@@VSOL_Point@@@Z 00422f20 f   Celobja.obj
 0001:00022110       ?ScaleDrawNoMD@CelObj@@QAEXABVBuffer@@ABVRatio@@1ABVSOL_Rect@@ABVSOL_Point@@@Z 00423110 f   Celobja.obj
 0001:00022780       ?ScaleDrawUncompNoMD@CelObj@@QAEXABVBuffer@@ABVRatio@@1ABVSOL_Rect@@ABVSOL_Point@@@Z 00423780 f   Celobja.obj
 0001:000234b0       ??0ConfigMgr@@QAE@PBDHPAPAD@Z 004244b0 f   Config.obj
 0001:00023520       ?ReadCommandLine@ConfigMgr@@IAEXPBDHPAPAD@Z 00424520 f   Config.obj
 0001:000238d0       ?FindConfigFile@ConfigMgr@@SAHPADPBD@Z 004248d0 f   Config.obj
 0001:00023940       ?IsFlag@ConfigMgr@@IAE?AW4Flag@1@D@Z 00424940 f   Config.obj
 0001:000239c0       ?ShowUsage@ConfigMgr@@IBEXXZ 004249c0 f   Config.obj
 0001:00023bd0       ?ReadFile@ConfigMgr@@IAEXXZ 00424bd0 f   Config.obj
 0001:00023d40       ?Tokenize@ConfigMgr@@IAEHPAD@Z 00424d40 f   Config.obj
 0001:00023eb0       ?GetNum@ConfigMgr@@QAEHPADHH@Z 00424eb0 f   Config.obj
 0001:00024080       ?Get@ConfigMgr@@QAEPADPADH@Z 00425080 f   Config.obj
 0001:00024100       ?Get@ConfigMgr@@QAEPADW4MemType@@H@Z 00425100 f   Config.obj
 0001:00024180       ?GetBool@ConfigMgr@@QAEHPADH@Z 00425180 f   Config.obj
 0001:00024340       ?GetBool@ConfigMgr@@QAEHW4MemType@@H@Z 00425340 f   Config.obj
 0001:000244b0       ?Str@ConfigMgr@@QAEPADW4Flag@1@@Z 004254b0 f   Config.obj
 0001:000244f0       ?Get@ConfigMgr@@QAEHW4Flag@1@@Z 004254f0 f   Config.obj
 0001:00024530       ?Arg@ConfigMgr@@QAEHW4Flag@1@@Z 00425530 f   Config.obj
 0001:00024570       ?Val@ConfigMgr@@QAEHW4Flag@1@@Z 00425570 f   Config.obj
 0001:000245b0       ?GetNTokens@ConfigMgr@@QAEHPAD@Z 004255b0 f   Config.obj
 0001:00024620       ?GetNTokens@ConfigMgr@@QAEHW4MemType@@@Z 00425620 f   Config.obj
 0001:00024690       ?AddTokenToFront@ConfigMgr@@QAEXPAD0@Z 00425690 f   Config.obj
 0001:00024800       ?GetEntry@ConfigMgr@@IAEPAVConfigEntry@@PAD@Z 00425800 f   Config.obj
 0001:000248a0       ?Claimed@ConfigMgr@@QAEHPAD@Z 004258a0 f   Config.obj
 0001:00024900       ?Claimed@ConfigEntry@@QAEHXZ 00425900 f i Config.obj
 0001:00024940       ?GetEntry@ConfigMgr@@IAEPAVConfigEntry@@W4MemType@@@Z 00425940 f   Config.obj
 0001:000249c0       ?GetLine@ConfigMgr@@QAEPADPAD@Z 004259c0 f   Config.obj
 0001:00024b10       ?KGetConfig@@YAXPAF@Z      00425b10 f   Config.obj
 0001:00024bf0       ??0FlagEntry@@QAE@DPAD@Z   00425bf0 f   Config.obj
 0001:00024c60       ?Usage@FlagEntry@@QAEXPAD@Z 00425c60 f   Config.obj
 0001:00024cd0       ??0ConfigEntry@@QAE@PADW4MemType@@0@Z 00425cd0 f   Config.obj
 0001:00024d50       ??1ConfigEntry@@QAE@XZ     00425d50 f   Config.obj
 0001:00024db0       ?Claim@ConfigEntry@@QAEHPADHH@Z 00425db0 f   Config.obj
 0001:00024ea0       ?Get@ConfigEntry@@QAEPADH@Z 00425ea0 f   Config.obj
 0001:00024f40       ?GetFileName@ConfigMgr@@QBEPBDXZ 00425f40 f i Config.obj
 0001:00024f70       ?StrGetData@@YA?AVTextID@@VMemID@@@Z 00425f70 f i Config.obj
 0001:00025010       ??0TextID@@QAE@ABV0@@Z     00426010 f i Config.obj
 0001:00025060       ??0CursorWin@@QAE@XZ       00426060 f   Cursorw.obj
 0001:00025160       ??_ECursorWin@@UAEPAXI@Z   00426160 f i Cursorw.obj
 0001:00025160       ??_GCursorWin@@UAEPAXI@Z   00426160 f i Cursorw.obj
 0001:000251d0       ??0SOL_Cursor@@QAE@XZ      004261d0 f i Cursorw.obj
 0001:00025210       ??1CursorWin@@UAE@XZ       00426210 f   Cursorw.obj
 0001:00025280       ?Set@CursorWin@@UAEXHHH@Z  00426280 f   Cursorw.obj
 0001:000252b0       ?ForcePos@CursorWin@@UAEXVSOL_Point@@@Z 004262b0 f   Cursorw.obj
 0001:00025310       ?DeviceMovedTo@CursorWin@@UAEXABVSOL_Point@@@Z 00426310 f   Cursorw.obj
 0001:00025340       ?Hide@CursorWin@@UAEXXZ    00426340 f   Cursorw.obj
 0001:00025370       ?UnHide@CursorWin@@UAEXXZ  00426370 f   Cursorw.obj
 0001:000253a0       ?Show@CursorWin@@UAEXXZ    004263a0 f   Cursorw.obj
 0001:000253d0       ?SetRestrictRect@CursorWin@@UAEXABVSOL_Rect@@@Z 004263d0 f   Cursorw.obj
 0001:00025400       ?ClearRestrictRect@CursorWin@@UAEXXZ 00426400 f   Cursorw.obj
 0001:00025430       ??0CursorWinClr@@QAE@ABVBufferWin@@@Z 00426430 f   Cursorw.obj
 0001:00025760       ??_ECursorWinClr@@UAEPAXI@Z 00426760 f i Cursorw.obj
 0001:00025760       ??_GCursorWinClr@@UAEPAXI@Z 00426760 f i Cursorw.obj
 0001:000257d0       ??1CursorWinClr@@UAE@XZ    004267d0 f   Cursorw.obj
 0001:00025840       ?Set@CursorWinClr@@UAEXHHH@Z 00426840 f   Cursorw.obj
 0001:00025c30       ?SetDevice@CursorWinClr@@UAEXAAVPointerDevice@@@Z 00426c30 f   Cursorw.obj
 0001:00025d00       ?ForcePos@CursorWinClr@@UAEXVSOL_Point@@@Z 00426d00 f   Cursorw.obj
 0001:00025db0       ?GonnaPaint@CursorWinClr@@UAEXVSOL_Rect@@@Z 00426db0 f   Cursorw.obj
 0001:00025e60       ?PaintStarting@CursorWinClr@@UAEXXZ 00426e60 f   Cursorw.obj
 0001:00025f20       ?DonePainting@CursorWinClr@@UAEXXZ 00426f20 f   Cursorw.obj
 0001:00026020       ?DeviceMovedTo@CursorWinClr@@UAEXABVSOL_Point@@@Z 00427020 f   Cursorw.obj
 0001:000260a0       ?Hide@CursorWinClr@@UAEXXZ 004270a0 f   Cursorw.obj
 0001:00026120       ?UnHide@CursorWinClr@@UAEXXZ 00427120 f   Cursorw.obj
 0001:000261d0       ?Show@CursorWinClr@@UAEXXZ 004271d0 f   Cursorw.obj
 0001:00026270       ?RevealCursor@CursorWinClr@@IAEXXZ 00427270 f   Cursorw.obj
 0001:00026390       ?Move@CursorWinClr@@IAEXXZ 00427390 f   Cursorw.obj
 0001:000266b0       ?Paint@CursorWinClr@@IAEXABUInfo@1@0@Z 004276b0 f   Cursorw.obj
 0001:00026910       ?Copy@CursorWinClr@@IAEXABUInfo@1@0@Z 00427910 f   Cursorw.obj
 0001:00026b80       ?DrawToHardware@CursorWinClr@@IAEXABUInfo@1@@Z 00427b80 f   Cursorw.obj
 0001:00026ed0       ?ReadVideo@CursorWinClr@@IAEXABUInfo@1@@Z 00427ed0 f   Cursorw.obj
 0001:00026f20       ?ReadVideoFromVMAP@CursorWinClr@@IAEXABUInfo@1@@Z 00427f20 f   Cursorw.obj
 0001:00026f80       ?SetRestrictRect@CursorWinClr@@UAEXABVSOL_Rect@@@Z 00427f80 f   Cursorw.obj
 0001:00027050       ?ClearRestrictRect@CursorWinClr@@UAEXXZ 00428050 f   Cursorw.obj
 0001:000270d0       ?SetView@Bitmap@@QAEXH@Z   004280d0 f i Cursorw.obj
 0001:00027120       ?Width@CelObj@@QBEHXZ      00428120 f i Cursorw.obj
 0001:00027160       ?Height@CelObj@@QBEHXZ     00428160 f i Cursorw.obj
 0001:000271a0       ?XOrg@CelObj@@QBEHXZ       004281a0 f i Cursorw.obj
 0001:000271e0       ?YOrg@CelObj@@QBEHXZ       004281e0 f i Cursorw.obj
 0001:00027220       ??1SOL_Cursor@@UAE@XZ      00428220 f i Cursorw.obj
 0001:00027260       ??_GSOL_Cursor@@UAEPAXI@Z  00428260 f i Cursorw.obj
 0001:00027260       ??_ESOL_Cursor@@UAEPAXI@Z  00428260 f i Cursorw.obj
 0001:000272d0       ?Set@SOL_Rect@@QAEXHHHH@Z  004282d0 f i Cursorw.obj
 0001:00027330       ?IsEmpty@SOL_Rect@@QBEHXZ  00428330 f i Cursorw.obj
 0001:00027390       ?MakeEmpty@SOL_Rect@@QAEXXZ 00428390 f i Cursorw.obj
 0001:000273f0       ?Intersect@SOL_Rect@@QBEHABV1@@Z 004283f0 f i Cursorw.obj
 0001:00027480       ?Clip@SOL_Rect@@QAEXABV1@@Z 00428480 f i Cursorw.obj
 0001:00027560       ?Both@SOL_Rect@@QAEXABV1@@Z 00428560 f i Cursorw.obj
 0001:00027610       ?MoveTo@SOL_Rect@@QAEXHH@Z 00428610 f i Cursorw.obj
 0001:00027690       ?Get@CursorWin@@UAEAAVBitmap@@XZ 00428690 f i Cursorw.obj
 0001:000276d0       ?GonnaPaint@CursorWin@@UAEXVSOL_Rect@@@Z 004286d0 f i Cursorw.obj
 0001:00027700       ?PaintStarting@CursorWin@@UAEXXZ 00428700 f i Cursorw.obj
 0001:00027730       ?DonePainting@CursorWin@@UAEXXZ 00428730 f i Cursorw.obj
 0001:00027760       ?SetDevice@CursorWin@@UAEXAAVPointerDevice@@@Z 00428760 f i Cursorw.obj
 0001:00027790       ?GetHideCount@CursorWin@@UAEHXZ 00428790 f i Cursorw.obj
 0001:000277d0       ?Get@CursorWinClr@@UAEAAVBitmap@@XZ 004287d0 f i Cursorw.obj
 0001:00027810       ?GetHideCount@CursorWinClr@@UAEHXZ 00428810 f i Cursorw.obj
 0001:00027850       ??0Info@CursorWinClr@@QAE@H@Z 00428850 f i Cursorw.obj
 0001:000278b0       ??4SOL_Rect@@QAEAAV0@ABV0@@Z 004288b0 f i Cursorw.obj
 0001:000286e0       _Debug                     004296e0 f   Debug.obj
 0001:000294d0       ??0VariableID@@QAE@ABU0@@Z 0042a4d0 f i Debug.obj
 0001:00029520       ??0FakeVariableID@@QAE@ABU0@@Z 0042a520 f i Debug.obj
 0001:0002a950       ?FindObject@@YA?AVObjectID@@PAD@Z 0042b950 f   Debug.obj
 0001:0002aa00       ?FindSelector@@YAHVObjectID@@PADAAG@Z 0042ba00 f   Debug.obj
 0001:0002aab0       ?ToggleDebug@@YAXXZ        0042bab0 f   Debug.obj
 0001:0002ab50       ?EnterDebug@@YAXXZ         0042bb50 f   Debug.obj
 0001:0002abb0       ?DebugOn@@YAXXZ            0042bbb0 f   Debug.obj
 0001:0002ac00       ?ExitThroughDebug@@YAXXZ   0042bc00 f   Debug.obj
 0001:0002ac50       ?KSetDebug@@YAXPAF@Z       0042bc50 f   Debug.obj
 0001:0002acc0       ?KInspectObject@@YAXPAF@Z  0042bcc0 f   Debug.obj
 0001:0002ad40       ?RegisterKernelCall@@YAXH@Z 0042bd40 f   Debug.obj
 0001:0002b2a0       ?ResetDebugInfo@@YAXXZ     0042c2a0 f   Debug.obj
 0001:0002b2e0       ?PushDebugInfo@@YAXXZ      0042c2e0 f   Debug.obj
 0001:0002b3d0       ?PopDebugInfo@@YAXXZ       0042c3d0 f   Debug.obj
 0001:0002b4a0       ??1SCIDebugger@@QAE@XZ     0042c4a0 f   Debug.obj
 0001:0002b590       ??7MemID@@QBEHXZ           0042c590 f i Debug.obj
 0001:0002b5d0       ??CFakeSOL_ListID@@QBEPAVSOL_List@@XZ 0042c5d0 f i Debug.obj
 0001:0002b620       ??0SOL_ListID@@QAE@G@Z     0042c620 f i Debug.obj
 0001:0002b670       ??0FakeSOL_ListID@@QAE@G@Z 0042c670 f i Debug.obj
 0001:0002b6c0       ??AVariableID@@QAEAAFH@Z   0042c6c0 f i Debug.obj
 0001:0002b710       ??DFakeVariableID@@QBEPAUVariable@@XZ 0042c710 f i Debug.obj
 0001:0002b760       ?Lock@FakeObjectID@@QBEPAUObject@@XZ 0042c760 f i Debug.obj
 0001:0002b7b0       ?Unlock@FakeObjectID@@QBEPAUObject@@XZ 0042c7b0 f i Debug.obj
 0001:0002b800       ?RespondsTo@ObjectID@@QBEHG@Z 0042c800 f i Debug.obj
 0001:0002b860       ?SetProperty@ObjectID@@QBEXGF@Z 0042c860 f i Debug.obj
 0001:0002b8d0       ?SetProperty@Object@@QAEXGF@Z 0042c8d0 f i Debug.obj
 0001:0002b960       ?SetGraphicsUpdate@Object@@QAEXXZ 0042c960 f i Debug.obj
 0001:0002b9b0       ?AreAny@Breakpoints@@QAEHXZ 0042c9b0 f i Debug.obj
 0001:0002b9f0       ?IsDisplayable@@YAHVMemID@@@Z 0042c9f0 f i Debug.obj
 0001:0002ba60       ?ShowDebugInfo@@YAXXZ      0042ca60 f   Debugdsp.obj
 0001:0002bd40       ?OpcodeStr@@YAPADXZ        0042cd40 f   Debugdsp.obj
 0001:0002bf60       ?ShowMemID@@YAXVMemID@@IAAPAVEventWindow@@I@Z 0042cf60 f   Debugdsp.obj
 0001:0002c520       ?ShowObject@@YAXVObjectID@@AAPAVEventWindow@@H@Z 0042d520 f   Debugdsp.obj
 0001:0002c750       ?CycleDisplayMode@@YAXXZ   0042d750 f   Debugdsp.obj
 0001:0002c7c0       ?FormatNumber@@YAPADFH@Z   0042d7c0 f   Debugdsp.obj
 0001:0002c9a0       ?InputPropertyName@@YAHVObjectID@@AAGPAD@Z 0042d9a0 f   Debugdsp.obj
 0001:0002ca50       ?InputValue@@YA?AW4IV_Type@@HPAD0AAHPAI@Z 0042da50 f   Debugdsp.obj
 0001:0002d430       ?ShowResources@@YAXXZ      0042e430 f   Debugdsp.obj
 0001:0002d4d0       ?ShowMemoryStats@@YAXXZ    0042e4d0 f   Debugdsp.obj
 0001:0002d6f0       ?ShowFreeMemory@@YAXXZ     0042e6f0 f   Debugdsp.obj
 0001:0002d750       ?ShowObjects@@YAXH@Z       0042e750 f   Debugdsp.obj
 0001:0002d900       ?ShowKernelCalls@@YAXXZ    0042e900 f   Debugdsp.obj
 0001:0002da30       ?ShowMemoryList@@YAXXZ     0042ea30 f   Debugdsp.obj
 0001:0002dba0       ?ShowTexts@@YAXXZ          0042eba0 f   Debugdsp.obj
 0001:0002dfd0       ?Max@@YAIII@Z              0042efd0 f i Debugdsp.obj
 0001:0002e020       ?Info@Object@@QAEFXZ       0042f020 f i Debugdsp.obj
 0001:0002e0e0       ??0DebugMenus@@QAE@XZ      0042f0e0 f   Debugmnu.obj
 0001:0002e130       ?HandleEvent@DebugMenus@@QAEHAAVSOL_Event@@@Z 0042f130 f   Debugmnu.obj
 0001:0002e1d0       ?Add@DebugMenus@@QAEXPAVDebugMenu@@@Z 0042f1d0 f   Debugmnu.obj
 0001:0002e250       ?Delete@DebugMenus@@QAEXXZ 0042f250 f   Debugmnu.obj
 0001:0002e2f0       ?Hide@DebugMenus@@QAEXXZ   0042f2f0 f   Debugmnu.obj
 0001:0002e370       ?Show@DebugMenus@@QAEXXZ   0042f370 f   Debugmnu.obj
 0001:0002e3f0       ?Toggle@DebugMenus@@QAEXXZ 0042f3f0 f   Debugmnu.obj
 0001:0002e470       ??0DebugMenu@@QAE@PADPAVDebugMenuItem@@@Z 0042f470 f   Debugmnu.obj
 0001:0002e4e0       ??_GDebugMenu@@UAEPAXI@Z   0042f4e0 f i Debugmnu.obj
 0001:0002e4e0       ??_EDebugMenu@@UAEPAXI@Z   0042f4e0 f i Debugmnu.obj
 0001:0002e550       ??1DebugMenu@@UAE@XZ       0042f550 f   Debugmnu.obj
 0001:0002e590       ?HandleEvent@DebugMenu@@QAEHAAVSOL_Event@@H@Z 0042f590 f   Debugmnu.obj
 0001:0002e680       ?Claim@DebugMenu@@QAEHAAVSOL_Event@@H@Z 0042f680 f   Debugmnu.obj
 0001:0002e710       ?Hide@DebugMenu@@QAEXXZ    0042f710 f   Debugmnu.obj
 0001:0002e7a0       ?Show@DebugMenu@@QAEXXZ    0042f7a0 f   Debugmnu.obj
 0001:0002e950       ??0DebugMenuItem@@QAE@PADGHG@Z 0042f950 f   Debugmnu.obj
 0001:0002e9d0       ??0DebugMenuItem@@QAE@PADPAVDebugMenuCmd@@@Z 0042f9d0 f   Debugmnu.obj
 0001:0002ea40       ??0DebugMenuItem@@QAE@PADGPAVDebugMenu@@@Z 0042fa40 f   Debugmnu.obj
 0001:0002eab0       ??0DebugMenuItem@@QAE@H@Z  0042fab0 f   Debugmnu.obj
 0001:0002eb20       ?Claim@DebugMenuItem@@QAEHAAVSOL_Event@@H@Z 0042fb20 f   Debugmnu.obj
 0001:0002ebe0       ?ShowStr@DebugMenuItem@@QAEXAAVTextID@@@Z 0042fbe0 f   Debugmnu.obj
 0001:0002ec60       ??0DebugMenuCmd@@QAE@HGG@Z 0042fc60 f   Debugmnu.obj
 0001:0002ecf0       ??0DebugMenuCmd@@QAE@GPAVDebugMenu@@@Z 0042fcf0 f   Debugmnu.obj
 0001:0002ed60       ??0DebugMenuCmd@@QAE@H@Z   0042fd60 f   Debugmnu.obj
 0001:0002edd0       ?Claim@DebugMenuCmd@@QAEHAAVSOL_Event@@H@Z 0042fdd0 f   Debugmnu.obj
 0001:0002ef80       ?IsSubmenu@DebugMenu@@QAEHXZ 0042ff80 f i Debugmnu.obj
 0001:0002efc0       ?IsSubmenu@DebugMenu@@QAEXH@Z 0042ffc0 f i Debugmnu.obj
 0001:0002f000       ??BDebugMenuCmd@@QAEHXZ    00430000 f i Debugmnu.obj
 0001:0002f070       ??BDebugMenuItem@@QAEHXZ   00430070 f i Debugmnu.obj
 0001:0002f0e0       ??0EventWindow@@QAE@AAVSOL_Rect@@PADGGGFH@Z 004300e0 f i Debugmnu.obj
 0001:0002f1d0       ??_GEventWindow@@UAEPAXI@Z 004301d0 f i Debugmnu.obj
 0001:0002f1d0       ??_EEventWindow@@UAEPAXI@Z 004301d0 f i Debugmnu.obj
 0001:0002f350       ??1SOL_List@@QAE@XZ        00430350 f i Dialog.obj
 0001:0002f3a0       ?KCreateTextBitmap@@YAXPAF@Z 004303a0 f   Dialog.obj
 0001:0002f6b0       ??0EditClass@@QAE@F@Z      004306b0 f   Dialog.obj
 0001:0002fed0       ??_GEditClass@@UAEPAXI@Z   00430ed0 f i Dialog.obj
 0001:0002fed0       ??_EEditClass@@UAEPAXI@Z   00430ed0 f i Dialog.obj
 0001:0002ff40       ??0EditClass@@QAE@VTextID@@0HH@Z 00430f40 f   Dialog.obj
 0001:00030620       ??1EditClass@@UAE@XZ       00431620 f   Dialog.obj
 0001:00030740       ?Show@EditClass@@QAEXH@Z   00431740 f   Dialog.obj
 0001:00030990       ?Hide@EditClass@@QAEXH@Z   00431990 f   Dialog.obj
 0001:00030a80       ?GetLineIndices@EditClass@@UAEXXZ 00431a80 f   Dialog.obj
 0001:00030dc0       ?HandleEvent@EditClass@@QAEHXZ 00431dc0 f   Dialog.obj
 0001:00030f80       ?EditText@EditClass@@QAEHAAVSOL_Event@@@Z 00431f80 f   Dialog.obj
 0001:00031a00       ?UpdateFontMgr@EditClass@@QAEXXZ 00432a00 f   Dialog.obj
 0001:00031a80       ?DrawCursor@EditClass@@QAEXXZ 00432a80 f   Dialog.obj
 0001:00031d20       ?EraseCursor@EditClass@@QAEXXZ 00432d20 f   Dialog.obj
 0001:00031de0       ?FlashCursor@EditClass@@QAEXXZ 00432de0 f   Dialog.obj
 0001:00031ec0       ?SetFlash@EditClass@@QAEXXZ 00432ec0 f   Dialog.obj
 0001:00031f30       ?InvertRect@EditClass@@QAEXAAVSOL_Rect@@HDD@Z 00432f30 f   Dialog.obj
 0001:00032040       ?SetCursor@EditClass@@QAEXH@Z 00433040 f   Dialog.obj
 0001:00032140       ?Highlight@EditClass@@QAEXH@Z 00433140 f   Dialog.obj
 0001:00032360       ?KEdit@@YAXPAF@Z           00433360 f   Dialog.obj
 0001:00032ad0       ??0EventObjectID@@QAE@ABV0@@Z 00433ad0 f i Dialog.obj
 0001:00032b20       ?GetInput@@YAHPAD0H@Z      00433b20 f   Dialog.obj
 0001:00032cc0       ?MsgBox@@YAHPAD0ZZ         00433cc0 f   Dialog.obj
 0001:00032f00       ?KDialog@@YAXPAF@Z         00433f00 f   Dialog.obj
 0001:00037d00       ??0StringID@@QAE@ABV0@@Z   00438d00 f i Dialog.obj
 0001:00037d50       ??0SOL_ListID@@QAE@ABU0@@Z 00438d50 f i Dialog.obj
 0001:00037da0       ??0CSCI_NetMsg@@QAE@ABV0@@Z 00438da0 f i Dialog.obj
 0001:00037df0       ??0CSCI_LongInt@@QAE@ABV0@@Z 00438df0 f i Dialog.obj
 0001:00037e40       ??0ServerInfo@@QAE@XZ      00438e40 f i Dialog.obj
 0001:00037ec0       ??0FakeSOL_ListID@@QAE@ABU0@@Z 00438ec0 f i Dialog.obj
 0001:00037f10       ??0CSCI_PackedData@@QAE@ABV0@@Z 00438f10 f i Dialog.obj
 0001:00037f60       ??0CSCI_ByteArray@@QAE@ABV0@@Z 00438f60 f i Dialog.obj
 0001:00037fb0       ??0CSCI_Array@@QAE@ABV0@@Z 00438fb0 f i Dialog.obj
 0001:00038000       ??2@YAPAXIG@Z              00439000 f i Dialog.obj
 0001:00038050       ?Data@ArrayID@@QAEPAXXZ    00439050 f i Dialog.obj
 0001:000380a0       ??0SOL_List@@QAE@XZ        004390a0 f i Dialog.obj
 0001:00038140       ??0StringID@@QAE@ABVMemID@@@Z 00439140 f i Dialog.obj
 0001:00038190       ??DStringID@@QAEPADXZ      00439190 f i Dialog.obj
 0001:00038240       ??0CSCI_Object@@QAE@G@Z    00439240 f i Dialog.obj
 0001:00038290       ?set_scratch@CSCI_Object@@QAEXF@Z 00439290 f i Dialog.obj
 0001:000382f0       ??0CSCI_List@@QAE@G@Z      004392f0 f i Dialog.obj
 0001:00038340       ??0CSCI_Collection@@QAE@G@Z 00439340 f i Dialog.obj
 0001:00038390       ??0CSCI_Script@@QAE@G@Z    00439390 f i Dialog.obj
 0001:000383e0       ??0CSCI_LongInt@@QAE@G@Z   004393e0 f i Dialog.obj
 0001:00038430       ?get_lowWord@CSCI_LongInt@@QAEFXZ 00439430 f i Dialog.obj
 0001:00038480       ?get_nValue@CSCI_LongInt@@QAEHXZ 00439480 f i Dialog.obj
 0001:000384f0       ?get_hiWord@CSCI_LongInt@@QAEFXZ 004394f0 f i Dialog.obj
 0001:00038540       ?set_nValue@CSCI_LongInt@@QAEXH@Z 00439540 f i Dialog.obj
 0001:000385b0       ?set_lowWord@CSCI_LongInt@@QAEXF@Z 004395b0 f i Dialog.obj
 0001:00038610       ?set_hiWord@CSCI_LongInt@@QAEXF@Z 00439610 f i Dialog.obj
 0001:00038670       ??0CSCI_NetMsg@@QAE@G@Z    00439670 f i Dialog.obj
 0001:000386c0       ??0CSCI_PackedData@@QAE@G@Z 004396c0 f i Dialog.obj
 0001:00038710       ??0CSCI_ByteArray@@QAE@G@Z 00439710 f i Dialog.obj
 0001:00038760       ??0CSCI_Array@@QAE@G@Z     00439760 f i Dialog.obj
 0001:000387b0       ?get_pInfo@CSCI_NetMsg@@QAE?AVCSCI_LongInt@@XZ 004397b0 f i Dialog.obj
 0001:00038810       ??0CSCI_WorldObject@@QAE@G@Z 00439810 f i Dialog.obj
 0001:00038860       ??0CSCI_Actor@@QAE@G@Z     00439860 f i Dialog.obj
 0001:000388b0       ??0CSCI_Prop@@QAE@G@Z      004398b0 f i Dialog.obj
 0001:00038900       ??0CSCI_View@@QAE@G@Z      00439900 f i Dialog.obj
 0001:00038950       ??0CSCI_Feature@@QAE@G@Z   00439950 f i Dialog.obj
 0001:000389a0       ??0CSCI_BitMap@@QAE@G@Z    004399a0 f i Dialog.obj
 0001:000389f0       ??0CSCI_Rectangle@@QAE@G@Z 004399f0 f i Dialog.obj
 0001:00038a40       ??0CSCI_WorldActor@@QAE@ABVObjectID@@@Z 00439a40 f i Dialog.obj
 0001:00038a90       ??0CSCI_WorldObject@@QAE@ABVMemID@@@Z 00439a90 f i Dialog.obj
 0001:00038ae0       ??0CSCI_Actor@@QAE@ABVMemID@@@Z 00439ae0 f i Dialog.obj
 0001:00038b30       ??0CSCI_Prop@@QAE@ABVMemID@@@Z 00439b30 f i Dialog.obj
 0001:00038b80       ??0CSCI_View@@QAE@ABVMemID@@@Z 00439b80 f i Dialog.obj
 0001:00038bd0       ??0CSCI_Feature@@QAE@ABVMemID@@@Z 00439bd0 f i Dialog.obj
 0001:00038c20       ??0CSCI_BitMap@@QAE@ABVMemID@@@Z 00439c20 f i Dialog.obj
 0001:00038c70       ??0CSCI_Rectangle@@QAE@ABVMemID@@@Z 00439c70 f i Dialog.obj
 0001:00038cc0       ??0CSCI_Object@@QAE@ABVMemID@@@Z 00439cc0 f i Dialog.obj
 0001:00038d10       ??0CSCI_CharInfo@@QAE@G@Z  00439d10 f i Dialog.obj
 0001:00038d60       ??0CSCI_GroupMember@@QAE@G@Z 00439d60 f i Dialog.obj
 0001:00038db0       ??0CSCI_ServerInfo@@QAE@G@Z 00439db0 f i Dialog.obj
 0001:00038e00       ?get_pServerName@CSCI_ServerInfo@@QAE?AVStringID@@XZ 00439e00 f i Dialog.obj
 0001:00038e70       ?set_pServerName@CSCI_ServerInfo@@QAEXF@Z 00439e70 f i Dialog.obj
 0001:00038ed0       ?get_pStatus@CSCI_ServerInfo@@QAE?AVStringID@@XZ 00439ed0 f i Dialog.obj
 0001:00038f40       ?set_pStatus@CSCI_ServerInfo@@QAEXF@Z 00439f40 f i Dialog.obj
 0001:00038fa0       ?get_pNumberOfUsers@CSCI_ServerInfo@@QAEFXZ 00439fa0 f i Dialog.obj
 0001:00038ff0       ?set_pNumberOfUsers@CSCI_ServerInfo@@QAEXF@Z 00439ff0 f i Dialog.obj
 0001:00039050       ?get_pIP@CSCI_ServerInfo@@QAE?AVStringID@@XZ 0043a050 f i Dialog.obj
 0001:000390c0       ?set_pIP@CSCI_ServerInfo@@QAEXF@Z 0043a0c0 f i Dialog.obj
 0001:00039120       ?get_pPort@CSCI_ServerInfo@@QAE?AVStringID@@XZ 0043a120 f i Dialog.obj
 0001:00039190       ?set_pPort@CSCI_ServerInfo@@QAEXF@Z 0043a190 f i Dialog.obj
 0001:000391f0       ?SetEventProcessing@CSkinWnd@@QAEX_N@Z 0043a1f0 f i Dialog.obj
 0001:00039240       ?SetProcessEvents@CSkinWnd@@IAEX_N@Z 0043a240 f i Dialog.obj
 0001:000392b0       ??A?$bitset@$05@std@@QAE?AVreference@01@I@Z 0043a2b0 f i Dialog.obj
 0001:00039320       ??4reference@?$bitset@$05@std@@QAEAAV012@_N@Z 0043a320 f i Dialog.obj
 0001:00039380       ?set@?$bitset@$05@std@@QAEAAV12@I_N@Z 0043a380 f i Dialog.obj
 0001:00039460       ??0reference@?$bitset@$05@std@@AAE@AAV12@I@Z 0043a460 f i Dialog.obj
 0001:000394b0       ?_Xran@?$bitset@$05@std@@ABEXXZ 0043a4b0 f i Dialog.obj
 0001:00039570       ?SetTransientState@CSkinWnd@@QAEX_N@Z 0043a570 f i Dialog.obj
 0001:000395c0       ?SetTransient@CSkinWnd@@IAEX_N@Z 0043a5c0 f i Dialog.obj
 0001:00039630       ?SetCharInfo@CLookAt@@SAXVCSCI_CharInfo@@@Z 0043a630 f i Dialog.obj
 0001:00039670       ??0CSCI_Object@@QAE@ABV0@@Z 0043a670 f i Dialog.obj
 0001:000396c0       ??0CSCI_WorldObject@@QAE@ABV0@@Z 0043a6c0 f i Dialog.obj
 0001:00039710       ??0CSCI_Actor@@QAE@ABV0@@Z 0043a710 f i Dialog.obj
 0001:00039760       ??0CSCI_Prop@@QAE@ABV0@@Z  0043a760 f i Dialog.obj
 0001:000397b0       ??0CSCI_View@@QAE@ABV0@@Z  0043a7b0 f i Dialog.obj
 0001:00039800       ??0CSCI_Feature@@QAE@ABV0@@Z 0043a800 f i Dialog.obj
 0001:00039850       ??0CSCI_BitMap@@QAE@ABV0@@Z 0043a850 f i Dialog.obj
 0001:000398a0       ??0CSCI_Rectangle@@QAE@ABV0@@Z 0043a8a0 f i Dialog.obj
 0001:000398f0       ?Intersect@SOL_Rect@@QBEHVSOL_Point@@@Z 0043a8f0 f i Dialog.obj
 0001:00039970       ?Offset@SOL_Rect@@QAEXHH@Z 0043a970 f i Dialog.obj
 0001:000399f0       ?Inset@SOL_Rect@@QAEXHH@Z  0043a9f0 f i Dialog.obj
 0001:00039a70       ??0EventObjectID@@QAE@G@Z  0043aa70 f i Dialog.obj
 0001:00039ac0       ??0ScaleInfo@@QAE@XZ       0043aac0 f i Dialog.obj
 0001:00039b30       ?Id@SOL_Plane@@QBEJXZ      0043ab30 f i Dialog.obj
 0001:00039b70       ?SetPicNum@SOL_Plane@@QAEXH@Z 0043ab70 f i Dialog.obj
 0001:00039bd0       ?SetPriority@SOL_Plane@@QAEXH@Z 0043abd0 f i Dialog.obj
 0001:00039c10       ?TopPlane@GraphicsMgr@@QBEHXZ 0043ac10 f i Dialog.obj
 0001:00039c60       ?TopPlane@Screen@@QBEHXZ   0043ac60 f i Dialog.obj
 0001:00039cb0       ?TopSCIPlane@GraphicsMgr@@QBEHXZ 0043acb0 f i Dialog.obj
 0001:00039d00       ?TopSCIPlane@Screen@@QBEHXZ 0043ad00 f i Dialog.obj
 0001:00039d50       ?AddPlane@GraphicsMgr@@QAEXPAVSOL_Plane@@@Z 0043ad50 f i Dialog.obj
 0001:00039da0       ?AddScreenItem@GraphicsMgr@@QAEXPAVScreenItem@@@Z 0043ada0 f i Dialog.obj
 0001:00039df0       ??0FontMgr@@QAE@G@Z        0043adf0 f i Dialog.obj
 0001:00039eb0       ?PointSize@FontMgr@@QAEHH@Z 0043aeb0 f i Dialog.obj
 0001:00039f20       ?SetBM@FontMgr@@QAEXVMemID@@@Z 0043af20 f i Dialog.obj
 0001:00039f60       ?GetXRes@FontMgr@@QBEHXZ   0043af60 f i Dialog.obj
 0001:00039fa0       ?GetYRes@FontMgr@@QBEHXZ   0043afa0 f i Dialog.obj
 0001:00039fe0       ??0SOL_Line@@QAE@HHHH@Z    0043afe0 f i Dialog.obj
 0001:0003a0a0       ?Match@CMakeItemDlg@@QAEHVCSCI_WorldObject@@@Z 0043b0a0 f i Dialog.obj
 0001:0003a100       ?SetViewMode@CTalkDlg@@QAEX_N@Z 0043b100 f i Dialog.obj
 0001:0003a130       ?getChat_Profanity@CToonSettings@@QAEHXZ 0043b130 f i Dialog.obj
 0001:0003a170       ?KFileIO@@YAXPAF@Z         0043b170 f   Dos.obj
 0001:0003ac10       ?KDeviceInfo@@YAXPAF@Z     0043bc10 f   Dos.obj
 0001:0003ae00       ?AddSlash@@YAPADPAD@Z      0043be00 f   Dos.obj
 0001:0003aea0       ?FullPath@@YAPADPADPBD@Z   0043bea0 f   Dos.obj
 0001:0003af80       ?Creat@@YAHPBDI@Z          0043bf80 f   Dos.obj
 0001:0003aff0       ?Open@@YAHPBDI@Z           0043bff0 f   Dos.obj
 0001:0003b060       ?ReadMemID@@YAHHVMemID@@H@Z 0043c060 f   Dos.obj
 0001:0003b0f0       ?Read@@YAHHPAXH@Z          0043c0f0 f   Dos.obj
 0001:0003b150       ?Write@@YAHHPAXH@Z         0043c150 f   Dos.obj
 0001:0003b1b0       ?Close@@YAHH@Z             0043c1b0 f   Dos.obj
 0001:0003b210       ?Rename@@YAHPBD0@Z         0043c210 f   Dos.obj
 0001:0003b270       ?ReadString@@YAPADPADHH@Z  0043c270 f   Dos.obj
 0001:0003b340       ?Unlink@@YAHPBD@Z          0043c340 f   Dos.obj
 0001:0003b3a0       ?FileLength@@YAKH@Z        0043c3a0 f   Dos.obj
 0001:0003b420       ?LSeek@@YAJHJH@Z           0043c420 f   Dos.obj
 0001:0003b480       ?GetCWD@@YAPADPAD@Z        0043c480 f   Dos.obj
 0001:0003b4e0       ?FirstFile@@YAHPBDIPAU_WIN32_FIND_DATAA@@@Z 0043c4e0 f   Dos.obj
 0001:0003b580       ?NextFile@@YAHPAU_WIN32_FIND_DATAA@@@Z 0043c580 f   Dos.obj
 0001:0003b5e0       ?ExistsDriveAB@@YAHH@Z     0043c5e0 f   Dos.obj
 0001:0003b640       ?ExistDrive@@YAHD@Z        0043c640 f   Dos.obj
 0001:0003b6f0       ?ResetDisk@@YAXXZ          0043c6f0 f   Dos.obj
 0001:0003b740       ?RGetFreeSpace@@YAKD@Z     0043c740 f   Dos.obj
 0001:0003b7f0       ?Exists@@YAHPBD@Z          0043c7f0 f   Dos.obj
 0001:0003b8b0       ?IsDriveAOrB@@YAHPBD@Z     0043c8b0 f   Dos.obj
 0001:0003b950       ?OpenFileInPath@@YAHPADI0@Z 0043c950 f   Dos.obj
 0001:0003bb00       ?RemoveTrailingSlash@@YAPADPAD@Z 0043cb00 f   Dos.obj
 0001:0003bfe0       ??0DrawList@@QAE@XZ        0043cfe0 f   Drawlist.obj
 0001:0003c020       ??1DrawList@@QAE@XZ        0043d020 f   Drawlist.obj
 0001:0003c0a0       ?Add@DrawList@@QAEHPAVScreenItem@@AAVSOL_Rect@@@Z 0043d0a0 f   Drawlist.obj
 0001:0003c1d0       ?Pack@DrawList@@QAEXXZ     0043d1d0 f   Drawlist.obj
 0001:0003c290       ?Delete@DrawList@@QAEXH@Z  0043d290 f   Drawlist.obj
 0001:0003c350       ?Sort@DrawList@@QAEXXZ     0043d350 f   Drawlist.obj
 0001:0003c590       ?Id@ScreenItem@@QBEJXZ     0043d590 f i Drawlist.obj
 0001:0003c5d0       ?Priority@ScreenItem@@QBEHXZ 0043d5d0 f i Drawlist.obj
 0001:0003c610       ??0DrawItem@@QAE@PAVScreenItem@@AAVSOL_Rect@@@Z 0043d610 f i Drawlist.obj
 0001:0003c680       ??0SOL_Rect@@QAE@AAVSOL_Point@@0@Z 0043d680 f i Drawlist.obj
 0001:0003c700       ??0EventMgr@@QAE@XZ        0043d700 f   Event.obj
 0001:0003c790       ??_GEventMgr@@UAEPAXI@Z    0043d790 f i Event.obj
 0001:0003c790       ??_EEventMgr@@UAEPAXI@Z    0043d790 f i Event.obj
 0001:0003c800       ??1EventMgr@@UAE@XZ        0043d800 f   Event.obj
 0001:0003c840       ?Bump@EventMgr@@IBEXAAH@Z  0043d840 f   Event.obj
 0001:0003c8a0       ?Flush@EventMgr@@UAEXG@Z   0043d8a0 f   Event.obj
 0001:0003c940       ?FlushKeyboard@EventMgr@@MAEXXZ 0043d940 f   Event.obj
 0001:0003c970       ?Get@EventMgr@@UAEHPAVSOL_Event@@G@Z 0043d970 f   Event.obj
 0001:0003ca90       ?Handle@EventMgr@@UAEXPAVSOL_Event@@@Z 0043da90 f   Event.obj
 0001:0003cac0       ?IsAvail@EventMgr@@UBEHPAVSOL_Event@@G@Z 0043dac0 f   Event.obj
 0001:0003cbb0       ?Post@EventMgr@@UAEXPAVSOL_Event@@@Z 0043dbb0 f   Event.obj
 0001:0003cc80       ?PostCommand@EventMgr@@UAEXH@Z 0043dc80 f   Event.obj
 0001:0003cd00       ?PostWinCommand@EventMgr@@UAEXHH@Z 0043dd00 f   Event.obj
 0001:0003cd80       ?StillDown@EventMgr@@UBEHXZ 0043dd80 f   Event.obj
 0001:0003cde0       ?Wait@EventMgr@@UAE?AVSOL_Event@@G@Z 0043dde0 f   Event.obj
 0001:0003ce70       ??4EventObjectID@@QAEAAV0@ABVSOL_Event@@@Z 0043de70 f   Event.obj
 0001:0003cfb0       ??0SOL_Event@@QAE@XZ       0043dfb0 f   Event.obj
 0001:0003d030       ??0SOL_Event@@QAE@ABV0@@Z  0043e030 f   Event.obj
 0001:0003d090       ??0SOL_Event@@QAE@VEventObjectID@@@Z 0043e090 f   Event.obj
 0001:0003d1a0       ??4SOL_Event@@QAEAAV0@ABV0@@Z 0043e1a0 f   Event.obj
 0001:0003d270       ?MakeNull@SOL_Event@@QAEXXZ 0043e270 f   Event.obj
 0001:0003d380       ?MapKeyToDir@SOL_Event@@QAEPAV1@XZ 0043e380 f   Event.obj
 0001:0003d3f0       ?KGetEvent@@YAXPAF@Z       0043e3f0 f   Event.obj
 0001:0003d4d0       ?KMapKeyToDir@@YAXPAF@Z    0043e4d0 f   Event.obj
 0001:0003d580       ?GetIndexedProperty@ObjectID@@QBEFH@Z 0043e580 f i Event.obj
 0001:0003d5e0       ?GetIndexedProperty@Object@@QAEFH@Z 0043e5e0 f i Event.obj
 0001:0003d630       ?GetIndexedPropAddr@Object@@QAEPBFH@Z 0043e630 f i Event.obj
 0001:0003d690       ?SetIndexedProperty@ObjectID@@QBEXHF@Z 0043e690 f i Event.obj
 0001:0003d700       ?SetIndexedProperty@Object@@QAEXHF@Z 0043e700 f i Event.obj
 0001:0003d760       ?SetPropAtOffset@Object@@QAEAAFI@Z 0043e760 f i Event.obj
 0001:0003d7d0       ?GetModifiers@EventMgr@@UAEGXZ 0043e7d0 f i Event.obj
 0001:0003d800       ??0EventMgrWin@@QAE@XZ     0043e800 f   Eventw.obj
 0001:0003d8e0       ??0KbdMgrWin@@QAE@XZ       0043e8e0 f i Eventw.obj
 0001:0003d980       ??_EKbdMgrWin@@UAEPAXI@Z   0043e980 f i Eventw.obj
 0001:0003d980       ??_GKbdMgrWin@@UAEPAXI@Z   0043e980 f i Eventw.obj
 0001:0003d9f0       ??0KbdMgr@@QAE@XZ          0043e9f0 f i Eventw.obj
 0001:0003da30       ??0KbdWin@@QAE@XZ          0043ea30 f i Eventw.obj
 0001:0003da90       ??1KbdMgrWin@@UAE@XZ       0043ea90 f i Eventw.obj
 0001:0003dae0       ??0Kbd@@QAE@XZ             0043eae0 f i Eventw.obj
 0001:0003db20       ?Get@EventMgrWin@@UAEHPAVSOL_Event@@G@Z 0043eb20 f   Eventw.obj
 0001:0003db80       ?GetModifiers@EventMgrWin@@MAEGXZ 0043eb80 f   Eventw.obj
 0001:0003dc40       ?Handle@EventMgrWin@@MAEXPAVSOL_Event@@@Z 0043ec40 f   Eventw.obj
 0001:0003ddf0       ?FlushKeyboard@EventMgrWin@@MAEXXZ 0043edf0 f i Eventw.obj
 0001:0003de20       ??_GEventMgrWin@@UAEPAXI@Z 0043ee20 f i Eventw.obj
 0001:0003de20       ??_EEventMgrWin@@UAEPAXI@Z 0043ee20 f i Eventw.obj
 0001:0003de90       ??1EventMgrWin@@UAE@XZ     0043ee90 f i Eventw.obj
 0001:0003dee0       ??1KbdMgr@@UAE@XZ          0043eee0 f i Eventw.obj
 0001:0003df20       ??_EKbdMgr@@UAEPAXI@Z      0043ef20 f i Eventw.obj
 0001:0003df20       ??_GKbdMgr@@UAEPAXI@Z      0043ef20 f i Eventw.obj
 0001:0003df90       ?LockStatus@KbdWin@@UAEGXZ 0043ef90 f i Eventw.obj
 0001:0003dfc0       ?Get@KbdMgrWin@@UAEHPAVSOL_Event@@@Z 0043efc0 f i Eventw.obj
 0001:0003e000       ?Modifiers@KbdMgrWin@@UAEGXZ 0043f000 f i Eventw.obj
 0001:0003e060       ?BuildFBM@FontMgr@@QAE?AVMemID@@AAVBitmap@@AAVSOL_Rect@@V2@HHHHHH@Z 0043f060 f   Font.obj
 0001:0003e880       ?BuildFBM@FontMgr@@QAE?AVMemID@@HHAAVSOL_Rect@@V2@HHHHHHHH@Z 0043f880 f   Font.obj
 0001:0003eba0       ?TitledFBM@FontMgr@@QAE?AVMemID@@HHAAVSOL_Rect@@V2@HHHHHH1HHHH@Z 0043fba0 f   Font.obj
 0001:0003f100       ?DeleteFBM@FontMgr@@QAEXVMemID@@@Z 00440100 f   Font.obj
 0001:0003f160       ?ResizeBitMap@FontMgr@@QAEXVSOL_Rect@@H@Z 00440160 f   Font.obj
 0001:0003f5a0       ?SetFont@FontMgr@@QAEXH@Z  004405a0 f   Font.obj
 0001:0003f5f0       ?StringWidth@FontMgr@@QAEHVMemID@@@Z 004405f0 f   Font.obj
 0001:0003f6c0       ?TextSize@FontMgr@@QAEXVMemID@@HAAVSOL_Rect@@H@Z 004406c0 f   Font.obj
 0001:0003faf0       ?TextCount@FontMgr@@QAEHVMemID@@HAAVSOL_Rect@@H@Z 00440af0 f   Font.obj
 0001:0003fb60       ?TextCount@FontMgr@@QAEHVMemID@@HHAAVSOL_Rect@@H@Z 00440b60 f   Font.obj
 0001:0003fc90       ?Erase@FontMgr@@QAEXAAVSOL_Rect@@H@Z 00440c90 f   Font.obj
 0001:0003fe20       ?Frame@FontMgr@@QAEXAAVSOL_Rect@@HEH@Z 00440e20 f   Font.obj
 0001:000400b0       ?InvertRect@FontMgr@@QAEXVMemID@@HVSOL_Rect@@DDH@Z 004410b0 f   Font.obj
 0001:000402c0       ?GetSize@MemoryMgr@@QAEIG@Z 004412c0 f i Font.obj
 0001:00040310       ?ClearChar@FontMgr@@IAEXE@Z 00441310 f   Font.obj
 0001:000403d0       ?BuildFontTable@FontMgr@@IAEXH@Z 004413d0 f   Font.obj
 0001:000407f0       ?TextDimensions@FontMgr@@IAEXHHAAH0@Z 004417f0 f   Font.obj
 0001:00040b20       ?TextWidth@FontMgr@@QAEHVMemID@@HH@Z 00441b20 f   Font.obj
 0001:00040bb0       ?CharWidth@FontMgr@@QAEEEH@Z 00441bb0 f   Font.obj
 0001:00040c30       ?CharHeight@FontMgr@@QAEEEH@Z 00441c30 f   Font.obj
 0001:00040cc0       ?DrawTextBox@FontMgr@@QAEXXZ 00441cc0 f   Font.obj
 0001:00040ee0       ?DrawTextA@FontMgr@@IAEXHH@Z 00441ee0 f   Font.obj
 0001:000411c0       ?DownOneLine@FontMgr@@QAEXIIH@Z 004421c0 f   Font.obj
 0001:00041470       ?UpOneLine@FontMgr@@QAEXIIIH@Z 00442470 f   Font.obj
 0001:00041730       ?DrawChar@FontMgr@@IAEXE@Z 00442730 f   Font.obj
 0001:00041ac0       ?GetLongest@FontMgr@@QAEGPAHH@Z 00442ac0 f   Font.obj
 0001:00041ff0       ?KInvertRect@@YAXPAF@Z     00442ff0 f   Font.obj
 0001:000420b0       ?KText@@YAXPAF@Z           004430b0 f   Font.obj
 0001:00042460       ?ResX@CelObj@@QBEHXZ       00443460 f i Font.obj
 0001:000424a0       ?ResY@CelObj@@QBEHXZ       004434a0 f i Font.obj
 0001:000424e0       ?KFont@@YAXPAF@Z           004434e0 f   Font.obj
 0001:000425a0       ?SetRes@FontMgr@@QAEXHH@Z  004435a0 f i Font.obj
 0001:000425f0       ?SetText@FontMgr@@QAEXVMemID@@@Z 004435f0 f i Font.obj
 0001:00042630       ?BuildHeader@@YAXVMemID@@HHHHHHHHH@Z 00443630 f i Font.obj
 0001:000426b0       ?ValidateBitmap@@YAXVMemID@@@Z 004436b0 f   Graph.obj
 0001:00042760       ?DrawView@@YAXHHHVMemID@@HHHHH@Z 00443760 f   Graph.obj
 0001:000429b0       ?KMorphOn@@YAXPAF@Z        004439b0 f   Graph.obj
 0001:00042a00       ?KFrameOut@@YAXPAF@Z       00443a00 f   Graph.obj
 0001:00042b40       ?KAddScreenItem@@YAXPAF@Z  00443b40 f   Graph.obj
 0001:00042ca0       ?KAddLine@@YAXPAF@Z        00443ca0 f   Graph.obj
 0001:00042ec0       ?KAddPolygon@@YAXPAF@Z     00443ec0 f   Graph.obj
 0001:00043180       ?KBitmap@@YAXPAF@Z         00444180 f   Graph.obj
 0001:00048820       ?RemapBitmap@@YAXVMemID@@VObjectID@@@Z 00449820 f   Graph.obj
 0001:00048a20       ?KDeleteScreenItem@@YAXPAF@Z 00449a20 f   Graph.obj
 0001:00048b50       ?KDeleteLine@@YAXPAF@Z     00449b50 f   Graph.obj
 0001:00048c40       ?KDeletePolygon@@YAXPAF@Z  00449c40 f   Graph.obj
 0001:00048d00       ?KUpdateScreenItem@@YAXPAF@Z 00449d00 f   Graph.obj
 0001:00048e50       ?KUpdateLine@@YAXPAF@Z     00449e50 f   Graph.obj
 0001:00049070       ?KUpdatePolygon@@YAXPAF@Z  0044a070 f   Graph.obj
 0001:000492d0       ?KAddMagnify@@YAXPAF@Z     0044a2d0 f   Graph.obj
 0001:000494a0       ??_GMagnifyView@@QAEPAXI@Z 0044a4a0 f i Graph.obj
 0001:00049510       ?KDeleteMagnify@@YAXPAF@Z  0044a510 f   Graph.obj
 0001:000496d0       ?KAddPlane@@YAXPAF@Z       0044a6d0 f   Graph.obj
 0001:00049830       ?KDeletePlane@@YAXPAF@Z    0044a830 f   Graph.obj
 0001:00049890       ?KUpdatePlane@@YAXPAF@Z    0044a890 f   Graph.obj
 0001:00049950       ?KAddPicAt@@YAXPAF@Z       0044a950 f   Graph.obj
 0001:00049a70       ?KRepaintPlane@@YAXPAF@Z   0044aa70 f   Graph.obj
 0001:00049b50       ?KGetHighPlanePri@@YAXPAF@Z 0044ab50 f   Graph.obj
 0001:00049ba0       ?KGetHighItemPri@@YAXPAF@Z 0044aba0 f   Graph.obj
 0001:00049c00       ?KCelHigh@@YAXPAF@Z        0044ac00 f   Graph.obj
 0001:00049cf0       ?KCelWide@@YAXPAF@Z        0044acf0 f   Graph.obj
 0001:00049de0       ?KNumLoops@@YAXPAF@Z       0044ade0 f   Graph.obj
 0001:00049e90       ?GetNumLoops@@YAHVMemID@@@Z 0044ae90 f   Graph.obj
 0001:00049ef0       ?KNumCels@@YAXPAF@Z        0044aef0 f   Graph.obj
 0001:00049fb0       ?GetNumCels@@YAHVMemID@@H@Z 0044afb0 f   Graph.obj
 0001:0004a080       ?KShakeScreen@@YAXPAF@Z    0044b080 f   Graph.obj
 0001:0004a0f0       ?KIsOnMe@@YAXPAF@Z         0044b0f0 f   Graph.obj
 0001:0004a290       ?KSetNowSeen@@YAXPAF@Z     0044b290 f   Graph.obj
 0001:0004a4e0       ?KObjectIntersect@@YAXPAF@Z 0044b4e0 f   Graph.obj
 0001:0004a5f0       ?KPriority@@YAXPAF@Z       0044b5f0 f   Graph.obj
 0001:0004a630       ?BuildHeader@@YAXPAEHHHHHHHHH@Z 0044b630 f   Graph.obj
 0001:0004a760       ?BuildLineBitmap@@YA?AVMemID@@HHHHEHHHAAVSOL_Rect@@@Z 0044b760 f   Graph.obj
 0001:0004aa30       ?BuildPolygonBitmap@@YA?AVMemID@@USOL_ListID@@EHHHAAVSOL_Rect@@H@Z 0044ba30 f   Graph.obj
 0001:0004b040       ?KMovePlaneItems@@YAXPAF@Z 0044c040 f   Graph.obj
 0001:0004b1e0       ?KBaseLineSpan@@YAXPAF@Z   0044c1e0 f   Graph.obj
 0001:0004b5b0       ?KCelInfo@@YAXPAF@Z        0044c5b0 f   Graph.obj
 0001:0004b720       ?AddLinkedBitmap@@YAHVObjectID@@0H@Z 0044c720 f   Graph.obj
 0001:0004c080       ?KCelLink@@YAXPAF@Z        0044d080 f   Graph.obj
 0001:0004c290       ?Max@@YAHHH@Z              0044d290 f i Graph.obj
 0001:0004c2e0       ??9MemID@@QBEHABV0@@Z      0044d2e0 f i Graph.obj
 0001:0004c340       ??0ArrayID@@QAE@AAVMemID@@@Z 0044d340 f i Graph.obj
 0001:0004c390       ??0FakeArrayID@@QAE@ABVMemID@@@Z 0044d390 f i Graph.obj
 0001:0004c3e0       ?SetInSIList@Object@@QAEXXZ 0044d3e0 f i Graph.obj
 0001:0004c430       ?ClearInSIList@Object@@QAEXXZ 0044d430 f i Graph.obj
 0001:0004c480       ??0CSCI_BHead@@QAE@G@Z     0044d480 f i Graph.obj
 0001:0004c4d0       ??0CSCI_BWearable@@QAE@G@Z 0044d4d0 f i Graph.obj
 0001:0004c520       ??0CSCI_WorldObjectBase@@QAE@G@Z 0044d520 f i Graph.obj
 0001:0004c570       ?get_pRace@CSCI_BHead@@QAEFXZ 0044d570 f i Graph.obj
 0001:0004c5c0       ?get_pSex@CSCI_BHead@@QAEFXZ 0044d5c0 f i Graph.obj
 0001:0004c610       ?get_pHeadView@CSCI_BHead@@QAEFXZ 0044d610 f i Graph.obj
 0001:0004c660       ?get_pHairView@CSCI_BHead@@QAEFXZ 0044d660 f i Graph.obj
 0001:0004c6b0       ?get_pBrowView@CSCI_BHead@@QAEFXZ 0044d6b0 f i Graph.obj
 0001:0004c700       ?get_pEyeView@CSCI_BHead@@QAEFXZ 0044d700 f i Graph.obj
 0001:0004c750       ?get_pNoseView@CSCI_BHead@@QAEFXZ 0044d750 f i Graph.obj
 0001:0004c7a0       ?get_pEarView@CSCI_BHead@@QAEFXZ 0044d7a0 f i Graph.obj
 0001:0004c7f0       ?get_pMouthView@CSCI_BHead@@QAEFXZ 0044d7f0 f i Graph.obj
 0001:0004c840       ?get_pFaceHairView@CSCI_BHead@@QAEFXZ 0044d840 f i Graph.obj
 0001:0004c890       ?Area@SOL_Rect@@QBEJXZ     0044d890 f i Graph.obj
 0001:0004c8f0       ??D@YAHHABVRatio@@@Z       0044d8f0 f i Graph.obj
 0001:0004c970       ??0ViewHeaderID@@QAE@ABVMemID@@@Z 0044d970 f i Graph.obj
 0001:0004c9c0       ??CViewHeaderID@@QBEPAUViewHeader@@XZ 0044d9c0 f i Graph.obj
 0001:0004ca10       ?Type@Bitmap@@QBEHXZ       0044da10 f i Graph.obj
 0001:0004ca50       ?SetHandle@Bitmap@@QAEXVMemID@@@Z 0044da50 f i Graph.obj
 0001:0004caa0       ?SetType@Bitmap@@QAEXH@Z   0044daa0 f i Graph.obj
 0001:0004cae0       ?Mirrored@CelObj@@QBEHXZ   0044dae0 f i Graph.obj
 0001:0004cb20       ?GetCel@ScreenItem@@QAEPAVCelObj@@XZ 0044db20 f i Graph.obj
 0001:0004cb60       ?SetPriority@ScreenItem@@QAEXH@Z 0044db60 f i Graph.obj
 0001:0004cbb0       ?Length@ScreenItemList@@QBEHXZ 0044dbb0 f i Graph.obj
 0001:0004cbf0       ??AScreenItemList@@QAEAAVScreenItem@@H@Z 0044dbf0 f i Graph.obj
 0001:0004cc30       ?OnScreen@SOL_Plane@@QAEAAVSOL_Rect@@XZ 0044dc30 f i Graph.obj
 0001:0004cc70       ?SIList@SOL_Plane@@QAEAAVScreenItemList@@XZ 0044dc70 f i Graph.obj
 0001:0004ccb0       ?Length@PlaneList@@QBEHXZ  0044dcb0 f i Graph.obj
 0001:0004ccf0       ??APlaneList@@QAEAAVSOL_Plane@@H@Z 0044dcf0 f i Graph.obj
 0001:0004cd30       ?Planes@Screen@@QAEAAVPlaneList@@XZ 0044dd30 f i Graph.obj
 0001:0004cd60       ?TopScreenItem@GraphicsMgr@@QBEHH@Z 0044dd60 f i Graph.obj
 0001:0004cdb0       ?GetPlaneNext@GraphicsMgr@@QAEPAVSOL_Plane@@H@Z 0044ddb0 f i Graph.obj
 0001:0004ce00       ?NextScreen@GraphicsMgr@@QAEPAVScreen@@XZ 0044de00 f i Graph.obj
 0001:0004ce40       ?ScrollScreenItems@GraphicsMgr@@QAEXJHHH@Z 0044de40 f i Graph.obj
 0001:0004cea0       ?VisiblePlane@GraphicsMgr@@QAEPAVSOL_Plane@@H@Z 0044dea0 f i Graph.obj
 0001:0004cf10       ??1GraphicsMgr@@UAE@XZ     0044df10 f   Graphmgr.obj
 0001:0004cfb0       ??_EGraphicsMgr@@UAEPAXI@Z 0044dfb0 f i Graphmgr.obj
 0001:0004cfb0       ??_GGraphicsMgr@@UAEPAXI@Z 0044dfb0 f i Graphmgr.obj
 0001:0004d020       ??1Screen@@QAE@XZ          0044e020 f i Graphmgr.obj
 0001:0004d0b0       ??0GraphicsMgr@@QAE@HH@Z   0044e0b0 f   Graphmgr.obj
 0001:0004d1c0       ??0Screen@@QAE@HH@Z        0044e1c0 f i Graphmgr.obj
 0001:0004d2c0       ?UpdateScreenItem@GraphicsMgr@@QAEXPAVScreenItem@@@Z 0044e2c0 f   Graphmgr.obj
 0001:0004d3b0       ?PlaneId@ScreenItem@@QBEJXZ 0044e3b0 f i Graphmgr.obj
 0001:0004d3f0       ?AddCount@ScreenItem@@QBEHXZ 0044e3f0 f i Graphmgr.obj
 0001:0004d430       ?ClearDeleteCount@ScreenItem@@QAEXXZ 0044e430 f i Graphmgr.obj
 0001:0004d470       ?SetCel@ScreenItem@@QAEXPAVCelObj@@@Z 0044e470 f i Graphmgr.obj
 0001:0004d500       ?SetUpdateCount@ScreenItem@@QAEXH@Z 0044e500 f i Graphmgr.obj
 0001:0004d540       ?DeleteScreenItem@GraphicsMgr@@QAEXPAVScreenItem@@H@Z 0044e540 f   Graphmgr.obj
 0001:0004d600       ?SetAddCount@ScreenItem@@QAEXH@Z 0044e600 f i Graphmgr.obj
 0001:0004d640       ?SetDeleteCount@ScreenItem@@QAEXH@Z 0044e640 f i Graphmgr.obj
 0001:0004d680       ?PackSiArray@SOL_Plane@@QAEXXZ 0044e680 f i Graphmgr.obj
 0001:0004d6d0       ?DeleteScreenItem@GraphicsMgr@@QAEXPAVScreenItem@@@Z 0044e6d0 f   Graphmgr.obj
 0001:0004d760       ?UpdatePlane@GraphicsMgr@@QAEXPAVSOL_Plane@@@Z 0044e760 f   Graphmgr.obj
 0001:0004d820       ?ScreenRect@Screen@@QBEABVSOL_Rect@@XZ 0044e820 f i Graphmgr.obj
 0001:0004d860       ?SortPlanes@Screen@@QAEXXZ 0044e860 f i Graphmgr.obj
 0001:0004d8b0       ?DeletePlane@GraphicsMgr@@QAEXH@Z 0044e8b0 f   Graphmgr.obj
 0001:0004d920       ?DeletePlane@GraphicsMgr@@QAEXPAVSOL_Plane@@@Z 0044e920 f   Graphmgr.obj
 0001:0004d9e0       ?AddCount@SOL_Plane@@QBEHXZ 0044e9e0 f i Graphmgr.obj
 0001:0004da20       ?SetAddCount@SOL_Plane@@QAEXH@Z 0044ea20 f i Graphmgr.obj
 0001:0004da60       ?SetDeleteCount@SOL_Plane@@QAEXH@Z 0044ea60 f i Graphmgr.obj
 0001:0004daa0       ?SetUpdateCount@SOL_Plane@@QAEXH@Z 0044eaa0 f i Graphmgr.obj
 0001:0004dae0       ?PalMorphFrameOut@GraphicsMgr@@UAEXPADPAVPlaneShowStyle@@@Z 0044eae0 f   Graphmgr.obj
 0001:0004e940       ?SubmitPalette@ScreenItem@@QAEXXZ 0044f940 f i Graphmgr.obj
 0001:0004e9a0       ?SI@DrawItem@@QAEAAVScreenItem@@XZ 0044f9a0 f i Graphmgr.obj
 0001:0004e9e0       ?Length@DrawList@@QBEHXZ   0044f9e0 f i Graphmgr.obj
 0001:0004ea20       ??ADrawList@@QAEAAVDrawItem@@H@Z 0044fa20 f i Graphmgr.obj
 0001:0004ea60       ?Xdim@Screen@@QBEHXZ       0044fa60 f i Graphmgr.obj
 0001:0004eaa0       ?Ydim@Screen@@QBEHXZ       0044faa0 f i Graphmgr.obj
 0001:0004eae0       ?ShowList@Screen@@QAEAAVRectList@@XZ 0044fae0 f i Graphmgr.obj
 0001:0004eb20       ?RemapMarkRedraw@GraphicsMgr@@QAEXXZ 0044fb20 f i Graphmgr.obj
 0001:0004eb70       ??_GRectList@@QAEPAXI@Z    0044fb70 f i Graphmgr.obj
 0001:0004ebe0       ??_GDrawList@@QAEPAXI@Z    0044fbe0 f i Graphmgr.obj
 0001:0004ec50       ?FrameOut@GraphicsMgr@@UAEXHVSOL_Rect@@@Z 0044fc50 f   Graphmgr.obj
 0001:0004f0f0       ?DrawEraseList@GraphicsMgr@@IAEXABVRectList@@ABVSOL_Plane@@@Z 004500f0 f   Graphmgr.obj
 0001:0004f2c0       ?Color@SOL_Plane@@QBEEXZ   004502c0 f i Graphmgr.obj
 0001:0004f300       ?IsColored@SOL_Plane@@QBEHXZ 00450300 f i Graphmgr.obj
 0001:0004f340       ??ARectList@@QBEABVSOL_Rect@@H@Z 00450340 f i Graphmgr.obj
 0001:0004f380       ?Length@RectList@@QBEHXZ   00450380 f i Graphmgr.obj
 0001:0004f3c0       ?DrawScreenItemList@GraphicsMgr@@IAEXAAVDrawList@@@Z 004503c0 f   Graphmgr.obj
 0001:0004f520       ?Draw@DrawItem@@QAEXAAVBuffer@@@Z 00450520 f i Graphmgr.obj
 0001:0004f580       ?Draw@ScreenItem@@QAEXABVBuffer@@ABVSOL_Rect@@@Z 00450580 f i Graphmgr.obj
 0001:0004f610       ?OnScreen@DrawItem@@QAEAAVSOL_Rect@@XZ 00450610 f i Graphmgr.obj
 0001:0004f650       ?NewScreenDim@GraphicsMgr@@QAEXHH@Z 00450650 f   Graphmgr.obj
 0001:0004f6d0       ?IsOnMe@GraphicsMgr@@QAEHAAVScreenItem@@ABVSOL_Plane@@ABVSOL_Point@@H@Z 004506d0 f   Graphmgr.obj
 0001:0004f9a0       ??K@YAHHABVRatio@@@Z       004509a0 f i Graphmgr.obj
 0001:0004f9f0       ?GetSkip@ScreenItem@@QAEEXZ 004509f0 f i Graphmgr.obj
 0001:0004fa50       ?OnScreen@ScreenItem@@QAEAAVSOL_Rect@@XZ 00450a50 f i Graphmgr.obj
 0001:0004fa90       ?ReadPix@ScreenItem@@QAEEHH@Z 00450a90 f i Graphmgr.obj
 0001:0004fb20       ?DefRect@SOL_Plane@@QBEABVSOL_Rect@@XZ 00450b20 f i Graphmgr.obj
 0001:0004fb60       ?Xdim@GraphicsMgr@@QBEHXZ  00450b60 f i Graphmgr.obj
 0001:0004fbb0       ?Ydim@GraphicsMgr@@QBEHXZ  00450bb0 f i Graphmgr.obj
 0001:0004fc00       ?MergeToShowList@GraphicsMgr@@IAEXABVSOL_Rect@@AAVRectList@@H@Z 00450c00 f   Graphmgr.obj
 0001:0004fdc0       ??ARectList@@QAEAAVSOL_Rect@@H@Z 00450dc0 f i Graphmgr.obj
 0001:0004fe00       ?MovieFrameOut@GraphicsMgr@@UAEXVSOL_Rect@@@Z 00450e00 f   Graphmgr.obj
 0001:0004fe90       ?NowSeen@GraphicsMgr@@QAEHHHAAVSOL_Rect@@@Z 00450e90 f   Graphmgr.obj
 0001:0004ff40       ?Min@@YAHHH@Z              00450f40 f i Graphmgr.obj
 0001:0004ff90       ??0GraphicsMgrWin@@QAE@HH@Z 00450f90 f   Graphmw.obj
 0001:000503d0       ??_GGraphicsMgrWin@@UAEPAXI@Z 004513d0 f i Graphmw.obj
 0001:000503d0       ??_EGraphicsMgrWin@@UAEPAXI@Z 004513d0 f i Graphmw.obj
 0001:00050440       ??1GraphicsMgrWin@@UAE@XZ  00451440 f   Graphmw.obj
 0001:000505d0       ?AlterVMAP@GraphicsMgrWin@@UAEXPBVSOLPalette@@0HPAD@Z 004515d0 f   Graphmw.obj
 0001:00050b60       ?ShowBits@GraphicsMgrWin@@MAEXXZ 00451b60 f   Graphmw.obj
 0001:00050df0       ?ShowRect@GraphicsMgrWin@@IAEXPBVSOL_Rect@@PAE@Z 00451df0 f   Graphmw.obj
 0001:00050f70       ?PlayMovie@GraphicsMgrWin@@UAEXPADHHH@Z 00451f70 f   Graphmw.obj
 0001:00050fb0       ?SetVideoForMovies@GraphicsMgrWin@@UAEXXZ 00451fb0 f   Graphmw.obj
 0001:00050fe0       ?SetVideoForSpeed@GraphicsMgrWin@@UAEXXZ 00451fe0 f   Graphmw.obj
 0001:00051010       ?TimingTest@GraphicsMgrWin@@QAEXXZ 00452010 f   Graphmw.obj
 0001:000512f0       ?Repaint@GraphicsMgrWin@@UAEXABVSOL_Rect@@@Z 004522f0 f   Graphmw.obj
 0001:00051360       ?ResizeVmap@GraphicsMgrWin@@MAEXHH@Z 00452360 f   Graphmw.obj
 0001:000513a0       ?KIsHiRes@@YAXPAF@Z        004523a0 f   Graphmw.obj
 0001:00051420       ?SCursorClr@GraphicsMgrWin@@QAEXXZ 00452420 f   Graphmw.obj
 0001:00051630       ?SCursorWin@GraphicsMgrWin@@QAEXXZ 00452630 f   Graphmw.obj
 0001:000517f0       ?PutMovieRect@@YAXPAE0HPAVSOL_Rect@@PAVSOL_Point@@@Z 004527f0 f   Graphmw.obj
 0001:000518f0       ?PutMovieRectBlack@@YAXPAE0HPAVSOL_Rect@@PAVSOL_Point@@@Z 004528f0 f   Graphmw.obj
 0001:00051a10       ?PutMovieRectDbl@@YAXPAE0HPAVSOL_Rect@@PAVSOL_Point@@@Z 00452a10 f   Graphmw.obj
 0001:00051b10       ?PutMovieRectDblBlack@@YAXPAE0HPAVSOL_Rect@@PAVSOL_Point@@@Z 00452b10 f   Graphmw.obj
 0001:00051c30       ?Get@MemID@@QAEXW4MemType@@IW4ReservedHandle@@I@Z 00452c30 f i Graphmw.obj
 0001:00051ca0       ??0Rgb24@@QAE@XZ           00452ca0 f i Graphmw.obj
 0001:00051cd0       ??ASOLPalette@@QBEABVRgb24F@@H@Z 00452cd0 f i Graphmw.obj
 0001:00051d10       ??0PaletteMgrIWin@@QAE@XZ  00452d10 f i Graphmw.obj
 0001:00051db0       ?Current@PaletteMgrIndex@@UBEABVSOLPalette@@XZ 00452db0 f i Graphmw.obj
 0001:00051df0       ?Source@PaletteMgrIndex@@UBEABVSOLPalette@@XZ 00452df0 f i Graphmw.obj
 0001:00051e30       ?Next@PaletteMgrIndex@@UBEABVSOLPalette@@XZ 00452e30 f i Graphmw.obj
 0001:00051e70       ?CycleMap@PaletteMgrIndex@@UBEPBEXZ 00452e70 f i Graphmw.obj
 0001:00051eb0       ?VaryPercent@PaletteMgrIndex@@UBEHXZ 00452eb0 f i Graphmw.obj
 0001:00051f10       ?VaryPause@PaletteMgrIndex@@UAEXXZ 00452f10 f i Graphmw.obj
 0001:00051f60       ?UpdateHardware@PaletteMgrIWin@@UAEHXZ 00452f60 f i Graphmw.obj
 0001:00051fd0       ??_GPaletteMgrIWin@@UAEPAXI@Z 00452fd0 f i Graphmw.obj
 0001:00051fd0       ??_EPaletteMgrIWin@@UAEPAXI@Z 00452fd0 f i Graphmw.obj
 0001:00052040       ??1PaletteMgrIWin@@UAE@XZ  00453040 f i Graphmw.obj
 0001:000520d0       ??0PaletteMgrTWin@@QAE@XZ  004530d0 f i Graphmw.obj
 0001:00052170       ??0PaletteMgrTrue@@QAE@XZ  00453170 f i Graphmw.obj
 0001:000521d0       ??_GPaletteMgrTrue@@UAEPAXI@Z 004531d0 f i Graphmw.obj
 0001:000521d0       ??_EPaletteMgrTrue@@UAEPAXI@Z 004531d0 f i Graphmw.obj
 0001:00052240       ??1PaletteMgrTrue@@UAE@XZ  00453240 f i Graphmw.obj
 0001:00052290       ?UpdateHardware@PaletteMgrTWin@@UAEHXZ 00453290 f i Graphmw.obj
 0001:00052300       ??_GPaletteMgrTWin@@UAEPAXI@Z 00453300 f i Graphmw.obj
 0001:00052300       ??_EPaletteMgrTWin@@UAEPAXI@Z 00453300 f i Graphmw.obj
 0001:00052370       ??1PaletteMgrTWin@@UAE@XZ  00453370 f i Graphmw.obj
 0001:00052400       ?ScreenCount@GraphicsMgrWin@@UBEHXZ 00453400 f i Graphmw.obj
 0001:00052440       ?VisibleScreen@GraphicsMgrWin@@UAEAAVScreen@@XZ 00453440 f i Graphmw.obj
 0001:00052480       ?ShakeScreen@GraphicsMgrWin@@UAEXHH@Z 00453480 f i Graphmw.obj
 0001:000524b0       ?ClearLastScreen@GraphicsMgrWin@@UAEXXZ 004534b0 f i Graphmw.obj
 0001:000524e0       ?GPalette@GraphicsMgrWin@@UAEAAVPaletteMgr@@XZ 004534e0 f i Graphmw.obj
 0001:00052520       ?GCursor@GraphicsMgrWin@@UAEAAVSOL_Cursor@@XZ 00453520 f i Graphmw.obj
 0001:00052560       ?PriMap@GraphicsMgrWin@@UAEAAVBuffer@@XZ 00453560 f i Graphmw.obj
 0001:000525a0       ?CalcLists@GraphicsMgrWin@@MAEXPAPAVDrawList@@PAPAVRectList@@AAVSOL_Rect@@@Z 004535a0 f i Graphmw.obj
 0001:00052610       ?CurrBuffer@GraphicsMgrWin@@MAEPAVBuffer@@XZ 00453610 f i Graphmw.obj
 0001:00052650       ?TrueColor@GraphicsMgrWin@@MBEHXZ 00453650 f i Graphmw.obj
 0001:00052690       ?UpdateScreen@GraphicsMgrWin@@UAEXXZ 00453690 f i Graphmw.obj
 0001:000526f0       ??4Screen@@QAEAAV0@ABV0@@Z 004536f0 f i Graphmw.obj
 0001:00052750       ?HotkeyRequest@@YAXXZ      00453750 f   Hotkey.obj
 0001:000527a0       ?Hotkey@@YAXXZ             004537a0 f   Hotkey.obj
 0001:000529c0       ??0IntegrityMask@@QAE@HPAD@Z 004539c0 f i Integ.obj
 0001:00052a10       ?KIntegrityChecking@@YAXPAF@Z 00453a10 f   Integ.obj
 0001:00052b40       ?IntegrityChecking@@YAXHPADZZ 00453b40 f   Integ.obj
 0001:00052e80       ?CheckIntegrityRequest@@YAXXZ 00453e80 f   Integ.obj
 0001:00052ed0       ?KCheckIntegrity@@YAXPAF@Z 00453ed0 f   Integ.obj
 0001:00052ff0       ?CheckIntegrity@@YAHPADZZ  00453ff0 f   Integ.obj
 0001:00053200       ?MapToDir@KbdMgr@@UBEXPAVSOL_Event@@@Z 00454200 f   Kbdmgr.obj
 0001:000532e0       ?HandleKey@KbdMgrWin@@QAEHIGJ@Z 004542e0 f   Kbdmgrw.obj
 0001:00053540       ?KeyEvent@KbdMgrWin@@AAEXG@Z 00454540 f   Kbdmgrw.obj
 0001:000535c0       ?Get@KbdWin@@UAEGXZ        004545c0 f   Kbdw.obj
 0001:000535f0       ?Modifiers@KbdWin@@UAEGXZ  004545f0 f   Kbdw.obj
 0001:000536b0       ?Reset@KbdWin@@UAEXXZ      004546b0 f   Kbdw.obj
 0001:000536e0       ?KDummy@@YAXPAF@Z          004546e0 f   Kernel.obj
 0001:00053710       ?InitLanguage@@YAXXZ       00454710 f   Language.obj
 0001:00053860       ?DrawThin@SOL_Line@@QAEXEHHVMemID@@H@Z 00454860 f   Line.obj
 0001:00053f10       ?DrawThick@SOL_Line@@QAEXEHHHVMemID@@H@Z 00454f10 f   Line.obj
 0001:00054900       ?at@SOL_List@@QAEGH@Z      00455900 f   List.obj
 0001:00054970       ?addAfter@SOL_List@@QAEHGG@Z 00455970 f   List.obj
 0001:00054a20       ?addBefore@SOL_List@@QAEHGG@Z 00455a20 f   List.obj
 0001:00054ad0       ?addToFront@SOL_List@@QAEXG@Z 00455ad0 f   List.obj
 0001:00054b50       ?addToEnd@SOL_List@@QAEXG@Z 00455b50 f   List.obj
 0001:00054be0       ?moveToFront@SOL_List@@QAEHG@Z 00455be0 f   List.obj
 0001:00054c60       ?moveToEnd@SOL_List@@QAEHG@Z 00455c60 f   List.obj
 0001:00054ce0       ?del@SOL_List@@QAEHG@Z     00455ce0 f   List.obj
 0001:00054d80       ?sortByValue@SOL_List@@QAEXH@Z 00455d80 f   List.obj
 0001:00054f10       ?sortByProperty@SOL_List@@QAEXHH@Z 00455f10 f   List.obj
 0001:000550d0       ?indexOf@SOL_List@@QAEHG@Z 004560d0 f   List.obj
 0001:00055190       ?lock@SOL_List@@QAEXXZ     00456190 f   List.obj
 0001:00055200       ?unlock@SOL_List@@QAEXXZ   00456200 f   List.obj
 0001:00055270       ?KList@@YAXPAF@Z           00456270 f   List.obj
 0001:00056720       ?lock@Array@@QAEXXZ        00457720 f i List.obj
 0001:00056770       ?unlock@Array@@QAEXXZ      00457770 f i List.obj
 0001:000567c0       ?createElements@SOL_List@@QAEXXZ 004577c0 f i List.obj
 0001:00056840       ??DFakeSOL_ListID@@QBEPAVSOL_List@@XZ 00457840 f i List.obj
 0001:00056890       ??0SOL_ListID@@QAE@XZ      00457890 f i List.obj
 0001:000568e0       ??0FakeSOL_ListID@@QAE@XZ  004578e0 f i List.obj
 0001:00056930       ?Get@SOL_ListID@@QAEXXZ    00457930 f i List.obj
 0001:000569c0       ?KLongInt@@YAXPAF@Z        004579c0 f   Longint.obj
 0001:00056f90       ??0LZSS@@QAE@XZ            00457f90 f   Lzss.obj
 0001:000570b0       ??1LZSS@@QAE@XZ            004580b0 f   Lzss.obj
 0001:00057160       ?InitTree@LZSS@@AAEXXZ     00458160 f   Lzss.obj
 0001:00057200       ?InsertNode@LZSS@@AAEXF@Z  00458200 f   Lzss.obj
 0001:00057550       ?DeleteNode@LZSS@@AAEXF@Z  00458550 f   Lzss.obj
 0001:00057810       ?Encode@LZSS@@QAEJPADJ0@Z  00458810 f   Lzss.obj
 0001:00057d10       ?Decode@LZSS@@QAEJPADJ0J@Z 00458d10 f   Lzss.obj
 0001:00058020       ??0MagnifyView@@QAE@VObjectID@@PAV0@@Z 00459020 f   Magnify.obj
 0001:00058980       ??1MagnifyView@@QAE@XZ     00459980 f   Magnify.obj
 0001:000589f0       ?FillData@MagnifyView@@QAEXVSOL_Point@@@Z 004599f0 f   Magnify.obj
 0001:00058cb0       ?Update@MagnifyView@@QAEXXZ 00459cb0 f   Magnify.obj
 0001:000591a0       ?SetInsetRect@ScreenItem@@QAEXABVSOL_Rect@@@Z 0045a1a0 f i Magnify.obj
 0001:00059200       ?sqrt@@YAIK@Z              0045a200 f   Math.obj
 0001:000592c0       ?LCGRandom@@YAKXZ          0045a2c0 f   Math.obj
 0001:00059340       ?LCGRandomA@@YAKXZ         0045a340 f   Math.obj
 0001:00059390       ?LCGRandomB@@YAKXZ         0045a390 f   Math.obj
 0001:000593e0       ?KAbs@@YAXPAF@Z            0045a3e0 f   Math.obj
 0001:00059440       ?KSqrt@@YAXPAF@Z           0045a440 f   Math.obj
 0001:000594c0       ?KMulDiv@@YAXPAF@Z         0045a4c0 f   Math.obj
 0001:00059620       ?KGetAngle@@YAXPAF@Z       0045a620 f   Math.obj
 0001:000596c0       ?KGetDistance@@YAXPAF@Z    0045a6c0 f   Math.obj
 0001:000597f0       ?CosDiv@@YAHHJ@Z           0045a7f0 f i Math.obj
 0001:00059850       ?KSinMult@@YAXPAF@Z        0045a850 f   Math.obj
 0001:000598b0       ?SinMult@@YAHHJ@Z          0045a8b0 f i Math.obj
 0001:00059910       ?KCosMult@@YAXPAF@Z        0045a910 f   Math.obj
 0001:00059970       ?CosMult@@YAHHJ@Z          0045a970 f i Math.obj
 0001:000599d0       ?KSinDiv@@YAXPAF@Z         0045a9d0 f   Math.obj
 0001:00059a30       ?SinDiv@@YAHHJ@Z           0045aa30 f i Math.obj
 0001:00059a90       ?KCosDiv@@YAXPAF@Z         0045aa90 f   Math.obj
 0001:00059af0       ?KATan@@YAXPAF@Z           0045aaf0 f   Math.obj
 0001:00059b60       ?KRandom@@YAXPAF@Z         0045ab60 f   Math.obj
 0001:00059c80       ?KRandomA@@YAXPAF@Z        0045ac80 f   Math.obj
 0001:00059db0       ?KReadNumber@@YAXPAF@Z     0045adb0 f   Math.obj
 0001:00059e10       ?RPtToAngle@@YAHPAVSOL_Point@@0@Z 0045ae10 f   Math.obj
 0001:00059e70       ?ScaledSin@@YAJH@Z         0045ae70 f   Math.obj
 0001:00059fc0       ?ScaledCos@@YAJH@Z         0045afc0 f   Math.obj
 0001:0005a0c0       ?ATan@@YAHHHHH@Z           0045b0c0 f   Math.obj
 0001:0005a380       ?Attrs@MemID@@QBEIXZ       0045b380 f   Memid.obj
 0001:0005a3e0       ?GetMemType@MemID@@QBE?AW4MemType@@XZ 0045b3e0 f   Memid.obj
 0001:0005a440       ?GetMemTypeStr@MemID@@QBEPBDXZ 0045b440 f   Memid.obj
 0001:0005a4a0       ?Clear@MemID@@QBEXXZ       0045b4a0 f   Memid.obj
 0001:0005a4f0       ?Critical@MemID@@QBEXH@Z   0045b4f0 f   Memid.obj
 0001:0005a550       ?Fill@MemID@@QBEXE@Z       0045b550 f   Memid.obj
 0001:0005a5d0       ?Lock@MemID@@QBEPAXXZ      0045b5d0 f   Memid.obj
 0001:0005a630       ?Unlock@MemID@@QBEPAXXZ    0045b630 f   Memid.obj
 0001:0005a690       ?SetDiscardable@MemID@@QBEXXZ 0045b690 f   Memid.obj
 0001:0005a6f0       ?SetNotDiscardable@MemID@@QBEXXZ 0045b6f0 f   Memid.obj
 0001:0005a750       ?Realloc@MemID@@QBEPAXI@Z  0045b750 f   Memid.obj
 0001:0005a7c0       ?Read@MemID@@QBEHH@Z       0045b7c0 f   Memid.obj
 0001:0005a830       ?Read@MemID@@QBEHHII@Z     0045b830 f   Memid.obj
 0001:0005a890       ?Load@MemID@@QAEHW4MemType@@PADIW4ReservedHandle@@@Z 0045b890 f   Memid.obj
 0001:0005a970       ?Size@MemID@@QBEIXZ        0045b970 f   Memid.obj
 0001:0005a9f0       ?SetChecksum@MemID@@QBEXH@Z 0045b9f0 f   Memid.obj
 0001:0005aa50       ?Critical@MemoryMgr@@QAEXGH@Z 0045ba50 f i Memid.obj
 0001:0005aad0       ?SetDiscardable@MemoryMgr@@QAEXG@Z 0045bad0 f i Memid.obj
 0001:0005ab90       ?SetNotDiscardable@MemoryMgr@@QAEXG@Z 0045bb90 f i Memid.obj
 0001:0005ac50       ?GetMemType@MemoryMgr@@QAE?AW4MemType@@G@Z 0045bc50 f i Memid.obj
 0001:0005aca0       ?GetMemAttrs@MemoryMgr@@QAEIG@Z 0045bca0 f i Memid.obj
 0001:0005ae20       ?CheckHeap@@YAXPADH@Z      0045be20 f   Memmgr.obj
 0001:0005aea0       ?_ValidateMemID@@YAXVMemID@@PADH@Z 0045bea0 f   Memmgr.obj
 0001:0005b0c0       ?DescribePrevMemID@@YAXVMemID@@@Z 0045c0c0 f   Memmgr.obj
 0001:0005b170       ??0MemoryMgr@@QAE@XZ       0045c170 f   Memmgr.obj
 0001:0005b250       ??_EMemoryMgr@@UAEPAXI@Z   0045c250 f i Memmgr.obj
 0001:0005b250       ??_GMemoryMgr@@UAEPAXI@Z   0045c250 f i Memmgr.obj
 0001:0005b2c0       ??1MemoryMgr@@UAE@XZ       0045c2c0 f i Memmgr.obj
 0001:0005b300       ?Init@MemoryMgr@@QAEXI@Z   0045c300 f   Memmgr.obj
 0001:0005b730       ??0Descriptor@@QAE@XZ      0045c730 f i Memmgr.obj
 0001:0005b790       ??0MemInfo@@QAE@XZ         0045c790 f i Memmgr.obj
 0001:0005b7e0       ??2Descriptor@@SAPAXIPAX@Z 0045c7e0 f i Memmgr.obj
 0001:0005b810       ?GetNewDescriptor@MemoryMgr@@QAEGW4ReservedHandle@@@Z 0045c810 f   Memmgr.obj
 0001:0005ba70       ?GetMoreDescriptors@MemoryMgr@@QAEXI@Z 0045ca70 f   Memmgr.obj
 0001:0005bad0       ?FreeDescriptor@MemoryMgr@@QAEXG@Z 0045cad0 f   Memmgr.obj
 0001:0005bba0       ?Alloc@MemoryMgr@@QAEGIIIPAUMemClient@@DW4ReservedHandle@@@Z 0045cba0 f   Memmgr.obj
 0001:0005bfd0       ?Free@MemoryMgr@@QAEXG@Z   0045cfd0 f   Memmgr.obj
 0001:0005c3c0       ?FreeMemory@MemoryMgr@@QAEIXZ 0045d3c0 f   Memmgr.obj
 0001:0005c420       ?TotalMemory@MemoryMgr@@QAEIXZ 0045d420 f   Memmgr.obj
 0001:0005c4d0       ?Purge@MemoryMgr@@QAEGI@Z  0045d4d0 f   Memmgr.obj
 0001:0005c510       ?Pack@MemoryMgr@@QAEII@Z   0045d510 f   Memmgr.obj
 0001:0005c550       ?Lock@MemoryMgr@@QAEPAXG@Z 0045d550 f   Memmgr.obj
 0001:0005c670       ?Unlock@MemoryMgr@@QAEPAXG@Z 0045d670 f   Memmgr.obj
 0001:0005c770       ?Realloc@MemoryMgr@@QAEXGI@Z 0045d770 f   Memmgr.obj
 0001:0005c9d0       ?Split@MemoryMgr@@QAEGGHIIPAUMemClient@@@Z 0045d9d0 f   Memmgr.obj
 0001:0005ca10       ??4Descriptor@@QAEAAV0@ABVSaveDescriptor@@@Z 0045da10 f   Memmgr.obj
 0001:0005ca80       ?KPurge@@YAXPAF@Z          0045da80 f   Memmgr.obj
 0001:0005cae0       ?KMemoryInfo@@YAXPAF@Z     0045dae0 f   Memmgr.obj
 0001:0005cc70       ?GetHandle@MemoryMgr@@QAEGPAX@Z 0045dc70 f   Memmgr.obj
 0001:0005ccb0       ?NotValid@MemoryMgr@@QAEXG@Z 0045dcb0 f   Memmgr.obj
 0001:0005cdf0       ?CheckVolatile@MemoryMgr@@QAEIH@Z 0045ddf0 f   Memmgre.obj
 0001:0005ce70       ?VolatileMethod@MemoryMgr@@QAEXPAD@Z 0045de70 f   Memmgre.obj
 0001:0005cef0       ?IntegrityChecking@MemoryMgr@@QAEXXZ 0045def0 f   Memmgre.obj
 0001:0005cf20       ?CheckIntegrity@MemoryMgr@@QAEHPAD@Z 0045df20 f   Memmgre.obj
 0001:0005d0a0       ?ICError@MemoryMgr@@QAE?BHPADG@Z 0045e0a0 f   Memmgre.obj
 0001:0005d170       ?GetResNumber@MemoryMgr@@QAEIG@Z 0045e170 f i Memmgre.obj
 0001:0005d1b0       ?ICListError@MemoryMgr@@QAE?BHPADG@Z 0045e1b0 f   Memmgre.obj
 0001:0005d270       ?WriteSignature@MemoryMgr@@QAEXG@Z 0045e270 f   Memmgre.obj
 0001:0005d2a0       ?EraseSignature@MemoryMgr@@QAEXG@Z 0045e2a0 f   Memmgre.obj
 0001:0005d2d0       ?CheckSignatures@MemoryMgr@@QAEHXZ 0045e2d0 f   Memmgre.obj
 0001:0005d330       ?CheckFree@MemoryMgr@@QAEHXZ 0045e330 f   Memmgre.obj
 0001:0005d370       ?CheckChecksums@MemoryMgr@@QAEHXZ 0045e370 f   Memmgre.obj
 0001:0005d3b0       ?CheckChecksum@MemoryMgr@@QAEHG@Z 0045e3b0 f   Memmgre.obj
 0001:0005d3f0       ?SetChecksum@MemoryMgr@@QAEXPAXH@Z 0045e3f0 f   Memmgre.obj
 0001:0005d420       ?SetChecksum@MemoryMgr@@QAEXGH@Z 0045e420 f   Memmgre.obj
 0001:0005d450       ?CheckLists@MemoryMgr@@QAEHXZ 0045e450 f   Memmgre.obj
 0001:0005d490       ?MemoryBitMap@MemoryMgr@@QAEGXZ 0045e490 f   Memmgre.obj
 0001:0005d730       ??0Rgb24@@QAE@EEE@Z        0045e730 f i Memmgre.obj
 0001:0005d790       ?FillMemBM@MemoryMgr@@QAEXPAD0IEHH@Z 0045e790 f   Memmgre.obj
 0001:0005d870       ?FillIndex@MemoryMgr@@QAEXPADHEH@Z 0045e870 f   Memmgre.obj
 0001:0005dc90       ?KMarkMemory@@YAXPAF@Z     0045ec90 f   Memmgre.obj
 0001:0005dd10       ?MarkMemory@MemoryMgr@@QAEXG@Z 0045ed10 f i Memmgre.obj
 0001:0005dda0       ?UnMarkMemory@MemoryMgr@@QAEXG@Z 0045eda0 f i Memmgre.obj
 0001:0005de30       ?ShowBitmaps@MemoryMgr@@QAEXXZ 0045ee30 f   Memmgre.obj
 0001:0005e2d0       ?ShowText@MemoryMgr@@QAEXHH@Z 0045f2d0 f   Memmgre.obj
 0001:0005e4a0       ?Max@@YAHHW4ReservedHandle@@@Z 0045f4a0 f i Memmgre.obj
 0001:0005e4f0       ?Min@@YAHHI@Z              0045f4f0 f i Memmgre.obj
 0001:0005e540       ?GetSysMemAvail@MemoryMgrWin@@UAEIXZ 0045f540 f   Memmgrw.obj
 0001:0005e580       ?GetSysMem@MemoryMgrWin@@UAEPADI@Z 0045f580 f   Memmgrw.obj
 0001:0005e630       ??1MemoryMgrWin@@UAE@XZ    0045f630 f   Memmgrw.obj
 0001:0005e760       ?GetConvMemAvail@MemoryMgrWin@@UAEIXZ 0045f760 f   Memmgrw.obj
 0001:0005e790       ?GetConvMem@MemoryMgrWin@@UAEPADI@Z 0045f790 f   Memmgrw.obj
 0001:0005e7d0       ?FreeConvMem@MemoryMgrWin@@UAEXPAD@Z 0045f7d0 f   Memmgrw.obj
 0001:0005e810       ?GetWindowsMemory@@YAXXZ   0045f810 f   Memmgrw.obj
 0001:0005e850       ?AllocWinMem@@YAPAXHH@Z    0045f850 f   Memmgrw.obj
 0001:0005e880       ?FreeWinMem@@YAXPAXH@Z     0045f880 f   Memmgrw.obj
 0001:0005e8b0       ?BaseMem@@YAHXZ            0045f8b0 f   Memmgrw.obj
 0001:0005e8e0       ?ExtendedMem@@YAHXZ        0045f8e0 f   Memmgrw.obj
 0001:0005e910       ??_GMemoryMgrWin@@UAEPAXI@Z 0045f910 f i Memmgrw.obj
 0001:0005e910       ??_EMemoryMgrWin@@UAEPAXI@Z 0045f910 f i Memmgrw.obj
 0001:0005e980       ?GetMemTypeFromStr@@YA?AW4MemType@@PBD@Z 0045f980 f   Memtype.obj
 0001:0005e9d0       ?GetSCITypeFromStr@@YA?AW4MemType@@PBD@Z 0045f9d0 f   Memtype.obj
 0001:0005ea20       ?GetMemTypeStr@@YAPBDW4MemType@@@Z 0045fa20 f   Memtype.obj
 0001:0005ea70       ?GetSCIMemTypeStr@@YAPBDW4MemType@@@Z 0045fa70 f   Memtype.obj
 0001:0005eac0       ?AddStat@MemTypes@@QAEXW4MemType@@IHHHH@Z 0045fac0 f   Memtype.obj
 0001:0005eb80       ?Update@MemTypeStat@@QAEXIHHHH@Z 0045fb80 f i Memtype.obj
 0001:0005ec90       ?ClearStats@MemTypes@@QAEXXZ 0045fc90 f   Memtype.obj
 0001:0005ed20       ?Clear@MemTypeStat@@QAEXXZ 0045fd20 f i Memtype.obj
 0001:0005edd0       ?FindMemTypeDesc@MemTypes@@QAEPAVMemTypeDesc@@W4MemType@@@Z 0045fdd0 f   Memtype.obj
 0001:0005ee50       ?GetTypeFromStr@MemTypes@@QAE?AW4MemType@@PBD@Z 0045fe50 f   Memtype.obj
 0001:0005eef0       ?GetSCITypeFromStr@MemTypes@@QAE?AW4MemType@@PBD@Z 0045fef0 f   Memtype.obj
 0001:0005ef90       ?GetMemTypeStr@MemTypes@@QAEPBDW4MemType@@@Z 0045ff90 f   Memtype.obj
 0001:0005f020       ?GetSCIMemTypeStr@MemTypes@@QAEPBDW4MemType@@@Z 00460020 f   Memtype.obj
 0001:0005f0b0       ?Compare@MemTypes@@CAHPBX0@Z 004600b0 f   Memtype.obj
 0001:0005f100       ?MakeStatsStr@MemTypes@@QAE?AVTextID@@XZ 00460100 f   Memtype.obj
 0001:0005f220       ?MakeStr@MemTypeStat@@QAEPADXZ 00460220 f i Memtype.obj
 0001:0005f520       ?GetMemTypeStr@MemoryMgr@@QAEPBDG@Z 00460520 f   Memtype.obj
 0001:0005f590       ?MakeMemTypeDspStr@MemoryMgr@@QAE?AVTextID@@XZ 00460590 f   Memtype.obj
 0001:0005f6f0       ?TotalType@MemoryMgr@@QAEHW4MemType@@@Z 004606f0 f   Memtype.obj
 0001:0005f7b0       ?MakeMemIDListStr@MemoryMgr@@QAE?AVTextID@@HPAHH@Z 004607b0 f   Memtype.obj
 0001:0005f950       ?KMessage@@YAXPAF@Z        00460950 f   Message.obj
 0001:000609c0       ?Init@MsgStack@@QAEXGEEEE@Z 004619c0 f   Message.obj
 0001:00060a40       ?Push@MsgStack@@QAEXEEEE@Z 00461a40 f   Message.obj
 0001:00060b20       ?Top@MsgStack@@QAE?AUMsgEntry@@XZ 00461b20 f   Message.obj
 0001:00060bb0       ?Pop@MsgStack@@QAEHXZ      00461bb0 f   Message.obj
 0001:00060c10       ?IncSeq@MsgStack@@QAEXXZ   00461c10 f   Message.obj
 0001:00060c60       ??0MsgStackStack@@QAE@XZ   00461c60 f   Message.obj
 0001:00060cc0       ??0MsgStackID@@QAE@XZ      00461cc0 f i Message.obj
 0001:00060d10       ?Push@MsgStackStack@@QAEXAAUMsgStack@@@Z 00461d10 f   Message.obj
 0001:00060de0       ?Get@MsgStackID@@QAEXXZ    00461de0 f i Message.obj
 0001:00060e60       ??DMsgStackID@@QBEPAUMsgStack@@XZ 00461e60 f i Message.obj
 0001:00060eb0       ?Pop@MsgStackStack@@QAE?AUMsgStack@@XZ 00461eb0 f   Message.obj
 0001:00060fa0       ??0MsgStackID@@QAE@ABU0@@Z 00461fa0 f i Message.obj
 0001:00060ff0       ?KBaseSetter@@YAXPAF@Z     00461ff0 f   Motion.obj
 0001:000613d0       ?KCelRect@@YAXPAF@Z        004623d0 f   Motion.obj
 0001:00061700       ?KDirLoop@@YAXPAF@Z        00462700 f   Motion.obj
 0001:00061760       ?KInitBresen@@YAXPAF@Z     00462760 f   Motion.obj
 0001:00061bc0       ?KDoBresen@@YAXPAF@Z       00462bc0 f   Motion.obj
 0001:00061fb0       ?KSetJump@@YAXPAF@Z        00462fb0 f   Motion.obj
 0001:00062200       ?KCantBeHere@@YAXPAF@Z     00463200 f   Motion.obj
 0001:00062410       ?GetIndexedPropAddr@ObjectID@@QBEPBFH@Z 00463410 f i Motion.obj
 0001:00062630       ?KHaveMouse@@YAXPAF@Z      00463630 f   Mouse.obj
 0001:000626b0       ?KSetCursor@@YAXPAF@Z      004636b0 f   Mouse.obj
 0001:00062950       ?KVibrateMouse@@YAXPAF@Z   00463950 f   Mouse.obj
 0001:00062a00       ?KSetHotRectangles@@YAXPAF@Z 00463a00 f   Mouse.obj
 0001:00062b00       ?SetupHotRectangles@SOL_Mouse@@UAEXHVMemID@@@Z 00463b00 f   Mouse.obj
 0001:00062b70       ?CheckHotRectangles@SOL_Mouse@@UAEXAAVSOL_Point@@@Z 00463b70 f   Mouse.obj
 0001:00062ea0       ??0MouseWin@@QAE@XZ        00463ea0 f   Mousew.obj
 0001:00062f80       ??1SOL_Mouse@@UAE@XZ       00463f80 f i Mousew.obj
 0001:00062fd0       ??1PointerDevice@@UAE@XZ   00463fd0 f i Mousew.obj
 0001:00063010       ??_EPointerDevice@@UAEPAXI@Z 00464010 f i Mousew.obj
 0001:00063010       ??_GPointerDevice@@UAEPAXI@Z 00464010 f i Mousew.obj
 0001:00063080       ?GetSwiftInfo@SOL_Mouse@@UBEHPAH000@Z 00464080 f i Mousew.obj
 0001:000630c0       ?IsSwift@SOL_Mouse@@UBEHXZ 004640c0 f i Mousew.obj
 0001:000630f0       ?Vibrate@SOL_Mouse@@UBEXHHH@Z 004640f0 f i Mousew.obj
 0001:00063120       ?SetHotRectangleStatus@SOL_Mouse@@UAEXH@Z 00464120 f i Mousew.obj
 0001:00063160       ??_ESOL_Mouse@@UAEPAXI@Z   00464160 f i Mousew.obj
 0001:00063160       ??_GSOL_Mouse@@UAEPAXI@Z   00464160 f i Mousew.obj
 0001:000631d0       ?Setup@MouseWin@@UAEXAAVSOL_Cursor@@@Z 004641d0 f i Mousew.obj
 0001:00063200       ??_GMouseWin@@UAEPAXI@Z    00464200 f i Mousew.obj
 0001:00063200       ??_EMouseWin@@UAEPAXI@Z    00464200 f i Mousew.obj
 0001:00063270       ??0SOL_Mouse@@QAE@XZ       00464270 f i Mousew.obj
 0001:000632d0       ??0PointerDevice@@QAE@XZ   004642d0 f i Mousew.obj
 0001:00063310       ??1MouseWin@@UAE@XZ        00464310 f   Mousew.obj
 0001:00063360       ?GlobalPos@MouseWin@@UBEHPAVSOL_Point@@@Z 00464360 f   Mousew.obj
 0001:000633c0       ?GlobalPosSci@MouseWin@@UBEHPAVSOL_Point@@@Z 004643c0 f   Mousew.obj
 0001:00063440       ?Exists@MouseWin@@UBEHXZ   00464440 f   Mousew.obj
 0001:00063480       ?SetPos@MouseWin@@UAEXABVSOL_Point@@@Z 00464480 f   Mousew.obj
 0001:000634d0       ?SetRestrictRect@MouseWin@@UAEXABVSOL_Rect@@@Z 004644d0 f   Mousew.obj
 0001:00063540       ?ClearRestrictRect@MouseWin@@UAEXXZ 00464540 f   Mousew.obj
 0001:000635c0       ?WinMouseButton@MouseWin@@QAEXIABVSOL_Point@@@Z 004645c0 f   Mousew.obj
 0001:000637b0       ??0MouseWinClr@@QAE@XZ     004647b0 f   Mousew.obj
 0001:000638d0       ??_EMouseWinClr@@UAEPAXI@Z 004648d0 f i Mousew.obj
 0001:000638d0       ??_GMouseWinClr@@UAEPAXI@Z 004648d0 f i Mousew.obj
 0001:00063940       ??1MouseWinClr@@UAE@XZ     00464940 f   Mousew.obj
 0001:000639f0       ?GlobalPos@MouseWinClr@@UBEHPAVSOL_Point@@@Z 004649f0 f   Mousew.obj
 0001:00063a50       ?GlobalPosSci@MouseWinClr@@UBEHPAVSOL_Point@@@Z 00464a50 f   Mousew.obj
 0001:00063b10       ?GetSwiftInfo@MouseWinClr@@UBEHPAH000@Z 00464b10 f   Mousew.obj
 0001:00063b90       ?Exists@MouseWinClr@@UBEHXZ 00464b90 f   Mousew.obj
 0001:00063bd0       ?SetRestrictRect@MouseWinClr@@UAEXABVSOL_Rect@@@Z 00464bd0 f   Mousew.obj
 0001:00063d40       ?ClearRestrictRect@MouseWinClr@@UAEXXZ 00464d40 f   Mousew.obj
 0001:00063dc0       ?Setup@MouseWinClr@@UAEXAAVSOL_Cursor@@@Z 00464dc0 f   Mousew.obj
 0001:00063e00       ?SetPos@MouseWinClr@@UAEXABVSOL_Point@@@Z 00464e00 f   Mousew.obj
 0001:000640b0       ?IsSwift@MouseWinClr@@UBEHXZ 004650b0 f   Mousew.obj
 0001:000640f0       ?WinMouseButton@MouseWinClr@@QAEXIABVSOL_Point@@@Z 004650f0 f   Mousew.obj
 0001:00064270       ?KSetVideoMode@@YAXPAF@Z   00465270 f   Moview.obj
 0001:000642b0       ?KShowMovie@@YAXPAF@Z      004652b0 f   Moview.obj
 0001:00064710       _AviOpen                   00465710 f   Moview.obj
 0001:000649d0       _AviSetPalette             004659d0 f   Moview.obj
 0001:00064b80       _AviClose                  00465b80 f   Moview.obj
 0001:00064c90       _AviPut                    00465c90 f   Moview.obj
 0001:000652f0       _AviPutDouble              004662f0 f   Moview.obj
 0001:000657f0       _AviPlay                   004667f0 f   Moview.obj
 0001:00065b70       _AviWaitEvent              00466b70 f   Moview.obj
 0001:00065d10       _AviStop                   00466d10 f   Moview.obj
 0001:00065de0       _AviPause                  00466de0 f   Moview.obj
 0001:00065ea0       _AviCue                    00466ea0 f   Moview.obj
 0001:00065f50       _AviSeek                   00466f50 f   Moview.obj
 0001:00066010       _AviNotify                 00467010 f   Moview.obj
 0001:00066050       _AviResume                 00467050 f   Moview.obj
 0001:00066110       ?InitMovie@@YAXXZ          00467110 f   Moview.obj
 0001:00066140       ?TermMovie@@YAXXZ          00467140 f   Moview.obj
 0001:00066170       _AviGetLength              00467170 f   Moview.obj
 0001:00066250       _AviGetPosition            00467250 f   Moview.obj
 0001:00066310       _AviGetFramesSkipped       00467310 f   Moview.obj
 0001:000663d0       _AviGetStatus              004673d0 f   Moview.obj
 0001:00066410       ??0MsgMgr@@QAE@XZ          00467410 f   Msg.obj
 0001:00066490       ?Init@MsgMgr@@UAEXXZ       00467490 f   Msg.obj
 0001:00066590       ?AddFatalStr@MsgMgr@@QAEXPAD@Z 00467590 f   Msg.obj
 0001:00066690       ?AddPMIP@MsgMgr@@QAEXPAD@Z 00467690 f   Msg.obj
 0001:00066740       ?AddSrcLoc@MsgMgr@@IAEXPAD0H@Z 00467740 f   Msg.obj
 0001:000667c0       ?Alert@MsgMgr@@QAAHHZZ     004677c0 f   Msg.obj
 0001:00066840       ?Alert@MsgMgr@@QAAHPADZZ   00467840 f   Msg.obj
 0001:000668c0       ?Alert@MsgMgr@@QAAHDPADHHZZ 004678c0 f   Msg.obj
 0001:00066950       ?Alert@MsgMgr@@QAAHDPADH0ZZ 00467950 f   Msg.obj
 0001:000669e0       ?AlertOutput@MsgMgr@@MAEHPAD@Z 004679e0 f   Msg.obj
 0001:00066a40       ?Dump@MsgMgr@@QAAXPADZZ    00467a40 f   Msg.obj
 0001:00066b20       ?Fatal@MsgMgr@@QAAXHZZ     00467b20 f   Msg.obj
 0001:00066ba0       ?Fatal@MsgMgr@@QAAXPADZZ   00467ba0 f   Msg.obj
 0001:00066c20       ?Fatal@MsgMgr@@QAAXDPADHHZZ 00467c20 f   Msg.obj
 0001:00066cb0       ?Fatal@MsgMgr@@QAAXDPADH0ZZ 00467cb0 f   Msg.obj
 0001:00066d40       ?print@@YAXHPADZZ          00467d40 f   Msg.obj
 0001:00066e00       ?FatalOutput@MsgMgr@@MAEXPAD@Z 00467e00 f   Msg.obj
 0001:00067250       ?Get@MsgMgr@@UAEPADHPAD@Z  00468250 f   Msg.obj
 0001:00067380       ?Make@MsgMgr@@IAEPADPADHH0@Z 00468380 f   Msg.obj
 0001:00067460       ?Make@MsgMgr@@IAEPADHPAD@Z 00468460 f   Msg.obj
 0001:00067520       ?Make@MsgMgr@@IAEPADPADH00@Z 00468520 f   Msg.obj
 0001:000675b0       ?Make@MsgMgr@@IAEPADPAD0@Z 004685b0 f   Msg.obj
 0001:00067620       ?Mono@MsgMgr@@QAAXPADZZ    00468620 f   Msg.obj
 0001:00067670       ?MonoArgs@MsgMgr@@QAEXPAD0@Z 00468670 f   Msg.obj
 0001:00067700       ?MonoPause@MsgMgr@@QAAXPADZZ 00468700 f   Msg.obj
 0001:000677c0       ?MonoStr@MsgMgr@@QAEXPAD@Z 004687c0 f   Msg.obj
 0001:00067820       ?OpenFile@MsgMgr@@IAEHXZ   00468820 f   Msg.obj
 0001:00067890       ?Read@MsgMgr@@IAEPADHPADH@Z 00468890 f   Msg.obj
 0001:00067c90       ?SetQuitStr@MsgMgr@@QAEXPAD@Z 00468c90 f   Msg.obj
 0001:00067d30       ?SetSCIFatalStr@MsgMgr@@QAEXPAD@Z 00468d30 f   Msg.obj
 0001:00067dd0       ?AssertFail@@YAHPADH0@Z    00468dd0 f   Msg.obj
 0001:00067e80       ?KSetQuitStr@@YAXPAF@Z     00468e80 f   Msg.obj
 0001:00067ee0       ?KSetFatalStr@@YAXPAF@Z    00468ee0 f   Msg.obj
 0001:00067fb0       ?KMonoOut@@YAXPAF@Z        00468fb0 f   Msg.obj
 0001:00068040       ?Printf@@YAHPADZZ          00469040 f   Msg.obj
 0001:00068100       ??1MsgMgrWin@@QAE@XZ       00469100 f   Msgw.obj
 0001:000681b0       ?MonoOutput@MsgMgrWin@@UAEXPAD@Z 004691b0 f   Msgw.obj
 0001:00068230       ?MonoPosition@MsgMgrWin@@UAEXHH@Z 00469230 f   Msgw.obj
 0001:00068480       ?KNetwork@@YAXPAF@Z        00469480 f   Networkw.obj
 0001:00068a50       ?KSID@@YAXPAF@Z            00469a50 f   Networkw.obj
 0001:00068ae0       ?NetConnect@@YAHPADH@Z     00469ae0 f   Networkw.obj
 0001:00069070       ?NetConnectIP@@YAHHHHHH@Z  0046a070 f   Networkw.obj
 0001:000691f0       ?NetDisconnect@@YAHXZ      0046a1f0 f   Networkw.obj
 0001:00069270       ?NetSend@@YAHPAFH@Z        0046a270 f   Networkw.obj
 0001:00069960       ??0Array@@QAE@HW4ArrayType@@@Z 0046a960 f i Networkw.obj
 0001:000699e0       ??0CSCI_LongInt@@QAE@XZ    0046a9e0 f i Networkw.obj
 0001:00069a30       ??0CSCI_Object@@QAE@XZ     0046aa30 f i Networkw.obj
 0001:00069a80       ??0CSCI_WorldObject@@QAE@XZ 0046aa80 f i Networkw.obj
 0001:00069ad0       ??0CSCI_Actor@@QAE@XZ      0046aad0 f i Networkw.obj
 0001:00069b20       ??0CSCI_Prop@@QAE@XZ       0046ab20 f i Networkw.obj
 0001:00069b70       ??0CSCI_View@@QAE@XZ       0046ab70 f i Networkw.obj
 0001:00069bc0       ??0CSCI_Feature@@QAE@XZ    0046abc0 f i Networkw.obj
 0001:00069c10       ??0CSCI_BitMap@@QAE@XZ     0046ac10 f i Networkw.obj
 0001:00069c60       ??0CSCI_Rectangle@@QAE@XZ  0046ac60 f i Networkw.obj
 0001:00069cb0       ?get_nServID@CSCI_WorldObject@@QAEHXZ 0046acb0 f i Networkw.obj
 0001:00069d20       ?get_pServIDLo@CSCI_WorldObject@@QAEFXZ 0046ad20 f i Networkw.obj
 0001:00069d70       ?get_pServIDHi@CSCI_WorldObject@@QAEFXZ 0046ad70 f i Networkw.obj
 0001:00069dc0       ?CNetSend@@YAHPADZZ        0046adc0 f   Networkw.obj
 0001:0006a2e0       ?Data@OCArray@@QAEPAEXZ    0046b2e0 f i Networkw.obj
 0001:0006a320       ?Size@CPackedData@@QAEHXZ  0046b320 f i Networkw.obj
 0001:0006a370       ?CNetFastSend@@YIHHPAE@Z   0046b370 f   Networkw.obj
 0001:0006a460       ?PollSocket@@YAHXZ         0046b460 f   Networkw.obj
 0001:0006a940       ?NetTerminate@@YAXXZ       0046b940 f   Networkw.obj
 0001:0006a9c0       ?FlushSocket@@YAXXZ        0046b9c0 f   Networkw.obj
 0001:0006aba0       ??0RmResList@@QAE@I@Z      0046bba0 f   Newroom.obj
 0001:0006ad30       ??1RmResList@@QAE@XZ       0046bd30 f   Newroom.obj
 0001:0006ae30       ?Read@RmResList@@QAEXXZ    0046be30 f   Newroom.obj
 0001:0006b060       ?Add@RmResList@@QAEXW4MemType@@GH@Z 0046c060 f   Newroom.obj
 0001:0006b130       ?AddEntry@RmResList@@AAEXW4MemType@@GH@Z 0046c130 f   Newroom.obj
 0001:0006b2c0       ?Print@RmResList@@QAEXXZ   0046c2c0 f   Newroom.obj
 0001:0006b4d0       ?NewRoom@RmResList@@QAEXG@Z 0046c4d0 f   Newroom.obj
 0001:0006b7a0       ?KNewRoom@@YAXPAF@Z        0046c7a0 f   Newroom.obj
 0001:0006b7f0       ??0Object@@QAE@VMemID@@0II@Z 0046c7f0 f   Object.obj
 0001:0006ba00       ??0Object@@QAE@VMemID@@0@Z 0046ca00 f   Object.obj
 0001:0006bc50       ??0ScriptID@@QAE@ABVMemID@@@Z 0046cc50 f i Object.obj
 0001:0006bca0       ??1Object@@QAE@XZ          0046cca0 f   Object.obj
 0001:0006bdf0       ??_GSelectorDict@@QAEPAXI@Z 0046cdf0 f i Object.obj
 0001:0006be60       ?AddToObjects@Object@@QAEXXZ 0046ce60 f   Object.obj
 0001:0006bf20       ?DeleteFromObjects@Object@@QAEXXZ 0046cf20 f   Object.obj
 0001:0006c010       ?Name@Object@@QAEPBDXZ     0046d010 f   Object.obj
 0001:0006c0d0       ?RespondsTo@Object@@QAEHG@Z 0046d0d0 f   Object.obj
 0001:0006c140       ?Get@ObjectID@@QAEXVMemID@@II@Z 0046d140 f   Object.obj
 0001:0006c200       ?Get@FakeObjectID@@QAEXIIIPAUMemClient@@DW4ReservedHandle@@@Z 0046d200 f i Object.obj
 0001:0006c270       ?Get@ObjectID@@QAEXV1@@Z   0046d270 f   Object.obj
 0001:0006c330       ?Free@ObjectID@@QAEXXZ     0046d330 f   Object.obj
 0001:0006c3d0       ??DFakeObjectID@@QBEPAUObject@@XZ 0046d3d0 f i Object.obj
 0001:0006c420       ??_GObject@@QAEPAXI@Z      0046d420 f i Object.obj
 0001:0006c490       ?Clone@ObjectID@@QAE?AV1@XZ 0046d490 f   Object.obj
 0001:0006c510       ??0SelectorDict@@QAE@XZ    0046d510 f   Object.obj
 0001:0006c580       ??1SelectorDict@@QAE@XZ    0046d580 f   Object.obj
 0001:0006c6c0       ?selectorsSize@SelectorDict@@QAEHXZ 0046d6c0 f i Object.obj
 0001:0006c700       ?offsetsSize@SelectorDict@@QAEHXZ 0046d700 f i Object.obj
 0001:0006c740       ?scriptsSize@SelectorDict@@QAEHXZ 0046d740 f i Object.obj
 0001:0006c780       ?add@SelectorDict@@QAEXGII@Z 0046d780 f   Object.obj
 0001:0006ca10       ?get@SelectorDict@@QAEHG@Z 0046da10 f   Object.obj
 0001:0006cb00       ?copy@SelectorDict@@QAEXPAV1@@Z 0046db00 f   Object.obj
 0001:0006ccb0       ?GetClass@@YA?AVObjectID@@PBD@Z 0046dcb0 f   Object.obj
 0001:0006cd60       ?GetSelector@@YAGPBD@Z     0046dd60 f   Object.obj
 0001:0006cdf0       ?GetSelectorName@@YAPBDGPAD@Z 0046ddf0 f   Object.obj
 0001:0006ce80       _LoadPropOffsets           0046de80 f   Object.obj
 0001:0006cf30       ?KIsObject@@YAXPAF@Z       0046df30 f   Object.obj
 0001:0006cf90       ?KRespondsTo@@YAXPAF@Z     0046df90 f   Object.obj
 0001:0006cff0       ?KClone@@YAXPAF@Z          0046dff0 f   Object.obj
 0001:0006d100       ?KDisposeClone@@YAXPAF@Z   0046e100 f   Object.obj
 0001:0006d180       ?KFindSelector@@YAXPAF@Z   0046e180 f   Object.obj
 0001:0006d200       ?KFindClass@@YAXPAF@Z      0046e200 f   Object.obj
 0001:0006d290       ?KIsKindOf@@YAXPAF@Z       0046e290 f   Object.obj
 0001:0006d3b0       ?KPackData@@YAXPAF@Z       0046e3b0 f   Packdata.obj
 0001:0006da90       ??0PackedData@@QAE@VObjectID@@@Z 0046ea90 f   Packdata.obj
 0001:0006dba0       ??_GPackedData@@UAEPAXI@Z  0046eba0 f i Packdata.obj
 0001:0006dba0       ??_EPackedData@@UAEPAXI@Z  0046eba0 f i Packdata.obj
 0001:0006dc10       ??1PackedData@@UAE@XZ      0046ec10 f   Packdata.obj
 0001:0006dc70       ?getBits@PackedData@@QAEHH@Z 0046ec70 f   Packdata.obj
 0001:0006ddc0       ?putBits@PackedData@@QAEXHH@Z 0046edc0 f   Packdata.obj
 0001:0006df70       ?getByte@PackedData@@QAEEXZ 0046ef70 f   Packdata.obj
 0001:0006e030       ?putByte@PackedData@@QAEXE@Z 0046f030 f   Packdata.obj
 0001:0006e110       ?getWord@PackedData@@QAEFXZ 0046f110 f   Packdata.obj
 0001:0006e180       ?putWord@PackedData@@QAEXF@Z 0046f180 f   Packdata.obj
 0001:0006e1f0       ?getLong@PackedData@@QAEHXZ 0046f1f0 f   Packdata.obj
 0001:0006e290       ?putLong@PackedData@@QAEXH@Z 0046f290 f   Packdata.obj
 0001:0006e330       ?getString@PackedData@@QAE?AVTextID@@H@Z 0046f330 f   Packdata.obj
 0001:0006e4c0       ?getCharString@PackedData@@QAEPADH@Z 0046f4c0 f   Packdata.obj
 0001:0006e630       ?putString@PackedData@@QAEXPADH@Z 0046f630 f   Packdata.obj
 0001:0006e6c0       ?putArray@PackedData@@QAEXPAXH@Z 0046f6c0 f   Packdata.obj
 0001:0006e710       ?getArray@PackedData@@QAEXPADH@Z 0046f710 f   Packdata.obj
 0001:0006e830       ??0SOLPalette@@QAE@ABVHunkPalette@@@Z 0046f830 f   Palette.obj
 0001:0006e8a0       ??0Rgb24F@@QAE@XZ          0046f8a0 f i Palette.obj
 0001:0006e8f0       ??0SOLPalette@@QAE@ABV0@@Z 0046f8f0 f   Palette.obj
 0001:0006e990       ??0SOLPalette@@QAE@XZ      0046f990 f   Palette.obj
 0001:0006ea30       ??0Rgb24F@@QAE@EEEE@Z      0046fa30 f i Palette.obj
 0001:0006eaa0       ??4SOLPalette@@QAEAAV0@ABVHunkPalette@@@Z 0046faa0 f   Palette.obj
 0001:0006ecc0       ?Count@HunkPalette@@QBEHXZ 0046fcc0 f i Palette.obj
 0001:0006ed00       ?PalAddr@HunkPalette@@QBEPAUCompPal@1@XZ 0046fd00 f i Palette.obj
 0001:0006ed40       ??4SOLPalette@@QAEAAV0@ABV0@@Z 0046fd40 f   Palette.obj
 0001:0006edb0       ??8SOLPalette@@QBEHABV0@@Z 0046fdb0 f   Palette.obj
 0001:0006ee50       ??9Rgb24F@@QBEHABV0@@Z     0046fe50 f i Palette.obj
 0001:0006eeb0       ??8Rgb24F@@QBEHABV0@@Z     0046feb0 f i Palette.obj
 0001:0006ef60       ?Match@SOLPalette@@QBEHABVRgb24@@@Z 0046ff60 f   Palette.obj
 0001:0006f0b0       ?sqr@@YAHH@Z               004700b0 f i Palette.obj
 0001:0006f0e0       ?Match@SOLPalette@@QBEHABVRgb24@@HPAHPBE@Z 004700e0 f   Palette.obj
 0001:0006f250       ?Compare@SOLPalette@@QBEHABV1@PAE@Z 00470250 f   Palette.obj
 0001:0006f310       ?Merge@SOLPalette@@QAEXABV1@@Z 00470310 f   Palette.obj
 0001:0006f390       ?Init@HunkPalette@@QAEXPAX@Z 00470390 f   Palette.obj
 0001:0006f430       ?SetVersion@HunkPalette@@QAEXH@Z 00470430 f   Palette.obj
 0001:0006f540       ?KPalVary@@YAXPAF@Z        00470540 f   Palette.obj
 0001:0006ffb0       ?KPalette@@YAXPAF@Z        00470fb0 f   Palette.obj
 0001:00070630       ?KPalCycle@@YAXPAF@Z       00471630 f   Palette.obj
 0001:00070a00       ??0PaletteMgrIndex@@QAE@XZ 00471a00 f   Palmgri.obj
 0001:00070ca0       ??1PaletteMgr@@UAE@XZ      00471ca0 f i Palmgri.obj
 0001:00070ce0       ??_GPaletteMgr@@UAEPAXI@Z  00471ce0 f i Palmgri.obj
 0001:00070ce0       ??_EPaletteMgr@@UAEPAXI@Z  00471ce0 f i Palmgri.obj
 0001:00070d50       ??_GPaletteMgrIndex@@UAEPAXI@Z 00471d50 f i Palmgri.obj
 0001:00070d50       ??_EPaletteMgrIndex@@UAEPAXI@Z 00471d50 f i Palmgri.obj
 0001:00070dc0       ??0PaletteMgr@@QAE@XZ      00471dc0 f i Palmgri.obj
 0001:00070e00       ??1PaletteMgrIndex@@UAE@XZ 00471e00 f   Palmgri.obj
 0001:00070f20       ?Submit@PaletteMgrIndex@@UAEXAAVHunkPalette@@@Z 00471f20 f   Palmgri.obj
 0001:00071040       ??9SOLPalette@@QBEHABV0@@Z 00472040 f i Palmgri.obj
 0001:000710a0       ?Version@HunkPalette@@QBEJXZ 004720a0 f i Palmgri.obj
 0001:000710e0       ?Submit@PaletteMgrIndex@@UAEXABVSOLPalette@@@Z 004720e0 f   Palmgri.obj
 0001:000711b0       ?ApplyAll@PaletteMgrIndex@@IAEXXZ 004721b0 f   Palmgri.obj
 0001:00071210       ?SetCycle@PaletteMgrIndex@@UAEXHHHH@Z 00472210 f   Palmgri.obj
 0001:000715d0       ?DoCycle@PaletteMgrIndex@@MAEXHH@Z 004725d0 f   Palmgri.obj
 0001:00071740       ?ApplyCycles@PaletteMgrIndex@@IAEXXZ 00472740 f   Palmgri.obj
 0001:00071ae0       ?ApplyAllCycles@PaletteMgrIndex@@IAEXXZ 00472ae0 f   Palmgri.obj
 0001:00071d40       ?CycleOn@PaletteMgrIndex@@UAEXH@Z 00472d40 f   Palmgri.obj
 0001:00071e50       ?CycleAllOn@PaletteMgrIndex@@UAEXXZ 00472e50 f   Palmgri.obj
 0001:00071f20       ?CycleAllPause@PaletteMgrIndex@@UAEXXZ 00472f20 f   Palmgri.obj
 0001:00072000       ?CyclePause@PaletteMgrIndex@@UAEXH@Z 00473000 f   Palmgri.obj
 0001:000720c0       ?CycleOff@PaletteMgrIndex@@UAEXH@Z 004730c0 f   Palmgri.obj
 0001:000721f0       ?CycleAllOff@PaletteMgrIndex@@UAEXXZ 004731f0 f   Palmgri.obj
 0001:000722c0       ?SetTarget@PaletteMgrIndex@@UAEXABVSOLPalette@@@Z 004732c0 f   Palmgri.obj
 0001:000723b0       ?MergeTarget@PaletteMgrIndex@@UAEXABVSOLPalette@@@Z 004733b0 f   Palmgri.obj
 0001:000724a0       ?SetStart@PaletteMgrIndex@@UAEXABVSOLPalette@@@Z 004734a0 f   Palmgri.obj
 0001:00072590       ?MergeStart@PaletteMgrIndex@@UAEXABVSOLPalette@@@Z 00473590 f   Palmgri.obj
 0001:00072680       ?SetVary@PaletteMgrIndex@@UAEXABVSOLPalette@@HHHH@Z 00473680 f   Palmgri.obj
 0001:00072880       ?SetVaryPercent@PaletteMgrIndex@@UAEXHHHH@Z 00473880 f   Palmgri.obj
 0001:000729f0       ?SetVaryTime@PaletteMgrIndex@@UAEXH@Z 004739f0 f   Palmgri.obj
 0001:00072b30       ?ApplyVary@PaletteMgrIndex@@IAEXXZ 00473b30 f   Palmgri.obj
 0001:00072f00       ?VaryOn@PaletteMgrIndex@@UAEXXZ 00473f00 f   Palmgri.obj
 0001:00072fc0       ?VaryOff@PaletteMgrIndex@@UAEXXZ 00473fc0 f   Palmgri.obj
 0001:000730b0       ?SetFade@PaletteMgrIndex@@UAEXHHH@Z 004740b0 f   Palmgri.obj
 0001:00073120       ?ApplyFade@PaletteMgrIndex@@IAEXXZ 00474120 f   Palmgri.obj
 0001:00073310       ?FadeOff@PaletteMgrIndex@@UAEXXZ 00474310 f   Palmgri.obj
 0001:00073380       ?UpdateFFrame@PaletteMgrIndex@@UAEHXZ 00474380 f   Palmgri.obj
 0001:00073460       ?GRemapper@GraphicsMgr@@QAEAAVRemap@@XZ 00474460 f i Palmgri.obj
 0001:000734a0       ?UpdateForFrame@PaletteMgrIndex@@UAEHXZ 004744a0 f   Palmgri.obj
 0001:00073530       ?SetGamma@PaletteMgrIndex@@UAEXH@Z 00474530 f   Palmgri.obj
 0001:000735c0       ?GammaOff@PaletteMgrIndex@@UAEXXZ 004745c0 f   Palmgri.obj
 0001:00073600       ?UpdateForFrame@PaletteMgrTrue@@UAEHXZ 00474600 f   Palmgrt.obj
 0001:00073690       ?ApplyAll@PaletteMgrTrue@@IAEXXZ 00474690 f   Palmgrt.obj
 0001:000736f0       ?ApplyCycles@PaletteMgrTrue@@IAEXXZ 004746f0 f   Palmgrt.obj
 0001:000738f0       ?ApplyVary@PaletteMgrTrue@@IAEXXZ 004748f0 f   Palmgrt.obj
 0001:00073a20       ?ApplyFade@PaletteMgrTrue@@IAEXXZ 00474a20 f   Palmgrt.obj
 0001:00073a50       ?InitPalette@@YAXXZ        00474a50 f   Palmgrw.obj
 0001:00073c70       ?TermPalette@@YAXXZ        00474c70 f   Palmgrw.obj
 0001:00073d30       ?UpdatePalette@@YAHAAVSOLPalette@@ABV1@H@Z 00474d30 f   Palmgrw.obj
 0001:00074070       ?ClearSystemPalette@@YAXXZ 00475070 f   Palmgrw.obj
 0001:000743e0       ?KPicNotValid@@YAXPAF@Z    004753e0 f   Picture.obj
 0001:00074410       ?KShow@@YAXPAF@Z           00475410 f   Picture.obj
 0001:00074440       ?KDrawPic@@YAXPAF@Z        00475440 f   Picture.obj
 0001:00074470       ??0SOL_Plane@@QAE@VObjectID@@@Z 00475470 f   Plane.obj
 0001:00074750       ?TranslateMacColor@@YAXAAE@Z 00475750 f i Plane.obj
 0001:00074790       ??0SOL_Plane@@QAE@ABV0@@Z  00475790 f   Plane.obj
 0001:00074920       ??0SOL_Plane@@QAE@ABVSOL_Rect@@@Z 00475920 f   Plane.obj
 0001:00074b30       ??4SOL_Plane@@QAEAAV0@AAVObjectID@@@Z 00475b30 f   Plane.obj
 0001:00074cc0       ??4SOL_Plane@@QAEAAV0@ABV0@@Z 00475cc0 f   Plane.obj
 0001:00074e20       ?UpdateRedrawAllCount@SOL_Plane@@QAEXXZ 00475e20 f   Plane.obj
 0001:00074e80       ?UpdatePlane@SOL_Plane@@QAEXPAV1@@Z 00475e80 f   Plane.obj
 0001:00075100       ??9SOL_Point@@QBEHABV0@@Z  00476100 f i Plane.obj
 0001:00075170       ??9SOL_Rect@@QBEHABV0@@Z   00476170 f i Plane.obj
 0001:000751d0       ??8SOL_Rect@@QBEHABV0@@Z   004761d0 f i Plane.obj
 0001:00075250       ?PicResNum@SOL_Plane@@QBEHXZ 00476250 f i Plane.obj
 0001:00075290       ?PicMirror@SOL_Plane@@QBEHXZ 00476290 f i Plane.obj
 0001:000752d0       ?Priority@SOL_Plane@@QBEHXZ 004762d0 f i Plane.obj
 0001:00075310       ?NewScreenDim@SOL_Plane@@QAEXVSOL_Rect@@@Z 00476310 f   Plane.obj
 0001:000753b0       ?SetType@SOL_Plane@@QAEXXZ 004763b0 f   Plane.obj
 0001:00075480       ?ChangePic@SOL_Plane@@IAEXXZ 00476480 f   Plane.obj
 0001:00075700       ?HasSkip@CelObj@@QBEHXZ    00476700 f i Plane.obj
 0001:00075740       ?Pos@CelObjPic@@QBE?AVSOL_Point@@XZ 00476740 f i Plane.obj
 0001:000757a0       ?Priority@CelObjPic@@QBEHXZ 004767a0 f i Plane.obj
 0001:000757e0       ?CelCount@CelObjPic@@QBEHXZ 004767e0 f i Plane.obj
 0001:00075820       ?SetPicResNum@ScreenItem@@QAEXH@Z 00476820 f i Plane.obj
 0001:00075860       ?SetUserMirror@ScreenItem@@QAEXH@Z 00476860 f i Plane.obj
 0001:000758a0       ?AddPic@SOL_Plane@@QAEHHABVSOL_Point@@HH@Z 004768a0 f   Plane.obj
 0001:00075ae0       ?DeleteAllPics@SOL_Plane@@IAEXXZ 00476ae0 f   Plane.obj
 0001:00075c70       ?Exists@ScreenItemList@@QBEHH@Z 00476c70 f i Plane.obj
 0001:00075ce0       ?DeletePic@SOL_Plane@@QAEXHH@Z 00476ce0 f   Plane.obj
 0001:00075d40       ?DeletePic@SOL_Plane@@QAEXH@Z 00476d40 f   Plane.obj
 0001:00075e70       ?PicResNum@ScreenItem@@QBEHXZ 00476e70 f i Plane.obj
 0001:00075eb0       ?ScrollScreenItems@SOL_Plane@@QAEXHHH@Z 00476eb0 f   Plane.obj
 0001:00076010       ?DeleteCount@ScreenItem@@QBEHXZ 00477010 f i Plane.obj
 0001:00076050       ?GetPicResolution@SOL_Plane@@IAEXXZ 00477050 f   Plane.obj
 0001:000760a0       ?SetOnScreen@SOL_Plane@@QAEXABVSOL_Rect@@@Z 004770a0 f   Plane.obj
 0001:000760f0       ?Move@SOL_Plane@@QAEXABVSOL_Point@@@Z 004770f0 f   Plane.obj
 0001:00076160       ?MoveDelta@SOL_Plane@@QAEXHH@Z 00477160 f   Plane.obj
 0001:00076210       ?MoveTo@SOL_Plane@@QAEXVSOL_Point@@@Z 00477210 f   Plane.obj
 0001:00076320       ?ConvGameRectToPlaneRect@SOL_Plane@@QAEXXZ 00477320 f   Plane.obj
 0001:00076440       ?ResizePlane@SOL_Plane@@QAEXHH@Z 00477440 f   Plane.obj
 0001:000765b0       ?AddScreenItem@SOL_Plane@@QAEXPAVScreenItem@@@Z 004775b0 f   Plane.obj
 0001:00076600       ?AbortScreenItem@SOL_Plane@@QAEXPBVScreenItem@@@Z 00477600 f   Plane.obj
 0001:00076650       ?TopScreenItem@SOL_Plane@@QBEHXZ 00477650 f   Plane.obj
 0001:00076770       ?FixedPri@ScreenItem@@QBEHXZ 00477770 f i Plane.obj
 0001:000767b0       ??AScreenItemList@@QBEABVScreenItem@@H@Z 004777b0 f i Plane.obj
 0001:000767f0       ?NowSeen@SOL_Plane@@QAEHVMemID@@AAVSOL_Rect@@@Z 004777f0 f   Plane.obj
 0001:00076890       ?CalcLists@SOL_Plane@@QAEXPAV1@AAVPlaneList@@AAVDrawList@@AAVRectList@@@Z 00477890 f   Plane.obj
 0001:00077400       ?UpdateCount@ScreenItem@@QBEHXZ 00478400 f i Plane.obj
 0001:00077440       ?DoUpdate@ScreenItem@@QAEXABVSOL_Plane@@@Z 00478440 f i Plane.obj
 0001:000774a0       ?Exists@DrawList@@QBEHH@Z  004784a0 f i Plane.obj
 0001:00077510       ?RedrawAll@SOL_Plane@@QAEXPAV1@AAVPlaneList@@AAVDrawList@@AAVRectList@@@Z 00478510 f   Plane.obj
 0001:00077710       ?RemapMarkRedraw@SOL_Plane@@QAEXXZ 00478710 f   Plane.obj
 0001:00077840       ?RemapState@ScreenItem@@QAEHXZ 00478840 f i Plane.obj
 0001:000778a0       ?RemapState@CelObj@@QBEHXZ 004788a0 f i Plane.obj
 0001:000778e0       ?BreakDrawListByPlanes@SOL_Plane@@IAEXAAVDrawList@@AAVPlaneList@@@Z 004788e0 f   Plane.obj
 0001:00077ac0       ?IsTransparent@SOL_Plane@@QBEHXZ 00478ac0 f i Plane.obj
 0001:00077b00       ?IsPictureSkip@SOL_Plane@@QBEHXZ 00478b00 f i Plane.obj
 0001:00077b40       ?BreakEraseListByPlanes@SOL_Plane@@IAEXAAVRectList@@AAVPlaneList@@@Z 00478b40 f   Plane.obj
 0001:00077cf0       ?DecSIArrayCounts@SOL_Plane@@IAEXPAV1@H@Z 00478cf0 f   Plane.obj
 0001:00077fe0       ?DecUpdateCount@ScreenItem@@QAEXXZ 00478fe0 f i Plane.obj
 0001:00078020       ?DecAddCount@ScreenItem@@QAEXXZ 00479020 f i Plane.obj
 0001:00078060       ?DecDeleteCount@ScreenItem@@QAEXXZ 00479060 f i Plane.obj
 0001:000780a0       ?KGlobalToLocal@@YAXPAF@Z  004790a0 f   Plane.obj
 0001:00078160       ?GlobalToLocalGame@@YAHHAAVSOL_Point@@@Z 00479160 f   Plane.obj
 0001:000782e0       ?GameRect@SOL_Plane@@QBEABVSOL_Rect@@XZ 004792e0 f i Plane.obj
 0001:00078320       ?KLocalToGlobal@@YAXPAF@Z  00479320 f   Plane.obj
 0001:000783e0       ?LocalGameToGlobal@@YAHHAAVSOL_Point@@@Z 004793e0 f   Plane.obj
 0001:00078560       ?FilterUpEraseRects@SOL_Plane@@QAEXAAVDrawList@@AAVRectList@@@Z 00479560 f   Plane.obj
 0001:00078680       ?FilterDownEraseRects@SOL_Plane@@QAEXAAVDrawList@@AAVRectList@@1@Z 00479680 f   Plane.obj
 0001:00078930       ?FilterUpDrawRects@SOL_Plane@@QAEXAAVDrawList@@0@Z 00479930 f   Plane.obj
 0001:00078a60       ?MergeToDrawList@SOL_Plane@@IAEXHAAVSOL_Rect@@AAVDrawList@@@Z 00479a60 f   Plane.obj
 0001:00078e10       ?Includes@SOL_Rect@@QAEHABV1@@Z 00479e10 f i Plane.obj
 0001:00078eb0       ?UpdateTheirEraseList@SOL_Plane@@IAEXAAVSOL_Rect@@HAAVRectList@@@Z 00479eb0 f   Plane.obj
 0001:00078f80       ?CheckIntegrity@SOL_Plane@@QAEXXZ 00479f80 f   Plane.obj
 0001:00079070       ?MergeToRectList@@YAXABVSOL_Rect@@AAVRectList@@@Z 0047a070 f   Plane.obj
 0001:00079350       ?KPlatform@@YAXPAF@Z       0047a350 f   Platfrmw.obj
 0001:00079500       ?KGetSierraProfileInt@@YAXPAF@Z 0047a500 f   Platfrmw.obj
 0001:000795a0       ?KGetSierraProfileString@@YAXPAF@Z 0047a5a0 f   Platfrmw.obj
 0001:00079680       ?KSetWindowsOption@@YAXPAF@Z 0047a680 f   Platfrmw.obj
 0001:00079750       ?KGetWindowsOption@@YAXPAF@Z 0047a750 f   Platfrmw.obj
 0001:000797d0       ??0PlaneList@@QAE@XZ       0047a7d0 f   Plist.obj
 0001:00079820       ??1PlaneList@@QAE@XZ       0047a820 f   Plist.obj
 0001:000798c0       ??_GSOL_Plane@@QAEPAXI@Z   0047a8c0 f i Plist.obj
 0001:00079930       ??1SOL_Plane@@QAE@XZ       0047a930 f i Plist.obj
 0001:00079980       ??0PlaneList@@QAE@ABV0@@Z  0047a980 f   Plist.obj
 0001:00079a90       ??4PlaneList@@QAEABV0@ABV0@@Z 0047aa90 f   Plist.obj
 0001:00079bb0       ?Add@PlaneList@@QAEHPAVSOL_Plane@@@Z 0047abb0 f   Plist.obj
 0001:00079cf0       ?Delete@PlaneList@@QAEXH@Z 0047acf0 f   Plist.obj
 0001:00079e20       ?Search@PlaneList@@QBEHI@Z 0047ae20 f   Plist.obj
 0001:00079eb0       ?Clear@PlaneList@@QAEXXZ   0047aeb0 f   Plist.obj
 0001:00079f60       ?Sort@PlaneList@@QAEXXZ    0047af60 f   Plist.obj
 0001:0007a0d0       ?TopPlane@PlaneList@@QBEHXZ 0047b0d0 f   Plist.obj
 0001:0007a140       ?TopSCIPlane@PlaneList@@QBEHXZ 0047b140 f   Plist.obj
 0001:0007a280       ??0PMachine@@QAE@XZ        0047b280 f i PMachine.obj
 0001:0007a2e0       ?DoDebug@@YAXXZ            0047b2e0 f   PMachine.obj
 0001:0007a320       _SetDebug                  0047b320 f   PMachine.obj
 0001:0007a350       _ClearDebug                0047b350 f   PMachine.obj
 0001:0007a380       ?pmStackClear@@YAXXZ       0047b380 f   PMachine.obj
 0001:0007a3e0       ?pmTossMemID@@YAXXZ        0047b3e0 f   PMachine.obj
 0001:0007a500       ?pmQuickMessage_asm@@YAXXZ 0047b500 f   PMachine.obj
 0001:0007a8d0       ?pmQuickMessage@@YAXIIPAX@Z 0047b8d0 f   PMachine.obj
 0001:0007a920       ?invokeMethod@@YAJIIIPAX@Z 0047b920 f   PMachine.obj
 0001:0007a9d0       ?pmRun@@YAXXZ              0047b9d0 f   PMachine.obj
 0001:0007ac80       ?pmEnd@@YAXXZ              0047bc80 f   PMachine.obj
 0001:0007ad00       ??_GSendStack@@QAEPAXI@Z   0047bd00 f i PMachine.obj
 0001:0007ad70       ?pmCheckIntegrity@@YA_NPAD@Z 0047bd70 f   PMachine.obj
 0001:0007ae10       ?pmPushMany@@YAXGIPAF@Z    0047be10 f   PMachine.obj
 0001:0007ae80       ?pmCall@@YAXXZ             0047be80 f   PMachine.obj
 0001:0007af20       ?pmDispatch@@YAXXZ         0047bf20 f   PMachine.obj
 0001:0007b040       ?OP_bnot@@YAXXZ            0047c040 f   PMachine.obj
 0001:0007b050       ?OP_add@@YAXXZ             0047c050 f   PMachine.obj
 0001:0007b070       ?OP_sub@@YAXXZ             0047c070 f   PMachine.obj
 0001:0007b090       ?OP_mul@@YAXXZ             0047c090 f   PMachine.obj
 0001:0007b0b0       ?OP_div@@YAXXZ             0047c0b0 f   PMachine.obj
 0001:0007b100       ?OP_mod@@YAXXZ             0047c100 f   PMachine.obj
 0001:0007b160       ?OP_shr@@YAXXZ             0047c160 f   PMachine.obj
 0001:0007b180       ?OP_shl@@YAXXZ             0047c180 f   PMachine.obj
 0001:0007b1a0       ?OP_xor@@YAXXZ             0047c1a0 f   PMachine.obj
 0001:0007b1c0       ?OP_and@@YAXXZ             0047c1c0 f   PMachine.obj
 0001:0007b1e0       ?OP_or@@YAXXZ              0047c1e0 f   PMachine.obj
 0001:0007b200       ?OP_neg@@YAXXZ             0047c200 f   PMachine.obj
 0001:0007b210       ?OP_not@@YAXXZ             0047c210 f   PMachine.obj
 0001:0007b230       ?OP_eq@@YAXXZ              0047c230 f   PMachine.obj
 0001:0007b260       ?OP_ne@@YAXXZ              0047c260 f   PMachine.obj
 0001:0007b290       ?OP_gt@@YAXXZ              0047c290 f   PMachine.obj
 0001:0007b2c0       ?OP_ge@@YAXXZ              0047c2c0 f   PMachine.obj
 0001:0007b2f0       ?OP_lt@@YAXXZ              0047c2f0 f   PMachine.obj
 0001:0007b320       ?OP_le@@YAXXZ              0047c320 f   PMachine.obj
 0001:0007b350       ?OP_ugt@@YAXXZ             0047c350 f   PMachine.obj
 0001:0007b380       ?OP_uge@@YAXXZ             0047c380 f   PMachine.obj
 0001:0007b3b0       ?OP_ult@@YAXXZ             0047c3b0 f   PMachine.obj
 0001:0007b3e0       ?OP_ule@@YAXXZ             0047c3e0 f   PMachine.obj
 0001:0007b410       ?OP_bt_byte@@YAXXZ         0047c410 f   PMachine.obj
 0001:0007b430       ?OP_bt_word@@YAXXZ         0047c430 f   PMachine.obj
 0001:0007b450       ?OP_bnt_byte@@YAXXZ        0047c450 f   PMachine.obj
 0001:0007b470       ?OP_bnt_word@@YAXXZ        0047c470 f   PMachine.obj
 0001:0007b490       ?OP_jmp_byte@@YAXXZ        0047c490 f   PMachine.obj
 0001:0007b4b0       ?OP_jmp_word@@YAXXZ        0047c4b0 f   PMachine.obj
 0001:0007b4d0       ?OP_loadi_byte@@YAXXZ      0047c4d0 f   PMachine.obj
 0001:0007b4f0       ?OP_loadi_word@@YAXXZ      0047c4f0 f   PMachine.obj
 0001:0007b510       ?OP_push@@YAXXZ            0047c510 f   PMachine.obj
 0001:0007b530       ?OP_pushi_byte@@YAXXZ      0047c530 f   PMachine.obj
 0001:0007b550       ?OP_pushi_word@@YAXXZ      0047c550 f   PMachine.obj
 0001:0007b570       ?OP_toss@@YAXXZ            0047c570 f   PMachine.obj
 0001:0007b590       ?OP_dup@@YAXXZ             0047c590 f   PMachine.obj
 0001:0007b5b0       ?OP_link_byte@@YAXXZ       0047c5b0 f   PMachine.obj
 0001:0007b5e0       ?OP_link_word@@YAXXZ       0047c5e0 f   PMachine.obj
 0001:0007b610       ?OP_call_byte@@YAXXZ       0047c610 f   PMachine.obj
 0001:0007b6b0       ?OP_call_word@@YAXXZ       0047c6b0 f   PMachine.obj
 0001:0007b750       ?OP_callk_byte@@YAXXZ      0047c750 f   PMachine.obj
 0001:0007b890       ?OP_callk_word@@YAXXZ      0047c890 f   PMachine.obj
 0001:0007b9d0       ?OP_callb_byte@@YAXXZ      0047c9d0 f   PMachine.obj
 0001:0007ba10       ?OP_callb_word@@YAXXZ      0047ca10 f   PMachine.obj
 0001:0007ba50       ?OP_calle_byte@@YAXXZ      0047ca50 f   PMachine.obj
 0001:0007ba90       ?OP_calle_word@@YAXXZ      0047ca90 f   PMachine.obj
 0001:0007bad0       ?OP_ret@@YAXXZ             0047cad0 f   PMachine.obj
 0001:0007bae0       ?OP_send_byte@@YAXXZ       0047cae0 f   PMachine.obj
 0001:0007bb40       ?OP_class_byte@@YAXXZ      0047cb40 f   PMachine.obj
 0001:0007bb80       ?OP_class_word@@YAXXZ      0047cb80 f   PMachine.obj
 0001:0007bbc0       ?OP_self@@YAXXZ            0047cbc0 f   PMachine.obj
 0001:0007bc00       ?OP_super_byte@@YAXXZ      0047cc00 f   PMachine.obj
 0001:0007bc60       ?Lock@FakeVariableID@@QBEPAUVariable@@XZ 0047cc60 f i PMachine.obj
 0001:0007bcb0       ?OP_super_word@@YAXXZ      0047ccb0 f   PMachine.obj
 0001:0007bd00       ??0VariableID@@QAE@XZ      0047cd00 f i PMachine.obj
 0001:0007bd50       ??0FakeVariableID@@QAE@XZ  0047cd50 f i PMachine.obj
 0001:0007bda0       ?OP_rest_byte@@YAXXZ       0047cda0 f   PMachine.obj
 0001:0007be00       ?OP_lea_byte@@YAXXZ        0047ce00 f   PMachine.obj
 0001:0007be40       ?OP_lea_word@@YAXXZ        0047ce40 f   PMachine.obj
 0001:0007be80       ?OP_selfID@@YAXXZ          0047ce80 f   PMachine.obj
 0001:0007bea0       ?OP_pprev@@YAXXZ           0047cea0 f   PMachine.obj
 0001:0007bec0       ?OP_pToa_byte@@YAXXZ       0047cec0 f   PMachine.obj
 0001:0007bf00       ?OP_pToa_word@@YAXXZ       0047cf00 f   PMachine.obj
 0001:0007bf40       ?OP_aTop_byte@@YAXXZ       0047cf40 f   PMachine.obj
 0001:0007bf90       ?OP_aTop_word@@YAXXZ       0047cf90 f   PMachine.obj
 0001:0007bfe0       ?OP_pTos_byte@@YAXXZ       0047cfe0 f   PMachine.obj
 0001:0007c030       ?OP_pTos_word@@YAXXZ       0047d030 f   PMachine.obj
 0001:0007c080       ?OP_sTop_byte@@YAXXZ       0047d080 f   PMachine.obj
 0001:0007c0e0       ?OP_sTop_word@@YAXXZ       0047d0e0 f   PMachine.obj
 0001:0007c140       ?OP_ipToa_byte@@YAXXZ      0047d140 f   PMachine.obj
 0001:0007c1a0       ?OP_ipToa_word@@YAXXZ      0047d1a0 f   PMachine.obj
 0001:0007c200       ?OP_dpToa_byte@@YAXXZ      0047d200 f   PMachine.obj
 0001:0007c260       ?OP_dpToa_word@@YAXXZ      0047d260 f   PMachine.obj
 0001:0007c2c0       ?OP_ipTos_byte@@YAXXZ      0047d2c0 f   PMachine.obj
 0001:0007c320       ?OP_ipTos_word@@YAXXZ      0047d320 f   PMachine.obj
 0001:0007c380       ?OP_dpTos_byte@@YAXXZ      0047d380 f   PMachine.obj
 0001:0007c3e0       ?OP_dpTos_word@@YAXXZ      0047d3e0 f   PMachine.obj
 0001:0007c440       ?OP_lofsa@@YAXXZ           0047d440 f   PMachine.obj
 0001:0007c460       ?OP_lofss@@YAXXZ           0047d460 f   PMachine.obj
 0001:0007c480       ?OP_push0@@YAXXZ           0047d480 f   PMachine.obj
 0001:0007c4a0       ?OP_push1@@YAXXZ           0047d4a0 f   PMachine.obj
 0001:0007c4c0       ?OP_push2@@YAXXZ           0047d4c0 f   PMachine.obj
 0001:0007c4e0       ?OP_pushSelf@@YAXXZ        0047d4e0 f   PMachine.obj
 0001:0007c500       ?OP_lag_byte@@YAXXZ        0047d500 f   PMachine.obj
 0001:0007c530       ?OP_lag_word@@YAXXZ        0047d530 f   PMachine.obj
 0001:0007c560       ?OP_lal_byte@@YAXXZ        0047d560 f   PMachine.obj
 0001:0007c5a0       ?OP_lal_word@@YAXXZ        0047d5a0 f   PMachine.obj
 0001:0007c5e0       ?OP_lat_byte@@YAXXZ        0047d5e0 f   PMachine.obj
 0001:0007c610       ?OP_lat_word@@YAXXZ        0047d610 f   PMachine.obj
 0001:0007c640       ?OP_lap_byte@@YAXXZ        0047d640 f   PMachine.obj
 0001:0007c670       ?OP_lap_word@@YAXXZ        0047d670 f   PMachine.obj
 0001:0007c6a0       ?OP_lsg_byte@@YAXXZ        0047d6a0 f   PMachine.obj
 0001:0007c6d0       ?OP_lsg_word@@YAXXZ        0047d6d0 f   PMachine.obj
 0001:0007c700       ?OP_lsl_byte@@YAXXZ        0047d700 f   PMachine.obj
 0001:0007c750       ?OP_lsl_word@@YAXXZ        0047d750 f   PMachine.obj
 0001:0007c7a0       ?OP_lst_byte@@YAXXZ        0047d7a0 f   PMachine.obj
 0001:0007c7d0       ?OP_lst_word@@YAXXZ        0047d7d0 f   PMachine.obj
 0001:0007c800       ?OP_lsp_byte@@YAXXZ        0047d800 f   PMachine.obj
 0001:0007c830       ?OP_lsp_word@@YAXXZ        0047d830 f   PMachine.obj
 0001:0007c860       ?OP_lagi_byte@@YAXXZ       0047d860 f   PMachine.obj
 0001:0007c890       ?OP_lagi_word@@YAXXZ       0047d890 f   PMachine.obj
 0001:0007c8c0       ?OP_lali_byte@@YAXXZ       0047d8c0 f   PMachine.obj
 0001:0007c900       ?OP_lali_word@@YAXXZ       0047d900 f   PMachine.obj
 0001:0007c940       ?OP_lati_byte@@YAXXZ       0047d940 f   PMachine.obj
 0001:0007c970       ?OP_lati_word@@YAXXZ       0047d970 f   PMachine.obj
 0001:0007c9a0       ?OP_lapi_byte@@YAXXZ       0047d9a0 f   PMachine.obj
 0001:0007c9d0       ?OP_lapi_word@@YAXXZ       0047d9d0 f   PMachine.obj
 0001:0007ca00       ?OP_lsgi_byte@@YAXXZ       0047da00 f   PMachine.obj
 0001:0007ca30       ?OP_lsgi_word@@YAXXZ       0047da30 f   PMachine.obj
 0001:0007ca60       ?OP_lsli_byte@@YAXXZ       0047da60 f   PMachine.obj
 0001:0007caa0       ?OP_lsli_word@@YAXXZ       0047daa0 f   PMachine.obj
 0001:0007cae0       ?OP_lsti_byte@@YAXXZ       0047dae0 f   PMachine.obj
 0001:0007cb10       ?OP_lsti_word@@YAXXZ       0047db10 f   PMachine.obj
 0001:0007cb40       ?OP_lspi_byte@@YAXXZ       0047db40 f   PMachine.obj
 0001:0007cb70       ?OP_lspi_word@@YAXXZ       0047db70 f   PMachine.obj
 0001:0007cba0       ?OP_sag_byte@@YAXXZ        0047dba0 f   PMachine.obj
 0001:0007cbd0       ?OP_sag_word@@YAXXZ        0047dbd0 f   PMachine.obj
 0001:0007cc00       ?OP_sal_byte@@YAXXZ        0047dc00 f   PMachine.obj
 0001:0007cc40       ?OP_sal_word@@YAXXZ        0047dc40 f   PMachine.obj
 0001:0007cc80       ?OP_sat_byte@@YAXXZ        0047dc80 f   PMachine.obj
 0001:0007ccb0       ?OP_sat_word@@YAXXZ        0047dcb0 f   PMachine.obj
 0001:0007cce0       ?OP_sap_byte@@YAXXZ        0047dce0 f   PMachine.obj
 0001:0007cd10       ?OP_sap_word@@YAXXZ        0047dd10 f   PMachine.obj
 0001:0007cd40       ?OP_ssg_byte@@YAXXZ        0047dd40 f   PMachine.obj
 0001:0007cd70       ??1SendStack@@QAE@XZ       0047dd70 f i PMachine.obj
 0001:0007cdb0       ?Clear@SendStack@@UAEXXZ   0047ddb0 f i PMachine.obj
 0001:0007cde0       ?OP_ssg_word@@YAXXZ        0047dde0 f   PMachine.obj
 0001:0007ce10       ?Hide@SendStack@@UAEXXZ    0047de10 f i PMachine.obj
 0001:0007ce40       ?Pop@SendStack@@UAEXXZ     0047de40 f i PMachine.obj
 0001:0007ce70       ?PushObject@SendStack@@UAEXVObjectID@@@Z 0047de70 f i PMachine.obj
 0001:0007cea0       ?OP_ssl_byte@@YAXXZ        0047dea0 f   PMachine.obj
 0001:0007cee0       ?PushSelector@SendStack@@UAEXG@Z 0047dee0 f i PMachine.obj
 0001:0007cf10       ?Show@SendStack@@UAEXXZ    0047df10 f i PMachine.obj
 0001:0007cf40       ?Toggle@SendStack@@UAEXXZ  0047df40 f i PMachine.obj
 0001:0007cf70       ?Top@SendStack@@UAEPAUEntry@1@XZ 0047df70 f i PMachine.obj
 0001:0007cfa0       ?OP_ssl_word@@YAXXZ        0047dfa0 f   PMachine.obj
 0001:0007cfe0       ?OP_sst_byte@@YAXXZ        0047dfe0 f   PMachine.obj
 0001:0007d010       ?OP_sst_word@@YAXXZ        0047e010 f   PMachine.obj
 0001:0007d040       ?OP_ssp_byte@@YAXXZ        0047e040 f   PMachine.obj
 0001:0007d070       ?OP_ssp_word@@YAXXZ        0047e070 f   PMachine.obj
 0001:0007d0a0       ?OP_sagi_byte@@YAXXZ       0047e0a0 f   PMachine.obj
 0001:0007d0d0       ?OP_sagi_word@@YAXXZ       0047e0d0 f   PMachine.obj
 0001:0007d100       ?OP_sali_byte@@YAXXZ       0047e100 f   PMachine.obj
 0001:0007d140       ?OP_sali_word@@YAXXZ       0047e140 f   PMachine.obj
 0001:0007d180       ?OP_sati_byte@@YAXXZ       0047e180 f   PMachine.obj
 0001:0007d1b0       ?OP_sati_word@@YAXXZ       0047e1b0 f   PMachine.obj
 0001:0007d1e0       ?OP_sapi_byte@@YAXXZ       0047e1e0 f   PMachine.obj
 0001:0007d210       ?OP_sapi_word@@YAXXZ       0047e210 f   PMachine.obj
 0001:0007d240       ?OP_ssgi_byte@@YAXXZ       0047e240 f   PMachine.obj
 0001:0007d270       ?OP_ssgi_word@@YAXXZ       0047e270 f   PMachine.obj
 0001:0007d2a0       ?OP_ssli_byte@@YAXXZ       0047e2a0 f   PMachine.obj
 0001:0007d2e0       ?OP_ssli_word@@YAXXZ       0047e2e0 f   PMachine.obj
 0001:0007d320       ?OP_ssti_byte@@YAXXZ       0047e320 f   PMachine.obj
 0001:0007d350       ?OP_ssti_word@@YAXXZ       0047e350 f   PMachine.obj
 0001:0007d380       ?OP_sspi_byte@@YAXXZ       0047e380 f   PMachine.obj
 0001:0007d3b0       ?OP_sspi_word@@YAXXZ       0047e3b0 f   PMachine.obj
 0001:0007d3e0       ?OP_iag_byte@@YAXXZ        0047e3e0 f   PMachine.obj
 0001:0007d410       ?OP_iag_word@@YAXXZ        0047e410 f   PMachine.obj
 0001:0007d440       ?OP_ial_byte@@YAXXZ        0047e440 f   PMachine.obj
 0001:0007d480       ?OP_ial_word@@YAXXZ        0047e480 f   PMachine.obj
 0001:0007d4c0       ?OP_iat_byte@@YAXXZ        0047e4c0 f   PMachine.obj
 0001:0007d4f0       ?OP_iat_word@@YAXXZ        0047e4f0 f   PMachine.obj
 0001:0007d520       ?OP_iap_byte@@YAXXZ        0047e520 f   PMachine.obj
 0001:0007d550       ?OP_iap_word@@YAXXZ        0047e550 f   PMachine.obj
 0001:0007d580       ?OP_isg_byte@@YAXXZ        0047e580 f   PMachine.obj
 0001:0007d5b0       ?OP_isg_word@@YAXXZ        0047e5b0 f   PMachine.obj
 0001:0007d5e0       ?OP_isl_byte@@YAXXZ        0047e5e0 f   PMachine.obj
 0001:0007d630       ?OP_isl_word@@YAXXZ        0047e630 f   PMachine.obj
 0001:0007d680       ?OP_ist_byte@@YAXXZ        0047e680 f   PMachine.obj
 0001:0007d6b0       ?OP_ist_word@@YAXXZ        0047e6b0 f   PMachine.obj
 0001:0007d6e0       ?OP_isp_byte@@YAXXZ        0047e6e0 f   PMachine.obj
 0001:0007d710       ?OP_isp_word@@YAXXZ        0047e710 f   PMachine.obj
 0001:0007d740       ?OP_iagi_byte@@YAXXZ       0047e740 f   PMachine.obj
 0001:0007d770       ?OP_iagi_word@@YAXXZ       0047e770 f   PMachine.obj
 0001:0007d7a0       ?OP_iali_byte@@YAXXZ       0047e7a0 f   PMachine.obj
 0001:0007d7e0       ?OP_iali_word@@YAXXZ       0047e7e0 f   PMachine.obj
 0001:0007d820       ?OP_iati_byte@@YAXXZ       0047e820 f   PMachine.obj
 0001:0007d850       ?OP_iati_word@@YAXXZ       0047e850 f   PMachine.obj
 0001:0007d880       ?OP_iapi_byte@@YAXXZ       0047e880 f   PMachine.obj
 0001:0007d8b0       ?OP_iapi_word@@YAXXZ       0047e8b0 f   PMachine.obj
 0001:0007d8e0       ?OP_isgi_byte@@YAXXZ       0047e8e0 f   PMachine.obj
 0001:0007d910       ?OP_isgi_word@@YAXXZ       0047e910 f   PMachine.obj
 0001:0007d940       ?OP_isli_byte@@YAXXZ       0047e940 f   PMachine.obj
 0001:0007d990       ?OP_isli_word@@YAXXZ       0047e990 f   PMachine.obj
 0001:0007d9e0       ?OP_isti_byte@@YAXXZ       0047e9e0 f   PMachine.obj
 0001:0007da10       ?OP_isti_word@@YAXXZ       0047ea10 f   PMachine.obj
 0001:0007da40       ?OP_ispi_byte@@YAXXZ       0047ea40 f   PMachine.obj
 0001:0007da70       ?OP_ispi_word@@YAXXZ       0047ea70 f   PMachine.obj
 0001:0007daa0       ?OP_dag_byte@@YAXXZ        0047eaa0 f   PMachine.obj
 0001:0007dad0       ?OP_dag_word@@YAXXZ        0047ead0 f   PMachine.obj
 0001:0007db00       ?OP_dal_byte@@YAXXZ        0047eb00 f   PMachine.obj
 0001:0007db40       ?OP_dal_word@@YAXXZ        0047eb40 f   PMachine.obj
 0001:0007db80       ?OP_dat_byte@@YAXXZ        0047eb80 f   PMachine.obj
 0001:0007dbb0       ?OP_dat_word@@YAXXZ        0047ebb0 f   PMachine.obj
 0001:0007dbe0       ?OP_dap_byte@@YAXXZ        0047ebe0 f   PMachine.obj
 0001:0007dc10       ?OP_dap_word@@YAXXZ        0047ec10 f   PMachine.obj
 0001:0007dc40       ?OP_dsg_byte@@YAXXZ        0047ec40 f   PMachine.obj
 0001:0007dc70       ?OP_dsg_word@@YAXXZ        0047ec70 f   PMachine.obj
 0001:0007dca0       ?OP_dsl_byte@@YAXXZ        0047eca0 f   PMachine.obj
 0001:0007dcf0       ?OP_dsl_word@@YAXXZ        0047ecf0 f   PMachine.obj
 0001:0007dd40       ?OP_dst_byte@@YAXXZ        0047ed40 f   PMachine.obj
 0001:0007dd70       ?OP_dst_word@@YAXXZ        0047ed70 f   PMachine.obj
 0001:0007dda0       ?OP_dsp_byte@@YAXXZ        0047eda0 f   PMachine.obj
 0001:0007ddd0       ?OP_dsp_word@@YAXXZ        0047edd0 f   PMachine.obj
 0001:0007de00       ?OP_dagi_byte@@YAXXZ       0047ee00 f   PMachine.obj
 0001:0007de30       ?OP_dagi_word@@YAXXZ       0047ee30 f   PMachine.obj
 0001:0007de60       ?OP_dali_byte@@YAXXZ       0047ee60 f   PMachine.obj
 0001:0007dea0       ?OP_dali_word@@YAXXZ       0047eea0 f   PMachine.obj
 0001:0007dee0       ?OP_dati_byte@@YAXXZ       0047eee0 f   PMachine.obj
 0001:0007df10       ?OP_dati_word@@YAXXZ       0047ef10 f   PMachine.obj
 0001:0007df40       ?OP_dapi_byte@@YAXXZ       0047ef40 f   PMachine.obj
 0001:0007df70       ?OP_dapi_word@@YAXXZ       0047ef70 f   PMachine.obj
 0001:0007dfa0       ?OP_dsgi_byte@@YAXXZ       0047efa0 f   PMachine.obj
 0001:0007dfd0       ?OP_dsgi_word@@YAXXZ       0047efd0 f   PMachine.obj
 0001:0007e000       ?OP_dsli_byte@@YAXXZ       0047f000 f   PMachine.obj
 0001:0007e050       ?OP_dsli_word@@YAXXZ       0047f050 f   PMachine.obj
 0001:0007e0a0       ?OP_dsti_byte@@YAXXZ       0047f0a0 f   PMachine.obj
 0001:0007e0d0       ?OP_dsti_word@@YAXXZ       0047f0d0 f   PMachine.obj
 0001:0007e100       ?OP_dspi_byte@@YAXXZ       0047f100 f   PMachine.obj
 0001:0007e130       ?OP_dspi_word@@YAXXZ       0047f130 f   PMachine.obj
 0001:0007e160       ?OP_filename@@YAXXZ        0047f160 f   PMachine.obj
 0001:0007e1a0       ?OP_linenum@@YAXXZ         0047f1a0 f   PMachine.obj
 0001:0007e1c0       ?BadOp@@YAXXZ              0047f1c0 f   PMachine.obj
 0001:0007e200       ?MergePolygonsF@@YA?AVMemID@@PAUSCI_Point@@HPAVSOL_PolygonF@@@Z 0047f200 f   Polyfuse.obj
 0001:0007e820       ??0FPoint@@QAE@XZ          0047f820 f i Polyfuse.obj
 0001:0007e880       ??4SCI_Point@@QAEAAU0@ABVFPoint@@@Z 0047f880 f i Polyfuse.obj
 0001:0007e9f0       ??4FPoint@@QAEAAV0@ABV0@@Z 0047f9f0 f i Polyfuse.obj
 0001:0007ea50       ??4FPoint@@QAEAAV0@ABUSCI_Point@@@Z 0047fa50 f i Polyfuse.obj
 0001:0007eab0       ?MergePolygonF@@YAHPAVFPoint@@AAHAAVSOL_PolygonF@@@Z 0047fab0 f   Polyfuse.obj
 0001:0007fdc0       ??0FPoint@@QAE@ABV0@@Z     00480dc0 f i Polyfuse.obj
 0001:0007fe20       ??GFPoint@@QBE?AV0@ABV0@@Z 00480e20 f i Polyfuse.obj
 0001:0007fea0       ??0FPoint@@QAE@NN@Z        00480ea0 f i Polyfuse.obj
 0001:0007ff00       ??DFPoint@@QBENABV0@@Z     00480f00 f i Polyfuse.obj
 0001:0007ff50       ??TFPoint@@QBEHABV0@@Z     00480f50 f i Polyfuse.obj
 0001:0007ffe0       ??8FPoint@@QBEHABV0@@Z     00480fe0 f i Polyfuse.obj
 0001:00080060       ??9FPoint@@QBEHABV0@@Z     00481060 f i Polyfuse.obj
 0001:000800e0       ??0PolyPatchF@@QAE@XZ      004810e0 f i Polyfuse.obj
 0001:00080140       ?PatchNodeF@@YAHAAVPolyPatchF@@HPAVFPoint@@@Z 00481140 f   Polyfuse.obj
 0001:00080260       ?DistanceSquaredF@@YANAAVFPoint@@0@Z 00481260 f i Polyfuse.obj
 0001:000802d0       ?DominatesF@@YAHAAVPolyPatchF@@0PAVFPoint@@@Z 004812d0 f   Polyfuse.obj
 0001:000808d0       ??0SCI_Point@@QAE@XZ       004818d0 f i Polygon.obj
 0001:00080920       ?PointInterior@@YAHAAUSCI_Point@@PAU1@H@Z 00481920 f   Polygon.obj
 0001:00080d10       ??4SCI_Point@@QAEAAU0@ABU0@@Z 00481d10 f i Polygon.obj
 0001:00080d70       ??GSCI_Point@@QBE?AU0@ABU0@@Z 00481d70 f i Polygon.obj
 0001:00080df0       ??0SCI_Point@@QAE@HH@Z     00481df0 f i Polygon.obj
 0001:00080e40       ??0SCI_Point@@QAE@ABU0@@Z  00481e40 f i Polygon.obj
 0001:00080ea0       ??GSCI_Point@@QBE?AU0@XZ   00481ea0 f i Polygon.obj
 0001:00080f10       ??TSCI_Point@@QBEHABU0@@Z  00481f10 f i Polygon.obj
 0001:00080f90       ??8SCI_Point@@QBEHABU0@@Z  00481f90 f i Polygon.obj
 0001:00081010       ?GetPath@@YA?AVMemID@@AAUSCI_Point@@0PAVSOL_Polygon@@H0@Z 00482010 f   Polygon.obj
 0001:00081b70       ?StartPath@@YAXAAUSCI_Point@@PAU1@@Z 00482b70 f   Polygon.obj
 0001:00081c60       ?EndPath@@YAXAAUSCI_Point@@PAU1@@Z 00482c60 f   Polygon.obj
 0001:00081d00       ?CopyPath@@YA?AVMemID@@PAUSCI_Point@@@Z 00482d00 f   Polygon.obj
 0001:00081df0       ?InvertPolygon@@YAXPAUSCI_Point@@H@Z 00482df0 f   Polygon.obj
 0001:00081ec0       ?NearPoint@@YAHAAUSCI_Point@@PAU1@H1H@Z 00482ec0 f   Polygon.obj
 0001:00082280       ??DSCI_Point@@QBEHABU0@@Z  00483280 f i Polygon.obj
 0001:000822e0       ?TestClockwise@@YAHPAUSCI_Point@@H@Z 004832e0 f   Polygon.obj
 0001:00082500       ?AvoidPath@@YAXAAUSCI_Point@@0PAVSOL_Polygon@@HPAU1@@Z 00483500 f   Polygon.obj
 0001:00082930       ?FreeNodePath@@YAXPAVPolyNode@@@Z 00483930 f   Polygon.obj
 0001:000829a0       ?AvoidPolygons@@YAPAVPolyNode@@AAUSCI_Point@@0PAVSOL_Polygon@@@Z 004839a0 f   Polygon.obj
 0001:00082ce0       ??9SCI_Point@@QBEHABU0@@Z  00483ce0 f i Polygon.obj
 0001:00082d60       ??0PolyNode@@QAE@USCI_Point@@0HHHPAU1@H@Z 00483d60 f i Polygon.obj
 0001:00082e30       ?ReducePolygonList@@YAXPAVSOL_Polygon@@PAVPolyNode@@@Z 00483e30 f   Polygon.obj
 0001:00082f60       ?RemoveNode@@YAXPAVSOL_Polygon@@H@Z 00483f60 f   Polygon.obj
 0001:00082fe0       ?GetPolyDirections@@YAHPAVPolyNode@@@Z 00483fe0 f   Polygon.obj
 0001:00083080       ?GetPolyDistance@@YAHPAUSCI_Point@@@Z 00484080 f   Polygon.obj
 0001:00083140       ?SetPolyDirections@@YAXPAVPolyNode@@HH@Z 00484140 f   Polygon.obj
 0001:000832a0       ?OptimizePath@@YAXAAUSCI_Point@@0PAU1@PAVPolyNode@@PAVSOL_Polygon@@H@Z 004842a0 f   Polygon.obj
 0001:00083740       ?PolygonPath@@YAHAAUSCI_Point@@0PAU1@H11PAH2@Z 00484740 f   Polygon.obj
 0001:00083910       ?NodeDistance@@YAHHHHPAUSCI_Point@@HAAU1@1PAH@Z 00484910 f   Polygon.obj
 0001:00083ac0       ?IntersectPolygon@@YAHAAUSCI_Point@@0PAU1@H11PAH2@Z 00484ac0 f   Polygon.obj
 0001:00084520       ?NodeTest@@YAHAAUSCI_Point@@000@Z 00485520 f   Polygon.obj
 0001:00084630       ?BuildPolygonList@@YA?AVMemID@@USOL_ListID@@H@Z 00485630 f   Polygon.obj
 0001:000848d0       ?DeletePolygon@@YAXPAVSOL_Polygon@@H@Z 004858d0 f   Polygon.obj
 0001:00084950       ?AddPolygon@@YAXVMemID@@PAUSCI_Point@@HE@Z 00485950 f   Polygon.obj
 0001:00084a70       ?IntersectSegments@@YAHAAUSCI_Point@@000PAU1@@Z 00485a70 f   Polygon.obj
 0001:000852e0       ??HSCI_Point@@QBE?AU0@ABU0@@Z 004862e0 f i Polygon.obj
 0001:00085360       ??ZSCI_Point@@QAEAAU0@ABU0@@Z 00486360 f i Polygon.obj
 0001:000853d0       ?RemoveColinearLines@@YAXPAUSCI_Point@@PAH@Z 004863d0 f   Polygon.obj
 0001:000855b0       ?DistanceEstimate@@YAHAAUSCI_Point@@0PAH@Z 004865b0 f   Polygon.obj
 0001:000856a0       ?LineOnPlaneEdge@@YAHAAUSCI_Point@@0@Z 004866a0 f   Polygon.obj
 0001:000857a0       ?RemoveDuplicatePoints@@YAXPAUSCI_Point@@PAH@Z 004867a0 f   Polygon.obj
 0001:00085890       ?BuildPolygonListF@@YA?AVMemID@@USOL_ListID@@H@Z 00486890 f   Polygon.obj
 0001:00085c90       ?RemoveDuplicatePointsF@@YAXPAVFPoint@@PAH@Z 00486c90 f   Polygon.obj
 0001:00085f40       ?IntersectSegmentsF@@YAHAAVFPoint@@000PAV1@H@Z 00486f40 f   Polygon.obj
 0001:00086930       ??HFPoint@@QBE?AV0@ABV0@@Z 00487930 f i Polygon.obj
 0001:000869b0       ?RemoveColinearLinesF@@YAXPAVFPoint@@PAH@Z 004879b0 f   Polygon.obj
 0001:00086bd0       ?PolyIsInPolyF@@YAHPAVFPoint@@H0H@Z 00487bd0 f   Polygon.obj
 0001:00086e60       ?PointInteriorF@@YAHAAVFPoint@@PAV1@H@Z 00487e60 f   Polygon.obj
 0001:000872a0       ??GFPoint@@QBE?AV0@XZ      004882a0 f i Polygon.obj
 0001:00087320       ?KMergePoly@@YAXPAF@Z      00488320 f   Polygon.obj
 0001:000876d0       ?KInPolygon@@YAXPAF@Z      004886d0 f   Polygon.obj
 0001:00087830       ?KAvoidPath@@YAXPAF@Z      00488830 f   Polygon.obj
 0001:00087af0       ?KTestPoly@@YAXPAF@Z       00488af0 f   Polygon.obj
 0001:00087c40       ??0Ratio@@QAE@ABV0@@Z      00488c40 f   Ratio.obj
 0001:00087c90       ?Normalize@Ratio@@QAEXXZ   00488c90 f   Ratio.obj
 0001:00087df0       ??8Ratio@@QBEHABV0@@Z      00488df0 f   Ratio.obj
 0001:00087e50       ??9Ratio@@QBEHABV0@@Z      00488e50 f   Ratio.obj
 0001:00087eb0       ??ORatio@@QBEHABV0@@Z      00488eb0 f   Ratio.obj
 0001:00087f30       ?Assert@Ratio@@QBEHXZ      00488f30 f   Ratio.obj
 0001:00087f80       ?Intersect@SOL_Rect@@QBEHABV1@PAV1@@Z 00488f80 f   Rect.obj
 0001:000880a0       ?Split@SOL_Rect@@QAEHAAV1@PAV1@@Z 004890a0 f   Rect.obj
 0001:00088300       ?IsWithin@SOL_Rect@@QBEHHH@Z 00489300 f   Rect.obj
 0001:000883a0       ?IsValid@SOL_Rect@@QBEHXZ  004893a0 f i Rect.obj
 0001:00088400       ??0RectList@@QAE@XZ        00489400 f   Rectlist.obj
 0001:00088450       ??1RectList@@QAE@XZ        00489450 f   Rectlist.obj
 0001:000884e0       ??0RectList@@QAE@ABV0@@Z   004894e0 f   Rectlist.obj
 0001:00088620       ??4RectList@@QAEABV0@ABV0@@Z 00489620 f   Rectlist.obj
 0001:000887a0       ?Add@RectList@@QAEXABVSOL_Rect@@@Z 004897a0 f   Rectlist.obj
 0001:000888c0       ?Delete@RectList@@QAEXH@Z  004898c0 f   Rectlist.obj
 0001:00088930       ?Pack@RectList@@QAEHXZ     00489930 f   Rectlist.obj
 0001:00088a00       ?Clear@RectList@@QAEXXZ    00489a00 f   Rectlist.obj
 0001:00088ab0       ??0Remap@@QAE@XZ           00489ab0 f   Remap.obj
 0001:00088c20       ??_ERemap@@UAEPAXI@Z       00489c20 f i Remap.obj
 0001:00088c20       ??_GRemap@@UAEPAXI@Z       00489c20 f i Remap.obj
 0001:00088c90       ??1Remap@@UAE@XZ           00489c90 f   Remap.obj
 0001:00088d30       ??_GSingleRemap@Remap@@QAEPAXI@Z 00489d30 f i Remap.obj
 0001:00088da0       ??1SingleRemap@Remap@@QAE@XZ 00489da0 f i Remap.obj
 0001:00088dd0       ?RemapOff@Remap@@QAEXH@Z   00489dd0 f   Remap.obj
 0001:00089020       ?Type@SingleRemap@Remap@@QBE?AW4RemapType@@XZ 0048a020 f i Remap.obj
 0001:00089060       ?InRange@Remap@@IAEHH@Z    0048a060 f i Remap.obj
 0001:000890d0       ?RemapByRange@Remap@@QAEXHHHHH@Z 0048a0d0 f   Remap.obj
 0001:00089300       ?RemapByPercent@Remap@@QAEXHHH@Z 0048a300 f   Remap.obj
 0001:000894e0       ?RemapToGray@Remap@@QAEXHHH@Z 0048a4e0 f   Remap.obj
 0001:000896d0       ?RemapToPercentGray@Remap@@QAEXHHHH@Z 0048a6d0 f   Remap.obj
 0001:000898b0       ?RemapAllTables@Remap@@QAEHH@Z 0048a8b0 f   Remap.obj
 0001:00089960       ?DontMapToRange@Remap@@QAEXHH@Z 0048a960 f   Remap.obj
 0001:000899d0       ?KRemapColors@@YAXPAF@Z    0048a9d0 f   Remap.obj
 0001:00089ce0       ??0SingleRemap@Remap@@QAE@PAE@Z 0048ace0 f   Remap.obj
 0001:00089ef0       ?ByRange@SingleRemap@Remap@@QAEHXZ 0048aef0 f   Remap.obj
 0001:00089fd0       ?ByPercent@SingleRemap@Remap@@QAEHXZ 0048afd0 f   Remap.obj
 0001:0008a340       ??9Rgb24@@QBEHABV0@@Z      0048b340 f i Remap.obj
 0001:0008a3d0       ?ToGray@SingleRemap@Remap@@QAEHXZ 0048b3d0 f   Remap.obj
 0001:0008a750       ?Lum@Rgb24@@QBEEXZ         0048b750 f i Remap.obj
 0001:0008a7c0       ?ToPercentGray@SingleRemap@Remap@@QAEHXZ 0048b7c0 f   Remap.obj
 0001:0008abe0       ?Apply@SingleRemap@Remap@@IAEHPAE@Z 0048bbe0 f   Remap.obj
 0001:0008b3c0       ?Dist@Rgb24@@QBEHABV1@@Z   0048c3c0 f i Remap.obj
 0001:0008b480       ?Update@SingleRemap@Remap@@QAEHH@Z 0048c480 f   Remap.obj
 0001:0008b580       ?Match@SingleRemap@Remap@@QAEHPAVRgb24@@HABV3@HAAH@Z 0048c580 f   Remap.obj
 0001:0008c610       ??0ResView@@QAE@XZ         0048d610 f i Resource.obj
 0001:0008c670       ?GetExtension@SOL_ResType@@UBEPBDXZ 0048d670 f i Resource.obj
 0001:0008c6b0       ?IsSupported@SOL_ResType@@UBEHXZ 0048d6b0 f i Resource.obj
 0001:0008c6f0       ?GetAttrs@SOL_ResType@@UBEIXZ 0048d6f0 f i Resource.obj
 0001:0008c730       ?GetFileType@SOL_ResType@@MBE?AW4MemType@@XZ 0048d730 f i Resource.obj
 0001:0008c790       ?GetType@ResView@@UBE?AW4MemType@@XZ 0048d790 f i Resource.obj
 0001:0008c7c0       ??0ResPic@@QAE@XZ          0048d7c0 f i Resource.obj
 0001:0008c820       ?GetType@ResPic@@UBE?AW4MemType@@XZ 0048d820 f i Resource.obj
 0001:0008c860       ??0ResChunk@@QAE@XZ        0048d860 f i Resource.obj
 0001:0008c8c0       ?GetType@ResChunk@@UBE?AW4MemType@@XZ 0048d8c0 f i Resource.obj
 0001:0008c900       ??0ResScript@@QAE@XZ       0048d900 f i Resource.obj
 0001:0008c960       ?GetType@ResScript@@UBE?AW4MemType@@XZ 0048d960 f i Resource.obj
 0001:0008c9a0       ??0ResSound@@QAE@XZ        0048d9a0 f i Resource.obj
 0001:0008ca00       ?GetType@ResSound@@UBE?AW4MemType@@XZ 0048da00 f i Resource.obj
 0001:0008ca40       ??0ResVocab@@QAE@XZ        0048da40 f i Resource.obj
 0001:0008caa0       ?GetType@ResVocab@@UBE?AW4MemType@@XZ 0048daa0 f i Resource.obj
 0001:0008cae0       ??0ResPatch@@QAE@XZ        0048dae0 f i Resource.obj
 0001:0008cb40       ?GetType@ResPatch@@UBE?AW4MemType@@XZ 0048db40 f i Resource.obj
 0001:0008cb80       ??0ResFont@@QAE@XZ         0048db80 f i Resource.obj
 0001:0008cbe0       ?GetType@ResFont@@UBE?AW4MemType@@XZ 0048dbe0 f i Resource.obj
 0001:0008cc20       ??0ResPal@@QAE@XZ          0048dc20 f i Resource.obj
 0001:0008cc80       ?GetType@ResPal@@UBE?AW4MemType@@XZ 0048dc80 f i Resource.obj
 0001:0008ccc0       ??0ResHeap@@QAE@XZ         0048dcc0 f i Resource.obj
 0001:0008cd20       ?GetType@ResHeap@@UBE?AW4MemType@@XZ 0048dd20 f i Resource.obj
 0001:0008cd60       ??0ResMsg@@QAE@XZ          0048dd60 f i Resource.obj
 0001:0008cdc0       ?GetType@ResMsg@@UBE?AW4MemType@@XZ 0048ddc0 f i Resource.obj
 0001:0008ce00       ??0ResAudio@@QAE@XZ        0048de00 f i Resource.obj
 0001:0008ce60       ?GetType@ResAudio@@UBE?AW4MemType@@XZ 0048de60 f i Resource.obj
 0001:0008cea0       ??0ResWave@@QAE@XZ         0048dea0 f i Resource.obj
 0001:0008cf00       ?GetType@ResWave@@UBE?AW4MemType@@XZ 0048df00 f i Resource.obj
 0001:0008cf40       ??0ResAudio36@@QAE@XZ      0048df40 f i Resource.obj
 0001:0008cfa0       ?GetType@ResAudio36@@UBE?AW4MemType@@XZ 0048dfa0 f i Resource.obj
 0001:0008cfe0       ??0ResSync@@QAE@XZ         0048dfe0 f i Resource.obj
 0001:0008d040       ?GetType@ResSync@@UBE?AW4MemType@@XZ 0048e040 f i Resource.obj
 0001:0008d080       ??0ResSync36@@QAE@XZ       0048e080 f i Resource.obj
 0001:0008d0e0       ?GetType@ResSync36@@UBE?AW4MemType@@XZ 0048e0e0 f i Resource.obj
 0001:0008d120       ??0ResMap@@QAE@XZ          0048e120 f i Resource.obj
 0001:0008d180       ?GetType@ResMap@@UBE?AW4MemType@@XZ 0048e180 f i Resource.obj
 0001:0008d1c0       ??0ResMsgTranslation@@QAE@XZ 0048e1c0 f i Resource.obj
 0001:0008d220       ?GetType@ResMsgTranslation@@UBE?AW4MemType@@XZ 0048e220 f i Resource.obj
 0001:0008d260       ?GetFileType@ResMsgTranslation@@UBE?AW4MemType@@XZ 0048e260 f i Resource.obj
 0001:0008d2a0       ??0ResRobot@@QAE@XZ        0048e2a0 f i Resource.obj
 0001:0008d300       ?GetType@ResRobot@@UBE?AW4MemType@@XZ 0048e300 f i Resource.obj
 0001:0008d340       ??0ResVMD@@QAE@XZ          0048e340 f i Resource.obj
 0001:0008d3a0       ?GetType@ResVMD@@UBE?AW4MemType@@XZ 0048e3a0 f i Resource.obj
 0001:0008d3e0       ??0ResourceList@@QAE@PAVSOL_ResType@@W4ReservedHandle@@H@Z 0048e3e0 f i Resource.obj
 0001:0008d470       ??0ResTagID@@QAE@XZ        0048e470 f i Resource.obj
 0001:0008d4c0       ??0FakeResTagID@@QAE@XZ    0048e4c0 f i Resource.obj
 0001:0008d510       ??0ResourceList@@QAE@ABU0@@Z 0048e510 f i Resource.obj
 0001:0008d5b0       ??0ResTagID@@QAE@ABU0@@Z   0048e5b0 f i Resource.obj
 0001:0008d600       ??0FakeResTagID@@QAE@ABU0@@Z 0048e600 f i Resource.obj
 0001:0008d650       ??0ResourceMgr@@QAE@XZ     0048e650 f   Resource.obj
 0001:0008d710       ?Check@ResourceMgr@@MAEHPAVSOL_ResType@@G@Z 0048e710 f i Resource.obj
 0001:0008d770       ?Load@ResourceMgr@@MAEXPAVSOL_ResType@@AAUResTag@@H@Z 0048e770 f i Resource.obj
 0001:0008d7d0       ?Get@ResourceList@@QAEXXZ  0048e7d0 f i Resource.obj
 0001:0008d840       ?Get@FakeResTagID@@QAEXIW4ReservedHandle@@I@Z 0048e840 f i Resource.obj
 0001:0008d8b0       ??_EResourceMgr@@UAEPAXI@Z 0048e8b0 f i Resource.obj
 0001:0008d8b0       ??_GResourceMgr@@UAEPAXI@Z 0048e8b0 f i Resource.obj
 0001:0008d920       ??0MemClient@@QAE@XZ       0048e920 f i Resource.obj
 0001:0008d960       ??1ResourceMgr@@UAE@XZ     0048e960 f   Resource.obj
 0001:0008da40       ?Free@ResourceList@@QAEXXZ 0048ea40 f i Resource.obj
 0001:0008daa0       ??_GRmResList@@QAEPAXI@Z   0048eaa0 f i Resource.obj
 0001:0008db10       ?Open@ResourceMgr@@UAEHW4MemType@@GPAD@Z 0048eb10 f   Resource.obj
 0001:0008db90       ?Close@ResourceMgr@@UAEHH@Z 0048eb90 f   Resource.obj
 0001:0008dc10       ?Get@ResourceMgr@@UAE?AVMemID@@W4MemType@@GH@Z 0048ec10 f   Resource.obj
 0001:0008e1c0       ??DFakeResTagID@@QBEPAUResTag@@XZ 0048f1c0 f i Resource.obj
 0001:0008e210       ?SCI16ToSCI32ResType@@YAXAAW4MemType@@@Z 0048f210 f i Resource.obj
 0001:0008e250       ??0ResTag@@QAE@ABU0@@Z     0048f250 f i Resource.obj
 0001:0008e2c0       ?GetExtType@ResourceMgr@@QAE?AW4MemType@@PAD@Z 0048f2c0 f   Resource.obj
 0001:0008e390       ?Check@ResourceMgr@@UAEHW4MemType@@G@Z 0048f390 f   Resource.obj
 0001:0008e470       ?Lock@ResourceMgr@@UAEXW4MemType@@G@Z 0048f470 f   Resource.obj
 0001:0008e500       ?SetNotDiscardable@ResourceMgr@@UAEXW4MemType@@G@Z 0048f500 f   Resource.obj
 0001:0008e590       ?SetDiscardable@ResourceMgr@@UAEXW4MemType@@G@Z 0048f590 f   Resource.obj
 0001:0008e620       ?MakeDebugDisplayStr@ResourceMgr@@UAE?AVTextID@@XZ 0048f620 f   Resource.obj
 0001:0008e700       ?MakeDebugSummaryStr@ResourceList@@QAEXAAVTextID@@@Z 0048f700 f i Resource.obj
 0001:0008e810       ?MakeDebugDetailStr@ResourceList@@QAEXAAVTextID@@@Z 0048f810 f i Resource.obj
 0001:0008e9d0       ??AResTagID@@QAEAAUResTag@@H@Z 0048f9d0 f i Resource.obj
 0001:0008ea20       ?Unlock@ResourceMgr@@UAEXW4MemType@@G@Z 0048fa20 f   Resource.obj
 0001:0008eab0       ?Release@ResourceMgr@@UAEXW4MemType@@G@Z 0048fab0 f   Resource.obj
 0001:0008eb40       ?Find@ResourceMgr@@UAE?AVMemID@@W4MemType@@G@Z 0048fb40 f   Resource.obj
 0001:0008ed90       ?FindType@ResourceMgr@@UAEGW4MemType@@@Z 0048fd90 f   Resource.obj
 0001:0008ee20       ?MakeName@ResourceMgr@@UAEPADW4MemType@@G@Z 0048fe20 f   Resource.obj
 0001:0008eea0       ?Free@ResourceMgr@@UAEXW4MemType@@G@Z 0048fea0 f   Resource.obj
 0001:0008f020       ?GetChecksum@ResourceMgr@@UAEIG@Z 00490020 f   Resource.obj
 0001:0008f0f0       ?GetIndex@ResourceMgr@@MAEHW4MemType@@G@Z 004900f0 f   Resource.obj
 0001:0008f1d0       ?AddIndex@ResourceMgr@@MAEHW4MemType@@G@Z 004901d0 f   Resource.obj
 0001:0008f370       ?DeleteIndex@ResourceMgr@@MAEXW4MemType@@G@Z 00490370 f   Resource.obj
 0001:0008f4f0       ?ExtractResources@ResourceMgr@@UAEXXZ 004904f0 f   Resource.obj
 0001:0008f900       ?InitResourceMgr@ResourceMgr@@MAEXXZ 00490900 f   Resource.obj
 0001:0008fa00       ?LoadResSums@ResourceMgr@@QAEXXZ 00490a00 f   Resource.obj
 0001:0008fca0       ?LoadResMaps@ResourceMgr@@UAEXXZ 00490ca0 f   Resource.obj
 0001:00090330       ??0ResMaps@@QAE@XZ         00491330 f i Resource.obj
 0001:00090380       ?OpenVolume@ResourceMgr@@UAEHH@Z 00491380 f   Resource.obj
 0001:000906a0       ?VolumeOpen@ResourceMgr@@UAEHH@Z 004916a0 f   Resource.obj
 0001:00090730       ?GetResMapID@ResourceMgr@@UAE?AVMemID@@H@Z 00491730 f   Resource.obj
 0001:00090790       ?BuildPatchTables@ResourceMgr@@UAEXXZ 00491790 f   Resource.obj
 0001:00090ea0       ?DecompBuffer@ResourceMgr@@QAE?AVMemID@@H@Z 00491ea0 f   Resource.obj
 0001:00090ef0       ?SetLanguage@ResourceMgr@@QAEXPAD@Z 00491ef0 f   Resource.obj
 0001:00091150       ?KSetLanguage@@YAXPAF@Z    00492150 f   Resource.obj
 0001:000911e0       ?KLoad@@YAXPAF@Z           004921e0 f   Resource.obj
 0001:00091290       ?KUnload@@YAXPAF@Z         00492290 f   Resource.obj
 0001:00091320       ?KFlushResources@@YAXPAF@Z 00492320 f   Resource.obj
 0001:00091350       ?KLock@@YAXPAF@Z           00492350 f   Resource.obj
 0001:00091450       ?KResCheck@@YAXPAF@Z       00492450 f   Resource.obj
 0001:00091540       ??0SOL_ResType@@QAE@PAD0@Z 00492540 f   Restype.obj
 0001:000915c0       ?GetType@SOL_ResType@@UBE?AW4MemType@@XZ 004925c0 f i Restype.obj
 0001:00091600       ?Check@SOL_ResType@@UAEHG@Z 00492600 f   Restype.obj
 0001:000916a0       ?Load@SOL_ResType@@UAEXAAUResTag@@H@Z 004926a0 f   Restype.obj
 0001:00091b90       ?Decompress@SOL_ResType@@MBEXAAUResTag@@@Z 00492b90 f   Restype.obj
 0001:00091f70       ?Open@SOL_ResType@@UAEHGPAD@Z 00492f70 f   Restype.obj
 0001:00092900       ?CanOpen@SOL_ResType@@QAEHGPAD@Z 00493900 f   Restype.obj
 0001:00092e30       ?Close@SOL_ResType@@UBEHH@Z 00493e30 f   Restype.obj
 0001:00092ec0       ?MakeName@SOL_ResType@@UBEXPAD0G@Z 00493ec0 f   Restype.obj
 0001:00092f70       ?MakeName@SOL_ResType@@MBEXPAD00@Z 00493f70 f   Restype.obj
 0001:00093100       ?MakeWildName@SOL_ResType@@UBEXPAD0@Z 00494100 f   Restype.obj
 0001:00093170       ?GetFileSize@SOL_ResType@@MBEJXZ 00494170 f   Restype.obj
 0001:00093210       ?ConfirmType@SOL_ResType@@MBEXW4MemType@@@Z 00494210 f   Restype.obj
 0001:00093340       ?Read@SOL_ResType@@MBEHPAXH@Z 00494340 f   Restype.obj
 0001:000933a0       ?SeekToData@SOL_ResType@@MBEHXZ 004943a0 f   Restype.obj
 0001:00093430       ?FindDirEntry@SOL_ResType@@UBEHGPAH@Z 00494430 f   Restype.obj
 0001:00093650       ?FindPatchEntry@SOL_ResType@@UBEHG@Z 00494650 f   Restype.obj
 0001:00093730       ?FindPatch36Entry@SOL_ResType@@MBEHPAD@Z 00494730 f   Restype.obj
 0001:00093810       ?CheckPatches@SOL_ResType@@UBEHG@Z 00494810 f   Restype.obj
 0001:00093880       ?SeekToData@ResView@@MBEHXZ 00494880 f   Restype.obj
 0001:00093910       ?SeekToData@ResPic@@MBEHXZ 00494910 f   Restype.obj
 0001:000939a0       ?SeekToData@ResPal@@MBEHXZ 004949a0 f   Restype.obj
 0001:00093a30       ?SeekToData@ResWave@@MBEHXZ 00494a30 f   Restype.obj
 0001:00093a60       ?SeekToData@ResAudio@@MBEHXZ 00494a60 f   Restype.obj
 0001:00093a90       ?SeekToData@ResAudio36@@MBEHXZ 00494a90 f   Restype.obj
 0001:00093ac0       ?SeekToData@ResVMD@@MBEHXZ 00494ac0 f   Restype.obj
 0001:00093b20       ?Init@SCI@@MAEXHQAPAD@Z    00494b20 f   Sci.obj
 0001:00093e60       ?InitPlane@SCI@@MAEXXZ     00494e60 f   Sci.obj
 0001:00093f90       ?MakeFontMgr@SCI@@MAEPAVFontMgr@@XZ 00494f90 f   Sci.obj
 0001:00094090       ?MakeResourceMgr@SCI@@MAEPAVResourceMgr@@XZ 00495090 f   Sci.obj
 0001:00094150       ?Run@SCI@@UAEXHQAPAD@Z     00495150 f   Sci.obj
 0001:000941f0       ??1SCI@@UAE@XZ             004951f0 f   Sci.obj
 0001:00094460       ?InitExceptions@SCI@@MAEXXZ 00495460 f i Sci.obj
 0001:00094490       ??_GSCI@@UAEPAXI@Z         00495490 f i Sci.obj
 0001:00094490       ??_ESCI@@UAEPAXI@Z         00495490 f i Sci.obj
 0001:00094500       ??_GSCIDebugger@@QAEPAXI@Z 00495500 f i Sci.obj
 0001:00094680       ??1SCIWin@@UAE@XZ          00495680 f i Sciw.obj
 0001:000946d0       ??0SCIWin@@QAE@XZ          004956d0 f i Sciw.obj
 0001:00094730       ??_GSCIWin@@UAEPAXI@Z      00495730 f i Sciw.obj
 0001:00094730       ??_ESCIWin@@UAEPAXI@Z      00495730 f i Sciw.obj
 0001:000947a0       ??0SCI@@QAE@XZ             004957a0 f i Sciw.obj
 0001:000947e0       ?InitAudio@SCIWin@@UAEXXZ  004957e0 f   Sciw.obj
 0001:00094810       ?InitInterrupts@SCIWin@@UAEXXZ 00495810 f   Sciw.obj
 0001:00094840       ?InitPalette@SCIWin@@UAEXXZ 00495840 f   Sciw.obj
 0001:00094a40       ?InitSound@SCIWin@@UAEXXZ  00495a40 f   Sciw.obj
 0001:00094a70       ?MakeConfigMgr@SCIWin@@UAEPAVConfigMgr@@HQAPAD@Z 00495a70 f   Sciw.obj
 0001:00094b60       ?MakeEventMgr@SCIWin@@UAEPAUEventMgr@@XZ 00495b60 f   Sciw.obj
 0001:00094c20       ?MakeGraphicsMgr@SCIWin@@UAEPAVGraphicsMgr@@XZ 00495c20 f   Sciw.obj
 0001:00094d00       ?MakeMemoryMgr@SCIWin@@UAEPAVMemoryMgr@@XZ 00495d00 f   Sciw.obj
 0001:00094db0       ??0MemoryMgrWin@@QAE@XZ    00495db0 f i Sciw.obj
 0001:00094e10       ?MakeMouse@SCIWin@@UAEPAVSOL_Mouse@@XZ 00495e10 f   Sciw.obj
 0001:00094fc0       ?MakeMsgMgr@SCIWin@@UAEPAVMsgMgr@@XZ 00495fc0 f   Sciw.obj
 0001:00095080       ??0MsgMgrWin@@QAE@XZ       00496080 f i Sciw.obj
 0001:000950e0       ?MakeTimeMgr@SCIWin@@UAEPAVTimeMgr@@XZ 004960e0 f   Sciw.obj
 0001:00095190       ?scimain@@YAHHQAPAD@Z      00496190 f   Sciw.obj
 0001:00095200       ?crashHandler@@YGJPAU_EXCEPTION_POINTERS@@@Z 00496200 f   Sciwin.obj
 0001:000958a0       ?AsyncEventCheck@@YAXXZ    004968a0 f   Sciwin.obj
 0001:000959b0       ?ReadCommandLine@@YAXPAD@Z 004969b0 f   Sciwin.obj
 0001:00095bc0       ?GetProfileInfo@@YAXXZ     00496bc0 f   Sciwin.obj
 0001:00095bf0       ?GetTFOption@@YAHPADH@Z    00496bf0 f   Sciwin.obj
 0001:00095ca0       ?GetIntOption@@YAHPADH@Z   00496ca0 f   Sciwin.obj
 0001:00095e60       ?GetNumToken@@YAHPADHH@Z   00496e60 f   Sciwin.obj
 0001:00095f80       ?GetStrToken@@YAHPADH0@Z   00496f80 f   Sciwin.obj
 0001:00096080       ?GetScreenInfo@@YAXXZ      00497080 f   Sciwin.obj
 0001:000965a0       ?CheckConfig@@YAXXZ        004975a0 f   Sciwin.obj
 0001:00096690       ?MBox@@YAXPAD0@Z           00497690 f   Sciwin.obj
 0001:00096730       ?MBox2@@YAHPAD0@Z          00497730 f   Sciwin.obj
 0001:000967e0       ?SciDisplay@@YAXPADHHHHH@Z 004977e0 f   Sciwin.obj
 0001:000968b0       ?WndProc@@YGJPAUHWND__@@IGJ@Z 004978b0 f   Sciwin.obj
 0001:00097330       ?SetPaintFlag@MouseWinClr@@QAEXXZ 00498330 f i Sciwin.obj
 0001:00097370       ?doDialog@@YAHH@Z          00498370 f   Sciwin.obj
 0001:000973f0       ?testDlgProc@@YGHPAUHWND__@@IIJ@Z 004983f0 f   Sciwin.obj
 0001:000974d0       ?genericDialogHandler@@YGHPAUHWND__@@IIJ@Z 004984d0 f   Sciwin.obj
 0001:00097610       ?AbortPlane@Screen@@QAEXPBVSOL_Plane@@@Z 00498610 f   Screen.obj
 0001:000976a0       ?AddPlane@Screen@@QAEXPAVSOL_Plane@@@Z 004986a0 f   Screen.obj
 0001:00097780       ?AddPic@Screen@@QAEHJHABVSOL_Point@@H@Z 00498780 f   Screen.obj
 0001:00097830       ?DeletePic@Screen@@QAEXJHH@Z 00498830 f   Screen.obj
 0001:000978e0       ?ScrollScreenItems@Screen@@QAEXJHHH@Z 004988e0 f   Screen.obj
 0001:00097990       ?CheckIntegrity@Screen@@QAEXXZ 00498990 f   Screen.obj
 0001:00097a10       ?AddScreenItem@Screen@@QAEXPAVScreenItem@@@Z 00498a10 f   Screen.obj
 0001:00097ac0       ?NewScreenDim@Screen@@QAEXHH@Z 00498ac0 f   Screen.obj
 0001:00097bc0       ?Clear@Screen@@QAEXXZ      00498bc0 f   Screen.obj
 0001:00097c20       ?PlaneRect@Screen@@QBEXHAAVSOL_Rect@@@Z 00498c20 f   Screen.obj
 0001:00097cd0       ?OnScreen@SOL_Plane@@QBEABVSOL_Rect@@XZ 00498cd0 f i Screen.obj
 0001:00097d10       ??APlaneList@@QBEABVSOL_Plane@@H@Z 00498d10 f i Screen.obj
 0001:00097d50       ?TopScreenItem@Screen@@QBEHH@Z 00498d50 f   Screen.obj
 0001:00097df0       ?CalcLists@Screen@@QAEXAAV1@QAPAVDrawList@@QAPAVRectList@@ABVSOL_Rect@@@Z 00498df0 f   Screen.obj
 0001:00099340       ?DeleteCount@SOL_Plane@@QBEHXZ 0049a340 f i Screen.obj
 0001:00099380       ?EraseCount@SOL_Plane@@QBEHXZ 0049a380 f i Screen.obj
 0001:000993c0       ?PriorityCount@SOL_Plane@@QAEHXZ 0049a3c0 f i Screen.obj
 0001:00099400       ?RedrawAllCount@SOL_Plane@@QBEHXZ 0049a400 f i Screen.obj
 0001:00099440       ?UpdateCount@SOL_Plane@@QBEHXZ 0049a440 f i Screen.obj
 0001:00099480       ?DecAddCount@SOL_Plane@@QAEXXZ 0049a480 f i Screen.obj
 0001:000994c0       ?DecDeleteCount@SOL_Plane@@QAEXXZ 0049a4c0 f i Screen.obj
 0001:00099500       ?DecEraseCount@SOL_Plane@@QAEXXZ 0049a500 f i Screen.obj
 0001:00099540       ?DecPriorityCount@SOL_Plane@@QAEXXZ 0049a540 f i Screen.obj
 0001:00099580       ?DecUpdateCount@SOL_Plane@@QAEXXZ 0049a580 f i Screen.obj
 0001:000995d0       ?Pointer@PlaneList@@QAEPAVSOL_Plane@@H@Z 0049a5d0 f i Screen.obj
 0001:00099610       ?RemapMarkRedraw@Screen@@QAEXXZ 0049a610 f   Screen.obj
 0001:000996a0       ?GetScreenItem@Screen@@QAEPAVScreenItem@@HJ@Z 0049a6a0 f   Screen.obj
 0001:00099750       ?GetPlane@Screen@@QAEPAVSOL_Plane@@H@Z 0049a750 f   Screen.obj
 0001:00099950       ??0ClassTblID@@QAE@XZ      0049a950 f i Script.obj
 0001:000999a0       ??0FakeClassTblID@@QAE@XZ  0049a9a0 f i Script.obj
 0001:00099b10       ??1?$map@V?$basic_string@DU?$char_traits@D@std@@V?$allocator@D@2@@std@@HU?$less@V?$basic_string@DU?$char_traits@D@std@@V?$allocator@D@2@@std@@@2@V?$allocator@H@2@@std@@QAE@XZ 0049ab10 f i Script.obj
 0001:00099b60       ??0Entrys@@QAE@XZ          0049ab60 f   Script.obj
 0001:00099bd0       ??1Entrys@@QAE@XZ          0049abd0 f   Script.obj
 0001:00099c70       ?Add@Entrys@@QAE?AVMemID@@PAVEntry@@@Z 0049ac70 f   Script.obj
 0001:00099d80       ?Find@Entrys@@QAEPAVEntry@@I@Z 0049ad80 f   Script.obj
 0001:00099e50       ?Fixup@Entrys@@QAEXI@Z     0049ae50 f   Script.obj
 0001:00099f60       ?Contains@Entry@@QAEHI@Z   0049af60 f i Script.obj
 0001:00099fd0       ?GetFirst@Entrys@@QAEPAVEntry@@XZ 0049afd0 f   Script.obj
 0001:0009a020       ?GetNext@Entrys@@QAEPAVEntry@@XZ 0049b020 f   Script.obj
 0001:0009a090       ?GetFirstObject@Entrys@@QAE?AVObjectID@@XZ 0049b090 f   Script.obj
 0001:0009a100       ?GetNextObject@Entrys@@QAE?AVObjectID@@XZ 0049b100 f   Script.obj
 0001:0009a1e0       _GetDispatchEntry          0049b1e0 f   Script.obj
 0001:0009a2c0       ??CFakeDispatchTblID@@QBEPAUDispatchTbl@@XZ 0049b2c0 f i Script.obj
 0001:0009a310       ??ADispatchTblID@@QAEAATDispatchEntry@@H@Z 0049b310 f i Script.obj
 0001:0009a360       ??DFakeDispatchTblID@@QBEPAUDispatchTbl@@XZ 0049b360 f i Script.obj
 0001:0009a3b0       ?LoadScript@@YA?AUScriptID@@I@Z 0049b3b0 f   Script.obj
 0001:0009b3c0       ??0ScriptHeapID@@QAE@ABVMemID@@@Z 0049c3c0 f i Script.obj
 0001:0009b410       ?Unlock@ScriptHeapID@@QBEPAUScriptHeap@@XZ 0049c410 f i Script.obj
 0001:0009b460       ??CScriptHeapID@@QBEPAUScriptHeap@@XZ 0049c460 f i Script.obj
 0001:0009b4b0       ??0ScriptHunkID@@QAE@ABVMemID@@@Z 0049c4b0 f i Script.obj
 0001:0009b500       ?Unlock@ScriptHunkID@@QBEPAUScriptHunk@@XZ 0049c500 f i Script.obj
 0001:0009b550       ??DScriptHunkID@@QBEPAUScriptHunk@@XZ 0049c550 f i Script.obj
 0001:0009b5a0       ??CScriptHunkID@@QBEPAUScriptHunk@@XZ 0049c5a0 f i Script.obj
 0001:0009b5f0       ??0DispatchTblID@@QAE@ABVMemID@@@Z 0049c5f0 f i Script.obj
 0001:0009b640       ??0FakeDispatchTblID@@QAE@ABVMemID@@@Z 0049c640 f i Script.obj
 0001:0009b690       ?Get@FakeScriptEntryID@@QAEXIIIPAUMemClient@@DW4ReservedHandle@@@Z 0049c690 f i Script.obj
 0001:0009b700       ??DFakeScriptEntryID@@QBEPAUScriptEntry@@XZ 0049c700 f i Script.obj
 0001:0009b750       ??0ScriptEntryID@@QAE@XZ   0049c750 f i Script.obj
 0001:0009b7a0       ??0FakeScriptEntryID@@QAE@XZ 0049c7a0 f i Script.obj
 0001:0009b7f0       ??0VariableID@@QAE@ABVMemID@@@Z 0049c7f0 f i Script.obj
 0001:0009b840       ??0FakeVariableID@@QAE@ABVMemID@@@Z 0049c840 f i Script.obj
 0001:0009b890       ??0ScriptID@@QAE@XZ        0049c890 f i Script.obj
 0001:0009b8e0       ?Get@ScriptID@@QAEXXZ      0049c8e0 f i Script.obj
 0001:0009b980       ??0Script@@QAE@XZ          0049c980 f i Script.obj
 0001:0009ba40       ??0DispatchTblID@@QAE@XZ   0049ca40 f i Script.obj
 0001:0009ba90       ??0FakeDispatchTblID@@QAE@XZ 0049ca90 f i Script.obj
 0001:0009bae0       ??DScriptID@@QBEPAUScript@@XZ 0049cae0 f i Script.obj
 0001:0009bb30       ??AClassTblID@@QAEAAUClassTblEntry@@H@Z 0049cb30 f i Script.obj
 0001:0009bb90       ??DFakeClassTblID@@QBEPAUClassTbl@@XZ 0049cb90 f i Script.obj
 0001:0009bbe0       ??0CSCI_Object@@QAE@ABVObjectID@@@Z 0049cbe0 f i Script.obj
 0001:0009bc30       ?get_name@CSCI_Object@@QAE?AVStringID@@XZ 0049cc30 f i Script.obj
 0001:0009bca0       ??0ObjectIDEntry@@QAE@VMemID@@AAI@Z 0049cca0 f i Script.obj
 0001:0009bd70       ?Size@Object@@QAEFXZ       0049cd70 f i Script.obj
 0001:0009bdb0       ??0Entry@@QAE@IIW4MemType@@W4Type@ScriptEntry@@@Z 0049cdb0 f i Script.obj
 0001:0009be40       ?Fixup@Entry@@UAE?AVMemID@@PAVEntrys@@I@Z 0049ce40 f i Script.obj
 0001:0009bee0       ??0StringIDEntry@@QAE@VMemID@@AAI@Z 0049cee0 f i Script.obj
 0001:0009bf80       ??0Entry@@QAE@VMemID@@AAIIW4MemType@@W4Type@ScriptEntry@@I@Z 0049cf80 f i Script.obj
 0001:0009c050       ?Get@MemID@@QAEXW4MemType@@V1@III@Z 0049d050 f i Script.obj
 0001:0009c0e0       ??0VariablesIDEntry@@QAE@VMemID@@AAII@Z 0049d0e0 f i Script.obj
 0001:0009c160       ??0CodeIDEntry@@QAE@VMemID@@AAII@Z 0049d160 f i Script.obj
 0001:0009c200       ?Fixup@CodeIDEntry@@UAE?AVMemID@@PAVEntrys@@I@Z 0049d200 f i Script.obj
 0001:0009c2a0       ?AddFixup@CodeIDEntry@@QAEXVMemID@@I@Z 0049d2a0 f i Script.obj
 0001:0009c3a0       ??0DispatchesIDEntry@@QAE@VMemID@@AAI@Z 0049d3a0 f i Script.obj
 0001:0009c440       ?ReloadScript@@YAXUScriptID@@@Z 0049d440 f   Script.obj
 0001:0009c5d0       ?ScriptPtr@@YA?AUScriptID@@I@Z 0049d5d0 f   Script.obj
 0001:0009c740       ??0ScriptID@@QAE@G@Z       0049d740 f i Script.obj
 0001:0009c790       _GetClass                  0049d790 f   Script.obj
 0001:0009c8a0       ?GetClassByName@@YAGPAD@Z  0049d8a0 f   Script.obj
 0001:0009c9b0       _LoadClassTbl              0049d9b0 f   Script.obj
 0001:0009cb00       ?Get@FakeClassTblID@@QAEXIIIPAUMemClient@@DW4ReservedHandle@@@Z 0049db00 f i Script.obj
 0001:0009cb70       ??CFakeClassTblID@@QBEPAUClassTbl@@XZ 0049db70 f i Script.obj
 0001:0009cbc0       ?DisposeAllScripts@@YAXXZ  0049dbc0 f   Script.obj
 0001:0009cf40       ??AScriptEntryID@@QAEAAUScriptEntry@@H@Z 0049df40 f i Script.obj
 0001:0009cf90       ?KScriptID@@YAXPAF@Z       0049df90 f   Script.obj
 0001:0009d020       ?KDisposeScript@@YAXPAF@Z  0049e020 f   Script.obj
 0001:0009d0e0       ??0?$map@V?$basic_string@DU?$char_traits@D@std@@V?$allocator@D@2@@std@@HU?$less@V?$basic_string@DU?$char_traits@D@std@@V?$allocator@D@2@@std@@@2@V?$allocator@H@2@@std@@QAE@ABU?$less@V?$basic_string@DU?$char_traits@D@std@@V?$allocator@D@2@@std@@@1@ABV?$allocator@H@1@@Z 0049e0e0 f i Script.obj
 0001:0009d140       ?end@?$map@V?$basic_string@DU?$char_traits@D@std@@V?$allocator@D@2@@std@@HU?$less@V?$basic_string@DU?$char_traits@D@std@@V?$allocator@D@2@@std@@@2@V?$allocator@H@2@@std@@QAE?AViterator@?$_Tree@V?$basic_string@DU?$char_traits@D@std@@V?$allocator@D@2@@std@@U?$pair@$$CBV?$basic_string@DU?$char_traits@D@std@@V?$allocator@D@2@@std@@H@2@U_Kfn@?$map@V?$basic_string@DU?$char_traits@D@std@@V?$allocator@D@2@@std@@HU?$less@V?$basic_string@DU?$char_traits@D@std@@V?$allocator@D@2@@std@@@2@V?$allocator@H@2@@2@U?$less@V?$basic_string@DU?$char_traits@D@std@@V?$allocator@D@2@@std@@@2@V?$allocator@H@2@@2@XZ 0049e140 f i Script.obj
 0001:0009d1a0       ??A?$map@V?$basic_string@DU?$char_traits@D@std@@V?$allocator@D@2@@std@@HU?$less@V?$basic_string@DU?$char_traits@D@std@@V?$allocator@D@2@@std@@@2@V?$allocator@H@2@@std@@QAEAAHABV?$basic_string@DU?$char_traits@D@std@@V?$allocator@D@2@@1@@Z 0049e1a0 f i Script.obj
 0001:0009d270       ?find@?$map@V?$basic_string@DU?$char_traits@D@std@@V?$allocator@D@2@@std@@HU?$less@V?$basic_string@DU?$char_traits@D@std@@V?$allocator@D@2@@std@@@2@V?$allocator@H@2@@std@@QAE?AViterator@?$_Tree@V?$basic_string@DU?$char_traits@D@std@@V?$allocator@D@2@@std@@U?$pair@$$CBV?$basic_string@DU?$char_traits@D@std@@V?$allocator@D@2@@std@@H@2@U_Kfn@?$map@V?$basic_string@DU?$char_traits@D@std@@V?$allocator@D@2@@std@@HU?$less@V?$basic_string@DU?$char_traits@D@std@@V?$allocator@D@2@@std@@@2@V?$allocator@H@2@@2@U?$less@V?$basic_string@DU?$char_traits@D@std@@V?$allocator@D@2@@std@@@2@V?$allocator@H@2@@2@ABV?$basic_string@DU?$char_traits@D@std@@V?$allocator@D@2@@2@@Z 0049e270 f i Script.obj
 0001:0009d2d0       ??1?$_Tree@V?$basic_string@DU?$char_traits@D@std@@V?$allocator@D@2@@std@@U?$pair@$$CBV?$basic_string@DU?$char_traits@D@std@@V?$allocator@D@2@@std@@H@2@U_Kfn@?$map@V?$basic_string@DU?$char_traits@D@std@@V?$allocator@D@2@@std@@HU?$less@V?$basic_string@DU?$char_traits@D@std@@V?$allocator@D@2@@std@@@2@V?$allocator@H@2@@2@U?$less@V?$basic_string@DU?$char_traits@D@std@@V?$allocator@D@2@@std@@@2@V?$allocator@H@2@@std@@QAE@XZ 0049e2d0 f i Script.obj
 0001:0009d410       ??Diterator@?$_Tree@V?$basic_string@DU?$char_traits@D@std@@V?$allocator@D@2@@std@@U?$pair@$$CBV?$basic_string@DU?$char_traits@D@std@@V?$allocator@D@2@@std@@H@2@U_Kfn@?$map@V?$basic_string@DU?$char_traits@D@std@@V?$allocator@D@2@@std@@HU?$less@V?$basic_string@DU?$char_traits@D@std@@V?$allocator@D@2@@std@@@2@V?$allocator@H@2@@2@U?$less@V?$basic_string@DU?$char_traits@D@std@@V?$allocator@D@2@@std@@@2@V?$allocator@H@2@@std@@QBEAAU?$pair@$$CBV?$basic_string@DU?$char_traits@D@std@@V?$allocator@D@2@@std@@H@2@XZ 0049e410 f i Script.obj
 0001:0009d460       ??9iterator@?$_Tree@V?$basic_string@DU?$char_traits@D@std@@V?$allocator@D@2@@std@@U?$pair@$$CBV?$basic_string@DU?$char_traits@D@std@@V?$allocator@D@2@@std@@H@2@U_Kfn@?$map@V?$basic_string@DU?$char_traits@D@std@@V?$allocator@D@2@@std@@HU?$less@V?$basic_string@DU?$char_traits@D@std@@V?$allocator@D@2@@std@@@2@V?$allocator@H@2@@2@U?$less@V?$basic_string@DU?$char_traits@D@std@@V?$allocator@D@2@@std@@@2@V?$allocator@H@2@@std@@QBE_NABV012@@Z 0049e460 f i Script.obj
 0001:0009d4c0       ??1?$pair@$$CBV?$basic_string@DU?$char_traits@D@std@@V?$allocator@D@2@@std@@H@std@@QAE@XZ 0049e4c0 f i Script.obj
 0001:0009d510       ?insert@?$map@V?$basic_string@DU?$char_traits@D@std@@V?$allocator@D@2@@std@@HU?$less@V?$basic_string@DU?$char_traits@D@std@@V?$allocator@D@2@@std@@@2@V?$allocator@H@2@@std@@QAE?AU?$pair@Viterator@?$_Tree@V?$basic_string@DU?$char_traits@D@std@@V?$allocator@D@2@@std@@U?$pair@$$CBV?$basic_string@DU?$char_traits@D@std@@V?$allocator@D@2@@std@@H@2@U_Kfn@?$map@V?$basic_string@DU?$char_traits@D@std@@V?$allocator@D@2@@std@@HU?$less@V?$basic_string@DU?$char_traits@D@std@@V?$allocator@D@2@@std@@@2@V?$allocator@H@2@@2@U?$less@V?$basic_string@DU?$char_traits@D@std@@V?$allocator@D@2@@std@@@2@V?$allocator@H@2@@std@@_N@2@ABU?$pair@$$CBV?$basic_string@DU?$char_traits@D@std@@V?$allocator@D@2@@std@@H@2@@Z 0049e510 f i Script.obj
 0001:0009d5a0       ?_Value@?$_Tree@V?$basic_string@DU?$char_traits@D@std@@V?$allocator@D@2@@std@@U?$pair@$$CBV?$basic_string@DU?$char_traits@D@std@@V?$allocator@D@2@@std@@H@2@U_Kfn@?$map@V?$basic_string@DU?$char_traits@D@std@@V?$allocator@D@2@@std@@HU?$less@V?$basic_string@DU?$char_traits@D@std@@V?$allocator@D@2@@std@@@2@V?$allocator@H@2@@2@U?$less@V?$basic_string@DU?$char_traits@D@std@@V?$allocator@D@2@@std@@@2@V?$allocator@H@2@@std@@KAAAU?$pair@$$CBV?$basic_string@DU?$char_traits@D@std@@V?$allocator@D@2@@std@@H@2@PAU_Node@12@@Z 0049e5a0 f i Script.obj
 0001:0009d5d0       ??0?$_Tree@V?$basic_string@DU?$char_traits@D@std@@V?$allocator@D@2@@std@@U?$pair@$$CBV?$basic_string@DU?$char_traits@D@std@@V?$allocator@D@2@@std@@H@2@U_Kfn@?$map@V?$basic_string@DU?$char_traits@D@std@@V?$allocator@D@2@@std@@HU?$less@V?$basic_string@DU?$char_traits@D@std@@V?$allocator@D@2@@std@@@2@V?$allocator@H@2@@2@U?$less@V?$basic_string@DU?$char_traits@D@std@@V?$allocator@D@2@@std@@@2@V?$allocator@H@2@@std@@QAE@ABU?$less@V?$basic_string@DU?$char_traits@D@std@@V?$allocator@D@2@@std@@@1@_NABV?$allocator@H@1@@Z 0049e5d0 f i Script.obj
 0001:0009d640       ?begin@?$_Tree@V?$basic_string@DU?$char_traits@D@std@@V?$allocator@D@2@@std@@U?$pair@$$CBV?$basic_string@DU?$char_traits@D@std@@V?$allocator@D@2@@std@@H@2@U_Kfn@?$map@V?$basic_string@DU?$char_traits@D@std@@V?$allocator@D@2@@std@@HU?$less@V?$basic_string@DU?$char_traits@D@std@@V?$allocator@D@2@@std@@@2@V?$allocator@H@2@@2@U?$less@V?$basic_string@DU?$char_traits@D@std@@V?$allocator@D@2@@std@@@2@V?$allocator@H@2@@std@@QAE?AViterator@12@XZ 0049e640 f i Script.obj
 0001:0009d6a0       ?end@?$_Tree@V?$basic_string@DU?$char_traits@D@std@@V?$allocator@D@2@@std@@U?$pair@$$CBV?$basic_string@DU?$char_traits@D@std@@V?$allocator@D@2@@std@@H@2@U_Kfn@?$map@V?$basic_string@DU?$char_traits@D@std@@V?$allocator@D@2@@std@@HU?$less@V?$basic_string@DU?$char_traits@D@std@@V?$allocator@D@2@@std@@@2@V?$allocator@H@2@@2@U?$less@V?$basic_string@DU?$char_traits@D@std@@V?$allocator@D@2@@std@@@2@V?$allocator@H@2@@std@@QAE?AViterator@12@XZ 0049e6a0 f i Script.obj
 0001:0009d700       ?erase@?$_Tree@V?$basic_string@DU?$char_traits@D@std@@V?$allocator@D@2@@std@@U?$pair@$$CBV?$basic_string@DU?$char_traits@D@std@@V?$allocator@D@2@@std@@H@2@U_Kfn@?$map@V?$basic_string@DU?$char_traits@D@std@@V?$allocator@D@2@@std@@HU?$less@V?$basic_string@DU?$char_traits@D@std@@V?$allocator@D@2@@std@@@2@V?$allocator@H@2@@2@U?$less@V?$basic_string@DU?$char_traits@D@std@@V?$allocator@D@2@@std@@@2@V?$allocator@H@2@@std@@QAE?AViterator@12@V312@0@Z 0049e700 f i Script.obj
 0001:0009d8d0       ?find@?$_Tree@V?$basic_string@DU?$char_traits@D@std@@V?$allocator@D@2@@std@@U?$pair@$$CBV?$basic_string@DU?$char_traits@D@std@@V?$allocator@D@2@@std@@H@2@U_Kfn@?$map@V?$basic_string@DU?$char_traits@D@std@@V?$allocator@D@2@@std@@HU?$less@V?$basic_string@DU?$char_traits@D@std@@V?$allocator@D@2@@std@@@2@V?$allocator@H@2@@2@U?$less@V?$basic_string@DU?$char_traits@D@std@@V?$allocator@D@2@@std@@@2@V?$allocator@H@2@@std@@QAE?AViterator@12@ABV?$basic_string@DU?$char_traits@D@std@@V?$allocator@D@2@@2@@Z 0049e8d0 f i Script.obj
 0001:0009d9c0       ?_Freenode@?$_Tree@V?$basic_string@DU?$char_traits@D@std@@V?$allocator@D@2@@std@@U?$pair@$$CBV?$basic_string@DU?$char_traits@D@std@@V?$allocator@D@2@@std@@H@2@U_Kfn@?$map@V?$basic_string@DU?$char_traits@D@std@@V?$allocator@D@2@@std@@HU?$less@V?$basic_string@DU?$char_traits@D@std@@V?$allocator@D@2@@std@@@2@V?$allocator@H@2@@2@U?$less@V?$basic_string@DU?$char_traits@D@std@@V?$allocator@D@2@@std@@@2@V?$allocator@H@2@@std@@IAEXPAU_Node@12@@Z 0049e9c0 f i Script.obj
 0001:0009da10       ??0?$pair@$$CBV?$basic_string@DU?$char_traits@D@std@@V?$allocator@D@2@@std@@H@std@@QAE@ABV?$basic_string@DU?$char_traits@D@std@@V?$allocator@D@2@@1@ABH@Z 0049ea10 f i Script.obj
 0001:0009da80       ??8iterator@?$_Tree@V?$basic_string@DU?$char_traits@D@std@@V?$allocator@D@2@@std@@U?$pair@$$CBV?$basic_string@DU?$char_traits@D@std@@V?$allocator@D@2@@std@@H@2@U_Kfn@?$map@V?$basic_string@DU?$char_traits@D@std@@V?$allocator@D@2@@std@@HU?$less@V?$basic_string@DU?$char_traits@D@std@@V?$allocator@D@2@@std@@@2@V?$allocator@H@2@@2@U?$less@V?$basic_string@DU?$char_traits@D@std@@V?$allocator@D@2@@std@@@2@V?$allocator@H@2@@std@@QBE_NABV012@@Z 0049ea80 f i Script.obj
 0001:0009dad0       ??R?$less@V?$basic_string@DU?$char_traits@D@std@@V?$allocator@D@2@@std@@@std@@QBE_NABV?$basic_string@DU?$char_traits@D@std@@V?$allocator@D@2@@1@0@Z 0049ead0 f i Script.obj
 0001:0009db30       ?deallocate@?$allocator@H@std@@QAEXPAXI@Z 0049eb30 f i Script.obj
 0001:0009db80       ?_Key@?$_Tree@V?$basic_string@DU?$char_traits@D@std@@V?$allocator@D@2@@std@@U?$pair@$$CBV?$basic_string@DU?$char_traits@D@std@@V?$allocator@D@2@@std@@H@2@U_Kfn@?$map@V?$basic_string@DU?$char_traits@D@std@@V?$allocator@D@2@@std@@HU?$less@V?$basic_string@DU?$char_traits@D@std@@V?$allocator@D@2@@std@@@2@V?$allocator@H@2@@2@U?$less@V?$basic_string@DU?$char_traits@D@std@@V?$allocator@D@2@@std@@@2@V?$allocator@H@2@@std@@KAABV?$basic_string@DU?$char_traits@D@std@@V?$allocator@D@2@@2@PAU_Node@12@@Z 0049eb80 f i Script.obj
 0001:0009dbd0       ?size@?$_Tree@V?$basic_string@DU?$char_traits@D@std@@V?$allocator@D@2@@std@@U?$pair@$$CBV?$basic_string@DU?$char_traits@D@std@@V?$allocator@D@2@@std@@H@2@U_Kfn@?$map@V?$basic_string@DU?$char_traits@D@std@@V?$allocator@D@2@@std@@HU?$less@V?$basic_string@DU?$char_traits@D@std@@V?$allocator@D@2@@std@@@2@V?$allocator@H@2@@2@U?$less@V?$basic_string@DU?$char_traits@D@std@@V?$allocator@D@2@@std@@@2@V?$allocator@H@2@@std@@QBEIXZ 0049ebd0 f i Script.obj
 0001:0009dc10       ?insert@?$_Tree@V?$basic_string@DU?$char_traits@D@std@@V?$allocator@D@2@@std@@U?$pair@$$CBV?$basic_string@DU?$char_traits@D@std@@V?$allocator@D@2@@std@@H@2@U_Kfn@?$map@V?$basic_string@DU?$char_traits@D@std@@V?$allocator@D@2@@std@@HU?$less@V?$basic_string@DU?$char_traits@D@std@@V?$allocator@D@2@@std@@@2@V?$allocator@H@2@@2@U?$less@V?$basic_string@DU?$char_traits@D@std@@V?$allocator@D@2@@std@@@2@V?$allocator@H@2@@std@@QAE?AU?$pair@Viterator@?$_Tree@V?$basic_string@DU?$char_traits@D@std@@V?$allocator@D@2@@std@@U?$pair@$$CBV?$basic_string@DU?$char_traits@D@std@@V?$allocator@D@2@@std@@H@2@U_Kfn@?$map@V?$basic_string@DU?$char_traits@D@std@@V?$allocator@D@2@@std@@HU?$less@V?$basic_string@DU?$char_traits@D@std@@V?$allocator@D@2@@std@@@2@V?$allocator@H@2@@2@U?$less@V?$basic_string@DU?$char_traits@D@std@@V?$allocator@D@2@@std@@@2@V?$allocator@H@2@@std@@_N@2@ABU?$pair@$$CBV?$basic_string@DU?$char_traits@D@std@@V?$allocator@D@2@@std@@H@2@@Z 0049ec10 f i Script.obj
 0001:0009df30       ?erase@?$_Tree@V?$basic_string@DU?$char_traits@D@std@@V?$allocator@D@2@@std@@U?$pair@$$CBV?$basic_string@DU?$char_traits@D@std@@V?$allocator@D@2@@std@@H@2@U_Kfn@?$map@V?$basic_string@DU?$char_traits@D@std@@V?$allocator@D@2@@std@@HU?$less@V?$basic_string@DU?$char_traits@D@std@@V?$allocator@D@2@@std@@@2@V?$allocator@H@2@@2@U?$less@V?$basic_string@DU?$char_traits@D@std@@V?$allocator@D@2@@std@@@2@V?$allocator@H@2@@std@@QAE?AViterator@12@V312@@Z 0049ef30 f i Script.obj
 0001:0009e9d0       ?lower_bound@?$_Tree@V?$basic_string@DU?$char_traits@D@std@@V?$allocator@D@2@@std@@U?$pair@$$CBV?$basic_string@DU?$char_traits@D@std@@V?$allocator@D@2@@std@@H@2@U_Kfn@?$map@V?$basic_string@DU?$char_traits@D@std@@V?$allocator@D@2@@std@@HU?$less@V?$basic_string@DU?$char_traits@D@std@@V?$allocator@D@2@@std@@@2@V?$allocator@H@2@@2@U?$less@V?$basic_string@DU?$char_traits@D@std@@V?$allocator@D@2@@std@@@2@V?$allocator@H@2@@std@@QAE?AViterator@12@ABV?$basic_string@DU?$char_traits@D@std@@V?$allocator@D@2@@2@@Z 0049f9d0 f i Script.obj
 0001:0009ea40       ?_Erase@?$_Tree@V?$basic_string@DU?$char_traits@D@std@@V?$allocator@D@2@@std@@U?$pair@$$CBV?$basic_string@DU?$char_traits@D@std@@V?$allocator@D@2@@std@@H@2@U_Kfn@?$map@V?$basic_string@DU?$char_traits@D@std@@V?$allocator@D@2@@std@@HU?$less@V?$basic_string@DU?$char_traits@D@std@@V?$allocator@D@2@@std@@@2@V?$allocator@H@2@@2@U?$less@V?$basic_string@DU?$char_traits@D@std@@V?$allocator@D@2@@std@@@2@V?$allocator@H@2@@std@@IAEXPAU_Node@12@@Z 0049fa40 f i Script.obj
 0001:0009eb60       ?_Init@?$_Tree@V?$basic_string@DU?$char_traits@D@std@@V?$allocator@D@2@@std@@U?$pair@$$CBV?$basic_string@DU?$char_traits@D@std@@V?$allocator@D@2@@std@@H@2@U_Kfn@?$map@V?$basic_string@DU?$char_traits@D@std@@V?$allocator@D@2@@std@@HU?$less@V?$basic_string@DU?$char_traits@D@std@@V?$allocator@D@2@@std@@@2@V?$allocator@H@2@@2@U?$less@V?$basic_string@DU?$char_traits@D@std@@V?$allocator@D@2@@std@@@2@V?$allocator@H@2@@std@@IAEXXZ 0049fb60 f i Script.obj
 0001:0009ecc0       ?_Lmost@?$_Tree@V?$basic_string@DU?$char_traits@D@std@@V?$allocator@D@2@@std@@U?$pair@$$CBV?$basic_string@DU?$char_traits@D@std@@V?$allocator@D@2@@std@@H@2@U_Kfn@?$map@V?$basic_string@DU?$char_traits@D@std@@V?$allocator@D@2@@std@@HU?$less@V?$basic_string@DU?$char_traits@D@std@@V?$allocator@D@2@@std@@@2@V?$allocator@H@2@@2@U?$less@V?$basic_string@DU?$char_traits@D@std@@V?$allocator@D@2@@std@@@2@V?$allocator@H@2@@std@@IAEAAPAU_Node@12@XZ 0049fcc0 f i Script.obj
 0001:0009ed10       ?_Rmost@?$_Tree@V?$basic_string@DU?$char_traits@D@std@@V?$allocator@D@2@@std@@U?$pair@$$CBV?$basic_string@DU?$char_traits@D@std@@V?$allocator@D@2@@std@@H@2@U_Kfn@?$map@V?$basic_string@DU?$char_traits@D@std@@V?$allocator@D@2@@std@@HU?$less@V?$basic_string@DU?$char_traits@D@std@@V?$allocator@D@2@@std@@@2@V?$allocator@H@2@@2@U?$less@V?$basic_string@DU?$char_traits@D@std@@V?$allocator@D@2@@std@@@2@V?$allocator@H@2@@std@@IAEAAPAU_Node@12@XZ 0049fd10 f i Script.obj
 0001:0009ed60       ?_Root@?$_Tree@V?$basic_string@DU?$char_traits@D@std@@V?$allocator@D@2@@std@@U?$pair@$$CBV?$basic_string@DU?$char_traits@D@std@@V?$allocator@D@2@@std@@H@2@U_Kfn@?$map@V?$basic_string@DU?$char_traits@D@std@@V?$allocator@D@2@@std@@HU?$less@V?$basic_string@DU?$char_traits@D@std@@V?$allocator@D@2@@std@@@2@V?$allocator@H@2@@2@U?$less@V?$basic_string@DU?$char_traits@D@std@@V?$allocator@D@2@@std@@@2@V?$allocator@H@2@@std@@IAEAAPAU_Node@12@XZ 0049fd60 f i Script.obj
 0001:0009edb0       ?_Mynode@const_iterator@?$_Tree@V?$basic_string@DU?$char_traits@D@std@@V?$allocator@D@2@@std@@U?$pair@$$CBV?$basic_string@DU?$char_traits@D@std@@V?$allocator@D@2@@std@@H@2@U_Kfn@?$map@V?$basic_string@DU?$char_traits@D@std@@V?$allocator@D@2@@std@@HU?$less@V?$basic_string@DU?$char_traits@D@std@@V?$allocator@D@2@@std@@@2@V?$allocator@H@2@@2@U?$less@V?$basic_string@DU?$char_traits@D@std@@V?$allocator@D@2@@std@@@2@V?$allocator@H@2@@std@@QBEPAU_Node@23@XZ 0049fdb0 f i Script.obj
 0001:0009edf0       ??0iterator@?$_Tree@V?$basic_string@DU?$char_traits@D@std@@V?$allocator@D@2@@std@@U?$pair@$$CBV?$basic_string@DU?$char_traits@D@std@@V?$allocator@D@2@@std@@H@2@U_Kfn@?$map@V?$basic_string@DU?$char_traits@D@std@@V?$allocator@D@2@@std@@HU?$less@V?$basic_string@DU?$char_traits@D@std@@V?$allocator@D@2@@std@@@2@V?$allocator@H@2@@2@U?$less@V?$basic_string@DU?$char_traits@D@std@@V?$allocator@D@2@@std@@@2@V?$allocator@H@2@@std@@QAE@PAU_Node@12@@Z 0049fdf0 f i Script.obj
 0001:0009ee40       ??Eiterator@?$_Tree@V?$basic_string@DU?$char_traits@D@std@@V?$allocator@D@2@@std@@U?$pair@$$CBV?$basic_string@DU?$char_traits@D@std@@V?$allocator@D@2@@std@@H@2@U_Kfn@?$map@V?$basic_string@DU?$char_traits@D@std@@V?$allocator@D@2@@std@@HU?$less@V?$basic_string@DU?$char_traits@D@std@@V?$allocator@D@2@@std@@@2@V?$allocator@H@2@@2@U?$less@V?$basic_string@DU?$char_traits@D@std@@V?$allocator@D@2@@std@@@2@V?$allocator@H@2@@std@@QAE?AV012@H@Z 0049fe40 f i Script.obj
 0001:0009eea0       ??0?$pair@Viterator@?$_Tree@V?$basic_string@DU?$char_traits@D@std@@V?$allocator@D@2@@std@@U?$pair@$$CBV?$basic_string@DU?$char_traits@D@std@@V?$allocator@D@2@@std@@H@2@U_Kfn@?$map@V?$basic_string@DU?$char_traits@D@std@@V?$allocator@D@2@@std@@HU?$less@V?$basic_string@DU?$char_traits@D@std@@V?$allocator@D@2@@std@@@2@V?$allocator@H@2@@2@U?$less@V?$basic_string@DU?$char_traits@D@std@@V?$allocator@D@2@@std@@@2@V?$allocator@H@2@@std@@_N@std@@QAE@ABViterator@?$_Tree@V?$basic_string@DU?$char_traits@D@std@@V?$allocator@D@2@@std@@U?$pair@$$CBV?$basic_string@DU?$char_traits@D@std@@V?$allocator@D@2@@std@@H@2@U_Kfn@?$map@V?$basic_string@DU?$char_traits@D@std@@V?$allocator@D@2@@std@@HU?$less@V?$basic_string@DU?$char_traits@D@std@@V?$allocator@D@2@@std@@@2@V?$allocator@H@2@@2@U?$less@V?$basic_string@DU?$char_traits@D@std@@V?$allocator@D@2@@std@@@2@V?$allocator@H@2@@1@AB_N@Z 0049fea0 f i Script.obj
 0001:0009eef0       ??R_Kfn@?$map@V?$basic_string@DU?$char_traits@D@std@@V?$allocator@D@2@@std@@HU?$less@V?$basic_string@DU?$char_traits@D@std@@V?$allocator@D@2@@std@@@2@V?$allocator@H@2@@std@@QBEABV?$basic_string@DU?$char_traits@D@std@@V?$allocator@D@2@@2@ABU?$pair@$$CBV?$basic_string@DU?$char_traits@D@std@@V?$allocator@D@2@@std@@H@2@@Z 0049fef0 f i Script.obj
 0001:0009ef30       ?_Color@?$_Tree@V?$basic_string@DU?$char_traits@D@std@@V?$allocator@D@2@@std@@U?$pair@$$CBV?$basic_string@DU?$char_traits@D@std@@V?$allocator@D@2@@std@@H@2@U_Kfn@?$map@V?$basic_string@DU?$char_traits@D@std@@V?$allocator@D@2@@std@@HU?$less@V?$basic_string@DU?$char_traits@D@std@@V?$allocator@D@2@@std@@@2@V?$allocator@H@2@@2@U?$less@V?$basic_string@DU?$char_traits@D@std@@V?$allocator@D@2@@std@@@2@V?$allocator@H@2@@std@@KAAAW4_Redbl@12@PAU_Node@12@@Z 0049ff30 f i Script.obj
 0001:0009ef60       ?_Left@?$_Tree@V?$basic_string@DU?$char_traits@D@std@@V?$allocator@D@2@@std@@U?$pair@$$CBV?$basic_string@DU?$char_traits@D@std@@V?$allocator@D@2@@std@@H@2@U_Kfn@?$map@V?$basic_string@DU?$char_traits@D@std@@V?$allocator@D@2@@std@@HU?$less@V?$basic_string@DU?$char_traits@D@std@@V?$allocator@D@2@@std@@@2@V?$allocator@H@2@@2@U?$less@V?$basic_string@DU?$char_traits@D@std@@V?$allocator@D@2@@std@@@2@V?$allocator@H@2@@std@@KAAAPAU_Node@12@PAU312@@Z 0049ff60 f i Script.obj
 0001:0009ef90       ?_Parent@?$_Tree@V?$basic_string@DU?$char_traits@D@std@@V?$allocator@D@2@@std@@U?$pair@$$CBV?$basic_string@DU?$char_traits@D@std@@V?$allocator@D@2@@std@@H@2@U_Kfn@?$map@V?$basic_string@DU?$char_traits@D@std@@V?$allocator@D@2@@std@@HU?$less@V?$basic_string@DU?$char_traits@D@std@@V?$allocator@D@2@@std@@@2@V?$allocator@H@2@@2@U?$less@V?$basic_string@DU?$char_traits@D@std@@V?$allocator@D@2@@std@@@2@V?$allocator@H@2@@std@@KAAAPAU_Node@12@PAU312@@Z 0049ff90 f i Script.obj
 0001:0009efc0       ?_Right@?$_Tree@V?$basic_string@DU?$char_traits@D@std@@V?$allocator@D@2@@std@@U?$pair@$$CBV?$basic_string@DU?$char_traits@D@std@@V?$allocator@D@2@@std@@H@2@U_Kfn@?$map@V?$basic_string@DU?$char_traits@D@std@@V?$allocator@D@2@@std@@HU?$less@V?$basic_string@DU?$char_traits@D@std@@V?$allocator@D@2@@std@@@2@V?$allocator@H@2@@2@U?$less@V?$basic_string@DU?$char_traits@D@std@@V?$allocator@D@2@@std@@@2@V?$allocator@H@2@@std@@KAAAPAU_Node@12@PAU312@@Z 0049ffc0 f i Script.obj
 0001:0009eff0       ?_Insert@?$_Tree@V?$basic_string@DU?$char_traits@D@std@@V?$allocator@D@2@@std@@U?$pair@$$CBV?$basic_string@DU?$char_traits@D@std@@V?$allocator@D@2@@std@@H@2@U_Kfn@?$map@V?$basic_string@DU?$char_traits@D@std@@V?$allocator@D@2@@std@@HU?$less@V?$basic_string@DU?$char_traits@D@std@@V?$allocator@D@2@@std@@@2@V?$allocator@H@2@@2@U?$less@V?$basic_string@DU?$char_traits@D@std@@V?$allocator@D@2@@std@@@2@V?$allocator@H@2@@std@@IAE?AViterator@12@PAU_Node@12@0ABU?$pair@$$CBV?$basic_string@DU?$char_traits@D@std@@V?$allocator@D@2@@std@@H@2@@Z 0049fff0 f i Script.obj
 0001:0009f630       ?_Lbound@?$_Tree@V?$basic_string@DU?$char_traits@D@std@@V?$allocator@D@2@@std@@U?$pair@$$CBV?$basic_string@DU?$char_traits@D@std@@V?$allocator@D@2@@std@@H@2@U_Kfn@?$map@V?$basic_string@DU?$char_traits@D@std@@V?$allocator@D@2@@std@@HU?$less@V?$basic_string@DU?$char_traits@D@std@@V?$allocator@D@2@@std@@@2@V?$allocator@H@2@@2@U?$less@V?$basic_string@DU?$char_traits@D@std@@V?$allocator@D@2@@std@@@2@V?$allocator@H@2@@std@@IBEPAU_Node@12@ABV?$basic_string@DU?$char_traits@D@std@@V?$allocator@D@2@@2@@Z 004a0630 f i Script.obj
 0001:0009f770       ?_Lrotate@?$_Tree@V?$basic_string@DU?$char_traits@D@std@@V?$allocator@D@2@@std@@U?$pair@$$CBV?$basic_string@DU?$char_traits@D@std@@V?$allocator@D@2@@std@@H@2@U_Kfn@?$map@V?$basic_string@DU?$char_traits@D@std@@V?$allocator@D@2@@std@@HU?$less@V?$basic_string@DU?$char_traits@D@std@@V?$allocator@D@2@@std@@@2@V?$allocator@H@2@@2@U?$less@V?$basic_string@DU?$char_traits@D@std@@V?$allocator@D@2@@std@@@2@V?$allocator@H@2@@std@@IAEXPAU_Node@12@@Z 004a0770 f i Script.obj
 0001:0009f970       ?_Max@?$_Tree@V?$basic_string@DU?$char_traits@D@std@@V?$allocator@D@2@@std@@U?$pair@$$CBV?$basic_string@DU?$char_traits@D@std@@V?$allocator@D@2@@std@@H@2@U_Kfn@?$map@V?$basic_string@DU?$char_traits@D@std@@V?$allocator@D@2@@std@@HU?$less@V?$basic_string@DU?$char_traits@D@std@@V?$allocator@D@2@@std@@@2@V?$allocator@H@2@@2@U?$less@V?$basic_string@DU?$char_traits@D@std@@V?$allocator@D@2@@std@@@2@V?$allocator@H@2@@std@@KAPAU_Node@12@PAU312@@Z 004a0970 f i Script.obj
 0001:0009fa50       ?_Min@?$_Tree@V?$basic_string@DU?$char_traits@D@std@@V?$allocator@D@2@@std@@U?$pair@$$CBV?$basic_string@DU?$char_traits@D@std@@V?$allocator@D@2@@std@@H@2@U_Kfn@?$map@V?$basic_string@DU?$char_traits@D@std@@V?$allocator@D@2@@std@@HU?$less@V?$basic_string@DU?$char_traits@D@std@@V?$allocator@D@2@@std@@@2@V?$allocator@H@2@@2@U?$less@V?$basic_string@DU?$char_traits@D@std@@V?$allocator@D@2@@std@@@2@V?$allocator@H@2@@std@@KAPAU_Node@12@PAU312@@Z 004a0a50 f i Script.obj
 0001:0009fb30       ?_Rrotate@?$_Tree@V?$basic_string@DU?$char_traits@D@std@@V?$allocator@D@2@@std@@U?$pair@$$CBV?$basic_string@DU?$char_traits@D@std@@V?$allocator@D@2@@std@@H@2@U_Kfn@?$map@V?$basic_string@DU?$char_traits@D@std@@V?$allocator@D@2@@std@@HU?$less@V?$basic_string@DU?$char_traits@D@std@@V?$allocator@D@2@@std@@@2@V?$allocator@H@2@@2@U?$less@V?$basic_string@DU?$char_traits@D@std@@V?$allocator@D@2@@std@@@2@V?$allocator@H@2@@std@@IAEXPAU_Node@12@@Z 004a0b30 f i Script.obj
 0001:0009fd30       ?_Buynode@?$_Tree@V?$basic_string@DU?$char_traits@D@std@@V?$allocator@D@2@@std@@U?$pair@$$CBV?$basic_string@DU?$char_traits@D@std@@V?$allocator@D@2@@std@@H@2@U_Kfn@?$map@V?$basic_string@DU?$char_traits@D@std@@V?$allocator@D@2@@std@@HU?$less@V?$basic_string@DU?$char_traits@D@std@@V?$allocator@D@2@@std@@@2@V?$allocator@H@2@@2@U?$less@V?$basic_string@DU?$char_traits@D@std@@V?$allocator@D@2@@std@@@2@V?$allocator@H@2@@std@@IAEPAU_Node@12@PAU312@W4_Redbl@12@@Z 004a0d30 f i Script.obj
 0001:0009fdb0       ?_Destval@?$_Tree@V?$basic_string@DU?$char_traits@D@std@@V?$allocator@D@2@@std@@U?$pair@$$CBV?$basic_string@DU?$char_traits@D@std@@V?$allocator@D@2@@std@@H@2@U_Kfn@?$map@V?$basic_string@DU?$char_traits@D@std@@V?$allocator@D@2@@std@@HU?$less@V?$basic_string@DU?$char_traits@D@std@@V?$allocator@D@2@@std@@@2@V?$allocator@H@2@@2@U?$less@V?$basic_string@DU?$char_traits@D@std@@V?$allocator@D@2@@std@@@2@V?$allocator@H@2@@std@@IAEXPAU?$pair@$$CBV?$basic_string@DU?$char_traits@D@std@@V?$allocator@D@2@@std@@H@2@@Z 004a0db0 f i Script.obj
 0001:0009fe00       ??0const_iterator@?$_Tree@V?$basic_string@DU?$char_traits@D@std@@V?$allocator@D@2@@std@@U?$pair@$$CBV?$basic_string@DU?$char_traits@D@std@@V?$allocator@D@2@@std@@H@2@U_Kfn@?$map@V?$basic_string@DU?$char_traits@D@std@@V?$allocator@D@2@@std@@HU?$less@V?$basic_string@DU?$char_traits@D@std@@V?$allocator@D@2@@std@@@2@V?$allocator@H@2@@2@U?$less@V?$basic_string@DU?$char_traits@D@std@@V?$allocator@D@2@@std@@@2@V?$allocator@H@2@@std@@QAE@PAU_Node@12@@Z 004a0e00 f i Script.obj
 0001:0009fe40       ??Eiterator@?$_Tree@V?$basic_string@DU?$char_traits@D@std@@V?$allocator@D@2@@std@@U?$pair@$$CBV?$basic_string@DU?$char_traits@D@std@@V?$allocator@D@2@@std@@H@2@U_Kfn@?$map@V?$basic_string@DU?$char_traits@D@std@@V?$allocator@D@2@@std@@HU?$less@V?$basic_string@DU?$char_traits@D@std@@V?$allocator@D@2@@std@@@2@V?$allocator@H@2@@2@U?$less@V?$basic_string@DU?$char_traits@D@std@@V?$allocator@D@2@@std@@@2@V?$allocator@H@2@@std@@QAEAAV012@XZ 004a0e40 f i Script.obj
 0001:0009fe90       ??Fiterator@?$_Tree@V?$basic_string@DU?$char_traits@D@std@@V?$allocator@D@2@@std@@U?$pair@$$CBV?$basic_string@DU?$char_traits@D@std@@V?$allocator@D@2@@std@@H@2@U_Kfn@?$map@V?$basic_string@DU?$char_traits@D@std@@V?$allocator@D@2@@std@@HU?$less@V?$basic_string@DU?$char_traits@D@std@@V?$allocator@D@2@@std@@@2@V?$allocator@H@2@@2@U?$less@V?$basic_string@DU?$char_traits@D@std@@V?$allocator@D@2@@std@@@2@V?$allocator@H@2@@std@@QAEAAV012@XZ 004a0e90 f i Script.obj
 0001:0009fee0       ?_Charalloc@?$allocator@H@std@@QAEPADI@Z 004a0ee0 f i Script.obj
 0001:0009ff30       ?_Root@?$_Tree@V?$basic_string@DU?$char_traits@D@std@@V?$allocator@D@2@@std@@U?$pair@$$CBV?$basic_string@DU?$char_traits@D@std@@V?$allocator@D@2@@std@@H@2@U_Kfn@?$map@V?$basic_string@DU?$char_traits@D@std@@V?$allocator@D@2@@std@@HU?$less@V?$basic_string@DU?$char_traits@D@std@@V?$allocator@D@2@@std@@@2@V?$allocator@H@2@@2@U?$less@V?$basic_string@DU?$char_traits@D@std@@V?$allocator@D@2@@std@@@2@V?$allocator@H@2@@std@@IBEAAPAU_Node@12@XZ 004a0f30 f i Script.obj
 0001:0009ff80       ?_Consval@?$_Tree@V?$basic_string@DU?$char_traits@D@std@@V?$allocator@D@2@@std@@U?$pair@$$CBV?$basic_string@DU?$char_traits@D@std@@V?$allocator@D@2@@std@@H@2@U_Kfn@?$map@V?$basic_string@DU?$char_traits@D@std@@V?$allocator@D@2@@std@@HU?$less@V?$basic_string@DU?$char_traits@D@std@@V?$allocator@D@2@@std@@@2@V?$allocator@H@2@@2@U?$less@V?$basic_string@DU?$char_traits@D@std@@V?$allocator@D@2@@std@@@2@V?$allocator@H@2@@std@@IAEXPAU?$pair@$$CBV?$basic_string@DU?$char_traits@D@std@@V?$allocator@D@2@@std@@H@2@ABU32@@Z 004a0f80 f i Script.obj
 0001:0009ffd0       ?_Dec@const_iterator@?$_Tree@V?$basic_string@DU?$char_traits@D@std@@V?$allocator@D@2@@std@@U?$pair@$$CBV?$basic_string@DU?$char_traits@D@std@@V?$allocator@D@2@@std@@H@2@U_Kfn@?$map@V?$basic_string@DU?$char_traits@D@std@@V?$allocator@D@2@@std@@HU?$less@V?$basic_string@DU?$char_traits@D@std@@V?$allocator@D@2@@std@@@2@V?$allocator@H@2@@2@U?$less@V?$basic_string@DU?$char_traits@D@std@@V?$allocator@D@2@@std@@@2@V?$allocator@H@2@@std@@QAEXXZ 004a0fd0 f i Script.obj
 0001:000a0160       ?_Inc@const_iterator@?$_Tree@V?$basic_string@DU?$char_traits@D@std@@V?$allocator@D@2@@std@@U?$pair@$$CBV?$basic_string@DU?$char_traits@D@std@@V?$allocator@D@2@@std@@H@2@U_Kfn@?$map@V?$basic_string@DU?$char_traits@D@std@@V?$allocator@D@2@@std@@HU?$less@V?$basic_string@DU?$char_traits@D@std@@V?$allocator@D@2@@std@@@2@V?$allocator@H@2@@2@U?$less@V?$basic_string@DU?$char_traits@D@std@@V?$allocator@D@2@@std@@@2@V?$allocator@H@2@@std@@QAEXXZ 004a1160 f i Script.obj
 0001:000a02b0       ?swap@std@@YAXAAW4_Redbl@?$_Tree@V?$basic_string@DU?$char_traits@D@std@@V?$allocator@D@2@@std@@U?$pair@$$CBV?$basic_string@DU?$char_traits@D@std@@V?$allocator@D@2@@std@@H@2@U_Kfn@?$map@V?$basic_string@DU?$char_traits@D@std@@V?$allocator@D@2@@std@@HU?$less@V?$basic_string@DU?$char_traits@D@std@@V?$allocator@D@2@@std@@@2@V?$allocator@H@2@@2@U?$less@V?$basic_string@DU?$char_traits@D@std@@V?$allocator@D@2@@std@@@2@V?$allocator@H@2@@1@0@Z 004a12b0 f i Script.obj
 0001:000a0300       ?_Destroy@std@@YAXPAU?$pair@$$CBV?$basic_string@DU?$char_traits@D@std@@V?$allocator@D@2@@std@@H@1@@Z 004a1300 f i Script.obj
 0001:000a0340       ?_Allocate@std@@YAPADHPAD@Z 004a1340 f i Script.obj
 0001:000a03a0       ?_Construct@std@@YAXPAU?$pair@$$CBV?$basic_string@DU?$char_traits@D@std@@V?$allocator@D@2@@std@@H@1@ABU21@@Z 004a13a0 f i Script.obj
 0001:000a0450       ??2@YAPAXIPAX@Z            004a1450 f i Script.obj
 0001:000a0480       ??3@YAXPAX0@Z              004a1480 f i Script.obj
 0001:000a04b0       ??_G?$pair@$$CBV?$basic_string@DU?$char_traits@D@std@@V?$allocator@D@2@@std@@H@std@@QAEPAXI@Z 004a14b0 f i Script.obj
 0001:000a0520       ??0?$pair@$$CBV?$basic_string@DU?$char_traits@D@std@@V?$allocator@D@2@@std@@H@std@@QAE@ABU01@@Z 004a1520 f i Script.obj
 0001:000a0590       ??0SendStackDebug@@QAE@XZ  004a1590 f   Sendstac.obj
 0001:000a0670       ??0SendStack@@QAE@XZ       004a1670 f i Sendstac.obj
 0001:000a06b0       ??0Entry@SendStack@@QAE@XZ 004a16b0 f i Sendstac.obj
 0001:000a0700       ??1SendStackDebug@@QAE@XZ  004a1700 f   Sendstac.obj
 0001:000a07d0       ?Clear@SendStackDebug@@UAEXXZ 004a17d0 f   Sendstac.obj
 0001:000a0810       ?PushObject@SendStackDebug@@UAEXVObjectID@@@Z 004a1810 f   Sendstac.obj
 0001:000a0880       ?PushSelector@SendStackDebug@@UAEXG@Z 004a1880 f   Sendstac.obj
 0001:000a08e0       ?Pop@SendStackDebug@@UAEXXZ 004a18e0 f   Sendstac.obj
 0001:000a0920       ?Top@SendStackDebug@@UAEPAUEntry@SendStack@@XZ 004a1920 f   Sendstac.obj
 0001:000a0960       ?Toggle@SendStackDebug@@UAEXXZ 004a1960 f   Sendstac.obj
 0001:000a09f0       ?Hide@SendStackDebug@@UAEXXZ 004a19f0 f   Sendstac.obj
 0001:000a0a90       ?Show@SendStackDebug@@UAEXXZ 004a1a90 f   Sendstac.obj
 0001:000a0ea0       ?AddPalShift@@YAHH@Z       004a1ea0 f   Shiftpal.obj
 0001:000a0ef0       ?ShiftPaletteView@@YAXPAE@Z 004a1ef0 f   Shiftpal.obj
 0001:000a0ff0       ?ShiftPalettePic@@YAXPAE@Z 004a1ff0 f   Shiftpal.obj
 0001:000a10a0       ?ShiftPaletteCel@@YAXPAEJ@Z 004a20a0 f   Shiftpal.obj
 0001:000a13c0       ?KSetShowStyle@@YAXPAF@Z   004a23c0 f   Shwstyle.obj
 0001:000a1950       ??CFakeArrayID@@QBEPAUArrayHeader@@XZ 004a2950 f i Shwstyle.obj
 0001:000a19a0       ??0PlaneShowStyle@@QAE@XZ  004a29a0 f i Shwstyle.obj
 0001:000a19e0       ?ProcessEffects@@YAXPAVPlaneShowStyle@@@Z 004a29e0 f   Shwstyle.obj
 0001:000a1b60       ?Bitwidth@@YAHH@Z          004a2b60 f   Shwstyle.obj
 0001:000a1bc0       ?PixelDissolveEffect@@YAXPAVPlaneShowStyle@@@Z 004a2bc0 f   Shwstyle.obj
 0001:000a21b0       ?IrisOutEffect@@YAXPAVPlaneShowStyle@@@Z 004a31b0 f   Shwstyle.obj
 0001:000a2890       ?IrisInEffect@@YAXPAVPlaneShowStyle@@@Z 004a3890 f   Shwstyle.obj
 0001:000a30b0       ?WipeRightEffect@@YAXPAVPlaneShowStyle@@@Z 004a40b0 f   Shwstyle.obj
 0001:000a3630       ?WipeLeftEffect@@YAXPAVPlaneShowStyle@@@Z 004a4630 f   Shwstyle.obj
 0001:000a3bb0       ?WipeDownEffect@@YAXPAVPlaneShowStyle@@@Z 004a4bb0 f   Shwstyle.obj
 0001:000a4130       ?WipeUpEffect@@YAXPAVPlaneShowStyle@@@Z 004a5130 f   Shwstyle.obj
 0001:000a46b0       ?HShutterOutEffect@@YAXPAVPlaneShowStyle@@@Z 004a56b0 f   Shwstyle.obj
 0001:000a4e00       ?HShutterInEffect@@YAXPAVPlaneShowStyle@@@Z 004a5e00 f   Shwstyle.obj
 0001:000a5550       ?VShutterInEffect@@YAXPAVPlaneShowStyle@@@Z 004a6550 f   Shwstyle.obj
 0001:000a5cd0       ?VShutterOutEffect@@YAXPAVPlaneShowStyle@@@Z 004a6cd0 f   Shwstyle.obj
 0001:000a6450       ?KShowStylePercent@@YAXPAF@Z 004a7450 f   Shwstyle.obj
 0001:000a64f0       ?ProcessShowStyles@@YAXXZ  004a74f0 f   Shwstyle.obj
 0001:000a6650       ?ProcessShowStyle@@YAHPAVPlaneShowStyle@@I@Z 004a7650 f   Shwstyle.obj
 0001:000a67e0       ?PalMorph@@YAHPAVPlaneShowStyle@@@Z 004a77e0 f   Shwstyle.obj
 0001:000a6860       ?KSetPalStyleRange@@YAXPAF@Z 004a7860 f   Shwstyle.obj
 0001:000a68d0       ?KSetScroll@@YAXPAF@Z      004a78d0 f   Shwstyle.obj
 0001:000a6d80       ??0PlaneScroll@@QAE@XZ     004a7d80 f i Shwstyle.obj
 0001:000a6dc0       ?AddPic@GraphicsMgr@@QAEHJHAAVSOL_Point@@H@Z 004a7dc0 f i Shwstyle.obj
 0001:000a6e20       ?ProcessScrolls@@YAXXZ     004a7e20 f   Shwstyle.obj
 0001:000a6f20       ?ProcessScroll@@YAHPAVPlaneScroll@@@Z 004a7f20 f   Shwstyle.obj
 0001:000a7090       ?DeletePic@GraphicsMgr@@QAEXJHH@Z 004a8090 f i Shwstyle.obj
 0001:000a70f0       ?ShutDownStyle@@YAPAVPlaneShowStyle@@PAV1@@Z 004a80f0 f   Shwstyle.obj
 0001:000a7220       ?KillStyle@@YAXPAVPlaneShowStyle@@@Z 004a8220 f   Shwstyle.obj
 0001:000a7350       ?Plain@@YAHPAVPlaneShowStyle@@@Z 004a8350 f   Shwstyle.obj
 0001:000a7440       ?Fade@@YAHHPAVPlaneShowStyle@@@Z 004a8440 f   Shwstyle.obj
 0001:000a7640       ??1ScreenItem@@QAE@XZ      004a8640 f   Si.obj
 0001:000a7690       ??0ScreenItem@@QAE@PBV0@@Z 004a8690 f   Si.obj
 0001:000a7820       ??0ScreenItem@@QAE@JABVBitmap@@@Z 004a8820 f   Si.obj
 0001:000a79b0       ??0ScreenItem@@QAE@JABVBitmap@@ABVSOL_Rect@@@Z 004a89b0 f   Si.obj
 0001:000a7b70       ?IsColor@Bitmap@@QBEHXZ    004a8b70 f i Si.obj
 0001:000a7bb0       ??0ScreenItem@@QAE@JABVBitmap@@VSOL_Point@@UScaleInfo@@@Z 004a8bb0 f   Si.obj
 0001:000a7d60       ??0ScreenItem@@QAE@JABVBitmap@@VSOL_Point@@UScaleInfo@@H@Z 004a8d60 f   Si.obj
 0001:000a7ef0       ??0ScreenItem@@QAE@ABVObjectID@@@Z 004a8ef0 f   Si.obj
 0001:000a8410       ?SetMemID@Bitmap@@QAEXABVMemID@@@Z 004a9410 f i Si.obj
 0001:000a8450       ?ClearGraphicsUpdate@Object@@QAEXXZ 004a9450 f i Si.obj
 0001:000a84a0       ??4ScreenItem@@QAEAAV0@ABVObjectID@@@Z 004a94a0 f   Si.obj
 0001:000a8970       ??4ScreenItem@@QAEAAV0@ABV0@@Z 004a9970 f   Si.obj
 0001:000a8a70       ?Update@ScreenItem@@IAEXABVSOL_Plane@@@Z 004a9a70 f   Si.obj
 0001:000a9290       ?IsLargerThanOne@Ratio@@QBEHXZ 004aa290 f i Si.obj
 0001:000a92e0       ??T@YAHHABVRatio@@@Z       004aa2e0 f i Si.obj
 0001:000a9320       ?GetVanish@SOL_Plane@@QBE?AVSOL_Point@@XZ 004aa320 f i Si.obj
 0001:000a9380       ?NowSeen@ScreenItem@@QAEXABVSOL_Plane@@AAVSOL_Rect@@@Z 004aa380 f   Si.obj
 0001:000a98f0       ?GetCelObj@ScreenItem@@QAEXXZ 004aa8f0 f   Si.obj
 0001:000a9bb0       ??0ScreenItemList@@QAE@XZ  004aabb0 f   Silist.obj
 0001:000a9c00       ??1ScreenItemList@@QAE@XZ  004aac00 f   Silist.obj
 0001:000a9ca0       ??_GScreenItem@@QAEPAXI@Z  004aaca0 f i Silist.obj
 0001:000a9d10       ??4ScreenItemList@@QAEABV0@ABV0@@Z 004aad10 f   Silist.obj
 0001:000a9ec0       ?Add@ScreenItemList@@QAEHPAVScreenItem@@@Z 004aaec0 f   Silist.obj
 0001:000a9f80       ?Clear@ScreenItemList@@QAEXXZ 004aaf80 f   Silist.obj
 0001:000aa040       ?Pack@ScreenItemList@@QAEXXZ 004ab040 f   Silist.obj
 0001:000aa100       ?Search@ScreenItemList@@QBEHPBVScreenItem@@@Z 004ab100 f   Silist.obj
 0001:000aa1b0       ?Search@ScreenItemList@@QBEHJ@Z 004ab1b0 f   Silist.obj
 0001:000aa250       ?Delete@ScreenItemList@@QAEXPBVScreenItem@@@Z 004ab250 f   Silist.obj
 0001:000aa300       ?Delete@ScreenItemList@@QAEXH@Z 004ab300 f   Silist.obj
 0001:000aa3e0       ?Sort@ScreenItemList@@QAEXXZ 004ab3e0 f   Silist.obj
 0001:000aa680       ?Unsort@ScreenItemList@@QAEXXZ 004ab680 f   Silist.obj
 0001:000aa7c0       ?sampleDoneCallback@@YGXPAU_SAMPLE@@@Z 004ab7c0 f   Sound.obj
 0001:000aa8c0       ?sequenceDoneCallback@@YGXPAU_SEQUENCE@@@Z 004ab8c0 f   Sound.obj
 0001:000aa9d0       ??0SoundMgr@@QAE@XZ        004ab9d0 f   Sound.obj
 0001:000ab130       ??_ESoundMgr@@UAEPAXI@Z    004ac130 f i Sound.obj
 0001:000ab130       ??_GSoundMgr@@UAEPAXI@Z    004ac130 f i Sound.obj
 0001:000ab1a0       ??1SoundMgr@@UAE@XZ        004ac1a0 f   Sound.obj
 0001:000ab210       ?allocateSndID@SoundMgr@@QAEHXZ 004ac210 f   Sound.obj
 0001:000ab2c0       ?freeSndID@SoundMgr@@QAEXH@Z 004ac2c0 f   Sound.obj
 0001:000ab300       ?play@SoundMgr@@QAEHPADH@Z 004ac300 f   Sound.obj
 0001:000ab670       ?findSfxByID@SoundMgr@@QAEPAXH@Z 004ac670 f   Sound.obj
 0001:000ab700       ?findMIDIByID@SoundMgr@@QAEPAXH@Z 004ac700 f   Sound.obj
 0001:000ab790       ?stop@SoundMgr@@QAEHH@Z    004ac790 f   Sound.obj
 0001:000ab860       ?setPan@SoundMgr@@QAEHHH@Z 004ac860 f   Sound.obj
 0001:000ab8e0       ?setVolume@SoundMgr@@QAEHHH@Z 004ac8e0 f   Sound.obj
 0001:000ab9b0       ?getSfxMasterVolume@SoundMgr@@QAEHXZ 004ac9b0 f   Sound.obj
 0001:000aba20       ?setSfxMasterVolume@SoundMgr@@QAEHH@Z 004aca20 f   Sound.obj
 0001:000aba90       ?getMidiMasterVolume@SoundMgr@@QAEHXZ 004aca90 f   Sound.obj
 0001:000abb00       ?setMidiMasterVolume@SoundMgr@@QAEHH@Z 004acb00 f   Sound.obj
 0001:000abb70       ?setLoopCount@SoundMgr@@QAEHHH@Z 004acb70 f   Sound.obj
 0001:000abc30       ??0SoundResMgr@@QAE@XZ     004acc30 f   Sound.obj
 0001:000abca0       ??_ESoundResMgr@@UAEPAXI@Z 004acca0 f i Sound.obj
 0001:000abca0       ??_GSoundResMgr@@UAEPAXI@Z 004acca0 f i Sound.obj
 0001:000abd10       ??1SoundResMgr@@UAE@XZ     004acd10 f   Sound.obj
 0001:000abd50       ?load@SoundResMgr@@QAEPAXPAD@Z 004acd50 f   Sound.obj
 0001:000ac040       ?unload@SoundResMgr@@QAEXPAX@Z 004ad040 f   Sound.obj
 0001:000ac0e0       ?KSound@@YAXPAF@Z          004ad0e0 f   Sound.obj
 0001:000ac490       ?StrReplace@@YAHPAD0D0@Z   004ad490 f   String.obj
 0001:000ac580       ?KString@@YAXPAF@Z         004ad580 f   String.obj
 0001:000acec0       ?ValidateString@@YAXVMemID@@PADH@Z 004adec0 f i String.obj
 0001:000acf50       ?FilterString@@YAXPAD@Z    004adf50 f   String.obj
 0001:000ad170       ?StrTrim@@YAPADPADHD@Z     004ae170 f   String.obj
 0001:000ad4b0       ?StrTrn@@YAHPAD000@Z       004ae4b0 f   String.obj
 0001:000ad5f0       ?StrTrnExclude@@YAHPAD000@Z 004ae5f0 f   String.obj
 0001:000ad700       ?StrResize@@YAXVTextID@@I@Z 004ae700 f   String.obj
 0001:000ad770       ?Reverse@@YAPADPAD@Z       004ae770 f   String.obj
 0001:000ad810       ?IsPrintable@@YAHPAD@Z     004ae810 f   String.obj
 0001:000ad8a0       ?ToLower@@YAEE@Z           004ae8a0 f   String.obj
 0001:000ad930       ?euroToLower@@YAEE@Z       004ae930 f i String.obj
 0001:000ad970       ?iseuro@@YAHE@Z            004ae970 f i String.obj
 0001:000ad9e0       ?MakeVprintfArgs@@YAPAPADPADPAF@Z 004ae9e0 f   String.obj
 0001:000ade90       ??1?$map@HVCSCI_WorldObject@@U?$less@H@std@@V?$allocator@VCSCI_WorldObject@@@3@@std@@QAE@XZ 004aee90 f i Table.obj
 0001:000adee0       ?Add@CServIDTable@@SAXHVCSCI_WorldObject@@@Z 004aeee0 f   Table.obj
 0001:000adf30       ?Remove@CServIDTable@@SAXH@Z 004aef30 f   Table.obj
 0001:000adf80       ?LookUp@CServIDTable@@SA?AVCSCI_WorldObject@@H@Z 004aef80 f   Table.obj
 0001:000ae030       ?Size@CServIDTable@@SAHXZ  004af030 f   Table.obj
 0001:000ae070       ?KTable@@YAXPAF@Z          004af070 f   Table.obj
 0001:000ae470       ??0?$map@HVCSCI_WorldObject@@U?$less@H@std@@V?$allocator@VCSCI_WorldObject@@@3@@std@@QAE@ABU?$less@H@1@ABV?$allocator@VCSCI_WorldObject@@@1@@Z 004af470 f i Table.obj
 0001:000ae4d0       ?end@?$map@HVCSCI_WorldObject@@U?$less@H@std@@V?$allocator@VCSCI_WorldObject@@@3@@std@@QAE?AViterator@?$_Tree@HU?$pair@$$CBHVCSCI_WorldObject@@@std@@U_Kfn@?$map@HVCSCI_WorldObject@@U?$less@H@std@@V?$allocator@VCSCI_WorldObject@@@3@@2@U?$less@H@2@V?$allocator@VCSCI_WorldObject@@@2@@2@XZ 004af4d0 f i Table.obj
 0001:000ae530       ?size@?$map@HVCSCI_WorldObject@@U?$less@H@std@@V?$allocator@VCSCI_WorldObject@@@3@@std@@QBEIXZ 004af530 f i Table.obj
 0001:000ae580       ??A?$map@HVCSCI_WorldObject@@U?$less@H@std@@V?$allocator@VCSCI_WorldObject@@@3@@std@@QAEAAVCSCI_WorldObject@@ABH@Z 004af580 f i Table.obj
 0001:000ae600       ?erase@?$map@HVCSCI_WorldObject@@U?$less@H@std@@V?$allocator@VCSCI_WorldObject@@@3@@std@@QAEIABH@Z 004af600 f i Table.obj
 0001:000ae650       ?find@?$map@HVCSCI_WorldObject@@U?$less@H@std@@V?$allocator@VCSCI_WorldObject@@@3@@std@@QAE?AViterator@?$_Tree@HU?$pair@$$CBHVCSCI_WorldObject@@@std@@U_Kfn@?$map@HVCSCI_WorldObject@@U?$less@H@std@@V?$allocator@VCSCI_WorldObject@@@3@@2@U?$less@H@2@V?$allocator@VCSCI_WorldObject@@@2@@2@ABH@Z 004af650 f i Table.obj
 0001:000ae6b0       ??1?$_Tree@HU?$pair@$$CBHVCSCI_WorldObject@@@std@@U_Kfn@?$map@HVCSCI_WorldObject@@U?$less@H@std@@V?$allocator@VCSCI_WorldObject@@@3@@2@U?$less@H@2@V?$allocator@VCSCI_WorldObject@@@2@@std@@QAE@XZ 004af6b0 f i Table.obj
 0001:000ae7f0       ??Diterator@?$_Tree@HU?$pair@$$CBHVCSCI_WorldObject@@@std@@U_Kfn@?$map@HVCSCI_WorldObject@@U?$less@H@std@@V?$allocator@VCSCI_WorldObject@@@3@@2@U?$less@H@2@V?$allocator@VCSCI_WorldObject@@@2@@std@@QBEAAU?$pair@$$CBHVCSCI_WorldObject@@@2@XZ 004af7f0 f i Table.obj
 0001:000ae840       ??9iterator@?$_Tree@HU?$pair@$$CBHVCSCI_WorldObject@@@std@@U_Kfn@?$map@HVCSCI_WorldObject@@U?$less@H@std@@V?$allocator@VCSCI_WorldObject@@@3@@2@U?$less@H@2@V?$allocator@VCSCI_WorldObject@@@2@@std@@QBE_NABV012@@Z 004af840 f i Table.obj
 0001:000ae8a0       ?insert@?$map@HVCSCI_WorldObject@@U?$less@H@std@@V?$allocator@VCSCI_WorldObject@@@3@@std@@QAE?AU?$pair@Viterator@?$_Tree@HU?$pair@$$CBHVCSCI_WorldObject@@@std@@U_Kfn@?$map@HVCSCI_WorldObject@@U?$less@H@std@@V?$allocator@VCSCI_WorldObject@@@3@@2@U?$less@H@2@V?$allocator@VCSCI_WorldObject@@@2@@std@@_N@2@ABU?$pair@$$CBHVCSCI_WorldObject@@@2@@Z 004af8a0 f i Table.obj
 0001:000ae930       ?_Value@?$_Tree@HU?$pair@$$CBHVCSCI_WorldObject@@@std@@U_Kfn@?$map@HVCSCI_WorldObject@@U?$less@H@std@@V?$allocator@VCSCI_WorldObject@@@3@@2@U?$less@H@2@V?$allocator@VCSCI_WorldObject@@@2@@std@@KAAAU?$pair@$$CBHVCSCI_WorldObject@@@2@PAU_Node@12@@Z 004af930 f i Table.obj
 0001:000ae960       ??0?$_Tree@HU?$pair@$$CBHVCSCI_WorldObject@@@std@@U_Kfn@?$map@HVCSCI_WorldObject@@U?$less@H@std@@V?$allocator@VCSCI_WorldObject@@@3@@2@U?$less@H@2@V?$allocator@VCSCI_WorldObject@@@2@@std@@QAE@ABU?$less@H@1@_NABV?$allocator@VCSCI_WorldObject@@@1@@Z 004af960 f i Table.obj
 0001:000ae9d0       ?begin@?$_Tree@HU?$pair@$$CBHVCSCI_WorldObject@@@std@@U_Kfn@?$map@HVCSCI_WorldObject@@U?$less@H@std@@V?$allocator@VCSCI_WorldObject@@@3@@2@U?$less@H@2@V?$allocator@VCSCI_WorldObject@@@2@@std@@QAE?AViterator@12@XZ 004af9d0 f i Table.obj
 0001:000aea30       ?end@?$_Tree@HU?$pair@$$CBHVCSCI_WorldObject@@@std@@U_Kfn@?$map@HVCSCI_WorldObject@@U?$less@H@std@@V?$allocator@VCSCI_WorldObject@@@3@@2@U?$less@H@2@V?$allocator@VCSCI_WorldObject@@@2@@std@@QAE?AViterator@12@XZ 004afa30 f i Table.obj
 0001:000aea90       ?size@?$_Tree@HU?$pair@$$CBHVCSCI_WorldObject@@@std@@U_Kfn@?$map@HVCSCI_WorldObject@@U?$less@H@std@@V?$allocator@VCSCI_WorldObject@@@3@@2@U?$less@H@2@V?$allocator@VCSCI_WorldObject@@@2@@std@@QBEIXZ 004afa90 f i Table.obj
 0001:000aead0       ?erase@?$_Tree@HU?$pair@$$CBHVCSCI_WorldObject@@@std@@U_Kfn@?$map@HVCSCI_WorldObject@@U?$less@H@std@@V?$allocator@VCSCI_WorldObject@@@3@@2@U?$less@H@2@V?$allocator@VCSCI_WorldObject@@@2@@std@@QAE?AViterator@12@V312@0@Z 004afad0 f i Table.obj
 0001:000aeca0       ?erase@?$_Tree@HU?$pair@$$CBHVCSCI_WorldObject@@@std@@U_Kfn@?$map@HVCSCI_WorldObject@@U?$less@H@std@@V?$allocator@VCSCI_WorldObject@@@3@@2@U?$less@H@2@V?$allocator@VCSCI_WorldObject@@@2@@std@@QAEIABH@Z 004afca0 f i Table.obj
 0001:000aed40       ?find@?$_Tree@HU?$pair@$$CBHVCSCI_WorldObject@@@std@@U_Kfn@?$map@HVCSCI_WorldObject@@U?$less@H@std@@V?$allocator@VCSCI_WorldObject@@@3@@2@U?$less@H@2@V?$allocator@VCSCI_WorldObject@@@2@@std@@QAE?AViterator@12@ABH@Z 004afd40 f i Table.obj
 0001:000aee30       ?_Freenode@?$_Tree@HU?$pair@$$CBHVCSCI_WorldObject@@@std@@U_Kfn@?$map@HVCSCI_WorldObject@@U?$less@H@std@@V?$allocator@VCSCI_WorldObject@@@3@@2@U?$less@H@2@V?$allocator@VCSCI_WorldObject@@@2@@std@@IAEXPAU_Node@12@@Z 004afe30 f i Table.obj
 0001:000aee80       ??0?$pair@$$CBHVCSCI_WorldObject@@@std@@QAE@ABHABVCSCI_WorldObject@@@Z 004afe80 f i Table.obj
 0001:000aeee0       ??8iterator@?$_Tree@HU?$pair@$$CBHVCSCI_WorldObject@@@std@@U_Kfn@?$map@HVCSCI_WorldObject@@U?$less@H@std@@V?$allocator@VCSCI_WorldObject@@@3@@2@U?$less@H@2@V?$allocator@VCSCI_WorldObject@@@2@@std@@QBE_NABV012@@Z 004afee0 f i Table.obj
 0001:000aef30       ??R?$less@H@std@@QBE_NABH0@Z 004aff30 f i Table.obj
 0001:000aef80       ?deallocate@?$allocator@VCSCI_WorldObject@@@std@@QAEXPAXI@Z 004aff80 f i Table.obj
 0001:000aefd0       ?_Key@?$_Tree@HU?$pair@$$CBHVCSCI_WorldObject@@@std@@U_Kfn@?$map@HVCSCI_WorldObject@@U?$less@H@std@@V?$allocator@VCSCI_WorldObject@@@3@@2@U?$less@H@2@V?$allocator@VCSCI_WorldObject@@@2@@std@@KAABHPAU_Node@12@@Z 004affd0 f i Table.obj
 0001:000af020       ?insert@?$_Tree@HU?$pair@$$CBHVCSCI_WorldObject@@@std@@U_Kfn@?$map@HVCSCI_WorldObject@@U?$less@H@std@@V?$allocator@VCSCI_WorldObject@@@3@@2@U?$less@H@2@V?$allocator@VCSCI_WorldObject@@@2@@std@@QAE?AU?$pair@Viterator@?$_Tree@HU?$pair@$$CBHVCSCI_WorldObject@@@std@@U_Kfn@?$map@HVCSCI_WorldObject@@U?$less@H@std@@V?$allocator@VCSCI_WorldObject@@@3@@2@U?$less@H@2@V?$allocator@VCSCI_WorldObject@@@2@@std@@_N@2@ABU?$pair@$$CBHVCSCI_WorldObject@@@2@@Z 004b0020 f i Table.obj
 0001:000af340       ?erase@?$_Tree@HU?$pair@$$CBHVCSCI_WorldObject@@@std@@U_Kfn@?$map@HVCSCI_WorldObject@@U?$less@H@std@@V?$allocator@VCSCI_WorldObject@@@3@@2@U?$less@H@2@V?$allocator@VCSCI_WorldObject@@@2@@std@@QAE?AViterator@12@V312@@Z 004b0340 f i Table.obj
 0001:000afde0       ?lower_bound@?$_Tree@HU?$pair@$$CBHVCSCI_WorldObject@@@std@@U_Kfn@?$map@HVCSCI_WorldObject@@U?$less@H@std@@V?$allocator@VCSCI_WorldObject@@@3@@2@U?$less@H@2@V?$allocator@VCSCI_WorldObject@@@2@@std@@QAE?AViterator@12@ABH@Z 004b0de0 f i Table.obj
 0001:000afe50       ?equal_range@?$_Tree@HU?$pair@$$CBHVCSCI_WorldObject@@@std@@U_Kfn@?$map@HVCSCI_WorldObject@@U?$less@H@std@@V?$allocator@VCSCI_WorldObject@@@3@@2@U?$less@H@2@V?$allocator@VCSCI_WorldObject@@@2@@std@@QAE?AU?$pair@Viterator@?$_Tree@HU?$pair@$$CBHVCSCI_WorldObject@@@std@@U_Kfn@?$map@HVCSCI_WorldObject@@U?$less@H@std@@V?$allocator@VCSCI_WorldObject@@@3@@2@U?$less@H@2@V?$allocator@VCSCI_WorldObject@@@2@@std@@V123@@2@ABH@Z 004b0e50 f i Table.obj
 0001:000afee0       ?_Erase@?$_Tree@HU?$pair@$$CBHVCSCI_WorldObject@@@std@@U_Kfn@?$map@HVCSCI_WorldObject@@U?$less@H@std@@V?$allocator@VCSCI_WorldObject@@@3@@2@U?$less@H@2@V?$allocator@VCSCI_WorldObject@@@2@@std@@IAEXPAU_Node@12@@Z 004b0ee0 f i Table.obj
 0001:000b0000       ?_Init@?$_Tree@HU?$pair@$$CBHVCSCI_WorldObject@@@std@@U_Kfn@?$map@HVCSCI_WorldObject@@U?$less@H@std@@V?$allocator@VCSCI_WorldObject@@@3@@2@U?$less@H@2@V?$allocator@VCSCI_WorldObject@@@2@@std@@IAEXXZ 004b1000 f i Table.obj
 0001:000b0160       ?_Lmost@?$_Tree@HU?$pair@$$CBHVCSCI_WorldObject@@@std@@U_Kfn@?$map@HVCSCI_WorldObject@@U?$less@H@std@@V?$allocator@VCSCI_WorldObject@@@3@@2@U?$less@H@2@V?$allocator@VCSCI_WorldObject@@@2@@std@@IAEAAPAU_Node@12@XZ 004b1160 f i Table.obj
 0001:000b01b0       ?_Rmost@?$_Tree@HU?$pair@$$CBHVCSCI_WorldObject@@@std@@U_Kfn@?$map@HVCSCI_WorldObject@@U?$less@H@std@@V?$allocator@VCSCI_WorldObject@@@3@@2@U?$less@H@2@V?$allocator@VCSCI_WorldObject@@@2@@std@@IAEAAPAU_Node@12@XZ 004b11b0 f i Table.obj
 0001:000b0200       ?_Root@?$_Tree@HU?$pair@$$CBHVCSCI_WorldObject@@@std@@U_Kfn@?$map@HVCSCI_WorldObject@@U?$less@H@std@@V?$allocator@VCSCI_WorldObject@@@3@@2@U?$less@H@2@V?$allocator@VCSCI_WorldObject@@@2@@std@@IAEAAPAU_Node@12@XZ 004b1200 f i Table.obj
 0001:000b0250       ?_Mynode@const_iterator@?$_Tree@HU?$pair@$$CBHVCSCI_WorldObject@@@std@@U_Kfn@?$map@HVCSCI_WorldObject@@U?$less@H@std@@V?$allocator@VCSCI_WorldObject@@@3@@2@U?$less@H@2@V?$allocator@VCSCI_WorldObject@@@2@@std@@QBEPAU_Node@23@XZ 004b1250 f i Table.obj
 0001:000b0290       ??0iterator@?$_Tree@HU?$pair@$$CBHVCSCI_WorldObject@@@std@@U_Kfn@?$map@HVCSCI_WorldObject@@U?$less@H@std@@V?$allocator@VCSCI_WorldObject@@@3@@2@U?$less@H@2@V?$allocator@VCSCI_WorldObject@@@2@@std@@QAE@PAU_Node@12@@Z 004b1290 f i Table.obj
 0001:000b02e0       ??Eiterator@?$_Tree@HU?$pair@$$CBHVCSCI_WorldObject@@@std@@U_Kfn@?$map@HVCSCI_WorldObject@@U?$less@H@std@@V?$allocator@VCSCI_WorldObject@@@3@@2@U?$less@H@2@V?$allocator@VCSCI_WorldObject@@@2@@std@@QAE?AV012@H@Z 004b12e0 f i Table.obj
 0001:000b0340       ??0?$pair@Viterator@?$_Tree@HU?$pair@$$CBHVCSCI_WorldObject@@@std@@U_Kfn@?$map@HVCSCI_WorldObject@@U?$less@H@std@@V?$allocator@VCSCI_WorldObject@@@3@@2@U?$less@H@2@V?$allocator@VCSCI_WorldObject@@@2@@std@@_N@std@@QAE@ABViterator@?$_Tree@HU?$pair@$$CBHVCSCI_WorldObject@@@std@@U_Kfn@?$map@HVCSCI_WorldObject@@U?$less@H@std@@V?$allocator@VCSCI_WorldObject@@@3@@2@U?$less@H@2@V?$allocator@VCSCI_WorldObject@@@2@@1@AB_N@Z 004b1340 f i Table.obj
 0001:000b0390       ??R_Kfn@?$map@HVCSCI_WorldObject@@U?$less@H@std@@V?$allocator@VCSCI_WorldObject@@@3@@std@@QBEABHABU?$pair@$$CBHVCSCI_WorldObject@@@2@@Z 004b1390 f i Table.obj
 0001:000b03d0       ?_Color@?$_Tree@HU?$pair@$$CBHVCSCI_WorldObject@@@std@@U_Kfn@?$map@HVCSCI_WorldObject@@U?$less@H@std@@V?$allocator@VCSCI_WorldObject@@@3@@2@U?$less@H@2@V?$allocator@VCSCI_WorldObject@@@2@@std@@KAAAW4_Redbl@12@PAU_Node@12@@Z 004b13d0 f i Table.obj
 0001:000b0400       ?_Left@?$_Tree@HU?$pair@$$CBHVCSCI_WorldObject@@@std@@U_Kfn@?$map@HVCSCI_WorldObject@@U?$less@H@std@@V?$allocator@VCSCI_WorldObject@@@3@@2@U?$less@H@2@V?$allocator@VCSCI_WorldObject@@@2@@std@@KAAAPAU_Node@12@PAU312@@Z 004b1400 f i Table.obj
 0001:000b0430       ?_Parent@?$_Tree@HU?$pair@$$CBHVCSCI_WorldObject@@@std@@U_Kfn@?$map@HVCSCI_WorldObject@@U?$less@H@std@@V?$allocator@VCSCI_WorldObject@@@3@@2@U?$less@H@2@V?$allocator@VCSCI_WorldObject@@@2@@std@@KAAAPAU_Node@12@PAU312@@Z 004b1430 f i Table.obj
 0001:000b0460       ?_Right@?$_Tree@HU?$pair@$$CBHVCSCI_WorldObject@@@std@@U_Kfn@?$map@HVCSCI_WorldObject@@U?$less@H@std@@V?$allocator@VCSCI_WorldObject@@@3@@2@U?$less@H@2@V?$allocator@VCSCI_WorldObject@@@2@@std@@KAAAPAU_Node@12@PAU312@@Z 004b1460 f i Table.obj
 0001:000b0490       ?upper_bound@?$_Tree@HU?$pair@$$CBHVCSCI_WorldObject@@@std@@U_Kfn@?$map@HVCSCI_WorldObject@@U?$less@H@std@@V?$allocator@VCSCI_WorldObject@@@3@@2@U?$less@H@2@V?$allocator@VCSCI_WorldObject@@@2@@std@@QAE?AViterator@12@ABH@Z 004b1490 f i Table.obj
 0001:000b0500       ?_Insert@?$_Tree@HU?$pair@$$CBHVCSCI_WorldObject@@@std@@U_Kfn@?$map@HVCSCI_WorldObject@@U?$less@H@std@@V?$allocator@VCSCI_WorldObject@@@3@@2@U?$less@H@2@V?$allocator@VCSCI_WorldObject@@@2@@std@@IAE?AViterator@12@PAU_Node@12@0ABU?$pair@$$CBHVCSCI_WorldObject@@@2@@Z 004b1500 f i Table.obj
 0001:000b0b40       ?_Lbound@?$_Tree@HU?$pair@$$CBHVCSCI_WorldObject@@@std@@U_Kfn@?$map@HVCSCI_WorldObject@@U?$less@H@std@@V?$allocator@VCSCI_WorldObject@@@3@@2@U?$less@H@2@V?$allocator@VCSCI_WorldObject@@@2@@std@@IBEPAU_Node@12@ABH@Z 004b1b40 f i Table.obj
 0001:000b0c80       ?_Lrotate@?$_Tree@HU?$pair@$$CBHVCSCI_WorldObject@@@std@@U_Kfn@?$map@HVCSCI_WorldObject@@U?$less@H@std@@V?$allocator@VCSCI_WorldObject@@@3@@2@U?$less@H@2@V?$allocator@VCSCI_WorldObject@@@2@@std@@IAEXPAU_Node@12@@Z 004b1c80 f i Table.obj
 0001:000b0e80       ?_Max@?$_Tree@HU?$pair@$$CBHVCSCI_WorldObject@@@std@@U_Kfn@?$map@HVCSCI_WorldObject@@U?$less@H@std@@V?$allocator@VCSCI_WorldObject@@@3@@2@U?$less@H@2@V?$allocator@VCSCI_WorldObject@@@2@@std@@KAPAU_Node@12@PAU312@@Z 004b1e80 f i Table.obj
 0001:000b0f60       ?_Min@?$_Tree@HU?$pair@$$CBHVCSCI_WorldObject@@@std@@U_Kfn@?$map@HVCSCI_WorldObject@@U?$less@H@std@@V?$allocator@VCSCI_WorldObject@@@3@@2@U?$less@H@2@V?$allocator@VCSCI_WorldObject@@@2@@std@@KAPAU_Node@12@PAU312@@Z 004b1f60 f i Table.obj
 0001:000b1040       ?_Rrotate@?$_Tree@HU?$pair@$$CBHVCSCI_WorldObject@@@std@@U_Kfn@?$map@HVCSCI_WorldObject@@U?$less@H@std@@V?$allocator@VCSCI_WorldObject@@@3@@2@U?$less@H@2@V?$allocator@VCSCI_WorldObject@@@2@@std@@IAEXPAU_Node@12@@Z 004b2040 f i Table.obj
 0001:000b1240       ?_Buynode@?$_Tree@HU?$pair@$$CBHVCSCI_WorldObject@@@std@@U_Kfn@?$map@HVCSCI_WorldObject@@U?$less@H@std@@V?$allocator@VCSCI_WorldObject@@@3@@2@U?$less@H@2@V?$allocator@VCSCI_WorldObject@@@2@@std@@IAEPAU_Node@12@PAU312@W4_Redbl@12@@Z 004b2240 f i Table.obj
 0001:000b12c0       ?_Destval@?$_Tree@HU?$pair@$$CBHVCSCI_WorldObject@@@std@@U_Kfn@?$map@HVCSCI_WorldObject@@U?$less@H@std@@V?$allocator@VCSCI_WorldObject@@@3@@2@U?$less@H@2@V?$allocator@VCSCI_WorldObject@@@2@@std@@IAEXPAU?$pair@$$CBHVCSCI_WorldObject@@@2@@Z 004b22c0 f i Table.obj
 0001:000b1310       ??0const_iterator@?$_Tree@HU?$pair@$$CBHVCSCI_WorldObject@@@std@@U_Kfn@?$map@HVCSCI_WorldObject@@U?$less@H@std@@V?$allocator@VCSCI_WorldObject@@@3@@2@U?$less@H@2@V?$allocator@VCSCI_WorldObject@@@2@@std@@QAE@PAU_Node@12@@Z 004b2310 f i Table.obj
 0001:000b1350       ??Eiterator@?$_Tree@HU?$pair@$$CBHVCSCI_WorldObject@@@std@@U_Kfn@?$map@HVCSCI_WorldObject@@U?$less@H@std@@V?$allocator@VCSCI_WorldObject@@@3@@2@U?$less@H@2@V?$allocator@VCSCI_WorldObject@@@2@@std@@QAEAAV012@XZ 004b2350 f i Table.obj
 0001:000b13a0       ??Fiterator@?$_Tree@HU?$pair@$$CBHVCSCI_WorldObject@@@std@@U_Kfn@?$map@HVCSCI_WorldObject@@U?$less@H@std@@V?$allocator@VCSCI_WorldObject@@@3@@2@U?$less@H@2@V?$allocator@VCSCI_WorldObject@@@2@@std@@QAEAAV012@XZ 004b23a0 f i Table.obj
 0001:000b13f0       ??0?$pair@Viterator@?$_Tree@HU?$pair@$$CBHVCSCI_WorldObject@@@std@@U_Kfn@?$map@HVCSCI_WorldObject@@U?$less@H@std@@V?$allocator@VCSCI_WorldObject@@@3@@2@U?$less@H@2@V?$allocator@VCSCI_WorldObject@@@2@@std@@V123@@std@@QAE@ABViterator@?$_Tree@HU?$pair@$$CBHVCSCI_WorldObject@@@std@@U_Kfn@?$map@HVCSCI_WorldObject@@U?$less@H@std@@V?$allocator@VCSCI_WorldObject@@@3@@2@U?$less@H@2@V?$allocator@VCSCI_WorldObject@@@2@@1@0@Z 004b23f0 f i Table.obj
 0001:000b1440       ?_Charalloc@?$allocator@VCSCI_WorldObject@@@std@@QAEPADI@Z 004b2440 f i Table.obj
 0001:000b1490       ?_Root@?$_Tree@HU?$pair@$$CBHVCSCI_WorldObject@@@std@@U_Kfn@?$map@HVCSCI_WorldObject@@U?$less@H@std@@V?$allocator@VCSCI_WorldObject@@@3@@2@U?$less@H@2@V?$allocator@VCSCI_WorldObject@@@2@@std@@IBEAAPAU_Node@12@XZ 004b2490 f i Table.obj
 0001:000b14e0       ?_Ubound@?$_Tree@HU?$pair@$$CBHVCSCI_WorldObject@@@std@@U_Kfn@?$map@HVCSCI_WorldObject@@U?$less@H@std@@V?$allocator@VCSCI_WorldObject@@@3@@2@U?$less@H@2@V?$allocator@VCSCI_WorldObject@@@2@@std@@IBEPAU_Node@12@ABH@Z 004b24e0 f i Table.obj
 0001:000b1620       ?_Consval@?$_Tree@HU?$pair@$$CBHVCSCI_WorldObject@@@std@@U_Kfn@?$map@HVCSCI_WorldObject@@U?$less@H@std@@V?$allocator@VCSCI_WorldObject@@@3@@2@U?$less@H@2@V?$allocator@VCSCI_WorldObject@@@2@@std@@IAEXPAU?$pair@$$CBHVCSCI_WorldObject@@@2@ABU32@@Z 004b2620 f i Table.obj
 0001:000b1670       ?_Dec@const_iterator@?$_Tree@HU?$pair@$$CBHVCSCI_WorldObject@@@std@@U_Kfn@?$map@HVCSCI_WorldObject@@U?$less@H@std@@V?$allocator@VCSCI_WorldObject@@@3@@2@U?$less@H@2@V?$allocator@VCSCI_WorldObject@@@2@@std@@QAEXXZ 004b2670 f i Table.obj
 0001:000b1800       ?_Inc@const_iterator@?$_Tree@HU?$pair@$$CBHVCSCI_WorldObject@@@std@@U_Kfn@?$map@HVCSCI_WorldObject@@U?$less@H@std@@V?$allocator@VCSCI_WorldObject@@@3@@2@U?$less@H@2@V?$allocator@VCSCI_WorldObject@@@2@@std@@QAEXXZ 004b2800 f i Table.obj
 0001:000b1950       ?_Distance@std@@YAXViterator@?$_Tree@HU?$pair@$$CBHVCSCI_WorldObject@@@std@@U_Kfn@?$map@HVCSCI_WorldObject@@U?$less@H@std@@V?$allocator@VCSCI_WorldObject@@@3@@2@U?$less@H@2@V?$allocator@VCSCI_WorldObject@@@2@@1@0AAI@Z 004b2950 f i Table.obj
 0001:000b19c0       ?swap@std@@YAXAAW4_Redbl@?$_Tree@HU?$pair@$$CBHVCSCI_WorldObject@@@std@@U_Kfn@?$map@HVCSCI_WorldObject@@U?$less@H@std@@V?$allocator@VCSCI_WorldObject@@@3@@2@U?$less@H@2@V?$allocator@VCSCI_WorldObject@@@2@@1@0@Z 004b29c0 f i Table.obj
 0001:000b1a10       ?_Destroy@std@@YAXPAU?$pair@$$CBHVCSCI_WorldObject@@@1@@Z 004b2a10 f i Table.obj
 0001:000b1a40       ?_Construct@std@@YAXPAU?$pair@$$CBHVCSCI_WorldObject@@@1@ABU21@@Z 004b2a40 f i Table.obj
 0001:000b1af0       ??0?$pair@$$CBHVCSCI_WorldObject@@@std@@QAE@ABU01@@Z 004b2af0 f i Table.obj
 0001:000b1b60       ?_Iter_cat@std@@YA?AUbidirectional_iterator_tag@1@ABU?$iterator@Ubidirectional_iterator_tag@std@@U?$pair@$$CBHVCSCI_WorldObject@@@2@H@1@@Z 004b2b60 f i Table.obj
 0001:000b1ba0       ?_Distance@std@@YAXViterator@?$_Tree@HU?$pair@$$CBHVCSCI_WorldObject@@@std@@U_Kfn@?$map@HVCSCI_WorldObject@@U?$less@H@std@@V?$allocator@VCSCI_WorldObject@@@3@@2@U?$less@H@2@V?$allocator@VCSCI_WorldObject@@@2@@1@0AAIUbidirectional_iterator_tag@1@@Z 004b2ba0 f i Table.obj
 0001:000b1c10       ??0TextID@@QAE@XZ          004b2c10 f   Textid.obj
 0001:000b1c60       ??0TextID@@QAE@ABVMemID@@@Z 004b2c60 f   Textid.obj
 0001:000b1cb0       ??0TextID@@QAE@G@Z         004b2cb0 f   Textid.obj
 0001:000b1d00       ??4TextID@@QAEAAV0@PBD@Z   004b2d00 f   Textid.obj
 0001:000b1db0       ?Add@TextID@@QAEXD@Z       004b2db0 f   Textid.obj
 0001:000b1e10       ?Add@TextID@@QAEXPBD@Z     004b2e10 f   Textid.obj
 0001:000b1e80       ?Add@TextID@@QAEXV1@@Z     004b2e80 f   Textid.obj
 0001:000b1f00       ?AddF@TextID@@QAAXPBDZZ    004b2f00 f   Textid.obj
 0001:000b1fa0       ?AddSize@TextID@@IAEXI@Z   004b2fa0 f   Textid.obj
 0001:000b2040       ?Lock@TextID@@QAEPADXZ     004b3040 f   Textid.obj
 0001:000b2090       ?Snug@TextID@@QAEXXZ       004b3090 f   Textid.obj
 0001:000b2100       ??4StringID@@QAEAAV0@PBD@Z 004b3100 f   Textid.obj
 0001:000b21d0       ?SysTime@TimeMgr@@QAEIH@Z  004b31d0 f   Time.obj
 0001:000b2320       ?KGetTime@@YAXPAF@Z        004b3320 f   Time.obj
 0001:000b23b0       ?KWait@@YAXPAF@Z           004b33b0 f   Time.obj
 0001:000b2480       ??0TimeMgrWin@@QAE@XZ      004b3480 f   Timew.obj
 0001:000b24f0       ?Reset@TimeMgr@@UAEXXZ     004b34f0 f i Timew.obj
 0001:000b2520       ??_ETimeMgrWin@@UAEPAXI@Z  004b3520 f i Timew.obj
 0001:000b2520       ??_GTimeMgrWin@@UAEPAXI@Z  004b3520 f i Timew.obj
 0001:000b2590       ??0TimeMgr@@QAE@XZ         004b3590 f i Timew.obj
 0001:000b25d0       ??_GTimeMgr@@UAEPAXI@Z     004b35d0 f i Timew.obj
 0001:000b25d0       ??_ETimeMgr@@UAEPAXI@Z     004b35d0 f i Timew.obj
 0001:000b2640       ??1TimeMgr@@UAE@XZ         004b3640 f i Timew.obj
 0001:000b2680       ??1TimeMgrWin@@UAE@XZ      004b3680 f   Timew.obj
 0001:000b26d0       ?GetTickCount@TimeMgrWin@@UAEKXZ 004b36d0 f   Timew.obj
 0001:000b2740       ?SetTickCount@TimeMgrWin@@UAEXK@Z 004b3740 f   Timew.obj
 0001:000b2790       ?GetMilliSec@TimeMgrWin@@UAEKXZ 004b3790 f   Timew.obj
 0001:000b27e0       ?EnableTimer@TimeMgrWin@@QAEXXZ 004b37e0 f   Timew.obj
 0001:000b28a0       ?DisableTimer@TimeMgrWin@@QAEXXZ 004b38a0 f   Timew.obj
 0001:000b2940       ?SetCheckTime@TimeMgrWin@@QAEXHPAH@Z 004b3940 f   Timew.obj
 0001:000b2970       ?GetVocabStr@@YAHHHPAD@Z   004b3970 f   Vocab.obj
 0001:000b2a80       ?KWinDLL@@YAXPAF@Z         004b3a80 f   Windll.obj
 0001:000b2ab0       ?Get@ScrollWindowID@@QAEXAAVSOL_Rect@@VSOL_Point@@HGGGFFH@Z 004b3ab0 f   Window.obj
 0001:000b2b90       ?Get@FakeScrollWindowID@@QAEXIIIPAUMemClient@@DW4ReservedHandle@@@Z 004b3b90 f i Window.obj
 0001:000b2c00       ?Free@ScrollWindowID@@QAEXXZ 004b3c00 f   Window.obj
 0001:000b2c80       ??DFakeScrollWindowID@@QBEPAVSCIScrollWindow@@XZ 004b3c80 f i Window.obj
 0001:000b2cd0       ??0SOL_Window@@QAE@AAVSOL_Rect@@VSOL_Point@@HPADGGGFF2GGGH@Z 004b3cd0 f   Window.obj
 0001:000b3310       ??_ESOL_Window@@UAEPAXI@Z  004b4310 f i Window.obj
 0001:000b3310       ??_GSOL_Window@@UAEPAXI@Z  004b4310 f i Window.obj
 0001:000b3380       ??0SOL_Window@@QAE@AAVSOL_Rect@@VSOL_Point@@HPADGGGFFH@Z 004b4380 f   Window.obj
 0001:000b38c0       ??1SOL_Window@@UAE@XZ      004b48c0 f   Window.obj
 0001:000b3a10       ?Show@SOL_Window@@UAEXXZ   004b4a10 f   Window.obj
 0001:000b3bd0       ?PageUp@SOL_Window@@UAEXXZ 004b4bd0 f   Window.obj
 0001:000b3cd0       ?PageDown@SOL_Window@@UAEXXZ 004b4cd0 f   Window.obj
 0001:000b3db0       ?Home@SOL_Window@@UAEXXZ   004b4db0 f   Window.obj
 0001:000b3e70       ?End@SOL_Window@@UAEXXZ    004b4e70 f   Window.obj
 0001:000b3f50       ?UpArrow@SOL_Window@@UAEXXZ 004b4f50 f   Window.obj
 0001:000b41d0       ?SetColor@FontMgr@@QAEXH@Z 004b51d0 f i Window.obj
 0001:000b4210       ?SetMode@FontMgr@@QAEXH@Z  004b5210 f i Window.obj
 0001:000b4250       ?DownArrow@SOL_Window@@UAEXXZ 004b5250 f   Window.obj
 0001:000b4520       ?BackAWord@SOL_Window@@IAEHXZ 004b5520 f   Window.obj
 0001:000b4670       ?ForwardAWord@SOL_Window@@IAEHXZ 004b5670 f   Window.obj
 0001:000b4790       ?ReDrawText@SOL_Window@@UAEXXZ 004b5790 f   Window.obj
 0001:000b4920       ?Hide@SOL_Window@@UAEXXZ   004b5920 f   Window.obj
 0001:000b49e0       ?Move@SOL_Window@@UAEXVSOL_Point@@@Z 004b59e0 f   Window.obj
 0001:000b4a90       ?ResizeWindow@SOL_Window@@UAEXAAVSOL_Rect@@@Z 004b5a90 f   Window.obj
 0001:000b4e50       ?SetText@SOL_Window@@UAEXPADHH@Z 004b5e50 f   Window.obj
 0001:000b5230       ?GetFont@FontMgr@@QBEHXZ   004b6230 f i Window.obj
 0001:000b5270       ?GetLineIndices@SOL_Window@@MAEXXZ 004b6270 f   Window.obj
 0001:000b59f0       ??1EventWindow@@UAE@XZ     004b69f0 f   Window.obj
 0001:000b5aa0       ?HandleEvent@EventWindow@@QAEHAAVSOL_Event@@@Z 004b6aa0 f   Window.obj
 0001:000b6030       ?Hide@EventWindow@@UAEXXZ  004b7030 f   Window.obj
 0001:000b60f0       ?Move@EventWindow@@UAEXVSOL_Point@@@Z 004b70f0 f   Window.obj
 0001:000b61e0       ?ResizeWindow@EventWindow@@UAEXAAVSOL_Rect@@@Z 004b71e0 f   Window.obj
 0001:000b6260       ?Show@EventWindow@@UAEXXZ  004b7260 f   Window.obj
 0001:000b63b0       ??0SCIScrollWindow@@QAE@AAVSOL_Rect@@VSOL_Point@@HGGGFFH@Z 004b73b0 f   Window.obj
 0001:000b65c0       ??0ScrollEntryID@@QAE@XZ   004b75c0 f i Window.obj
 0001:000b6610       ??0FakeScrollEntryID@@QAE@XZ 004b7610 f i Window.obj
 0001:000b6660       ?Get@ScrollEntryID@@QAEXIIIPAUMemClient@@DW4ReservedHandle@@@Z 004b7660 f i Window.obj
 0001:000b66d0       ?Get@FakeScrollEntryID@@QAEXIIIPAUMemClient@@DW4ReservedHandle@@@Z 004b76d0 f i Window.obj
 0001:000b6740       ??AScrollEntryID@@QBEAAUScrollEntry@@I@Z 004b7740 f i Window.obj
 0001:000b6790       ??_GSCIScrollWindow@@UAEPAXI@Z 004b7790 f i Window.obj
 0001:000b6790       ??_ESCIScrollWindow@@UAEPAXI@Z 004b7790 f i Window.obj
 0001:000b6800       ??1SCIScrollWindow@@UAE@XZ 004b7800 f   Window.obj
 0001:000b68f0       ?Add@SCIScrollWindow@@QAE?AVTextID@@V2@HHHH@Z 004b78f0 f   Window.obj
 0001:000b6c10       ?Delete@SCIScrollWindow@@QAEXVTextID@@@Z 004b7c10 f   Window.obj
 0001:000b7000       ?Clear@SCIScrollWindow@@QAEXXZ 004b8000 f   Window.obj
 0001:000b70c0       ?CopyEntries@SCIScrollWindow@@QAE?AVScrollEntryID@@XZ 004b80c0 f   Window.obj
 0001:000b7300       ??0ScrollEntryID@@QAE@ABV0@@Z 004b8300 f i Window.obj
 0001:000b7350       ??0FakeScrollEntryID@@QAE@ABVMemID@@@Z 004b8350 f i Window.obj
 0001:000b73a0       ?Reconstruct@SCIScrollWindow@@QAEXVScrollEntryID@@@Z 004b83a0 f   Window.obj
 0001:000b7510       ?Go@SCIScrollWindow@@QAEXHH@Z 004b8510 f   Window.obj
 0001:000b7630       ?Where@SCIScrollWindow@@QAEHH@Z 004b8630 f   Window.obj
 0001:000b7690       ?Insert@SCIScrollWindow@@QAE?AVTextID@@V2@0HHH@Z 004b8690 f   Window.obj
 0001:000b7c30       ?Modify@SCIScrollWindow@@QAE?AVTextID@@V2@0HHHH@Z 004b8c30 f   Window.obj
 0001:000b7f90       ?Get@SCIScrollWindow@@QAE?AVTextID@@H@Z 004b8f90 f   Window.obj
 0001:000b8030       ?Which@SCIScrollWindow@@QAEHVTextID@@@Z 004b9030 f   Window.obj
 0001:000b80d0       ?DebugWindow@@YAPAVEventWindow@@PAD0HAAVSOL_Point@@HPAH@Z 004b90d0 f   Window.obj
 0001:000b8590       ??0EventWindow@@QAE@AAVSOL_Rect@@PADGGGF1GGGH@Z 004b9590 f i Window.obj
 0001:000b86a0       ?WaitOnUser@@YAHPAVEventWindow@@@Z 004b96a0 f   Window.obj
 0001:000b87b0       ?KSCIScrollWindow@@YAXPAF@Z 004b97b0 f   Window.obj
 0001:000b9420       ??0ScrollEntryID@@QAE@G@Z  004ba420 f i Window.obj
 0001:000b9470       ??0FakeScrollEntryID@@QAE@G@Z 004ba470 f i Window.obj
 0001:000b94c0       ??CFakeScrollWindowID@@QBEPAVSCIScrollWindow@@XZ 004ba4c0 f i Window.obj
 0001:000b9510       ??0ScrollWindowID@@QAE@XZ  004ba510 f i Window.obj
 0001:000b9560       ??0FakeScrollWindowID@@QAE@XZ 004ba560 f i Window.obj
 0001:000b95b0       ??0ScrollWindowID@@QAE@G@Z 004ba5b0 f i Window.obj
 0001:000b9600       ??0FakeScrollWindowID@@QAE@G@Z 004ba600 f i Window.obj
 0001:000b9650       ?CenterXWindow@@YAPAVEventWindow@@PAD0HHH@Z 004ba650 f   Window.obj
 0001:000b96d0       ?PaletteWindow@@YAXXZ      004ba6d0 f   Window.obj
 0001:000b9d40       ?MemoryWindow@@YAXXZ       004bad40 f   Window.obj
 0001:000ba2b0       ?KWinHelp@@YAXPAF@Z        004bb2b0 f   Winfuncs.obj
 0001:000ba420       ?KMessageBox@@YAXPAF@Z     004bb420 f   Winfuncs.obj
 0001:000ba4c0       ?InitThunk@@YAXXZ          004bb4c0 f   Winthunk.obj
 0001:000ba4f0       ?EndThunk@@YAXXZ           004bb4f0 f   Winthunk.obj
 0001:000ba520       ??0OCArray@@QAE@H@Z        004bb520 f   arrayC.obj
 0001:000ba5a0       ??0OCArray@@QAE@XZ         004bb5a0 f   arrayC.obj
 0001:000ba620       ??1OCArray@@QAE@XZ         004bb620 f   arrayC.obj
 0001:000ba6c0       ?Grow@OCArray@@IAEXH@Z     004bb6c0 f   arrayC.obj
 0001:000ba7a0       ??0CPurchaseItem@@QAE@XZ   004bb7a0 f   BuyDlg.obj
 0001:000ba8a0       ??_GCPurchaseItem@@UAEPAXI@Z 004bb8a0 f i BuyDlg.obj
 0001:000ba8a0       ??_ECPurchaseItem@@UAEPAXI@Z 004bb8a0 f i BuyDlg.obj
 0001:000ba910       ??0CPurchaseItem@@IAE@PAV0@0@Z 004bb910 f   BuyDlg.obj
 0001:000baa10       ??1CPurchaseItem@@UAE@XZ   004bba10 f   BuyDlg.obj
 0001:000bab50       ?AddSibling@CPurchaseItem@@IAEPAV1@PAV1@@Z 004bbb50 f   BuyDlg.obj
 0001:000bac50       ?AddSibling@CPurchaseItem@@IAEPAV1@PAV1@0@Z 004bbc50 f   BuyDlg.obj
 0001:000bad50       ?AddChild@CPurchaseItem@@IAEPAV1@PAV1@@Z 004bbd50 f   BuyDlg.obj
 0001:000bae50       ?AddTo@CPurchaseItem@@QAEXPAVCSkinListCtrl@@@Z 004bbe50 f   BuyDlg.obj
 0001:000baf40       ?AddToPurchase@CPurchaseItem@@QAEHPAVCSkinListCtrl@@H@Z 004bbf40 f   BuyDlg.obj
 0001:000bb110       ?RemoveFromPurchase@CPurchaseItem@@QAEHPAVCSkinListCtrl@@H@Z 004bc110 f   BuyDlg.obj
 0001:000bb290       ?GoBack@CPurchaseItem@@QAEXPAVCSkinListCtrl@@@Z 004bc290 f   BuyDlg.obj
 0001:000bb3a0       ?AddItem@CPurchaseItem@@IAEXXZ 004bc3a0 f   BuyDlg.obj
 0001:000bb540       ?ReadData@CPurchaseItem@@SAPAV1@PAVPackedData@@AAH@Z 004bc540 f   BuyDlg.obj
 0001:000bb6e0       ?Click@CPurchaseItem@@QAE_NPAVCSkinListCtrl@@@Z 004bc6e0 f   BuyDlg.obj
 0001:000bb750       ?Purchase@CPurchaseItem@@QAE_NPAVCPackedData@@@Z 004bc750 f   BuyDlg.obj
 0001:000bb840       ?SetWeight@CPurchaseItem@@QAEXXZ 004bc840 f   BuyDlg.obj
 0001:000bb8d0       ?_GetBaseMessageMap@CBuyDlg@@KGPBUAFX_MSGMAP@@XZ 004bc8d0 f   BuyDlg.obj
 0001:000bb900       ?GetMessageMap@CBuyDlg@@MBEPBUAFX_MSGMAP@@XZ 004bc900 f   BuyDlg.obj
 0001:000bb940       ??0CBuyDlg@@QAE@VCSCI_Object@@@Z 004bc940 f   BuyDlg.obj
 0001:000bba80       ??_GCBuyDlg@@UAEPAXI@Z     004bca80 f i BuyDlg.obj
 0001:000bba80       ??_ECBuyDlg@@UAEPAXI@Z     004bca80 f i BuyDlg.obj
 0001:000bbaf0       ??1CBuyDlg@@UAE@XZ         004bcaf0 f i BuyDlg.obj
 0001:000bbba0       ?Create@CBuyDlg@@QAEHVCSCI_Object@@@Z 004bcba0 f   BuyDlg.obj
 0001:000bc180       ?OnSetFocus@CBuyDlg@@QAEXPAVCWnd@@@Z 004bd180 f   BuyDlg.obj
 0001:000bc1e0       ?MakeSkinCtrl@CBuyDlg@@UAEPAVCSkinCtrl@@VCSkinObj@@@Z 004bd1e0 f   BuyDlg.obj
 0001:000bcd00       ??0CPurchaseBtn@@QAE@VCSkinObj@@PAVCSkinWnd@@@Z 004bdd00 f i BuyDlg.obj
 0001:000bcdc0       ?OnActivate@CPurchaseBtn@@UAEXFF@Z 004bddc0 f i BuyDlg.obj
 0001:000bce10       ??_GCPurchaseBtn@@UAEPAXI@Z 004bde10 f i BuyDlg.obj
 0001:000bce10       ??_ECPurchaseBtn@@UAEPAXI@Z 004bde10 f i BuyDlg.obj
 0001:000bce80       ??1CPurchaseBtn@@UAE@XZ    004bde80 f i BuyDlg.obj
 0001:000bced0       ??0CSaleListCtrl@@QAE@XZ   004bded0 f i BuyDlg.obj
 0001:000bcf50       ?OnItemActivate@CSaleListCtrl@@UAEXH_N@Z 004bdf50 f i BuyDlg.obj
 0001:000bcfb0       ??_GCSaleListCtrl@@UAEPAXI@Z 004bdfb0 f i BuyDlg.obj
 0001:000bcfb0       ??_ECSaleListCtrl@@UAEPAXI@Z 004bdfb0 f i BuyDlg.obj
 0001:000bd020       ??1CSaleListCtrl@@UAE@XZ   004be020 f i BuyDlg.obj
 0001:000bd0a0       ??0CPurchaseListCtrl@@QAE@XZ 004be0a0 f i BuyDlg.obj
 0001:000bd120       ?OnItemActivate@CPurchaseListCtrl@@UAEXH_N@Z 004be120 f i BuyDlg.obj
 0001:000bd190       ??_GCPurchaseListCtrl@@UAEPAXI@Z 004be190 f i BuyDlg.obj
 0001:000bd190       ??_ECPurchaseListCtrl@@UAEPAXI@Z 004be190 f i BuyDlg.obj
 0001:000bd200       ??1CPurchaseListCtrl@@UAE@XZ 004be200 f i BuyDlg.obj
 0001:000bd280       ?CloseSelf@CBuyDlg@@UAEX_N@Z 004be280 f   BuyDlg.obj
 0001:000bd340       ?HandleVerb@CBuyDlg@@QAEHHPAVCPurchaseItem@@@Z 004be340 f   BuyDlg.obj
 0001:000bd930       ?HandleMsg@CBuyDlg@@SAXVCSCI_NetMsg@@@Z 004be930 f   BuyDlg.obj
 0001:000bde60       ?OnSale@CBuyDlg@@QAEXPAVCPurchaseItem@@_N@Z 004bee60 f   BuyDlg.obj
 0001:000bdfd0       ?OnPurchase@CBuyDlg@@QAEXPAVCPurchaseItem@@H_N@Z 004befd0 f   BuyDlg.obj
 0001:000be250       ?PurchaseMass@CBuyDlg@@QAEXPAVCPurchaseItem@@H@Z 004bf250 f   BuyDlg.obj
 0001:000be450       ?BuyIT@CBuyDlg@@QAEXXZ     004bf450 f   BuyDlg.obj
 0001:000be550       ?AddToBuy@CBuyDlg@@QAEXPAVCPurchaseItem@@@Z 004bf550 f   BuyDlg.obj
 0001:000bea10       ??0CBuyVerbs@@QAE@XZ       004bfa10 f   BuyDlg.obj
 0001:000bea80       ??_ECBuyVerbs@@UAEPAXI@Z   004bfa80 f i BuyDlg.obj
 0001:000bea80       ??_GCBuyVerbs@@UAEPAXI@Z   004bfa80 f i BuyDlg.obj
 0001:000beaf0       ??1CBuyVerbs@@UAE@XZ       004bfaf0 f   BuyDlg.obj
 0001:000beb40       ??1CVerbDialog@@UAE@XZ     004bfb40 f i BuyDlg.obj
 0001:000bec10       ??1?$map@HPAVCVerb@@U?$less@H@std@@V?$allocator@PAVCVerb@@@3@@std@@QAE@XZ 004bfc10 f i BuyDlg.obj
 0001:000bec60       ??1?$map@HPAVCVerbBtn@@U?$less@H@std@@V?$allocator@PAVCVerbBtn@@@3@@std@@QAE@XZ 004bfc60 f i BuyDlg.obj
 0001:000becb0       ?Create@CBuyVerbs@@UAEHPAVCPurchaseItem@@_N@Z 004bfcb0 f   BuyDlg.obj
 0001:000bedc0       ?Press@CBuyVerbs@@UAEXH@Z  004bfdc0 f   BuyDlg.obj
 0001:000beeb0       ?_GetBaseMessageMap@CBuyLookAtItem@@KGPBUAFX_MSGMAP@@XZ 004bfeb0 f   BuyDlg.obj
 0001:000beee0       ?GetMessageMap@CBuyLookAtItem@@MBEPBUAFX_MSGMAP@@XZ 004bfee0 f   BuyDlg.obj
 0001:000bef20       ??0CBuyLookAtItem@@QAE@XZ  004bff20 f   BuyDlg.obj
 0001:000bf000       ??_GCBuyLookAtItem@@UAEPAXI@Z 004c0000 f i BuyDlg.obj
 0001:000bf000       ??_ECBuyLookAtItem@@UAEPAXI@Z 004c0000 f i BuyDlg.obj
 0001:000bf070       ??1CBuyLookAtItem@@UAE@XZ  004c0070 f i BuyDlg.obj
 0001:000bf0c0       ?CloseSelf@CBuyLookAtItem@@UAEX_N@Z 004c00c0 f   BuyDlg.obj
 0001:000bf120       ?Create@CBuyLookAtItem@@QAEHPAVCPurchaseItem@@PAD@Z 004c0120 f   BuyDlg.obj
 0001:000bf5b0       ?MakeSkinCtrl@CBuyLookAtItem@@UAEPAVCSkinCtrl@@VCSkinObj@@@Z 004c05b0 f   BuyDlg.obj
 0001:000bf7e0       ?OnResize@CBuyLookAtItem@@QAEXPAUtagNMHDR@@PAJ@Z 004c07e0 f   BuyDlg.obj
 0001:000bf8d0       ?_GetBaseMessageMap@CBuyQuantityDlg@@KGPBUAFX_MSGMAP@@XZ 004c08d0 f   BuyDlg.obj
 0001:000bf900       ?GetMessageMap@CBuyQuantityDlg@@MBEPBUAFX_MSGMAP@@XZ 004c0900 f   BuyDlg.obj
 0001:000bf940       ??0CBuyQuantityDlg@@QAE@XZ 004c0940 f   BuyDlg.obj
 0001:000bf9b0       ??_ECBuyQuantityDlg@@UAEPAXI@Z 004c09b0 f i BuyDlg.obj
 0001:000bf9b0       ??_GCBuyQuantityDlg@@UAEPAXI@Z 004c09b0 f i BuyDlg.obj
 0001:000bfa20       ??1CBuyQuantityDlg@@UAE@XZ 004c0a20 f i BuyDlg.obj
 0001:000bfa70       ?CloseSelf@CBuyQuantityDlg@@UAEX_N@Z 004c0a70 f   BuyDlg.obj
 0001:000bfc40       ?Create@CBuyQuantityDlg@@QAEHPAVCPurchaseItem@@PAVCBuyDlg@@H@Z 004c0c40 f   BuyDlg.obj
 0001:000bfdd0       ?MakeSkinCtrl@CBuyQuantityDlg@@UAEPAVCSkinCtrl@@VCSkinObj@@@Z 004c0dd0 f   BuyDlg.obj
 0001:000c00f0       ?Max@CBuyQuantityDlg@@QAEXXZ 004c10f0 f   BuyDlg.obj
 0001:000c0180       ?OnSetFocus@CBuyQuantityDlg@@QAEXPAVCWnd@@@Z 004c1180 f   BuyDlg.obj
 0001:000c01f0       ??0CMaxBtn@@QAE@VCSkinObj@@PAVCSkinWnd@@@Z 004c11f0 f   BuyDlg.obj
 0001:000c02b0       ??_GCMaxBtn@@UAEPAXI@Z     004c12b0 f i BuyDlg.obj
 0001:000c02b0       ??_ECMaxBtn@@UAEPAXI@Z     004c12b0 f i BuyDlg.obj
 0001:000c0320       ??1CMaxBtn@@UAE@XZ         004c1320 f i BuyDlg.obj
 0001:000c0370       ?OnActivate@CMaxBtn@@UAEXFF@Z 004c1370 f   BuyDlg.obj
 0001:000c03d0       ??1?$_Tree@HU?$pair@$$CBHPAVCVerb@@@std@@U_Kfn@?$map@HPAVCVerb@@U?$less@H@std@@V?$allocator@PAVCVerb@@@3@@2@U?$less@H@2@V?$allocator@PAVCVerb@@@2@@std@@QAE@XZ 004c13d0 f i BuyDlg.obj
 0001:000c0510       ??1?$vector@PAVCVerbBtn@@V?$allocator@PAVCVerbBtn@@@std@@@std@@QAE@XZ 004c1510 f i BuyDlg.obj
 0001:000c05c0       ??1?$_Tree@HU?$pair@$$CBHPAVCVerbBtn@@@std@@U_Kfn@?$map@HPAVCVerbBtn@@U?$less@H@std@@V?$allocator@PAVCVerbBtn@@@3@@2@U?$less@H@2@V?$allocator@PAVCVerbBtn@@@2@@std@@QAE@XZ 004c15c0 f i BuyDlg.obj
 0001:000c0700       ?begin@?$_Tree@HU?$pair@$$CBHPAVCVerb@@@std@@U_Kfn@?$map@HPAVCVerb@@U?$less@H@std@@V?$allocator@PAVCVerb@@@3@@2@U?$less@H@2@V?$allocator@PAVCVerb@@@2@@std@@QAE?AViterator@12@XZ 004c1700 f i BuyDlg.obj
 0001:000c0760       ?end@?$_Tree@HU?$pair@$$CBHPAVCVerb@@@std@@U_Kfn@?$map@HPAVCVerb@@U?$less@H@std@@V?$allocator@PAVCVerb@@@3@@2@U?$less@H@2@V?$allocator@PAVCVerb@@@2@@std@@QAE?AViterator@12@XZ 004c1760 f i BuyDlg.obj
 0001:000c07c0       ?erase@?$_Tree@HU?$pair@$$CBHPAVCVerb@@@std@@U_Kfn@?$map@HPAVCVerb@@U?$less@H@std@@V?$allocator@PAVCVerb@@@3@@2@U?$less@H@2@V?$allocator@PAVCVerb@@@2@@std@@QAE?AViterator@12@V312@0@Z 004c17c0 f i BuyDlg.obj
 0001:000c0990       ?_Freenode@?$_Tree@HU?$pair@$$CBHPAVCVerb@@@std@@U_Kfn@?$map@HPAVCVerb@@U?$less@H@std@@V?$allocator@PAVCVerb@@@3@@2@U?$less@H@2@V?$allocator@PAVCVerb@@@2@@std@@IAEXPAU_Node@12@@Z 004c1990 f i BuyDlg.obj
 0001:000c09e0       ?_Destroy@?$vector@PAVCVerbBtn@@V?$allocator@PAVCVerbBtn@@@std@@@std@@IAEXPAPAVCVerbBtn@@0@Z 004c19e0 f i BuyDlg.obj
 0001:000c0a50       ?deallocate@?$allocator@PAVCVerbBtn@@@std@@QAEXPAXI@Z 004c1a50 f i BuyDlg.obj
 0001:000c0aa0       ?begin@?$_Tree@HU?$pair@$$CBHPAVCVerbBtn@@@std@@U_Kfn@?$map@HPAVCVerbBtn@@U?$less@H@std@@V?$allocator@PAVCVerbBtn@@@3@@2@U?$less@H@2@V?$allocator@PAVCVerbBtn@@@2@@std@@QAE?AViterator@12@XZ 004c1aa0 f i BuyDlg.obj
 0001:000c0b00       ?end@?$_Tree@HU?$pair@$$CBHPAVCVerbBtn@@@std@@U_Kfn@?$map@HPAVCVerbBtn@@U?$less@H@std@@V?$allocator@PAVCVerbBtn@@@3@@2@U?$less@H@2@V?$allocator@PAVCVerbBtn@@@2@@std@@QAE?AViterator@12@XZ 004c1b00 f i BuyDlg.obj
 0001:000c0b60       ?erase@?$_Tree@HU?$pair@$$CBHPAVCVerbBtn@@@std@@U_Kfn@?$map@HPAVCVerbBtn@@U?$less@H@std@@V?$allocator@PAVCVerbBtn@@@3@@2@U?$less@H@2@V?$allocator@PAVCVerbBtn@@@2@@std@@QAE?AViterator@12@V312@0@Z 004c1b60 f i BuyDlg.obj
 0001:000c0d30       ?_Freenode@?$_Tree@HU?$pair@$$CBHPAVCVerbBtn@@@std@@U_Kfn@?$map@HPAVCVerbBtn@@U?$less@H@std@@V?$allocator@PAVCVerbBtn@@@3@@2@U?$less@H@2@V?$allocator@PAVCVerbBtn@@@2@@std@@IAEXPAU_Node@12@@Z 004c1d30 f i BuyDlg.obj
 0001:000c0d80       ?deallocate@?$allocator@PAVCVerb@@@std@@QAEXPAXI@Z 004c1d80 f i BuyDlg.obj
 0001:000c0dd0       ?size@?$_Tree@HU?$pair@$$CBHPAVCVerb@@@std@@U_Kfn@?$map@HPAVCVerb@@U?$less@H@std@@V?$allocator@PAVCVerb@@@3@@2@U?$less@H@2@V?$allocator@PAVCVerb@@@2@@std@@QBEIXZ 004c1dd0 f i BuyDlg.obj
 0001:000c0e10       ?erase@?$_Tree@HU?$pair@$$CBHPAVCVerb@@@std@@U_Kfn@?$map@HPAVCVerb@@U?$less@H@std@@V?$allocator@PAVCVerb@@@3@@2@U?$less@H@2@V?$allocator@PAVCVerb@@@2@@std@@QAE?AViterator@12@V312@@Z 004c1e10 f i BuyDlg.obj
 0001:000c18b0       ?_Erase@?$_Tree@HU?$pair@$$CBHPAVCVerb@@@std@@U_Kfn@?$map@HPAVCVerb@@U?$less@H@std@@V?$allocator@PAVCVerb@@@3@@2@U?$less@H@2@V?$allocator@PAVCVerb@@@2@@std@@IAEXPAU_Node@12@@Z 004c28b0 f i BuyDlg.obj
 0001:000c19d0       ?_Lmost@?$_Tree@HU?$pair@$$CBHPAVCVerb@@@std@@U_Kfn@?$map@HPAVCVerb@@U?$less@H@std@@V?$allocator@PAVCVerb@@@3@@2@U?$less@H@2@V?$allocator@PAVCVerb@@@2@@std@@IAEAAPAU_Node@12@XZ 004c29d0 f i BuyDlg.obj
 0001:000c1a20       ?_Rmost@?$_Tree@HU?$pair@$$CBHPAVCVerb@@@std@@U_Kfn@?$map@HPAVCVerb@@U?$less@H@std@@V?$allocator@PAVCVerb@@@3@@2@U?$less@H@2@V?$allocator@PAVCVerb@@@2@@std@@IAEAAPAU_Node@12@XZ 004c2a20 f i BuyDlg.obj
 0001:000c1a70       ?_Root@?$_Tree@HU?$pair@$$CBHPAVCVerb@@@std@@U_Kfn@?$map@HPAVCVerb@@U?$less@H@std@@V?$allocator@PAVCVerb@@@3@@2@U?$less@H@2@V?$allocator@PAVCVerb@@@2@@std@@IAEAAPAU_Node@12@XZ 004c2a70 f i BuyDlg.obj
 0001:000c1ac0       ??0iterator@?$_Tree@HU?$pair@$$CBHPAVCVerb@@@std@@U_Kfn@?$map@HPAVCVerb@@U?$less@H@std@@V?$allocator@PAVCVerb@@@3@@2@U?$less@H@2@V?$allocator@PAVCVerb@@@2@@std@@QAE@PAU_Node@12@@Z 004c2ac0 f i BuyDlg.obj
 0001:000c1b10       ??Eiterator@?$_Tree@HU?$pair@$$CBHPAVCVerb@@@std@@U_Kfn@?$map@HPAVCVerb@@U?$less@H@std@@V?$allocator@PAVCVerb@@@3@@2@U?$less@H@2@V?$allocator@PAVCVerb@@@2@@std@@QAE?AV012@H@Z 004c2b10 f i BuyDlg.obj
 0001:000c1b70       ??9iterator@?$_Tree@HU?$pair@$$CBHPAVCVerb@@@std@@U_Kfn@?$map@HPAVCVerb@@U?$less@H@std@@V?$allocator@PAVCVerb@@@3@@2@U?$less@H@2@V?$allocator@PAVCVerb@@@2@@std@@QBE_NABV012@@Z 004c2b70 f i BuyDlg.obj
 0001:000c1bd0       ?destroy@?$allocator@PAVCVerbBtn@@@std@@QAEXPAPAVCVerbBtn@@@Z 004c2bd0 f i BuyDlg.obj
 0001:000c1c20       ?size@?$_Tree@HU?$pair@$$CBHPAVCVerbBtn@@@std@@U_Kfn@?$map@HPAVCVerbBtn@@U?$less@H@std@@V?$allocator@PAVCVerbBtn@@@3@@2@U?$less@H@2@V?$allocator@PAVCVerbBtn@@@2@@std@@QBEIXZ 004c2c20 f i BuyDlg.obj
 0001:000c1c60       ?erase@?$_Tree@HU?$pair@$$CBHPAVCVerbBtn@@@std@@U_Kfn@?$map@HPAVCVerbBtn@@U?$less@H@std@@V?$allocator@PAVCVerbBtn@@@3@@2@U?$less@H@2@V?$allocator@PAVCVerbBtn@@@2@@std@@QAE?AViterator@12@V312@@Z 004c2c60 f i BuyDlg.obj
 0001:000c2700       ?_Erase@?$_Tree@HU?$pair@$$CBHPAVCVerbBtn@@@std@@U_Kfn@?$map@HPAVCVerbBtn@@U?$less@H@std@@V?$allocator@PAVCVerbBtn@@@3@@2@U?$less@H@2@V?$allocator@PAVCVerbBtn@@@2@@std@@IAEXPAU_Node@12@@Z 004c3700 f i BuyDlg.obj
 0001:000c2820       ?_Lmost@?$_Tree@HU?$pair@$$CBHPAVCVerbBtn@@@std@@U_Kfn@?$map@HPAVCVerbBtn@@U?$less@H@std@@V?$allocator@PAVCVerbBtn@@@3@@2@U?$less@H@2@V?$allocator@PAVCVerbBtn@@@2@@std@@IAEAAPAU_Node@12@XZ 004c3820 f i BuyDlg.obj
 0001:000c2870       ?_Rmost@?$_Tree@HU?$pair@$$CBHPAVCVerbBtn@@@std@@U_Kfn@?$map@HPAVCVerbBtn@@U?$less@H@std@@V?$allocator@PAVCVerbBtn@@@3@@2@U?$less@H@2@V?$allocator@PAVCVerbBtn@@@2@@std@@IAEAAPAU_Node@12@XZ 004c3870 f i BuyDlg.obj
 0001:000c28c0       ?_Root@?$_Tree@HU?$pair@$$CBHPAVCVerbBtn@@@std@@U_Kfn@?$map@HPAVCVerbBtn@@U?$less@H@std@@V?$allocator@PAVCVerbBtn@@@3@@2@U?$less@H@2@V?$allocator@PAVCVerbBtn@@@2@@std@@IAEAAPAU_Node@12@XZ 004c38c0 f i BuyDlg.obj
 0001:000c2910       ??0iterator@?$_Tree@HU?$pair@$$CBHPAVCVerbBtn@@@std@@U_Kfn@?$map@HPAVCVerbBtn@@U?$less@H@std@@V?$allocator@PAVCVerbBtn@@@3@@2@U?$less@H@2@V?$allocator@PAVCVerbBtn@@@2@@std@@QAE@PAU_Node@12@@Z 004c3910 f i BuyDlg.obj
 0001:000c2960       ??Eiterator@?$_Tree@HU?$pair@$$CBHPAVCVerbBtn@@@std@@U_Kfn@?$map@HPAVCVerbBtn@@U?$less@H@std@@V?$allocator@PAVCVerbBtn@@@3@@2@U?$less@H@2@V?$allocator@PAVCVerbBtn@@@2@@std@@QAE?AV012@H@Z 004c3960 f i BuyDlg.obj
 0001:000c29c0       ??9iterator@?$_Tree@HU?$pair@$$CBHPAVCVerbBtn@@@std@@U_Kfn@?$map@HPAVCVerbBtn@@U?$less@H@std@@V?$allocator@PAVCVerbBtn@@@3@@2@U?$less@H@2@V?$allocator@PAVCVerbBtn@@@2@@std@@QBE_NABV012@@Z 004c39c0 f i BuyDlg.obj
 0001:000c2a20       ?_Color@?$_Tree@HU?$pair@$$CBHPAVCVerb@@@std@@U_Kfn@?$map@HPAVCVerb@@U?$less@H@std@@V?$allocator@PAVCVerb@@@3@@2@U?$less@H@2@V?$allocator@PAVCVerb@@@2@@std@@KAAAW4_Redbl@12@PAU_Node@12@@Z 004c3a20 f i BuyDlg.obj
 0001:000c2a50       ?_Left@?$_Tree@HU?$pair@$$CBHPAVCVerb@@@std@@U_Kfn@?$map@HPAVCVerb@@U?$less@H@std@@V?$allocator@PAVCVerb@@@3@@2@U?$less@H@2@V?$allocator@PAVCVerb@@@2@@std@@KAAAPAU_Node@12@PAU312@@Z 004c3a50 f i BuyDlg.obj
 0001:000c2a80       ?_Parent@?$_Tree@HU?$pair@$$CBHPAVCVerb@@@std@@U_Kfn@?$map@HPAVCVerb@@U?$less@H@std@@V?$allocator@PAVCVerb@@@3@@2@U?$less@H@2@V?$allocator@PAVCVerb@@@2@@std@@KAAAPAU_Node@12@PAU312@@Z 004c3a80 f i BuyDlg.obj
 0001:000c2ab0       ?_Right@?$_Tree@HU?$pair@$$CBHPAVCVerb@@@std@@U_Kfn@?$map@HPAVCVerb@@U?$less@H@std@@V?$allocator@PAVCVerb@@@3@@2@U?$less@H@2@V?$allocator@PAVCVerb@@@2@@std@@KAAAPAU_Node@12@PAU312@@Z 004c3ab0 f i BuyDlg.obj
 0001:000c2ae0       ?_Value@?$_Tree@HU?$pair@$$CBHPAVCVerb@@@std@@U_Kfn@?$map@HPAVCVerb@@U?$less@H@std@@V?$allocator@PAVCVerb@@@3@@2@U?$less@H@2@V?$allocator@PAVCVerb@@@2@@std@@KAAAU?$pair@$$CBHPAVCVerb@@@2@PAU_Node@12@@Z 004c3ae0 f i BuyDlg.obj
 0001:000c2b10       ?_Lrotate@?$_Tree@HU?$pair@$$CBHPAVCVerb@@@std@@U_Kfn@?$map@HPAVCVerb@@U?$less@H@std@@V?$allocator@PAVCVerb@@@3@@2@U?$less@H@2@V?$allocator@PAVCVerb@@@2@@std@@IAEXPAU_Node@12@@Z 004c3b10 f i BuyDlg.obj
 0001:000c2d10       ?_Max@?$_Tree@HU?$pair@$$CBHPAVCVerb@@@std@@U_Kfn@?$map@HPAVCVerb@@U?$less@H@std@@V?$allocator@PAVCVerb@@@3@@2@U?$less@H@2@V?$allocator@PAVCVerb@@@2@@std@@KAPAU_Node@12@PAU312@@Z 004c3d10 f i BuyDlg.obj
 0001:000c2df0       ?_Min@?$_Tree@HU?$pair@$$CBHPAVCVerb@@@std@@U_Kfn@?$map@HPAVCVerb@@U?$less@H@std@@V?$allocator@PAVCVerb@@@3@@2@U?$less@H@2@V?$allocator@PAVCVerb@@@2@@std@@KAPAU_Node@12@PAU312@@Z 004c3df0 f i BuyDlg.obj
 0001:000c2ed0       ?_Rrotate@?$_Tree@HU?$pair@$$CBHPAVCVerb@@@std@@U_Kfn@?$map@HPAVCVerb@@U?$less@H@std@@V?$allocator@PAVCVerb@@@3@@2@U?$less@H@2@V?$allocator@PAVCVerb@@@2@@std@@IAEXPAU_Node@12@@Z 004c3ed0 f i BuyDlg.obj
 0001:000c30d0       ?_Destval@?$_Tree@HU?$pair@$$CBHPAVCVerb@@@std@@U_Kfn@?$map@HPAVCVerb@@U?$less@H@std@@V?$allocator@PAVCVerb@@@3@@2@U?$less@H@2@V?$allocator@PAVCVerb@@@2@@std@@IAEXPAU?$pair@$$CBHPAVCVerb@@@2@@Z 004c40d0 f i BuyDlg.obj
 0001:000c3120       ??0const_iterator@?$_Tree@HU?$pair@$$CBHPAVCVerb@@@std@@U_Kfn@?$map@HPAVCVerb@@U?$less@H@std@@V?$allocator@PAVCVerb@@@3@@2@U?$less@H@2@V?$allocator@PAVCVerb@@@2@@std@@QAE@PAU_Node@12@@Z 004c4120 f i BuyDlg.obj
 0001:000c3160       ?_Mynode@const_iterator@?$_Tree@HU?$pair@$$CBHPAVCVerb@@@std@@U_Kfn@?$map@HPAVCVerb@@U?$less@H@std@@V?$allocator@PAVCVerb@@@3@@2@U?$less@H@2@V?$allocator@PAVCVerb@@@2@@std@@QBEPAU_Node@23@XZ 004c4160 f i BuyDlg.obj
 0001:000c31a0       ??Eiterator@?$_Tree@HU?$pair@$$CBHPAVCVerb@@@std@@U_Kfn@?$map@HPAVCVerb@@U?$less@H@std@@V?$allocator@PAVCVerb@@@3@@2@U?$less@H@2@V?$allocator@PAVCVerb@@@2@@std@@QAEAAV012@XZ 004c41a0 f i BuyDlg.obj
 0001:000c31f0       ??8iterator@?$_Tree@HU?$pair@$$CBHPAVCVerb@@@std@@U_Kfn@?$map@HPAVCVerb@@U?$less@H@std@@V?$allocator@PAVCVerb@@@3@@2@U?$less@H@2@V?$allocator@PAVCVerb@@@2@@std@@QBE_NABV012@@Z 004c41f0 f i BuyDlg.obj
 0001:000c3240       ?_Color@?$_Tree@HU?$pair@$$CBHPAVCVerbBtn@@@std@@U_Kfn@?$map@HPAVCVerbBtn@@U?$less@H@std@@V?$allocator@PAVCVerbBtn@@@3@@2@U?$less@H@2@V?$allocator@PAVCVerbBtn@@@2@@std@@KAAAW4_Redbl@12@PAU_Node@12@@Z 004c4240 f i BuyDlg.obj
 0001:000c3270       ?_Left@?$_Tree@HU?$pair@$$CBHPAVCVerbBtn@@@std@@U_Kfn@?$map@HPAVCVerbBtn@@U?$less@H@std@@V?$allocator@PAVCVerbBtn@@@3@@2@U?$less@H@2@V?$allocator@PAVCVerbBtn@@@2@@std@@KAAAPAU_Node@12@PAU312@@Z 004c4270 f i BuyDlg.obj
 0001:000c32a0       ?_Parent@?$_Tree@HU?$pair@$$CBHPAVCVerbBtn@@@std@@U_Kfn@?$map@HPAVCVerbBtn@@U?$less@H@std@@V?$allocator@PAVCVerbBtn@@@3@@2@U?$less@H@2@V?$allocator@PAVCVerbBtn@@@2@@std@@KAAAPAU_Node@12@PAU312@@Z 004c42a0 f i BuyDlg.obj
 0001:000c32d0       ?_Right@?$_Tree@HU?$pair@$$CBHPAVCVerbBtn@@@std@@U_Kfn@?$map@HPAVCVerbBtn@@U?$less@H@std@@V?$allocator@PAVCVerbBtn@@@3@@2@U?$less@H@2@V?$allocator@PAVCVerbBtn@@@2@@std@@KAAAPAU_Node@12@PAU312@@Z 004c42d0 f i BuyDlg.obj
 0001:000c3300       ?_Value@?$_Tree@HU?$pair@$$CBHPAVCVerbBtn@@@std@@U_Kfn@?$map@HPAVCVerbBtn@@U?$less@H@std@@V?$allocator@PAVCVerbBtn@@@3@@2@U?$less@H@2@V?$allocator@PAVCVerbBtn@@@2@@std@@KAAAU?$pair@$$CBHPAVCVerbBtn@@@2@PAU_Node@12@@Z 004c4300 f i BuyDlg.obj
 0001:000c3330       ?_Lrotate@?$_Tree@HU?$pair@$$CBHPAVCVerbBtn@@@std@@U_Kfn@?$map@HPAVCVerbBtn@@U?$less@H@std@@V?$allocator@PAVCVerbBtn@@@3@@2@U?$less@H@2@V?$allocator@PAVCVerbBtn@@@2@@std@@IAEXPAU_Node@12@@Z 004c4330 f i BuyDlg.obj
 0001:000c3530       ?_Max@?$_Tree@HU?$pair@$$CBHPAVCVerbBtn@@@std@@U_Kfn@?$map@HPAVCVerbBtn@@U?$less@H@std@@V?$allocator@PAVCVerbBtn@@@3@@2@U?$less@H@2@V?$allocator@PAVCVerbBtn@@@2@@std@@KAPAU_Node@12@PAU312@@Z 004c4530 f i BuyDlg.obj
 0001:000c3610       ?_Min@?$_Tree@HU?$pair@$$CBHPAVCVerbBtn@@@std@@U_Kfn@?$map@HPAVCVerbBtn@@U?$less@H@std@@V?$allocator@PAVCVerbBtn@@@3@@2@U?$less@H@2@V?$allocator@PAVCVerbBtn@@@2@@std@@KAPAU_Node@12@PAU312@@Z 004c4610 f i BuyDlg.obj
 0001:000c36f0       ?_Rrotate@?$_Tree@HU?$pair@$$CBHPAVCVerbBtn@@@std@@U_Kfn@?$map@HPAVCVerbBtn@@U?$less@H@std@@V?$allocator@PAVCVerbBtn@@@3@@2@U?$less@H@2@V?$allocator@PAVCVerbBtn@@@2@@std@@IAEXPAU_Node@12@@Z 004c46f0 f i BuyDlg.obj
 0001:000c38f0       ?_Destval@?$_Tree@HU?$pair@$$CBHPAVCVerbBtn@@@std@@U_Kfn@?$map@HPAVCVerbBtn@@U?$less@H@std@@V?$allocator@PAVCVerbBtn@@@3@@2@U?$less@H@2@V?$allocator@PAVCVerbBtn@@@2@@std@@IAEXPAU?$pair@$$CBHPAVCVerbBtn@@@2@@Z 004c48f0 f i BuyDlg.obj
 0001:000c3940       ??0const_iterator@?$_Tree@HU?$pair@$$CBHPAVCVerbBtn@@@std@@U_Kfn@?$map@HPAVCVerbBtn@@U?$less@H@std@@V?$allocator@PAVCVerbBtn@@@3@@2@U?$less@H@2@V?$allocator@PAVCVerbBtn@@@2@@std@@QAE@PAU_Node@12@@Z 004c4940 f i BuyDlg.obj
 0001:000c3980       ?_Mynode@const_iterator@?$_Tree@HU?$pair@$$CBHPAVCVerbBtn@@@std@@U_Kfn@?$map@HPAVCVerbBtn@@U?$less@H@std@@V?$allocator@PAVCVerbBtn@@@3@@2@U?$less@H@2@V?$allocator@PAVCVerbBtn@@@2@@std@@QBEPAU_Node@23@XZ 004c4980 f i BuyDlg.obj
 0001:000c39c0       ??Eiterator@?$_Tree@HU?$pair@$$CBHPAVCVerbBtn@@@std@@U_Kfn@?$map@HPAVCVerbBtn@@U?$less@H@std@@V?$allocator@PAVCVerbBtn@@@3@@2@U?$less@H@2@V?$allocator@PAVCVerbBtn@@@2@@std@@QAEAAV012@XZ 004c49c0 f i BuyDlg.obj
 0001:000c3a10       ??8iterator@?$_Tree@HU?$pair@$$CBHPAVCVerbBtn@@@std@@U_Kfn@?$map@HPAVCVerbBtn@@U?$less@H@std@@V?$allocator@PAVCVerbBtn@@@3@@2@U?$less@H@2@V?$allocator@PAVCVerbBtn@@@2@@std@@QBE_NABV012@@Z 004c4a10 f i BuyDlg.obj
 0001:000c3a60       ?_Inc@const_iterator@?$_Tree@HU?$pair@$$CBHPAVCVerb@@@std@@U_Kfn@?$map@HPAVCVerb@@U?$less@H@std@@V?$allocator@PAVCVerb@@@3@@2@U?$less@H@2@V?$allocator@PAVCVerb@@@2@@std@@QAEXXZ 004c4a60 f i BuyDlg.obj
 0001:000c3bb0       ?_Inc@const_iterator@?$_Tree@HU?$pair@$$CBHPAVCVerbBtn@@@std@@U_Kfn@?$map@HPAVCVerbBtn@@U?$less@H@std@@V?$allocator@PAVCVerbBtn@@@3@@2@U?$less@H@2@V?$allocator@PAVCVerbBtn@@@2@@std@@QAEXXZ 004c4bb0 f i BuyDlg.obj
 0001:000c3d00       ?swap@std@@YAXAAW4_Redbl@?$_Tree@HU?$pair@$$CBHPAVCVerb@@@std@@U_Kfn@?$map@HPAVCVerb@@U?$less@H@std@@V?$allocator@PAVCVerb@@@3@@2@U?$less@H@2@V?$allocator@PAVCVerb@@@2@@1@0@Z 004c4d00 f i BuyDlg.obj
 0001:000c3d50       ?_Destroy@std@@YAXPAPAVCVerbBtn@@@Z 004c4d50 f i BuyDlg.obj
 0001:000c3d80       ?swap@std@@YAXAAW4_Redbl@?$_Tree@HU?$pair@$$CBHPAVCVerbBtn@@@std@@U_Kfn@?$map@HPAVCVerbBtn@@U?$less@H@std@@V?$allocator@PAVCVerbBtn@@@3@@2@U?$less@H@2@V?$allocator@PAVCVerbBtn@@@2@@1@0@Z 004c4d80 f i BuyDlg.obj
 0001:000c3dd0       ?_Destroy@std@@YAXPAU?$pair@$$CBHPAVCVerb@@@1@@Z 004c4dd0 f i BuyDlg.obj
 0001:000c3e00       ?_Destroy@std@@YAXPAU?$pair@$$CBHPAVCVerbBtn@@@1@@Z 004c4e00 f i BuyDlg.obj
 0001:000c3e30       ??_ECBuyDlg@@WJE@AEPAXI@Z  004c4e30 f i BuyDlg.obj
 0001:000c3e40       ??_ECSaleListCtrl@@WEA@AEPAXI@Z 004c4e40 f i BuyDlg.obj
 0001:000c3e50       ??_ECSaleListCtrl@@WHE@AEPAXI@Z 004c4e50 f i BuyDlg.obj
 0001:000c3e60       ??_ECPurchaseListCtrl@@WEA@AEPAXI@Z 004c4e60 f i BuyDlg.obj
 0001:000c3e70       ??_ECPurchaseListCtrl@@WHE@AEPAXI@Z 004c4e70 f i BuyDlg.obj
 0001:000c3e80       ??0CSCI_LongInt@@QAE@ABVObjectID@@@Z 004c4e80 f i BuyDlg.obj
 0001:000c3ed0       ?get_pCommand@CSCI_NetMsg@@QAEFXZ 004c4ed0 f i BuyDlg.obj
 0001:000c3f20       ?get_pAckCmd@CSCI_NetMsg@@QAE?AVCSCI_LongInt@@XZ 004c4f20 f i BuyDlg.obj
 0001:000c3f80       ?get_pNakCmd@CSCI_NetMsg@@QAE?AVCSCI_LongInt@@XZ 004c4f80 f i BuyDlg.obj
 0001:000c3fe0       ??0CSCI_WorldObject@@QAE@ABVObjectID@@@Z 004c4fe0 f i BuyDlg.obj
 0001:000c4030       ?get_pValue@CSCI_WorldObject@@QAE?AVCSCI_LongInt@@XZ 004c5030 f i BuyDlg.obj
 0001:000c4090       ??0CSCI_GameServer@@QAE@G@Z 004c5090 f i BuyDlg.obj
 0001:000c40e0       ??0CSCI_Server@@QAE@G@Z    004c50e0 f i BuyDlg.obj
 0001:000c4130       ??0CSCI_RoomZero@@QAE@G@Z  004c5130 f i BuyDlg.obj
 0001:000c4180       ??0CSCI_Game@@QAE@G@Z      004c5180 f i BuyDlg.obj
 0001:000c41d0       ?GetGlobal@PMachine@@QAEFH@Z 004c51d0 f i BuyDlg.obj
 0001:000c4210       ?Next@CSkinWnd@@UAEXXZ     004c5210 f i BuyDlg.obj
 0001:000c4240       ?Previous@CSkinWnd@@UAEXXZ 004c5240 f i BuyDlg.obj
 0001:000c4270       ?GetItemTextColor@CSkinListCtrl@@MAEKH@Z 004c5270 f i BuyDlg.obj
 0001:000c42b0       ?GetItemBGColor@CSkinListCtrl@@MAEKH@Z 004c52b0 f i BuyDlg.obj
 0001:000c42f0       ?PutWord@CPackedData@@QAEXF@Z 004c52f0 f i BuyDlg.obj
 0001:000c4370       ?PutByte@CPackedData@@QAEXE@Z 004c5370 f i BuyDlg.obj
 0001:000c4400       ?CheckBounds@OCArray@@IAEXH@Z 004c5400 f i BuyDlg.obj
 0001:000c4490       ?PutLong@CPackedData@@QAEXH@Z 004c5490 f i BuyDlg.obj
 0001:000c4540       ?IsCrystals@CPurchaseItem@@QAE_NXZ 004c5540 f i BuyDlg.obj
 0001:000c4590       ?GetPrice@CPurchaseItem@@QAEHXZ 004c5590 f i BuyDlg.obj
 0001:000c45d0       ?GetQuantity@CPurchaseItem@@QAEHXZ 004c55d0 f i BuyDlg.obj
 0001:000c4610       ?GetIndex@CPurchaseItem@@QAEHXZ 004c5610 f i BuyDlg.obj
 0001:000c4650       ?GetName@CPurchaseItem@@QAE?AVCString@@XZ 004c5650 f i BuyDlg.obj
 0001:000c46c0       ?GetIcon@CPurchaseItem@@QAEHXZ 004c56c0 f i BuyDlg.obj
 0001:000c4700       ?GetClutStart@CPurchaseItem@@QAEHXZ 004c5700 f i BuyDlg.obj
 0001:000c4740       ?GetColor@CPurchaseItem@@QAEHXZ 004c5740 f i BuyDlg.obj
 0001:000c4780       ?GetWeight@CPurchaseItem@@QAEHXZ 004c5780 f i BuyDlg.obj
 0001:000c47c0       ?CloseMe@CBuyDlg@@QAEXXZ   004c57c0 f i BuyDlg.obj
 0001:000c4800       ??0CSkinObj@@QAE@ABV0@@Z   004c5800 f i BuyDlg.obj
 0001:000c4850       ??1CSkinBtn@@UAE@XZ        004c5850 f i BuyDlg.obj
 0001:000c48a0       ??_GCSkinObj@@UAEPAXI@Z    004c58a0 f i BuyDlg.obj
 0001:000c48a0       ??_ECSkinObj@@UAEPAXI@Z    004c58a0 f i BuyDlg.obj
 0001:000c4910       ?BringTabToTop@CMainPanelWnd@@QAEXXZ 004c5910 f i BuyDlg.obj
 0001:000c4980       ?perform@CSCI_Object@@QAEXF@Z 004c5980 f   C++SCI.obj
 0001:000c4a20       ?newInstance@CSCI_Object@@QAE?AVObjectID@@XZ 004c5a20 f   C++SCI.obj
 0001:000c4ae0       ?doit@CSCI_Object@@QAEFXZ  004c5ae0 f   C++SCI.obj
 0001:000c4b80       ?doit@CSCI_Object@@QAEFF@Z 004c5b80 f   C++SCI.obj
 0001:000c4c30       ?CallMethod@CSCI_Object@@QAEXF@Z 004c5c30 f   C++SCI.obj
 0001:000c4cd0       ?CallMethod@CSCI_Object@@QAEXFF@Z 004c5cd0 f   C++SCI.obj
 0001:000c4d70       ?getAffectedState@CSCI_CharInfo@@QAEFF@Z 004c5d70 f   C++SCI.obj
 0001:000c4e20       ?play@CSCI_Sound@@QAEXF@Z  004c5e20 f   C++SCI.obj
 0001:000c4ec0       ?equal@CSCI_LongInt@@QAEFFF@Z 004c5ec0 f   C++SCI.obj
 0001:000c4f80       ?equalLong@CSCI_LongInt@@QAEFV1@@Z 004c5f80 f   C++SCI.obj
 0001:000c5030       ?set@CSCI_LongInt@@QAEXFF@Z 004c6030 f   C++SCI.obj
 0001:000c50e0       ?setLong@CSCI_LongInt@@QAEXF@Z 004c60e0 f   C++SCI.obj
 0001:000c5180       ?setMessage@CSCI_WorldObject@@QAEXF@Z 004c6180 f   C++SCI.obj
 0001:000c5220       ?handleVerb@CSCI_WorldObject@@QAEXF@Z 004c6220 f   C++SCI.obj
 0001:000c52c0       ?look@CSCI_WorldObject@@QAEXF@Z 004c62c0 f   C++SCI.obj
 0001:000c5360       ?FindByServID@CSCI_WorldObject@@SA?AV1@H@Z 004c6360 f   C++SCI.obj
 0001:000c53c0       ?createDisplay@CSCI_WorldObject@@QAEFF@Z 004c63c0 f   C++SCI.obj
 0001:000c5470       ?fromPacket@CSCI_WorldObject@@QAEFFF@Z 004c6470 f   C++SCI.obj
 0001:000c5530       ?fromExtendedPacket@CSCI_WorldObject@@QAEXF@Z 004c6530 f   C++SCI.obj
 0001:000c55d0       ?addValue@CSCI_WorldObject@@QAEXF@Z 004c65d0 f   C++SCI.obj
 0001:000c5670       ?subValue@CSCI_WorldObject@@QAEXF@Z 004c6670 f   C++SCI.obj
 0001:000c5710       ?addManaValue@CSCI_WorldObject@@QAEXF@Z 004c6710 f   C++SCI.obj
 0001:000c57b0       ?subManaValue@CSCI_WorldObject@@QAEXF@Z 004c67b0 f   C++SCI.obj
 0001:000c5850       ?getAffectedState@CSCI_WorldObject@@QAEFF@Z 004c6850 f   C++SCI.obj
 0001:000c5900       ?servIDEquals@CSCI_WorldObject@@QAEFF@Z 004c6900 f   C++SCI.obj
 0001:000c59b0       ?getBaseCharacter@CSCI_WorldObject@@QAE?AVCSCI_BCharacter@@XZ 004c69b0 f   C++SCI.obj
 0001:000c5a90       ?getBaseCarryable@CSCI_WorldObject@@QAE?AVCSCI_BCarryable@@XZ 004c6a90 f   C++SCI.obj
 0001:000c5b70       ?getBaseWearable@CSCI_WorldObject@@QAE?AVCSCI_BWearable@@XZ 004c6b70 f   C++SCI.obj
 0001:000c5c50       ?getBaseWeapon@CSCI_WorldObject@@QAE?AVCSCI_BWeapon@@XZ 004c6c50 f   C++SCI.obj
 0001:000c5d30       ?getBaseNPC@CSCI_WorldObject@@QAE?AVCSCI_BNPC@@XZ 004c6d30 f   C++SCI.obj
 0001:000c5e10       ?getBaseContainer@CSCI_WorldObject@@QAE?AVCSCI_BContainer@@XZ 004c6e10 f   C++SCI.obj
 0001:000c5ef0       ?getBaseHead@CSCI_WorldObject@@QAE?AVCSCI_BHead@@XZ 004c6ef0 f   C++SCI.obj
 0001:000c5fd0       ?getVerb@CSCI_WorldObject@@QAEXV1@@Z 004c6fd0 f   C++SCI.obj
 0001:000c6070       ?getBitmap@CSCI_WorldObject@@QAE?AVObjectID@@XZ 004c7070 f   C++SCI.obj
 0001:000c6130       ?getName@CSCI_WorldObject@@QAE?AVStringID@@XZ 004c7130 f   C++SCI.obj
 0001:000c61f0       ?buildVerbList@CSCI_WorldObject@@QAEXV1@@Z 004c71f0 f   C++SCI.obj
 0001:000c6290       ?setProperName@CSCI_BCharacter@@QAEXF@Z 004c7290 f   C++SCI.obj
 0001:000c6330       ?setTitle@CSCI_BCharacter@@QAEXF@Z 004c7330 f   C++SCI.obj
 0001:000c63d0       ?setBiography@CSCI_BCharacter@@QAEXF@Z 004c73d0 f   C++SCI.obj
 0001:000c6470       ?deltaFeatureSelect@CSCI_BHead@@QAEXFF@Z 004c7470 f   C++SCI.obj
 0001:000c6530       ?nextFeature@CSCI_BHead@@QAEXF@Z 004c7530 f   C++SCI.obj
 0001:000c65d0       ?prevFeature@CSCI_BHead@@QAEXF@Z 004c75d0 f   C++SCI.obj
 0001:000c6670       ?getHeadBitmap@CSCI_fNBody@@QAE?AVObjectID@@XZ 004c7670 f   C++SCI.obj
 0001:000c6730       ?getAttackBitmap@CSCI_fNBody@@QAE?AVObjectID@@XZ 004c7730 f   C++SCI.obj
 0001:000c67f0       ?getStanceBitmap@CSCI_fNBody@@QAE?AVObjectID@@F@Z 004c77f0 f   C++SCI.obj
 0001:000c68b0       ?setSex@CSCI_WorldActor@@QAEXF@Z 004c78b0 f   C++SCI.obj
 0001:000c6950       ?setRace@CSCI_WorldActor@@QAEXF@Z 004c7950 f   C++SCI.obj
 0001:000c69f0       ?getSex@CSCI_WorldActor@@QAEFXZ 004c79f0 f   C++SCI.obj
 0001:000c6a90       ?getRace@CSCI_WorldActor@@QAEFXZ 004c7a90 f   C++SCI.obj
 0001:000c6b30       ?stopAction@CSCI_WorldEgo@@QAEXXZ 004c7b30 f   C++SCI.obj
 0001:000c6bd0       ?stopTargetting@CSCI_WorldEgo@@QAEXXZ 004c7bd0 f   C++SCI.obj
 0001:000c6c70       ?setPassword@CSCI_WorldEgo@@QAEXXZ 004c7c70 f   C++SCI.obj
 0001:000c6d10       ?contains@CSCI_Collection@@QAEFF@Z 004c7d10 f   C++SCI.obj
 0001:000c6dc0       ?at@CSCI_List@@QAEFF@Z     004c7dc0 f   C++SCI.obj
 0001:000c6e70       ?at@CSCI_Array@@QAEFF@Z    004c7e70 f   C++SCI.obj
 0001:000c6f20       ?controlOff@CSCI_Game@@QAEXXZ 004c7f20 f   C++SCI.obj
 0001:000c6fc0       ?controlOn@CSCI_Game@@QAEXXZ 004c7fc0 f   C++SCI.obj
 0001:000c7060       ?handsOff@CSCI_Game@@QAEXXZ 004c8060 f   C++SCI.obj
 0001:000c7100       ?handsOn@CSCI_Game@@QAEXXZ 004c8100 f   C++SCI.obj
 0001:000c71a0       ?getShopItemImage@CSCI_GameServer@@QAEFFFF@Z 004c81a0 f   C++SCI.obj
 0001:000c7270       ?updatePingText@CSCI_GameServer@@QAEXXZ 004c8270 f   C++SCI.obj
 0001:000c7310       ?leaveGroup@CSCI_GameServer@@QAEXF@Z 004c8310 f   C++SCI.obj
 0001:000c73b0       ?kickGroup@CSCI_GameServer@@QAEXF@Z 004c83b0 f   C++SCI.obj
 0001:000c7450       ?getQuestList@CSCI_GameServer@@QAEXXZ 004c8450 f   C++SCI.obj
 0001:000c74f0       ?restartGame@CSCI_GameServer@@QAEXXZ 004c84f0 f   C++SCI.obj
 0001:000c7590       ?getMail@CSCI_GameServer@@QAEXXZ 004c8590 f   C++SCI.obj
 0001:000c7630       ?getMailMessage@CSCI_GameServer@@QAEXF@Z 004c8630 f   C++SCI.obj
 0001:000c76d0       ?eraseMailMessage@CSCI_GameServer@@QAEXF@Z 004c86d0 f   C++SCI.obj
 0001:000c7770       ?sendMail@CSCI_GameServer@@QAEXVTextID@@00@Z 004c8770 f   C++SCI.obj
 0001:000c7840       ?cue@CSCI_Script@@QAEXXZ   004c8840 f   C++SCI.obj
 0001:000c78e0       ?dispose@CSCI_Object@@QAEXXZ 004c88e0 f   C++SCI.obj
 0001:000c7980       ?cast@CSCI_Spell@@QAEXXZ   004c8980 f   C++SCI.obj
 0001:000c7a20       ?canCast@CSCI_Spell@@QAEFXZ 004c8a20 f   C++SCI.obj
 0001:000c7ac0       ?release@CSCI_Collection@@QAEXXZ 004c8ac0 f   C++SCI.obj
 0001:000c7b60       ?addToEnd@CSCI_List@@QAEXF@Z 004c8b60 f   C++SCI.obj
 0001:000c7c00       ??0CSCI_BCarryable@@QAE@G@Z 004c8c00 f i C++SCI.obj
 0001:000c7c50       ??0CSCI_BContainer@@QAE@G@Z 004c8c50 f i C++SCI.obj
 0001:000c7ca0       ??0CSCI_BCharacter@@QAE@G@Z 004c8ca0 f i C++SCI.obj
 0001:000c7cf0       ??0CSCI_BWeapon@@QAE@G@Z   004c8cf0 f i C++SCI.obj
 0001:000c7d40       ??0CSCI_BNPC@@QAE@G@Z      004c8d40 f i C++SCI.obj
 0001:000c7d90       ??0CChannelMemberList@@QAE@XZ 004c8d90 f   chanlist.obj
 0001:000c7e00       ??1CChannelMemberList@@QAE@XZ 004c8e00 f   chanlist.obj
 0001:000c7e90       ?findMember@CChannelMemberList@@IAEPADPAD@Z 004c8e90 f   chanlist.obj
 0001:000c7f60       ?addPlayer@CChannelMemberList@@QAEXPAD_N@Z 004c8f60 f   chanlist.obj
 0001:000c80f0       ?delPlayer@CChannelMemberList@@QAEXPAD@Z 004c90f0 f   chanlist.obj
 0001:000c81a0       ?isMember@CChannelMemberList@@QAE_NPAD@Z 004c91a0 f   chanlist.obj
 0001:000c8210       ?clearList@CChannelMemberList@@QAEXXZ 004c9210 f   chanlist.obj
 0001:000c8330       ?fromPacket@CChannelMemberList@@QAEXPAVPackedData@@@Z 004c9330 f   chanlist.obj
 0001:000c84c0       ?setListCtrl@CChannelMemberList@@QAEXPAVCSkinListCtrl@@@Z 004c94c0 f   chanlist.obj
 0001:000c8500       ?Compare@CChannelMemberList@@KGHPAD0H@Z 004c9500 f   chanlist.obj
 0001:000c8590       ?Sort@CChannelMemberList@@QAEXXZ 004c9590 f   chanlist.obj
 0001:000c8610       ?HandleMsg@CChannelMemberList@@QAEXPAD@Z 004c9610 f   chanlist.obj
 0001:000c87b0       ??0CChannelBannedList@@QAE@XZ 004c97b0 f   chanlist.obj
 0001:000c8820       ??1CChannelBannedList@@QAE@XZ 004c9820 f   chanlist.obj
 0001:000c88b0       ?findMember@CChannelBannedList@@IAEPADPAD@Z 004c98b0 f   chanlist.obj
 0001:000c8980       ?addPlayer@CChannelBannedList@@QAEXPAD@Z 004c9980 f   chanlist.obj
 0001:000c8a30       ?delPlayer@CChannelBannedList@@QAEXPAD@Z 004c9a30 f   chanlist.obj
 0001:000c8ae0       ?isMember@CChannelBannedList@@QAE_NPAD@Z 004c9ae0 f   chanlist.obj
 0001:000c8b40       ?clearList@CChannelBannedList@@QAEXXZ 004c9b40 f   chanlist.obj
 0001:000c8c20       ?fromPacket@CChannelBannedList@@QAEXPAVPackedData@@@Z 004c9c20 f   chanlist.obj
 0001:000c8ce0       ?setListCtrl@CChannelBannedList@@QAEXPAVCSkinListCtrl@@@Z 004c9ce0 f   chanlist.obj
 0001:000c8d20       ??0CChanListWnd@@QAE@XZ    004c9d20 f   chanlist.obj
 0001:000c8e00       ??_GCChanListWnd@@UAEPAXI@Z 004c9e00 f i chanlist.obj
 0001:000c8e00       ??_ECChanListWnd@@UAEPAXI@Z 004c9e00 f i chanlist.obj
 0001:000c8e70       ??1CChanListWnd@@UAE@XZ    004c9e70 f i chanlist.obj
 0001:000c8ec0       ?CloseSelf@CChanListWnd@@UAEX_N@Z 004c9ec0 f   chanlist.obj
 0001:000c8f80       ?Create@CChanListWnd@@QAEHPAVPackedData@@@Z 004c9f80 f   chanlist.obj
 0001:000c9250       ?MakeSkinCtrl@CChanListWnd@@UAEPAVCSkinCtrl@@VCSkinObj@@@Z 004ca250 f   chanlist.obj
 0001:000c9580       ??0CChannelListCtrl@@QAE@XZ 004ca580 f i chanlist.obj
 0001:000c9600       ?OnItemActivate@CChannelListCtrl@@UAEXH_N@Z 004ca600 f i chanlist.obj
 0001:000c9710       ??_GCChannelListCtrl@@UAEPAXI@Z 004ca710 f i chanlist.obj
 0001:000c9710       ??_ECChannelListCtrl@@UAEPAXI@Z 004ca710 f i chanlist.obj
 0001:000c9780       ??1CChannelListCtrl@@UAE@XZ 004ca780 f i chanlist.obj
 0001:000c9800       ??0CChMemberListWnd@@QAE@XZ 004ca800 f   chanlist.obj
 0001:000c98e0       ??_ECChMemberListWnd@@UAEPAXI@Z 004ca8e0 f i chanlist.obj
 0001:000c98e0       ??_GCChMemberListWnd@@UAEPAXI@Z 004ca8e0 f i chanlist.obj
 0001:000c9950       ??1CChMemberListWnd@@UAE@XZ 004ca950 f i chanlist.obj
 0001:000c99a0       ?CloseSelf@CChMemberListWnd@@UAEX_N@Z 004ca9a0 f   chanlist.obj
 0001:000c9a10       ?Create@CChMemberListWnd@@QAEHPAVPackedData@@@Z 004caa10 f   chanlist.obj
 0001:000c9ba0       ?MakeSkinCtrl@CChMemberListWnd@@UAEPAVCSkinCtrl@@VCSkinObj@@@Z 004caba0 f   chanlist.obj
 0001:000c9df0       ??0CChMemberListCtrl@@QAE@XZ 004cadf0 f i chanlist.obj
 0001:000c9e70       ?OnItemActivate@CChMemberListCtrl@@UAEXH_N@Z 004cae70 f i chanlist.obj
 0001:000ca100       ??_ECChMemberListCtrl@@UAEPAXI@Z 004cb100 f i chanlist.obj
 0001:000ca100       ??_GCChMemberListCtrl@@UAEPAXI@Z 004cb100 f i chanlist.obj
 0001:000ca170       ??1CChMemberListCtrl@@UAE@XZ 004cb170 f i chanlist.obj
 0001:000ca1f0       ??0CChBannedListWnd@@QAE@XZ 004cb1f0 f   chanlist.obj
 0001:000ca2d0       ??_ECChBannedListWnd@@UAEPAXI@Z 004cb2d0 f i chanlist.obj
 0001:000ca2d0       ??_GCChBannedListWnd@@UAEPAXI@Z 004cb2d0 f i chanlist.obj
 0001:000ca340       ??1CChBannedListWnd@@UAE@XZ 004cb340 f i chanlist.obj
 0001:000ca390       ?CloseSelf@CChBannedListWnd@@UAEX_N@Z 004cb390 f   chanlist.obj
 0001:000ca400       ?Create@CChBannedListWnd@@QAEHPAVPackedData@@@Z 004cb400 f   chanlist.obj
 0001:000ca590       ?MakeSkinCtrl@CChBannedListWnd@@UAEPAVCSkinCtrl@@VCSkinObj@@@Z 004cb590 f   chanlist.obj
 0001:000ca7e0       ??0CChBannedListCtrl@@QAE@XZ 004cb7e0 f i chanlist.obj
 0001:000ca860       ?OnItemActivate@CChBannedListCtrl@@UAEXH_N@Z 004cb860 f i chanlist.obj
 0001:000caa60       ??_GCChBannedListCtrl@@UAEPAXI@Z 004cba60 f i chanlist.obj
 0001:000caa60       ??_ECChBannedListCtrl@@UAEPAXI@Z 004cba60 f i chanlist.obj
 0001:000caad0       ??1CChBannedListCtrl@@UAE@XZ 004cbad0 f i chanlist.obj
 0001:000cab50       ?_GetBaseMessageMap@CGossipWnd@@KGPBUAFX_MSGMAP@@XZ 004cbb50 f   chanlist.obj
 0001:000cab80       ?GetMessageMap@CGossipWnd@@MBEPBUAFX_MSGMAP@@XZ 004cbb80 f   chanlist.obj
 0001:000cabc0       ??0CGossipWnd@@QAE@XZ      004cbbc0 f   chanlist.obj
 0001:000cada0       ??_ECGossipWnd@@UAEPAXI@Z  004cbda0 f i chanlist.obj
 0001:000cada0       ??_GCGossipWnd@@UAEPAXI@Z  004cbda0 f i chanlist.obj
 0001:000cae10       ??1CGossipWnd@@UAE@XZ      004cbe10 f i chanlist.obj
 0001:000caec0       ?ParseText@CGossipWnd@@UAEHPBD@Z 004cbec0 f   chanlist.obj
 0001:000cafc0       ?SetInChannel@CGossipWnd@@QAEX_N@Z 004cbfc0 f   chanlist.obj
 0001:000cb240       ?Create@CGossipWnd@@QAEHXZ 004cc240 f   chanlist.obj
 0001:000cb4f0       ?MakeSkinCtrl@CGossipWnd@@UAEPAVCSkinCtrl@@VCSkinObj@@@Z 004cc4f0 f   chanlist.obj
 0001:000cbc80       ?CloseSelf@CGossipWnd@@UAEX_N@Z 004ccc80 f   chanlist.obj
 0001:000cbce0       ?Update@CGossipWnd@@QAEXVObjectID@@@Z 004ccce0 f   chanlist.obj
 0001:000cbe20       ?Update@CGossipWnd@@QAEXPAD@Z 004cce20 f   chanlist.obj
 0001:000cc000       ?SetTitle@CGossipWnd@@QAEXPAD@Z 004cd000 f   chanlist.obj
 0001:000cc0a0       ?SetTopic@CGossipWnd@@QAEXPAD@Z 004cd0a0 f   chanlist.obj
 0001:000cc1a0       ?HandleVerb@CGossipWnd@@UAEHHVCSCI_WorldObject@@@Z 004cd1a0 f   chanlist.obj
 0001:000cc3d0       ?OnSetFocus@CGossipWnd@@QAEXPAVCWnd@@@Z 004cd3d0 f   chanlist.obj
 0001:000cc440       ??0CGossipLine@@QAE@VCSkinObj@@PAVCSkinWnd@@@Z 004cd440 f   chanlist.obj
 0001:000cc540       ??_GCGossipLine@@UAEPAXI@Z 004cd540 f i chanlist.obj
 0001:000cc540       ??_ECGossipLine@@UAEPAXI@Z 004cd540 f i chanlist.obj
 0001:000cc5b0       ??1CGossipLine@@UAE@XZ     004cd5b0 f i chanlist.obj
 0001:000cc600       ??1CSkinEdit@@UAE@XZ       004cd600 f i chanlist.obj
 0001:000cc6d0       ?OnReturn@CGossipLine@@UAEXXZ 004cd6d0 f   chanlist.obj
 0001:000cc7e0       ??0CSettingsBtn@@QAE@VCSkinObj@@PAVCSkinWnd@@@Z 004cd7e0 f   chanlist.obj
 0001:000cc8a0       ??_ECSettingsBtn@@UAEPAXI@Z 004cd8a0 f i chanlist.obj
 0001:000cc8a0       ??_GCSettingsBtn@@UAEPAXI@Z 004cd8a0 f i chanlist.obj
 0001:000cc910       ??1CSettingsBtn@@UAE@XZ    004cd910 f i chanlist.obj
 0001:000cc960       ?OnActivate@CSettingsBtn@@UAEXFF@Z 004cd960 f   chanlist.obj
 0001:000cca50       ??0CChannelsBtn@@QAE@VCSkinObj@@PAVCSkinWnd@@@Z 004cda50 f   chanlist.obj
 0001:000ccb10       ??_GCChannelsBtn@@UAEPAXI@Z 004cdb10 f i chanlist.obj
 0001:000ccb10       ??_ECChannelsBtn@@UAEPAXI@Z 004cdb10 f i chanlist.obj
 0001:000ccb80       ??1CChannelsBtn@@UAE@XZ    004cdb80 f i chanlist.obj
 0001:000ccbd0       ?OnActivate@CChannelsBtn@@UAEXFF@Z 004cdbd0 f   chanlist.obj
 0001:000ccc20       ??0CLeaveGossipBtn@@QAE@VCSkinObj@@PAVCSkinWnd@@@Z 004cdc20 f   chanlist.obj
 0001:000ccce0       ??_ECLeaveGossipBtn@@UAEPAXI@Z 004cdce0 f i chanlist.obj
 0001:000ccce0       ??_GCLeaveGossipBtn@@UAEPAXI@Z 004cdce0 f i chanlist.obj
 0001:000ccd50       ??1CLeaveGossipBtn@@UAE@XZ 004cdd50 f i chanlist.obj
 0001:000ccda0       ?OnActivate@CLeaveGossipBtn@@UAEXFF@Z 004cdda0 f   chanlist.obj
 0001:000cce30       ??0CModifyBtn@@QAE@VCSkinObj@@PAVCSkinWnd@@@Z 004cde30 f   chanlist.obj
 0001:000ccef0       ??_ECModifyBtn@@UAEPAXI@Z  004cdef0 f i chanlist.obj
 0001:000ccef0       ??_GCModifyBtn@@UAEPAXI@Z  004cdef0 f i chanlist.obj
 0001:000ccf60       ??1CModifyBtn@@UAE@XZ      004cdf60 f i chanlist.obj
 0001:000ccfb0       ?OnActivate@CModifyBtn@@UAEXFF@Z 004cdfb0 f   chanlist.obj
 0001:000cd0b0       ??0CGossipPanel@@QAE@XZ    004ce0b0 f   chanlist.obj
 0001:000cd120       ??_ECGossipPanel@@UAEPAXI@Z 004ce120 f i chanlist.obj
 0001:000cd120       ??_GCGossipPanel@@UAEPAXI@Z 004ce120 f i chanlist.obj
 0001:000cd190       ??1CGossipPanel@@UAE@XZ    004ce190 f i chanlist.obj
 0001:000cd1e0       ?Create@CGossipPanel@@UAEHXZ 004ce1e0 f   chanlist.obj
 0001:000cd2f0       ??0?$list@PADV?$allocator@PAD@std@@@std@@QAE@ABV?$allocator@PAD@1@@Z 004ce2f0 f i chanlist.obj
 0001:000cd360       ??1?$list@PADV?$allocator@PAD@std@@@std@@QAE@XZ 004ce360 f i chanlist.obj
 0001:000cd400       ?begin@?$list@PADV?$allocator@PAD@std@@@std@@QAE?AViterator@12@XZ 004ce400 f i chanlist.obj
 0001:000cd470       ?end@?$list@PADV?$allocator@PAD@std@@@std@@QAE?AViterator@12@XZ 004ce470 f i chanlist.obj
 0001:000cd4d0       ?size@?$list@PADV?$allocator@PAD@std@@@std@@QBEIXZ 004ce4d0 f i chanlist.obj
 0001:000cd510       ?empty@?$list@PADV?$allocator@PAD@std@@@std@@QBE_NXZ 004ce510 f i chanlist.obj
 0001:000cd560       ?push_back@?$list@PADV?$allocator@PAD@std@@@std@@QAEXABQAD@Z 004ce560 f i chanlist.obj
 0001:000cd5d0       ?clear@?$list@PADV?$allocator@PAD@std@@@std@@QAEXXZ 004ce5d0 f i chanlist.obj
 0001:000cd640       ?remove@?$list@PADV?$allocator@PAD@std@@@std@@QAEXABQAD@Z 004ce640 f i chanlist.obj
 0001:000cd710       ??0iterator@?$list@PADV?$allocator@PAD@std@@@std@@QAE@XZ 004ce710 f i chanlist.obj
 0001:000cd760       ??Diterator@?$list@PADV?$allocator@PAD@std@@@std@@QBEAAPADXZ 004ce760 f i chanlist.obj
 0001:000cd7b0       ??Eiterator@?$list@PADV?$allocator@PAD@std@@@std@@QAE?AV012@H@Z 004ce7b0 f i chanlist.obj
 0001:000cd810       ??9iterator@?$list@PADV?$allocator@PAD@std@@@std@@QBE_NABV012@@Z 004ce810 f i chanlist.obj
 0001:000cd870       ?insert@?$list@PADV?$allocator@PAD@std@@@std@@QAE?AViterator@12@V312@ABQAD@Z 004ce870 f i chanlist.obj
 0001:000cd980       ?erase@?$list@PADV?$allocator@PAD@std@@@std@@QAE?AViterator@12@V312@@Z 004ce980 f i chanlist.obj
 0001:000cda90       ?erase@?$list@PADV?$allocator@PAD@std@@@std@@QAE?AViterator@12@V312@0@Z 004cea90 f i chanlist.obj
 0001:000cdb20       ?_Buynode@?$list@PADV?$allocator@PAD@std@@@std@@IAEPAU_Node@12@PAU312@0@Z 004ceb20 f i chanlist.obj
 0001:000cdbd0       ?_Freenode@?$list@PADV?$allocator@PAD@std@@@std@@IAEXPAU_Node@12@@Z 004cebd0 f i chanlist.obj
 0001:000cdc20       ?_Next@_Acc@?$list@PADV?$allocator@PAD@std@@@std@@SAAAPAU_Node@23@PAU423@@Z 004cec20 f i chanlist.obj
 0001:000cdc50       ?_Value@_Acc@?$list@PADV?$allocator@PAD@std@@@std@@SAAAPADPAU_Node@23@@Z 004cec50 f i chanlist.obj
 0001:000cdc80       ??0const_iterator@?$list@PADV?$allocator@PAD@std@@@std@@QAE@XZ 004cec80 f i chanlist.obj
 0001:000cdcb0       ??0iterator@?$list@PADV?$allocator@PAD@std@@@std@@QAE@PAU_Node@12@@Z 004cecb0 f i chanlist.obj
 0001:000cdd00       ??Eiterator@?$list@PADV?$allocator@PAD@std@@@std@@QAEAAV012@XZ 004ced00 f i chanlist.obj
 0001:000cdd60       ??8iterator@?$list@PADV?$allocator@PAD@std@@@std@@QBE_NABV012@@Z 004ced60 f i chanlist.obj
 0001:000cddb0       ?_Prev@_Acc@?$list@PADV?$allocator@PAD@std@@@std@@SAAAPAU_Node@23@PAU423@@Z 004cedb0 f i chanlist.obj
 0001:000cdde0       ?_Charalloc@?$allocator@PAD@std@@QAEPADI@Z 004cede0 f i chanlist.obj
 0001:000cde30       ?deallocate@?$allocator@PAD@std@@QAEXPAXI@Z 004cee30 f i chanlist.obj
 0001:000cde80       ?construct@?$allocator@PAD@std@@QAEXPAPADABQAD@Z 004cee80 f i chanlist.obj
 0001:000cded0       ?destroy@?$allocator@PAD@std@@QAEXPAPAD@Z 004ceed0 f i chanlist.obj
 0001:000cdf20       ??0const_iterator@?$list@PADV?$allocator@PAD@std@@@std@@QAE@PAU_Node@12@@Z 004cef20 f i chanlist.obj
 0001:000cdf60       ?_Mynode@const_iterator@?$list@PADV?$allocator@PAD@std@@@std@@QBEPAU_Node@23@XZ 004cef60 f i chanlist.obj
 0001:000cdfa0       ?_Construct@std@@YAXPAPADABQAD@Z 004cefa0 f i chanlist.obj
 0001:000ce010       ?_Destroy@std@@YAXPAPAD@Z  004cf010 f i chanlist.obj
 0001:000ce040       ??_ECChMemberListCtrl@@WEA@AEPAXI@Z 004cf040 f i chanlist.obj
 0001:000ce050       ??_ECChMemberListCtrl@@WHE@AEPAXI@Z 004cf050 f i chanlist.obj
 0001:000ce060       ??_ECChBannedListCtrl@@WEA@AEPAXI@Z 004cf060 f i chanlist.obj
 0001:000ce070       ??_ECChBannedListCtrl@@WHE@AEPAXI@Z 004cf070 f i chanlist.obj
 0001:000ce080       ??_ECGossipLine@@WGA@AEPAXI@Z 004cf080 f i chanlist.obj
 0001:000ce090       ??_ECGossipLine@@WHE@AEPAXI@Z 004cf090 f i chanlist.obj
 0001:000ce0a0       ??_ECGossipWnd@@WJE@AEPAXI@Z 004cf0a0 f i chanlist.obj
 0001:000ce0b0       ??_ECChannelListCtrl@@WEA@AEPAXI@Z 004cf0b0 f i chanlist.obj
 0001:000ce0c0       ??_ECChannelListCtrl@@WHE@AEPAXI@Z 004cf0c0 f i chanlist.obj
 0001:000ce0d0       ?SetTabWindow@CMainPanelWnd@@QAEXHPAVCWnd@@@Z 004cf0d0 f i chanlist.obj
 0001:000ce140       ?AlertTab@CMainPanelWnd@@QAEXH@Z 004cf140 f i chanlist.obj
 0001:000ce1b0       ?GetShowGspTab@CMainPanelWnd@@QAEHXZ 004cf1b0 f i chanlist.obj
 0001:000ce1f0       ?get_TabDisplay@CToonSettings@@QAEHXZ 004cf1f0 f i chanlist.obj
 0001:000ce230       ?getChannel_Number@CToonSettings@@QAEHXZ 004cf230 f i chanlist.obj
 0001:000ce270       ?setChannel_AttemptJoin@CToonSettings@@QAEXH@Z 004cf270 f i chanlist.obj
 0001:000ce2b0       ?getChannel_Title@CToonSettings@@QAE?AVCString@@XZ 004cf2b0 f i chanlist.obj
 0001:000ce320       ?getChannel_Leader@CToonSettings@@QAE_NXZ 004cf320 f i chanlist.obj
 0001:000ce810       ?judgeValue@@YA?AVCString@@H@Z 004cf810 f   charmake.obj
 0001:000ce990       ??0CToonMakeWndBase@@QAE@XZ 004cf990 f   charmake.obj
 0001:000cea90       ??_GCToonMakeWndBase@@UAEPAXI@Z 004cfa90 f i charmake.obj
 0001:000cea90       ??_ECToonMakeWndBase@@UAEPAXI@Z 004cfa90 f i charmake.obj
 0001:000ceb00       ??1CToonMakeWndBase@@UAE@XZ 004cfb00 f i charmake.obj
 0001:000cebb0       ?CloseSelf@CToonMakeWndBase@@UAEX_N@Z 004cfbb0 f   charmake.obj
 0001:000cec00       ?TogglePeace@CToonMakeWndBase@@QAE_NXZ 004cfc00 f   charmake.obj
 0001:000cec70       ?CheckNames@CToonMakeWndBase@@QAE_NXZ 004cfc70 f   charmake.obj
 0001:000ceea0       ?Create@CToonMakeWndBase@@QAEHPBD@Z 004cfea0 f   charmake.obj
 0001:000cf2f0       ??4CSkinObj@@QAEAAV0@ABV0@@Z 004d02f0 f i charmake.obj
 0001:000cf340       ?MakeSkinCtrl@CToonMakeWndBase@@UAEPAVCSkinCtrl@@VCSkinObj@@@Z 004d0340 f   charmake.obj
 0001:000d0170       ??0CToonMakeWnd@@QAE@XZ    004d1170 f   charmake.obj
 0001:000d0260       ??_GCToonMakeWnd@@UAEPAXI@Z 004d1260 f i charmake.obj
 0001:000d0260       ??_ECToonMakeWnd@@UAEPAXI@Z 004d1260 f i charmake.obj
 0001:000d02d0       ??1CToonMakeWnd@@UAE@XZ    004d12d0 f i charmake.obj
 0001:000d0380       ??0CToonMakeWnd@@QAE@VObjectID@@00000@Z 004d1380 f   charmake.obj
 0001:000d0550       ?Create@CToonMakeWnd@@QAEHXZ 004d1550 f   charmake.obj
 0001:000d0860       ?UpdateStats@CToonMakeWnd@@UAEXXZ 004d1860 f   charmake.obj
 0001:000d0a30       ?UpdateBitmaps@CToonMakeWnd@@UAEXXZ 004d1a30 f   charmake.obj
 0001:000d0e20       ?MakeSkinCtrl@CToonMakeWnd@@UAEPAVCSkinCtrl@@VCSkinObj@@@Z 004d1e20 f   charmake.obj
 0001:000d1140       ?Previous@CToonMakeWnd@@UAEXXZ 004d2140 f   charmake.obj
 0001:000d11d0       ?Next@CToonMakeWnd@@UAEXXZ 004d21d0 f   charmake.obj
 0001:000d12d0       ?FeatureUp@CToonMakeWnd@@QAEXH@Z 004d22d0 f   charmake.obj
 0001:000d13a0       ??0CSCI_fNFace@@QAE@ABV0@@Z 004d23a0 f i charmake.obj
 0001:000d13f0       ??0CSCI_BHead@@QAE@ABV0@@Z 004d23f0 f i charmake.obj
 0001:000d1440       ??0CSCI_BWearable@@QAE@ABV0@@Z 004d2440 f i charmake.obj
 0001:000d1490       ??0CSCI_WorldObjectBase@@QAE@ABV0@@Z 004d2490 f i charmake.obj
 0001:000d14e0       ?FeatureDown@CToonMakeWnd@@QAEXH@Z 004d24e0 f   charmake.obj
 0001:000d15b0       ?RaceUp@CToonMakeWnd@@QAEXXZ 004d25b0 f   charmake.obj
 0001:000d1770       ?RaceDown@CToonMakeWnd@@QAEXXZ 004d2770 f   charmake.obj
 0001:000d1930       ?Sex@CToonMakeWnd@@QAEXXZ  004d2930 f   charmake.obj
 0001:000d19c0       ?Resize@CToonMakeWnd@@QAEXXZ 004d29c0 f   charmake.obj
 0001:000d1a70       ?Random@CToonMakeWnd@@QAEXXZ 004d2a70 f   charmake.obj
 0001:000d1c70       ??0CToonAttributeWnd@@QAE@XZ 004d2c70 f   charmake.obj
 0001:000d1ce0       ??_ECToonAttributeWnd@@UAEPAXI@Z 004d2ce0 f i charmake.obj
 0001:000d1ce0       ??_GCToonAttributeWnd@@UAEPAXI@Z 004d2ce0 f i charmake.obj
 0001:000d1d50       ??1CToonAttributeWnd@@UAE@XZ 004d2d50 f i charmake.obj
 0001:000d1da0       ?Create@CToonAttributeWnd@@QAEHXZ 004d2da0 f   charmake.obj
 0001:000d1f50       ?ChangeAvailble@CToonAttributeWnd@@QAEXH@Z 004d2f50 f   charmake.obj
 0001:000d21a0       ?ChangeProfession@CToonAttributeWnd@@QAEXHH@Z 004d31a0 f   charmake.obj
 0001:000d2580       ??0CSCI_BCharacter@@QAE@ABV0@@Z 004d3580 f i charmake.obj
 0001:000d25d0       ?UpdateBitmaps@CToonAttributeWnd@@UAEXXZ 004d35d0 f   charmake.obj
 0001:000d2810       ?UpdateStats@CToonAttributeWnd@@UAEXXZ 004d3810 f   charmake.obj
 0001:000d2de0       ?UpdateText@CToonAttributeWnd@@UAEXXZ 004d3de0 f   charmake.obj
 0001:000d3210       ?Previous@CToonAttributeWnd@@UAEXXZ 004d4210 f   charmake.obj
 0001:000d3310       ?Next@CToonAttributeWnd@@UAEXXZ 004d4310 f   charmake.obj
 0001:000d34d0       ?MakeSkinCtrl@CToonAttributeWnd@@UAEPAVCSkinCtrl@@VCSkinObj@@@Z 004d44d0 f   charmake.obj
 0001:000d3f20       ??0CToonBioWnd@@QAE@XZ     004d4f20 f   charmake.obj
 0001:000d3f80       ??_GCToonBioWnd@@UAEPAXI@Z 004d4f80 f i charmake.obj
 0001:000d3f80       ??_ECToonBioWnd@@UAEPAXI@Z 004d4f80 f i charmake.obj
 0001:000d3ff0       ??1CToonBioWnd@@UAE@XZ     004d4ff0 f i charmake.obj
 0001:000d4040       ?CloseSelf@CToonBioWnd@@UAEX_N@Z 004d5040 f   charmake.obj
 0001:000d40a0       ?Create@CToonBioWnd@@QAEHXZ 004d50a0 f   charmake.obj
 0001:000d4210       ?MakeSkinCtrl@CToonBioWnd@@UAEPAVCSkinCtrl@@VCSkinObj@@@Z 004d5210 f   charmake.obj
 0001:000d4440       ?UpdateStats@CToonBioWnd@@UAEXXZ 004d5440 f   charmake.obj
 0001:000d44c0       ?UpdateBitmaps@CToonBioWnd@@UAEXXZ 004d54c0 f   charmake.obj
 0001:000d48b0       ?Previous@CToonBioWnd@@UAEXXZ 004d58b0 f   charmake.obj
 0001:000d4a00       ?Next@CToonBioWnd@@UAEXXZ  004d5a00 f   charmake.obj
 0001:000d4c70       ??0CToonMakeFeatureUpBtn@@QAE@VCSkinObj@@PAVCSkinWnd@@@Z 004d5c70 f   charmake.obj
 0001:000d4db0       ??_ECToonMakeFeatureUpBtn@@UAEPAXI@Z 004d5db0 f i charmake.obj
 0001:000d4db0       ??_GCToonMakeFeatureUpBtn@@UAEPAXI@Z 004d5db0 f i charmake.obj
 0001:000d4e20       ??1CToonMakeFeatureUpBtn@@UAE@XZ 004d5e20 f i charmake.obj
 0001:000d4e70       ?OnActivate@CToonMakeFeatureUpBtn@@UAEXFF@Z 004d5e70 f   charmake.obj
 0001:000d4ed0       ??0CToonMakeFeatureDownBtn@@QAE@VCSkinObj@@PAVCSkinWnd@@@Z 004d5ed0 f   charmake.obj
 0001:000d5010       ??_ECToonMakeFeatureDownBtn@@UAEPAXI@Z 004d6010 f i charmake.obj
 0001:000d5010       ??_GCToonMakeFeatureDownBtn@@UAEPAXI@Z 004d6010 f i charmake.obj
 0001:000d5080       ??1CToonMakeFeatureDownBtn@@UAE@XZ 004d6080 f i charmake.obj
 0001:000d50d0       ?OnActivate@CToonMakeFeatureDownBtn@@UAEXFF@Z 004d60d0 f   charmake.obj
 0001:000d5130       ??0CToonMakeRaceUpBtn@@QAE@VCSkinObj@@PAVCSkinWnd@@@Z 004d6130 f   charmake.obj
 0001:000d51f0       ??_ECToonMakeRaceUpBtn@@UAEPAXI@Z 004d61f0 f i charmake.obj
 0001:000d51f0       ??_GCToonMakeRaceUpBtn@@UAEPAXI@Z 004d61f0 f i charmake.obj
 0001:000d5260       ??1CToonMakeRaceUpBtn@@UAE@XZ 004d6260 f i charmake.obj
 0001:000d52b0       ?OnActivate@CToonMakeRaceUpBtn@@UAEXFF@Z 004d62b0 f   charmake.obj
 0001:000d5310       ??0CToonMakeRaceDownBtn@@QAE@VCSkinObj@@PAVCSkinWnd@@@Z 004d6310 f   charmake.obj
 0001:000d53d0       ??_ECToonMakeRaceDownBtn@@UAEPAXI@Z 004d63d0 f i charmake.obj
 0001:000d53d0       ??_GCToonMakeRaceDownBtn@@UAEPAXI@Z 004d63d0 f i charmake.obj
 0001:000d5440       ??1CToonMakeRaceDownBtn@@UAE@XZ 004d6440 f i charmake.obj
 0001:000d5490       ?OnActivate@CToonMakeRaceDownBtn@@UAEXFF@Z 004d6490 f   charmake.obj
 0001:000d54f0       ??0CToonMakeSexBtn@@QAE@VCSkinObj@@PAVCSkinWnd@@@Z 004d64f0 f   charmake.obj
 0001:000d55b0       ??_ECToonMakeSexBtn@@UAEPAXI@Z 004d65b0 f i charmake.obj
 0001:000d55b0       ??_GCToonMakeSexBtn@@UAEPAXI@Z 004d65b0 f i charmake.obj
 0001:000d5620       ??1CToonMakeSexBtn@@UAE@XZ 004d6620 f i charmake.obj
 0001:000d5670       ?OnActivate@CToonMakeSexBtn@@UAEXFF@Z 004d6670 f   charmake.obj
 0001:000d56d0       ??0CToonMakeRandomBtn@@QAE@VCSkinObj@@PAVCSkinWnd@@@Z 004d66d0 f   charmake.obj
 0001:000d5790       ??_ECToonMakeRandomBtn@@UAEPAXI@Z 004d6790 f i charmake.obj
 0001:000d5790       ??_GCToonMakeRandomBtn@@UAEPAXI@Z 004d6790 f i charmake.obj
 0001:000d5800       ??1CToonMakeRandomBtn@@UAE@XZ 004d6800 f i charmake.obj
 0001:000d5850       ?OnActivate@CToonMakeRandomBtn@@UAEXFF@Z 004d6850 f   charmake.obj
 0001:000d58b0       ??0CSkinSizeAttribute@@QAE@VCSkinObj@@PAVCSkinWnd@@@Z 004d68b0 f   charmake.obj
 0001:000d5970       ??_GCSkinSizeAttribute@@UAEPAXI@Z 004d6970 f i charmake.obj
 0001:000d5970       ??_ECSkinSizeAttribute@@UAEPAXI@Z 004d6970 f i charmake.obj
 0001:000d59e0       ??1CSkinSizeAttribute@@UAE@XZ 004d69e0 f i charmake.obj
 0001:000d5a30       ??1CSkinAttribute@@UAE@XZ  004d6a30 f i charmake.obj
 0001:000d5a80       ?ChangeValue@CSkinSizeAttribute@@UAEXH@Z 004d6a80 f   charmake.obj
 0001:000d5af0       ??0CSkinToonAttribute@@QAE@VCSkinObj@@PAVCSkinWnd@@@Z 004d6af0 f   charmake.obj
 0001:000d5bb0       ??_GCSkinToonAttribute@@UAEPAXI@Z 004d6bb0 f i charmake.obj
 0001:000d5bb0       ??_ECSkinToonAttribute@@UAEPAXI@Z 004d6bb0 f i charmake.obj
 0001:000d5c20       ??1CSkinToonAttribute@@UAE@XZ 004d6c20 f i charmake.obj
 0001:000d5c70       ?ChangeValue@CSkinToonAttribute@@UAEXH@Z 004d6c70 f   charmake.obj
 0001:000d5d60       ??0CSkinProfAttribute@@QAE@VCSkinObj@@PAVCSkinWnd@@@Z 004d6d60 f   charmake.obj
 0001:000d5e20       ??_GCSkinProfAttribute@@UAEPAXI@Z 004d6e20 f i charmake.obj
 0001:000d5e20       ??_ECSkinProfAttribute@@UAEPAXI@Z 004d6e20 f i charmake.obj
 0001:000d5e90       ??1CSkinProfAttribute@@UAE@XZ 004d6e90 f i charmake.obj
 0001:000d5ee0       ?ChangeValue@CSkinProfAttribute@@UAEXH@Z 004d6ee0 f   charmake.obj
 0001:000d5f90       ??0CSkinAlignAttribute@@QAE@VCSkinObj@@PAVCSkinWnd@@@Z 004d6f90 f   charmake.obj
 0001:000d6050       ??_ECSkinAlignAttribute@@UAEPAXI@Z 004d7050 f i charmake.obj
 0001:000d6050       ??_GCSkinAlignAttribute@@UAEPAXI@Z 004d7050 f i charmake.obj
 0001:000d60c0       ??1CSkinAlignAttribute@@UAE@XZ 004d70c0 f i charmake.obj
 0001:000d6110       ?ChangeValue@CSkinAlignAttribute@@UAEXH@Z 004d7110 f   charmake.obj
 0001:000d61e0       ??0CSkinCombatAttribute@@QAE@VCSkinObj@@PAVCSkinWnd@@@Z 004d71e0 f   charmake.obj
 0001:000d62a0       ??_GCSkinCombatAttribute@@UAEPAXI@Z 004d72a0 f i charmake.obj
 0001:000d62a0       ??_ECSkinCombatAttribute@@UAEPAXI@Z 004d72a0 f i charmake.obj
 0001:000d6310       ??1CSkinCombatAttribute@@UAE@XZ 004d7310 f i charmake.obj
 0001:000d6360       ?ChangeValue@CSkinCombatAttribute@@UAEXH@Z 004d7360 f   charmake.obj
 0001:000d63f0       ??0CSCI_MusicMgr@@QAE@G@Z  004d73f0 f i charmake.obj
 0001:000d6440       ??0CSCI_Sound@@QAE@G@Z     004d7440 f i charmake.obj
 0001:000d6490       ?get_xScaleAdj@CSCI_Feature@@QAEFXZ 004d7490 f i charmake.obj
 0001:000d64e0       ?set_xScaleAdj@CSCI_Feature@@QAEXF@Z 004d74e0 f i charmake.obj
 0001:000d6540       ?get_yScaleAdj@CSCI_Feature@@QAEFXZ 004d7540 f i charmake.obj
 0001:000d6590       ?set_yScaleAdj@CSCI_Feature@@QAEXF@Z 004d7590 f i charmake.obj
 0001:000d65f0       ?get_pProfession@CSCI_BCharacter@@QAEFXZ 004d75f0 f i charmake.obj
 0001:000d6640       ?set_pProfession@CSCI_BCharacter@@QAEXF@Z 004d7640 f i charmake.obj
 0001:000d66a0       ?get_pRace@CSCI_BCharacter@@QAEFXZ 004d76a0 f i charmake.obj
 0001:000d66f0       ?set_pPeaceful@CSCI_BCharacter@@QAEXF@Z 004d76f0 f i charmake.obj
 0001:000d6750       ?get_pStrength@CSCI_WorldObject@@QAEFXZ 004d7750 f i charmake.obj
 0001:000d67a0       ?set_pStrength@CSCI_WorldObject@@QAEXF@Z 004d77a0 f i charmake.obj
 0001:000d6800       ?get_pDexterity@CSCI_WorldObject@@QAEFXZ 004d7800 f i charmake.obj
 0001:000d6850       ?set_pDexterity@CSCI_WorldObject@@QAEXF@Z 004d7850 f i charmake.obj
 0001:000d68b0       ?get_pIntelligence@CSCI_WorldObject@@QAEFXZ 004d78b0 f i charmake.obj
 0001:000d6900       ?set_pIntelligence@CSCI_WorldObject@@QAEXF@Z 004d7900 f i charmake.obj
 0001:000d6960       ?get_pEndurance@CSCI_WorldObject@@QAEFXZ 004d7960 f i charmake.obj
 0001:000d69b0       ?set_pEndurance@CSCI_WorldObject@@QAEXF@Z 004d79b0 f i charmake.obj
 0001:000d6a10       ?set_pAlignment@CSCI_WorldObject@@QAEXF@Z 004d7a10 f i charmake.obj
 0001:000d6a70       ?get_pHead@CSCI_WorldActor@@QAEFXZ 004d7a70 f i charmake.obj
 0001:000d6ac0       ??0CSCI_fNFace@@QAE@G@Z    004d7ac0 f i charmake.obj
 0001:000d6b10       ??0CSCI_fNBody@@QAE@ABVObjectID@@@Z 004d7b10 f i charmake.obj
 0001:000d6b60       ??0CSCI_WorldEgo@@QAE@ABVMemID@@@Z 004d7b60 f i charmake.obj
 0001:000d6bb0       ??0CSCI_WorldActor@@QAE@ABVMemID@@@Z 004d7bb0 f i charmake.obj
 0001:000d6c00       ??0CSCI_fNBody@@QAE@G@Z    004d7c00 f i charmake.obj
 0001:000d6c50       ??0CSCI_WorldEgo@@QAE@G@Z  004d7c50 f i charmake.obj
 0001:000d6ca0       ??0CSCI_WorldActor@@QAE@G@Z 004d7ca0 f i charmake.obj
 0001:000d6cf0       ?SetBase@CSkinAttribute@@QAEXH@Z 004d7cf0 f i charmake.obj
 0001:000d6d50       ?GetCurrent@CSkinAttribute@@QAEHXZ 004d7d50 f i charmake.obj
 0001:000d6d90       ?UpdateBitmaps@CToonMakeWndBase@@UAEXXZ 004d7d90 f i charmake.obj
 0001:000d6dc0       ?UpdateStats@CToonMakeWndBase@@UAEXXZ 004d7dc0 f i charmake.obj
 0001:000d6df0       ?UpdateText@CToonMakeWndBase@@UAEXXZ 004d7df0 f i charmake.obj
 0001:000d6e20       ?Previous@CToonMakeWndBase@@UAEXXZ 004d7e20 f i charmake.obj
 0001:000d6e50       ?Next@CToonMakeWndBase@@UAEXXZ 004d7e50 f i charmake.obj
 0001:000d6fc0       ??0CCharSelectWnd@@QAE@XZ  004d7fc0 f   charsel.obj
 0001:000d7210       ??_ECCharSelectWnd@@UAEPAXI@Z 004d8210 f i charsel.obj
 0001:000d7210       ??_GCCharSelectWnd@@UAEPAXI@Z 004d8210 f i charsel.obj
 0001:000d7280       ??1CCharSelectWnd@@UAE@XZ  004d8280 f   charsel.obj
 0001:000d7600       ?Create@CCharSelectWnd@@QAEHPAVCWnd@@@Z 004d8600 f   charsel.obj
 0001:000d7c00       ?AddPlayButton@CCharSelectWnd@@QAEHVCSCI_WorldActor@@@Z 004d8c00 f   charsel.obj
 0001:000d83d0       ?AddCreateButton@CCharSelectWnd@@QAEHXZ 004d93d0 f   charsel.obj
 0001:000d84f0       ?MakeSkinCtrl@CCharSelectWnd@@UAEPAVCSkinCtrl@@VCSkinObj@@@Z 004d94f0 f   charsel.obj
 0001:000d8870       ?MoveHighlight@CCharSelectWnd@@QAEHHPAVCSkinCtrl@@@Z 004d9870 f   charsel.obj
 0001:000d8c40       ?GetHighlightPosn@CCharSelectWnd@@QAEHXZ 004d9c40 f   charsel.obj
 0001:000d8c80       ?GetHighlightOwner@CCharSelectWnd@@QAEPAVCSkinCtrl@@XZ 004d9c80 f   charsel.obj
 0001:000d8cc0       ?LockHighlight@CCharSelectWnd@@QAEHXZ 004d9cc0 f   charsel.obj
 0001:000d8d10       ?UnlockHighlight@CCharSelectWnd@@QAEHXZ 004d9d10 f   charsel.obj
 0001:000d8d60       ?GetCharacterName@CCharSelectWnd@@QAE?AVCString@@H@Z 004d9d60 f   charsel.obj
 0001:000d8de0       ?GetCharacter@CCharSelectWnd@@QAE?AVCSCI_WorldActor@@H@Z 004d9de0 f   charsel.obj
 0001:000d8e50       ??0CSCI_WorldActor@@QAE@ABV0@@Z 004d9e50 f i charsel.obj
 0001:000d8ea0       ?EnterGame@CCharSelectWnd@@QAEXVCSCI_WorldObject@@@Z 004d9ea0 f   charsel.obj
 0001:000d9060       ?HandleVerb@CCharSelectWnd@@UAEHHVCSCI_WorldObject@@@Z 004da060 f   charsel.obj
 0001:000d9250       ??0CCharSelPlayBtn@@QAE@VCSkinObj@@PAVCSkinWnd@@@Z 004da250 f   charsel.obj
 0001:000d93e0       ??_GCCharSelPlayBtn@@UAEPAXI@Z 004da3e0 f i charsel.obj
 0001:000d93e0       ??_ECCharSelPlayBtn@@UAEPAXI@Z 004da3e0 f i charsel.obj
 0001:000d9450       ??1CSkinToggleBtn@@UAE@XZ  004da450 f i charsel.obj
 0001:000d94a0       ??1CCharSelPlayBtn@@UAE@XZ 004da4a0 f   charsel.obj
 0001:000d94f0       ?ShowHighlighted@CCharSelPlayBtn@@UAEXXZ 004da4f0 f   charsel.obj
 0001:000d9590       ?ShowNormal@CCharSelPlayBtn@@UAEXXZ 004da590 f   charsel.obj
 0001:000d9640       ?ShowPressed@CCharSelPlayBtn@@UAEXXZ 004da640 f   charsel.obj
 0001:000d96e0       ?OnActivate@CCharSelPlayBtn@@UAEXFF@Z 004da6e0 f   charsel.obj
 0001:000d97d0       ??0CCharSelCreateBtn@@QAE@VCSkinObj@@PAVCSkinWnd@@@Z 004da7d0 f   charsel.obj
 0001:000d9890       ??_ECCharSelCreateBtn@@UAEPAXI@Z 004da890 f i charsel.obj
 0001:000d9890       ??_GCCharSelCreateBtn@@UAEPAXI@Z 004da890 f i charsel.obj
 0001:000d9900       ??1CCharSelCreateBtn@@UAE@XZ 004da900 f   charsel.obj
 0001:000d9950       ?OnActivate@CCharSelCreateBtn@@UAEXFF@Z 004da950 f   charsel.obj
 0001:000d9a50       ??0CCharSelHotSpot@@QAE@VCSkinObj@@PAVCSkinWnd@@@Z 004daa50 f   charsel.obj
 0001:000d9be0       ??_GCCharSelHotSpot@@UAEPAXI@Z 004dabe0 f i charsel.obj
 0001:000d9be0       ??_ECCharSelHotSpot@@UAEPAXI@Z 004dabe0 f i charsel.obj
 0001:000d9c50       ??1CCharSelHotSpot@@UAE@XZ 004dac50 f   charsel.obj
 0001:000d9ca0       ?ShowHighlighted@CCharSelHotSpot@@UAEXXZ 004daca0 f   charsel.obj
 0001:000d9d40       ?ShowNormal@CCharSelHotSpot@@UAEXXZ 004dad40 f   charsel.obj
 0001:000d9df0       ?ShowPressed@CCharSelHotSpot@@UAEXXZ 004dadf0 f   charsel.obj
 0001:000d9e90       ?OnActivate@CCharSelHotSpot@@UAEXFF@Z 004dae90 f   charsel.obj
 0001:000da060       ?_GetBaseMessageMap@CEraseDlg@@KGPBUAFX_MSGMAP@@XZ 004db060 f   charsel.obj
 0001:000da090       ?GetMessageMap@CEraseDlg@@MBEPBUAFX_MSGMAP@@XZ 004db090 f   charsel.obj
 0001:000da0d0       ??0CEraseDlg@@QAE@XZ       004db0d0 f   charsel.obj
 0001:000da180       ??_GCEraseDlg@@UAEPAXI@Z   004db180 f i charsel.obj
 0001:000da180       ??_ECEraseDlg@@UAEPAXI@Z   004db180 f i charsel.obj
 0001:000da1f0       ??1CEraseDlg@@UAE@XZ       004db1f0 f i charsel.obj
 0001:000da240       ?Create@CEraseDlg@@QAEHVCSCI_WorldObject@@@Z 004db240 f   charsel.obj
 0001:000da4e0       ?MakeSkinCtrl@CEraseDlg@@UAEPAVCSkinCtrl@@VCSkinObj@@@Z 004db4e0 f   charsel.obj
 0001:000da910       ?OnResize@CEraseDlg@@QAEXPAUtagNMHDR@@PAJ@Z 004db910 f   charsel.obj
 0001:000daa00       ??0CEraseToonBtn@@QAE@VCSkinObj@@PAVCSkinWnd@@VCSCI_WorldObject@@@Z 004dba00 f   charsel.obj
 0001:000daae0       ??_GCEraseToonBtn@@UAEPAXI@Z 004dbae0 f i charsel.obj
 0001:000daae0       ??_ECEraseToonBtn@@UAEPAXI@Z 004dbae0 f i charsel.obj
 0001:000dab50       ??1CEraseToonBtn@@UAE@XZ   004dbb50 f i charsel.obj
 0001:000daba0       ?OnActivate@CEraseToonBtn@@UAEXFF@Z 004dbba0 f   charsel.obj
 0001:000dac40       ??A?$bitset@$04@std@@QAE?AVreference@01@I@Z 004dbc40 f i charsel.obj
 0001:000dacb0       ??Breference@?$bitset@$04@std@@QBE_NXZ 004dbcb0 f i charsel.obj
 0001:000dad00       ??0?$vector@PAVCSkinCtrl@@V?$allocator@PAVCSkinCtrl@@@std@@@std@@QAE@ABV?$allocator@PAVCSkinCtrl@@@1@@Z 004dbd00 f i charsel.obj
 0001:000dad70       ??1?$vector@PAVCSkinCtrl@@V?$allocator@PAVCSkinCtrl@@@std@@@std@@QAE@XZ 004dbd70 f i charsel.obj
 0001:000dae20       ??A?$vector@PAVCSkinCtrl@@V?$allocator@PAVCSkinCtrl@@@std@@@std@@QAEAAPAVCSkinCtrl@@I@Z 004dbe20 f i charsel.obj
 0001:000dae70       ?push_back@?$vector@PAVCSkinCtrl@@V?$allocator@PAVCSkinCtrl@@@std@@@std@@QAEXABQAVCSkinCtrl@@@Z 004dbe70 f i charsel.obj
 0001:000daed0       ??0?$vector@VCSkinObj@@V?$allocator@VCSkinObj@@@std@@@std@@QAE@ABV?$allocator@VCSkinObj@@@1@@Z 004dbed0 f i charsel.obj
 0001:000daf40       ??1?$vector@VCSkinObj@@V?$allocator@VCSkinObj@@@std@@@std@@QAE@XZ 004dbf40 f i charsel.obj
 0001:000daff0       ??A?$vector@VCSkinObj@@V?$allocator@VCSkinObj@@@std@@@std@@QAEAAVCSkinObj@@I@Z 004dbff0 f i charsel.obj
 0001:000db040       ?push_back@?$vector@VCSkinObj@@V?$allocator@VCSkinObj@@@std@@@std@@QAEXABVCSkinObj@@@Z 004dc040 f i charsel.obj
 0001:000db0a0       ??0?$vector@PAVCSkinBitmap@@V?$allocator@PAVCSkinBitmap@@@std@@@std@@QAE@ABV?$allocator@PAVCSkinBitmap@@@1@@Z 004dc0a0 f i charsel.obj
 0001:000db110       ??1?$vector@PAVCSkinBitmap@@V?$allocator@PAVCSkinBitmap@@@std@@@std@@QAE@XZ 004dc110 f i charsel.obj
 0001:000db1c0       ?begin@?$vector@PAVCSkinBitmap@@V?$allocator@PAVCSkinBitmap@@@std@@@std@@QAEPAPAVCSkinBitmap@@XZ 004dc1c0 f i charsel.obj
 0001:000db200       ?end@?$vector@PAVCSkinBitmap@@V?$allocator@PAVCSkinBitmap@@@std@@@std@@QAEPAPAVCSkinBitmap@@XZ 004dc200 f i charsel.obj
 0001:000db240       ??A?$vector@PAVCSkinBitmap@@V?$allocator@PAVCSkinBitmap@@@std@@@std@@QAEAAPAVCSkinBitmap@@I@Z 004dc240 f i charsel.obj
 0001:000db290       ?push_back@?$vector@PAVCSkinBitmap@@V?$allocator@PAVCSkinBitmap@@@std@@@std@@QAEXABQAVCSkinBitmap@@@Z 004dc290 f i charsel.obj
 0001:000db2f0       ?clear@?$vector@PAVCSkinBitmap@@V?$allocator@PAVCSkinBitmap@@@std@@@std@@QAEXXZ 004dc2f0 f i charsel.obj
 0001:000db350       ??0?$vector@PAVCPoint@@V?$allocator@PAVCPoint@@@std@@@std@@QAE@ABV?$allocator@PAVCPoint@@@1@@Z 004dc350 f i charsel.obj
 0001:000db3c0       ??1?$vector@PAVCPoint@@V?$allocator@PAVCPoint@@@std@@@std@@QAE@XZ 004dc3c0 f i charsel.obj
 0001:000db470       ?begin@?$vector@PAVCPoint@@V?$allocator@PAVCPoint@@@std@@@std@@QAEPAPAVCPoint@@XZ 004dc470 f i charsel.obj
 0001:000db4b0       ?end@?$vector@PAVCPoint@@V?$allocator@PAVCPoint@@@std@@@std@@QAEPAPAVCPoint@@XZ 004dc4b0 f i charsel.obj
 0001:000db4f0       ??A?$vector@PAVCPoint@@V?$allocator@PAVCPoint@@@std@@@std@@QAEAAPAVCPoint@@I@Z 004dc4f0 f i charsel.obj
 0001:000db540       ?push_back@?$vector@PAVCPoint@@V?$allocator@PAVCPoint@@@std@@@std@@QAEXABQAVCPoint@@@Z 004dc540 f i charsel.obj
 0001:000db5a0       ?clear@?$vector@PAVCPoint@@V?$allocator@PAVCPoint@@@std@@@std@@QAEXXZ 004dc5a0 f i charsel.obj
 0001:000db600       ??0?$vector@VCSCI_WorldActor@@V?$allocator@VCSCI_WorldActor@@@std@@@std@@QAE@ABV?$allocator@VCSCI_WorldActor@@@1@@Z 004dc600 f i charsel.obj
 0001:000db670       ??1?$vector@VCSCI_WorldActor@@V?$allocator@VCSCI_WorldActor@@@std@@@std@@QAE@XZ 004dc670 f i charsel.obj
 0001:000db710       ??A?$vector@VCSCI_WorldActor@@V?$allocator@VCSCI_WorldActor@@@std@@@std@@QAEAAVCSCI_WorldActor@@I@Z 004dc710 f i charsel.obj
 0001:000db760       ?push_back@?$vector@VCSCI_WorldActor@@V?$allocator@VCSCI_WorldActor@@@std@@@std@@QAEXABVCSCI_WorldActor@@@Z 004dc760 f i charsel.obj
 0001:000db7c0       ?deallocate@?$allocator@PAVCSkinCtrl@@@std@@QAEXPAXI@Z 004dc7c0 f i charsel.obj
 0001:000db810       ?test@?$bitset@$04@std@@QBE_NI@Z 004dc810 f i charsel.obj
 0001:000db890       ??0reference@?$bitset@$04@std@@AAE@AAV12@I@Z 004dc890 f i charsel.obj
 0001:000db8e0       ?begin@?$vector@PAVCSkinCtrl@@V?$allocator@PAVCSkinCtrl@@@std@@@std@@QAEPAPAVCSkinCtrl@@XZ 004dc8e0 f i charsel.obj
 0001:000db920       ?end@?$vector@PAVCSkinCtrl@@V?$allocator@PAVCSkinCtrl@@@std@@@std@@QAEPAPAVCSkinCtrl@@XZ 004dc920 f i charsel.obj
 0001:000db960       ?insert@?$vector@PAVCSkinCtrl@@V?$allocator@PAVCSkinCtrl@@@std@@@std@@QAEPAPAVCSkinCtrl@@PAPAV3@ABQAV3@@Z 004dc960 f i charsel.obj
 0001:000db9e0       ?_Destroy@?$vector@PAVCSkinCtrl@@V?$allocator@PAVCSkinCtrl@@@std@@@std@@IAEXPAPAVCSkinCtrl@@0@Z 004dc9e0 f i charsel.obj
 0001:000dba50       ?begin@?$vector@VCSkinObj@@V?$allocator@VCSkinObj@@@std@@@std@@QAEPAVCSkinObj@@XZ 004dca50 f i charsel.obj
 0001:000dba90       ?end@?$vector@VCSkinObj@@V?$allocator@VCSkinObj@@@std@@@std@@QAEPAVCSkinObj@@XZ 004dca90 f i charsel.obj
 0001:000dbad0       ?insert@?$vector@VCSkinObj@@V?$allocator@VCSkinObj@@@std@@@std@@QAEPAVCSkinObj@@PAV3@ABV3@@Z 004dcad0 f i charsel.obj
 0001:000dbb50       ?_Destroy@?$vector@VCSkinObj@@V?$allocator@VCSkinObj@@@std@@@std@@IAEXPAVCSkinObj@@0@Z 004dcb50 f i charsel.obj
 0001:000dbbc0       ?deallocate@?$allocator@VCSkinObj@@@std@@QAEXPAXI@Z 004dcbc0 f i charsel.obj
 0001:000dbc10       ?insert@?$vector@PAVCSkinBitmap@@V?$allocator@PAVCSkinBitmap@@@std@@@std@@QAEPAPAVCSkinBitmap@@PAPAV3@ABQAV3@@Z 004dcc10 f i charsel.obj
 0001:000dbc90       ?erase@?$vector@PAVCSkinBitmap@@V?$allocator@PAVCSkinBitmap@@@std@@@std@@QAEPAPAVCSkinBitmap@@PAPAV3@0@Z 004dcc90 f i charsel.obj
 0001:000dbd20       ?_Destroy@?$vector@PAVCSkinBitmap@@V?$allocator@PAVCSkinBitmap@@@std@@@std@@IAEXPAPAVCSkinBitmap@@0@Z 004dcd20 f i charsel.obj
 0001:000dbd90       ?deallocate@?$allocator@PAVCSkinBitmap@@@std@@QAEXPAXI@Z 004dcd90 f i charsel.obj
 0001:000dbde0       ?insert@?$vector@PAVCPoint@@V?$allocator@PAVCPoint@@@std@@@std@@QAEPAPAVCPoint@@PAPAV3@ABQAV3@@Z 004dcde0 f i charsel.obj
 0001:000dbe60       ?erase@?$vector@PAVCPoint@@V?$allocator@PAVCPoint@@@std@@@std@@QAEPAPAVCPoint@@PAPAV3@0@Z 004dce60 f i charsel.obj
 0001:000dbef0       ?_Destroy@?$vector@PAVCPoint@@V?$allocator@PAVCPoint@@@std@@@std@@IAEXPAPAVCPoint@@0@Z 004dcef0 f i charsel.obj
 0001:000dbf60       ?deallocate@?$allocator@PAVCPoint@@@std@@QAEXPAXI@Z 004dcf60 f i charsel.obj
 0001:000dbfb0       ?begin@?$vector@VCSCI_WorldActor@@V?$allocator@VCSCI_WorldActor@@@std@@@std@@QAEPAVCSCI_WorldActor@@XZ 004dcfb0 f i charsel.obj
 0001:000dbff0       ?end@?$vector@VCSCI_WorldActor@@V?$allocator@VCSCI_WorldActor@@@std@@@std@@QAEPAVCSCI_WorldActor@@XZ 004dcff0 f i charsel.obj
 0001:000dc030       ?insert@?$vector@VCSCI_WorldActor@@V?$allocator@VCSCI_WorldActor@@@std@@@std@@QAEPAVCSCI_WorldActor@@PAV3@ABV3@@Z 004dd030 f i charsel.obj
 0001:000dc0b0       ?_Destroy@?$vector@VCSCI_WorldActor@@V?$allocator@VCSCI_WorldActor@@@std@@@std@@IAEXPAVCSCI_WorldActor@@0@Z 004dd0b0 f i charsel.obj
 0001:000dc120       ?deallocate@?$allocator@VCSCI_WorldActor@@@std@@QAEXPAXI@Z 004dd120 f i charsel.obj
 0001:000dc170       ?destroy@?$allocator@PAVCSkinCtrl@@@std@@QAEXPAPAVCSkinCtrl@@@Z 004dd170 f i charsel.obj
 0001:000dc1c0       ?_Xran@?$bitset@$04@std@@ABEXXZ 004dd1c0 f i charsel.obj
 0001:000dc280       ?insert@?$vector@PAVCSkinCtrl@@V?$allocator@PAVCSkinCtrl@@@std@@@std@@QAEXPAPAVCSkinCtrl@@IABQAV3@@Z 004dd280 f i charsel.obj
 0001:000dc550       ?insert@?$vector@VCSkinObj@@V?$allocator@VCSkinObj@@@std@@@std@@QAEXPAVCSkinObj@@IABV3@@Z 004dd550 f i charsel.obj
 0001:000dc820       ?destroy@?$allocator@VCSkinObj@@@std@@QAEXPAVCSkinObj@@@Z 004dd820 f i charsel.obj
 0001:000dc870       ?insert@?$vector@PAVCSkinBitmap@@V?$allocator@PAVCSkinBitmap@@@std@@@std@@QAEXPAPAVCSkinBitmap@@IABQAV3@@Z 004dd870 f i charsel.obj
 0001:000dcb40       ?destroy@?$allocator@PAVCSkinBitmap@@@std@@QAEXPAPAVCSkinBitmap@@@Z 004ddb40 f i charsel.obj
 0001:000dcb90       ?insert@?$vector@PAVCPoint@@V?$allocator@PAVCPoint@@@std@@@std@@QAEXPAPAVCPoint@@IABQAV3@@Z 004ddb90 f i charsel.obj
 0001:000dce60       ?destroy@?$allocator@PAVCPoint@@@std@@QAEXPAPAVCPoint@@@Z 004dde60 f i charsel.obj
 0001:000dceb0       ?insert@?$vector@VCSCI_WorldActor@@V?$allocator@VCSCI_WorldActor@@@std@@@std@@QAEXPAVCSCI_WorldActor@@IABV3@@Z 004ddeb0 f i charsel.obj
 0001:000dd170       ?destroy@?$allocator@VCSCI_WorldActor@@@std@@QAEXPAVCSCI_WorldActor@@@Z 004de170 f i charsel.obj
 0001:000dd1c0       ?allocate@?$allocator@PAVCSkinCtrl@@@std@@QAEPAPAVCSkinCtrl@@IPBX@Z 004de1c0 f i charsel.obj
 0001:000dd210       ?size@?$vector@PAVCSkinCtrl@@V?$allocator@PAVCSkinCtrl@@@std@@@std@@QBEIXZ 004de210 f i charsel.obj
 0001:000dd270       ?_Ucopy@?$vector@PAVCSkinCtrl@@V?$allocator@PAVCSkinCtrl@@@std@@@std@@IAEPAPAVCSkinCtrl@@PBQAV3@0PAPAV3@@Z 004de270 f i charsel.obj
 0001:000dd2f0       ?_Ufill@?$vector@PAVCSkinCtrl@@V?$allocator@PAVCSkinCtrl@@@std@@@std@@IAEXPAPAVCSkinCtrl@@IABQAV3@@Z 004de2f0 f i charsel.obj
 0001:000dd370       ?size@?$vector@VCSkinObj@@V?$allocator@VCSkinObj@@@std@@@std@@QBEIXZ 004de370 f i charsel.obj
 0001:000dd3d0       ?_Ucopy@?$vector@VCSkinObj@@V?$allocator@VCSkinObj@@@std@@@std@@IAEPAVCSkinObj@@PBV3@0PAV3@@Z 004de3d0 f i charsel.obj
 0001:000dd450       ?_Ufill@?$vector@VCSkinObj@@V?$allocator@VCSkinObj@@@std@@@std@@IAEXPAVCSkinObj@@IABV3@@Z 004de450 f i charsel.obj
 0001:000dd4d0       ?allocate@?$allocator@VCSkinObj@@@std@@QAEPAVCSkinObj@@IPBX@Z 004de4d0 f i charsel.obj
 0001:000dd520       ?size@?$vector@PAVCSkinBitmap@@V?$allocator@PAVCSkinBitmap@@@std@@@std@@QBEIXZ 004de520 f i charsel.obj
 0001:000dd580       ?_Ucopy@?$vector@PAVCSkinBitmap@@V?$allocator@PAVCSkinBitmap@@@std@@@std@@IAEPAPAVCSkinBitmap@@PBQAV3@0PAPAV3@@Z 004de580 f i charsel.obj
 0001:000dd600       ?_Ufill@?$vector@PAVCSkinBitmap@@V?$allocator@PAVCSkinBitmap@@@std@@@std@@IAEXPAPAVCSkinBitmap@@IABQAV3@@Z 004de600 f i charsel.obj
 0001:000dd680       ?allocate@?$allocator@PAVCSkinBitmap@@@std@@QAEPAPAVCSkinBitmap@@IPBX@Z 004de680 f i charsel.obj
 0001:000dd6d0       ?size@?$vector@PAVCPoint@@V?$allocator@PAVCPoint@@@std@@@std@@QBEIXZ 004de6d0 f i charsel.obj
 0001:000dd730       ?_Ucopy@?$vector@PAVCPoint@@V?$allocator@PAVCPoint@@@std@@@std@@IAEPAPAVCPoint@@PBQAV3@0PAPAV3@@Z 004de730 f i charsel.obj
 0001:000dd7b0       ?_Ufill@?$vector@PAVCPoint@@V?$allocator@PAVCPoint@@@std@@@std@@IAEXPAPAVCPoint@@IABQAV3@@Z 004de7b0 f i charsel.obj
 0001:000dd830       ?allocate@?$allocator@PAVCPoint@@@std@@QAEPAPAVCPoint@@IPBX@Z 004de830 f i charsel.obj
 0001:000dd880       ?size@?$vector@VCSCI_WorldActor@@V?$allocator@VCSCI_WorldActor@@@std@@@std@@QBEIXZ 004de880 f i charsel.obj
 0001:000dd8e0       ?_Ucopy@?$vector@VCSCI_WorldActor@@V?$allocator@VCSCI_WorldActor@@@std@@@std@@IAEPAVCSCI_WorldActor@@PBV3@0PAV3@@Z 004de8e0 f i charsel.obj
 0001:000dd960       ?_Ufill@?$vector@VCSCI_WorldActor@@V?$allocator@VCSCI_WorldActor@@@std@@@std@@IAEXPAVCSCI_WorldActor@@IABV3@@Z 004de960 f i charsel.obj
 0001:000dd9e0       ?allocate@?$allocator@VCSCI_WorldActor@@@std@@QAEPAVCSCI_WorldActor@@IPBX@Z 004de9e0 f i charsel.obj
 0001:000dda30       ?construct@?$allocator@PAVCSkinCtrl@@@std@@QAEXPAPAVCSkinCtrl@@ABQAV3@@Z 004dea30 f i charsel.obj
 0001:000dda80       ?construct@?$allocator@VCSkinObj@@@std@@QAEXPAVCSkinObj@@ABV3@@Z 004dea80 f i charsel.obj
 0001:000ddad0       ?construct@?$allocator@PAVCSkinBitmap@@@std@@QAEXPAPAVCSkinBitmap@@ABQAV3@@Z 004dead0 f i charsel.obj
 0001:000ddb20       ?construct@?$allocator@PAVCPoint@@@std@@QAEXPAPAVCPoint@@ABQAV3@@Z 004deb20 f i charsel.obj
 0001:000ddb70       ?construct@?$allocator@VCSCI_WorldActor@@@std@@QAEXPAVCSCI_WorldActor@@ABV3@@Z 004deb70 f i charsel.obj
 0001:000ddbc0       ?copy@std@@YAPAPAVCSkinBitmap@@PAPAV2@00@Z 004debc0 f i charsel.obj
 0001:000ddc20       ?copy@std@@YAPAPAVCPoint@@PAPAV2@00@Z 004dec20 f i charsel.obj
 0001:000ddc80       ?_Destroy@std@@YAXPAPAVCSkinCtrl@@@Z 004dec80 f i charsel.obj
 0001:000ddcb0       ?fill@std@@YAXPAPAVCSkinCtrl@@0ABQAV2@@Z 004decb0 f i charsel.obj
 0001:000ddd00       ?copy_backward@std@@YAPAPAVCSkinCtrl@@PAPAV2@00@Z 004ded00 f i charsel.obj
 0001:000ddd60       ?fill@std@@YAXPAVCSkinObj@@0ABV2@@Z 004ded60 f i charsel.obj
 0001:000dddc0       ?copy_backward@std@@YAPAVCSkinObj@@PAV2@00@Z 004dedc0 f i charsel.obj
 0001:000dde30       ?_Destroy@std@@YAXPAVCSkinObj@@@Z 004dee30 f i charsel.obj
 0001:000dde80       ?fill@std@@YAXPAPAVCSkinBitmap@@0ABQAV2@@Z 004dee80 f i charsel.obj
 0001:000dded0       ?copy_backward@std@@YAPAPAVCSkinBitmap@@PAPAV2@00@Z 004deed0 f i charsel.obj
 0001:000ddf30       ?_Destroy@std@@YAXPAPAVCSkinBitmap@@@Z 004def30 f i charsel.obj
 0001:000ddf60       ?fill@std@@YAXPAPAVCPoint@@0ABQAV2@@Z 004def60 f i charsel.obj
 0001:000ddfb0       ?copy_backward@std@@YAPAPAVCPoint@@PAPAV2@00@Z 004defb0 f i charsel.obj
 0001:000de010       ?_Destroy@std@@YAXPAPAVCPoint@@@Z 004df010 f i charsel.obj
 0001:000de040       ?fill@std@@YAXPAVCSCI_WorldActor@@0ABV2@@Z 004df040 f i charsel.obj
 0001:000de090       ?copy_backward@std@@YAPAVCSCI_WorldActor@@PAV2@00@Z 004df090 f i charsel.obj
 0001:000de0f0       ?_Destroy@std@@YAXPAVCSCI_WorldActor@@@Z 004df0f0 f i charsel.obj
 0001:000de120       ?_Allocate@std@@YAPAPAVCSkinCtrl@@HPAPAV2@@Z 004df120 f i charsel.obj
 0001:000de180       ?_Allocate@std@@YAPAVCSkinObj@@HPAV2@@Z 004df180 f i charsel.obj
 0001:000de1e0       ?_Allocate@std@@YAPAPAVCSkinBitmap@@HPAPAV2@@Z 004df1e0 f i charsel.obj
 0001:000de240       ?_Allocate@std@@YAPAPAVCPoint@@HPAPAV2@@Z 004df240 f i charsel.obj
 0001:000de2a0       ?_Allocate@std@@YAPAVCSCI_WorldActor@@HPAV2@@Z 004df2a0 f i charsel.obj
 0001:000de300       ?_Construct@std@@YAXPAPAVCSkinCtrl@@ABQAV2@@Z 004df300 f i charsel.obj
 0001:000de370       ?_Construct@std@@YAXPAVCSkinObj@@ABV2@@Z 004df370 f i charsel.obj
 0001:000de420       ?_Construct@std@@YAXPAPAVCSkinBitmap@@ABQAV2@@Z 004df420 f i charsel.obj
 0001:000de490       ?_Construct@std@@YAXPAPAVCPoint@@ABQAV2@@Z 004df490 f i charsel.obj
 0001:000de500       ?_Construct@std@@YAXPAVCSCI_WorldActor@@ABV2@@Z 004df500 f i charsel.obj
 0001:000de5b0       ??_ECCharSelectWnd@@WJE@AEPAXI@Z 004df5b0 f i charsel.obj
 0001:000de5c0       ?get_bitmap@CSCI_BitMap@@QAEFXZ 004df5c0 f i charsel.obj
 0001:000de610       ?get_pProperName@CSCI_BCharacter@@QAE?AVStringID@@XZ 004df610 f i charsel.obj
 0001:000de680       ?get_pName@CSCI_WorldObject@@QAE?AVStringID@@XZ 004df680 f i charsel.obj
 0001:000de6f0       ?SetAllowMove@CSkinWnd@@IAEX_N@Z 004df6f0 f i charsel.obj
 0001:000de760       ??0strstream@std@@QAE@XZ   004df760 f i charsel.obj
 0001:000de880       ??0strstreambuf@std@@QAE@H@Z 004df880 f i charsel.obj
 0001:000de940       ??_Gstrstreambuf@std@@UAEPAXI@Z 004df940 f i charsel.obj
 0001:000de940       ??_Estrstreambuf@std@@UAEPAXI@Z 004df940 f i charsel.obj
 0001:000de9c0       ?str@strstream@std@@QAEPADXZ 004df9c0 f i charsel.obj
 0001:000dea10       ?str@strstreambuf@std@@QAEPADXZ 004dfa10 f i charsel.obj
 0001:000dea80       ?pcount@strstream@std@@QBEHXZ 004dfa80 f i charsel.obj
 0001:000dead0       ?pcount@strstreambuf@std@@QBEHXZ 004dfad0 f i charsel.obj
 0001:000deb70       ??_Estrstream@std@@UAEPAXI@Z 004dfb70 f i charsel.obj
 0001:000deb70       ??_Gstrstream@std@@UAEPAXI@Z 004dfb70 f i charsel.obj
 0001:000debe0       ??_Dstrstream@std@@QAEXXZ  004dfbe0 f i charsel.obj
 0001:000ded60       ??1CMessageLog@@QAE@XZ     004dfd60 f i chatdisplay.obj
 0001:000df630       ??0CMessageLog@@QAE@XZ     004e0630 f   chatdisplay.obj
 0001:000df6e0       ?Empty@CMessageLog@@QAEXXZ 004e06e0 f   chatdisplay.obj
 0001:000df780       ?GetMessageA@CMessageLog@@QAE?AVCString@@XZ 004e0780 f   chatdisplay.obj
 0001:000df7f0       ?Insert@CMessageLog@@QAEXPBDPAVCSkinEdit@@@Z 004e07f0 f   chatdisplay.obj
 0001:000dfbe0       ??0CChatDisplay@@QAE@VCSkinObj@@PAVCSkinWnd@@IK@Z 004e0be0 f   chatdisplay.obj
 0001:000dfce0       ??_GCChatDisplay@@UAEPAXI@Z 004e0ce0 f i chatdisplay.obj
 0001:000dfce0       ??_ECChatDisplay@@UAEPAXI@Z 004e0ce0 f i chatdisplay.obj
 0001:000dfd50       ??1CChatDisplay@@UAE@XZ    004e0d50 f i chatdisplay.obj
 0001:000dfda0       ?ParseText@CChatDisplay@@QAEHPBD@Z 004e0da0 f   chatdisplay.obj
 0001:000dfe20       ?Attach@CChatDisplay@@QAEXPAVCMessageLog@@@Z 004e0e20 f   chatdisplay.obj
 0001:000dff10       ?Empty@CChatDisplay@@QAEXXZ 004e0f10 f   chatdisplay.obj
 0001:000dff80       ??_ECChatDisplay@@WGA@AEPAXI@Z 004e0f80 f i chatdisplay.obj
 0001:000dff90       ??_ECChatDisplay@@WHE@AEPAXI@Z 004e0f90 f i chatdisplay.obj
 0001:000e0020       ??0CChatPanelVerbHandler@@QAE@XZ 004e1020 f i chatpanel.obj
 0001:000e0080       ?HandleVerb@CChatPanelVerbHandler@@UAEHHVCSCI_WorldObject@@@Z 004e1080 f i chatpanel.obj
 0001:000e0230       ??1CChatPanelVerbHandler@@UAE@XZ 004e1230 f i chatpanel.obj
 0001:000e0280       ??_GCChatPanelVerbHandler@@UAEPAXI@Z 004e1280 f i chatpanel.obj
 0001:000e0280       ??_ECChatPanelVerbHandler@@UAEPAXI@Z 004e1280 f i chatpanel.obj
 0001:000e02f0       ??0CChatPanel@@QAE@XZ      004e12f0 f   chatpanel.obj
 0001:000e0360       ??_GCChatPanel@@UAEPAXI@Z  004e1360 f i chatpanel.obj
 0001:000e0360       ??_ECChatPanel@@UAEPAXI@Z  004e1360 f i chatpanel.obj
 0001:000e03d0       ??1CChatPanel@@UAE@XZ      004e13d0 f   chatpanel.obj
 0001:000e0420       ?Create@CChatPanel@@UAEHXZ 004e1420 f   chatpanel.obj
 0001:000e04d0       ?SelectTab@CMainPanelWnd@@QAEXH@Z 004e14d0 f i chatpanel.obj
 0001:000e0540       ??0CProfanityBtn@@QAE@VCSkinObj@@PAVCSkinWnd@@@Z 004e1540 f   ChatSettings.obj
 0001:000e0640       ??_GCProfanityBtn@@UAEPAXI@Z 004e1640 f i ChatSettings.obj
 0001:000e0640       ??_ECProfanityBtn@@UAEPAXI@Z 004e1640 f i ChatSettings.obj
 0001:000e06b0       ??1CProfanityBtn@@UAE@XZ   004e16b0 f i ChatSettings.obj
 0001:000e0700       ?OnActivate@CProfanityBtn@@UAEXFF@Z 004e1700 f   ChatSettings.obj
 0001:000e07b0       ??0CBusyBtn@@QAE@VCSkinObj@@PAVCSkinWnd@@@Z 004e17b0 f   ChatSettings.obj
 0001:000e08b0       ??_GCBusyBtn@@UAEPAXI@Z    004e18b0 f i ChatSettings.obj
 0001:000e08b0       ??_ECBusyBtn@@UAEPAXI@Z    004e18b0 f i ChatSettings.obj
 0001:000e0920       ??1CBusyBtn@@UAE@XZ        004e1920 f i ChatSettings.obj
 0001:000e0970       ?OnActivate@CBusyBtn@@UAEXFF@Z 004e1970 f   ChatSettings.obj
 0001:000e0a20       ??0CColorBtn@@QAE@VCSkinObj@@PAVCSkinWnd@@@Z 004e1a20 f   ChatSettings.obj
 0001:000e0b60       ??_ECColorBtn@@UAEPAXI@Z   004e1b60 f i ChatSettings.obj
 0001:000e0b60       ??_GCColorBtn@@UAEPAXI@Z   004e1b60 f i ChatSettings.obj
 0001:000e0bd0       ??1CColorBtn@@UAE@XZ       004e1bd0 f i ChatSettings.obj
 0001:000e0c20       ?OnActivate@CColorBtn@@UAEXFF@Z 004e1c20 f   ChatSettings.obj
 0001:000e0c80       ??0CChatSettingsDlg@@QAE@XZ 004e1c80 f   ChatSettings.obj
 0001:000e0cf0       ??_GCChatSettingsDlg@@UAEPAXI@Z 004e1cf0 f i ChatSettings.obj
 0001:000e0cf0       ??_ECChatSettingsDlg@@UAEPAXI@Z 004e1cf0 f i ChatSettings.obj
 0001:000e0d60       ??1CChatSettingsDlg@@UAE@XZ 004e1d60 f i ChatSettings.obj
 0001:000e0db0       ?CloseSelf@CChatSettingsDlg@@UAEX_N@Z 004e1db0 f   ChatSettings.obj
 0001:000e0e70       ?Create@CChatSettingsDlg@@QAEHXZ 004e1e70 f   ChatSettings.obj
 0001:000e1000       ?MakeSkinCtrl@CChatSettingsDlg@@UAEPAVCSkinCtrl@@VCSkinObj@@@Z 004e2000 f   ChatSettings.obj
 0001:000e1510       ?SetColor@CChatSettingsDlg@@QAEXH@Z 004e2510 f   ChatSettings.obj
 0001:000e15f0       ?flip@?$bitset@$04@std@@QAEAAV12@I@Z 004e25f0 f i ChatSettings.obj
 0001:000e1680       ??4reference@?$bitset@$04@std@@QAEAAV012@_N@Z 004e2680 f i ChatSettings.obj
 0001:000e16e0       ?set@?$bitset@$04@std@@QAEAAV12@I_N@Z 004e26e0 f i ChatSettings.obj
 0001:000e17c0       ?getChat_Busy@CToonSettings@@QAEHXZ 004e27c0 f i ChatSettings.obj
 0001:000e1800       ?getChat_TextColor@CToonSettings@@QAEHXZ 004e2800 f i ChatSettings.obj
 0001:000e1a00       ??0CChatVerbDialogHandler@@QAE@XZ 004e2a00 f i chatverbs.obj
 0001:000e1a60       ?HandleVerb@CChatVerbDialogHandler@@UAEHHVCSCI_WorldObject@@@Z 004e2a60 f i chatverbs.obj
 0001:000e1d50       ??1CChatVerbDialogHandler@@UAE@XZ 004e2d50 f i chatverbs.obj
 0001:000e1da0       ??_ECChatVerbDialogHandler@@UAEPAXI@Z 004e2da0 f i chatverbs.obj
 0001:000e1da0       ??_GCChatVerbDialogHandler@@UAEPAXI@Z 004e2da0 f i chatverbs.obj
 0001:000e1e10       ??0CSCI_GameServer@@QAE@ABV0@@Z 004e2e10 f i chatverbs.obj
 0001:000e1e60       ??0CSCI_Server@@QAE@ABV0@@Z 004e2e60 f i chatverbs.obj
 0001:000e1eb0       ??0CChatVerbDialog@@QAE@XZ 004e2eb0 f   chatverbs.obj
 0001:000e1f20       ??_ECChatVerbDialog@@UAEPAXI@Z 004e2f20 f i chatverbs.obj
 0001:000e1f20       ??_GCChatVerbDialog@@UAEPAXI@Z 004e2f20 f i chatverbs.obj
 0001:000e1f90       ??1CChatVerbDialog@@UAE@XZ 004e2f90 f   chatverbs.obj
 0001:000e1fe0       ?Create@CChatVerbDialog@@UAEHPBD_N1@Z 004e2fe0 f   chatverbs.obj
 0001:000e22c0       ?_GetBaseMessageMap@CChangePasswordDlg@@KGPBUAFX_MSGMAP@@XZ 004e32c0 f   ChngPass.obj
 0001:000e22f0       ?GetMessageMap@CChangePasswordDlg@@MBEPBUAFX_MSGMAP@@XZ 004e32f0 f   ChngPass.obj
 0001:000e2330       ??0CChangePasswordDlg@@QAE@VCSCI_Script@@VStringID@@1@Z 004e3330 f   ChngPass.obj
 0001:000e2450       ??_GCChangePasswordDlg@@UAEPAXI@Z 004e3450 f i ChngPass.obj
 0001:000e2450       ??_ECChangePasswordDlg@@UAEPAXI@Z 004e3450 f i ChngPass.obj
 0001:000e24c0       ??0CSCI_Script@@QAE@ABV0@@Z 004e34c0 f i ChngPass.obj
 0001:000e2510       ??1CChangePasswordDlg@@UAE@XZ 004e3510 f i ChngPass.obj
 0001:000e2560       ?CloseSelf@CChangePasswordDlg@@UAEX_N@Z 004e3560 f   ChngPass.obj
 0001:000e2a80       ?Create@CChangePasswordDlg@@QAEHXZ 004e3a80 f   ChngPass.obj
 0001:000e2cc0       ?MakeSkinCtrl@CChangePasswordDlg@@UAEPAVCSkinCtrl@@VCSkinObj@@@Z 004e3cc0 f   ChngPass.obj
 0001:000e3250       ?OnSetFocus@CChangePasswordDlg@@QAEXPAVCWnd@@@Z 004e4250 f   ChngPass.obj
 0001:000e32c0       ?SetAllowResize@CSkinWnd@@IAEX_N@Z 004e42c0 f i ChngPass.obj
 0001:000e3330       ??0CCombatVerbDialog@@QAE@XZ 004e4330 f   combatverbs.obj
 0001:000e3420       ??_ECCombatVerbDialog@@UAEPAXI@Z 004e4420 f i combatverbs.obj
 0001:000e3420       ??_GCCombatVerbDialog@@UAEPAXI@Z 004e4420 f i combatverbs.obj
 0001:000e3490       ??1CCombatVerbDialog@@UAE@XZ 004e4490 f   combatverbs.obj
 0001:000e3560       ?Create@CCombatVerbDialog@@UAEHH@Z 004e4560 f   combatverbs.obj
 0001:000e37c0       ?Press@CCombatVerbDialog@@UAEXH@Z 004e47c0 f   combatverbs.obj
 0001:000e3920       ?UpdateTimer@CCombatVerbDialog@@QAEXH@Z 004e4920 f   combatverbs.obj
 0001:000e39a0       ?SetGlobalPointer@CCombatVerbDialog@@MAEXXZ 004e49a0 f   combatverbs.obj
 0001:000e39e0       ?ClearGlobalPointer@CCombatVerbDialog@@MAEXXZ 004e49e0 f   combatverbs.obj
 0001:000e3a30       ?EnableGameModal@CCombatVerbDialog@@UAEXHPAH@Z 004e4a30 f   combatverbs.obj
 0001:000e3aa0       ?DisableGameModal@CCombatVerbDialog@@UAEXHPAH_N@Z 004e4aa0 f   combatverbs.obj
 0001:000e3b10       ??0CCombatExitDialog@@QAE@XZ 004e4b10 f   combatverbs.obj
 0001:000e3bc0       ??_ECCombatExitDialog@@UAEPAXI@Z 004e4bc0 f i combatverbs.obj
 0001:000e3bc0       ??_GCCombatExitDialog@@UAEPAXI@Z 004e4bc0 f i combatverbs.obj
 0001:000e3c30       ??1CCombatExitDialog@@UAE@XZ 004e4c30 f   combatverbs.obj
 0001:000e3c90       ?Create@CCombatExitDialog@@UAEXPAVCWnd@@@Z 004e4c90 f   combatverbs.obj
 0001:000e3d60       ?MakeSkinCtrl@CCombatExitDialog@@UAEPAVCSkinCtrl@@VCSkinObj@@@Z 004e4d60 f   combatverbs.obj
 0001:000e3f50       ??0CCombatExitBtn@@QAE@VCSkinObj@@PAVCSkinWnd@@@Z 004e4f50 f i combatverbs.obj
 0001:000e4010       ?OnActivate@CCombatExitBtn@@UAEXFF@Z 004e5010 f i combatverbs.obj
 0001:000e40b0       ??_ECCombatExitBtn@@UAEPAXI@Z 004e50b0 f i combatverbs.obj
 0001:000e40b0       ??_GCCombatExitBtn@@UAEPAXI@Z 004e50b0 f i combatverbs.obj
 0001:000e4120       ??1CCombatExitBtn@@UAE@XZ  004e5120 f i combatverbs.obj
 0001:000e4170       ?OnDeferredClick@CDeferredClickHandler@@UAEXXZ 004e5170 f   deferredclick.obj
 0001:000e41a0       ?Start@CDeferredClickMgr@@SAXPAVCDeferredClickHandler@@@Z 004e51a0 f   deferredclick.obj
 0001:000e4220       ?Stop@CDeferredClickMgr@@SAXPAVCDeferredClickHandler@@@Z 004e5220 f   deferredclick.obj
 0001:000e4270       ?Process@CDeferredClickMgr@@SAXXZ 004e5270 f   deferredclick.obj
 0001:000e4310       ?_GetBaseMessageMap@CMultipleDlg@@KGPBUAFX_MSGMAP@@XZ 004e5310 f   DlgWnd.obj
 0001:000e4340       ?GetMessageMap@CMultipleDlg@@MBEPBUAFX_MSGMAP@@XZ 004e5340 f   DlgWnd.obj
 0001:000e4380       ??0CMultipleDlg@@QAE@XZ    004e5380 f   DlgWnd.obj
 0001:000e4410       ??_GCMultipleDlg@@UAEPAXI@Z 004e5410 f i DlgWnd.obj
 0001:000e4410       ??_ECMultipleDlg@@UAEPAXI@Z 004e5410 f i DlgWnd.obj
 0001:000e4480       ??1CMultipleDlg@@UAE@XZ    004e5480 f   DlgWnd.obj
 0001:000e4500       ?Create@CMultipleDlg@@QAEHPAD0@Z 004e5500 f   DlgWnd.obj
 0001:000e4630       ?MakeSkinCtrl@CMultipleDlg@@UAEPAVCSkinCtrl@@VCSkinObj@@@Z 004e5630 f   DlgWnd.obj
 0001:000e4a90       ?disableEdit@CMultipleDlg@@QAEXXZ 004e5a90 f   DlgWnd.obj
 0001:000e4af0       ?OnSetFocus@CMultipleDlg@@QAEXPAVCWnd@@@Z 004e5af0 f   DlgWnd.obj
 0001:000e4b60       ?GetBuffer@CMultipleDlg@@QAEXAAVCString@@@Z 004e5b60 f   DlgWnd.obj
 0001:000e4bd0       ?SetBuffer@CMultipleDlg@@QAEXAAVCString@@@Z 004e5bd0 f   DlgWnd.obj
 0001:000e4c40       ?ParseText@CMultipleDlg@@UAEHPBD@Z 004e5c40 f   DlgWnd.obj
 0001:000e4cb0       ?CloseSelf@CMultipleDlg@@UAEX_N@Z 004e5cb0 f   DlgWnd.obj
 0001:000e4d10       ??0CCombinedDlg@@QAE@XZ    004e5d10 f   DlgWnd.obj
 0001:000e4d70       ??_ECCombinedDlg@@UAEPAXI@Z 004e5d70 f i DlgWnd.obj
 0001:000e4d70       ??_GCCombinedDlg@@UAEPAXI@Z 004e5d70 f i DlgWnd.obj
 0001:000e4de0       ??1CCombinedDlg@@UAE@XZ    004e5de0 f i DlgWnd.obj
 0001:000e4e30       ?CloseSelf@CCombinedDlg@@UAEX_N@Z 004e5e30 f   DlgWnd.obj
 0001:000e4e90       ?ParseText@CCombinedDlg@@UAEHPBD0@Z 004e5e90 f   DlgWnd.obj
 0001:000e4f60       ?Create@CCombinedDlg@@QAEHPAD@Z 004e5f60 f   DlgWnd.obj
 0001:000e5080       ??0CModeratorDlg@@QAE@XZ   004e6080 f   DlgWnd.obj
 0001:000e5100       ??_ECModeratorDlg@@UAEPAXI@Z 004e6100 f i DlgWnd.obj
 0001:000e5100       ??_GCModeratorDlg@@UAEPAXI@Z 004e6100 f i DlgWnd.obj
 0001:000e5170       ??1CModeratorDlg@@UAE@XZ   004e6170 f i DlgWnd.obj
 0001:000e51c0       ?CloseSelf@CModeratorDlg@@UAEX_N@Z 004e61c0 f   DlgWnd.obj
 0001:000e5220       ?ParseText@CModeratorDlg@@UAEHPBD@Z 004e6220 f   DlgWnd.obj
 0001:000e52e0       ?Create@CModeratorDlg@@QAEHPAD@Z 004e62e0 f   DlgWnd.obj
 0001:000e5470       ??0CGuideDlg@@QAE@XZ       004e6470 f   DlgWnd.obj
 0001:000e54f0       ??_ECGuideDlg@@UAEPAXI@Z   004e64f0 f i DlgWnd.obj
 0001:000e54f0       ??_GCGuideDlg@@UAEPAXI@Z   004e64f0 f i DlgWnd.obj
 0001:000e5560       ??1CGuideDlg@@UAE@XZ       004e6560 f i DlgWnd.obj
 0001:000e55b0       ?ParseText@CGuideDlg@@UAEHPBD@Z 004e65b0 f   DlgWnd.obj
 0001:000e5670       ?CloseSelf@CGuideDlg@@UAEX_N@Z 004e6670 f   DlgWnd.obj
 0001:000e56d0       ?Create@CGuideDlg@@QAEHPAD@Z 004e66d0 f   DlgWnd.obj
 0001:000e5860       ??0CGodDlg@@QAE@XZ         004e6860 f   DlgWnd.obj
 0001:000e58e0       ??_GCGodDlg@@UAEPAXI@Z     004e68e0 f i DlgWnd.obj
 0001:000e58e0       ??_ECGodDlg@@UAEPAXI@Z     004e68e0 f i DlgWnd.obj
 0001:000e5950       ??1CGodDlg@@UAE@XZ         004e6950 f i DlgWnd.obj
 0001:000e59a0       ?ParseText@CGodDlg@@UAEHPBD@Z 004e69a0 f   DlgWnd.obj
 0001:000e5a10       ?CloseSelf@CGodDlg@@UAEX_N@Z 004e6a10 f   DlgWnd.obj
 0001:000e5a70       ?Create@CGodDlg@@QAEHPAD@Z 004e6a70 f   DlgWnd.obj
 0001:000e5c00       ??0CHostDlg@@QAE@XZ        004e6c00 f   DlgWnd.obj
 0001:000e5c80       ??_GCHostDlg@@UAEPAXI@Z    004e6c80 f i DlgWnd.obj
 0001:000e5c80       ??_ECHostDlg@@UAEPAXI@Z    004e6c80 f i DlgWnd.obj
 0001:000e5cf0       ??1CHostDlg@@UAE@XZ        004e6cf0 f i DlgWnd.obj
 0001:000e5d40       ?ParseText@CHostDlg@@UAEHPBD@Z 004e6d40 f   DlgWnd.obj
 0001:000e5db0       ?CloseSelf@CHostDlg@@UAEX_N@Z 004e6db0 f   DlgWnd.obj
 0001:000e5e10       ?Create@CHostDlg@@QAEHPAD@Z 004e6e10 f   DlgWnd.obj
 0001:000e5fa0       ??0CEventDlg@@QAE@XZ       004e6fa0 f   DlgWnd.obj
 0001:000e6040       ??_ECEventDlg@@UAEPAXI@Z   004e7040 f i DlgWnd.obj
 0001:000e6040       ??_GCEventDlg@@UAEPAXI@Z   004e7040 f i DlgWnd.obj
 0001:000e60b0       ??1CEventDlg@@UAE@XZ       004e70b0 f i DlgWnd.obj
 0001:000e6100       ?ParseText@CEventDlg@@UAEHPBD@Z 004e7100 f   DlgWnd.obj
 0001:000e6180       ?CloseSelf@CEventDlg@@UAEX_N@Z 004e7180 f   DlgWnd.obj
 0001:000e61e0       ?Create@CEventDlg@@QAEHPAD@Z 004e71e0 f   DlgWnd.obj
 0001:000e63b0       ?MakeSkinCtrl@CEventDlg@@UAEPAVCSkinCtrl@@VCSkinObj@@@Z 004e73b0 f   DlgWnd.obj
 0001:000e6690       ?SetTitle@CEventDlg@@QAEXPAD@Z 004e7690 f   DlgWnd.obj
 0001:000e6750       ??0CEventSettingsBtn@@QAE@VCSkinObj@@PAVCSkinWnd@@@Z 004e7750 f   DlgWnd.obj
 0001:000e6810       ??_ECEventSettingsBtn@@UAEPAXI@Z 004e7810 f i DlgWnd.obj
 0001:000e6810       ??_GCEventSettingsBtn@@UAEPAXI@Z 004e7810 f i DlgWnd.obj
 0001:000e6880       ??1CEventSettingsBtn@@UAE@XZ 004e7880 f i DlgWnd.obj
 0001:000e68d0       ?OnActivate@CEventSettingsBtn@@UAEXFF@Z 004e78d0 f   DlgWnd.obj
 0001:000e69c0       ??0CGroupDlg@@QAE@XZ       004e79c0 f   DlgWnd.obj
 0001:000e6a40       ??_GCGroupDlg@@UAEPAXI@Z   004e7a40 f i DlgWnd.obj
 0001:000e6a40       ??_ECGroupDlg@@UAEPAXI@Z   004e7a40 f i DlgWnd.obj
 0001:000e6ab0       ??1CGroupDlg@@UAE@XZ       004e7ab0 f i DlgWnd.obj
 0001:000e6b00       ?ParseText@CGroupDlg@@UAEHPBD@Z 004e7b00 f   DlgWnd.obj
 0001:000e6bc0       ?CloseSelf@CGroupDlg@@UAEX_N@Z 004e7bc0 f   DlgWnd.obj
 0001:000e6c20       ?Create@CGroupDlg@@QAEHPAD@Z 004e7c20 f   DlgWnd.obj
 0001:000e6d90       ??0CChannelPasswordDlg@@QAE@XZ 004e7d90 f   DlgWnd.obj
 0001:000e6df0       ??_ECChannelPasswordDlg@@UAEPAXI@Z 004e7df0 f i DlgWnd.obj
 0001:000e6df0       ??_GCChannelPasswordDlg@@UAEPAXI@Z 004e7df0 f i DlgWnd.obj
 0001:000e6e60       ??1CChannelPasswordDlg@@UAE@XZ 004e7e60 f i DlgWnd.obj
 0001:000e6eb0       ?Create@CChannelPasswordDlg@@QAEH_N@Z 004e7eb0 f   DlgWnd.obj
 0001:000e7000       ?MakeSkinCtrl@CChannelPasswordDlg@@UAEPAVCSkinCtrl@@VCSkinObj@@@Z 004e8000 f   DlgWnd.obj
 0001:000e75c0       ?CloseSelf@CChannelPasswordDlg@@UAEX_N@Z 004e85c0 f   DlgWnd.obj
 0001:000e76c0       ?Next@CChannelPasswordDlg@@UAEXXZ 004e86c0 f   DlgWnd.obj
 0001:000e7720       ?Previous@CChannelPasswordDlg@@UAEXXZ 004e8720 f   DlgWnd.obj
 0001:000e7780       ??0CResponseLine@@QAE@VCSkinObj@@PAVCSkinWnd@@IKPADH@Z 004e8780 f   DlgWnd.obj
 0001:000e7890       ??_ECResponseLine@@UAEPAXI@Z 004e8890 f i DlgWnd.obj
 0001:000e7890       ??_GCResponseLine@@UAEPAXI@Z 004e8890 f i DlgWnd.obj
 0001:000e7900       ??1CResponseLine@@UAE@XZ   004e8900 f i DlgWnd.obj
 0001:000e7950       ?OnReturn@CResponseLine@@UAEXXZ 004e8950 f   DlgWnd.obj
 0001:000e7a90       ??_ECResponseLine@@WGA@AEPAXI@Z 004e8a90 f i DlgWnd.obj
 0001:000e7aa0       ??_ECResponseLine@@WHE@AEPAXI@Z 004e8aa0 f i DlgWnd.obj
 0001:000e7ab0       ?getChannel_AttemptJoin@CToonSettings@@QAEHXZ 004e8ab0 f i DlgWnd.obj
 0001:000e7af0       ?HideTab@CMainPanelWnd@@QAEXHH@Z 004e8af0 f i DlgWnd.obj
 0001:000e7b60       ??0CDraggable@@QAE@XZ      004e8b60 f   drag-n-drop.obj
 0001:000e7bd0       ??_GCDraggable@@UAEPAXI@Z  004e8bd0 f i drag-n-drop.obj
 0001:000e7bd0       ??_ECDraggable@@UAEPAXI@Z  004e8bd0 f i drag-n-drop.obj
 0001:000e7c40       ??1CDraggable@@UAE@XZ      004e8c40 f   drag-n-drop.obj
 0001:000e7ce0       ?GetSkinBitmap@CDraggable@@QAEPAVCSkinBitmap@@XZ 004e8ce0 f   drag-n-drop.obj
 0001:000e7d20       ?GetType@CDraggable@@UAE?AW4eDragType@1@XZ 004e8d20 f   drag-n-drop.obj
 0001:000e7d50       ?ApplyOffset@CDraggable@@QAEXAAVCPoint@@@Z 004e8d50 f   drag-n-drop.obj
 0001:000e7f10       ??1?$map@PAUHWND__@@PAVCDropTarget@@U?$less@PAUHWND__@@@std@@V?$allocator@PAVCDropTarget@@@4@@std@@QAE@XZ 004e8f10 f i drag-n-drop.obj
 0001:000e7f60       ??0CDropTarget@@QAE@XZ     004e8f60 f   drag-n-drop.obj
 0001:000e7fb0       ??_ECDropTarget@@UAEPAXI@Z 004e8fb0 f i drag-n-drop.obj
 0001:000e7fb0       ??_GCDropTarget@@UAEPAXI@Z 004e8fb0 f i drag-n-drop.obj
 0001:000e8020       ??1CDropTarget@@UAE@XZ     004e9020 f   drag-n-drop.obj
 0001:000e8080       ?LinkToWindow@CDropTarget@@IAEXPAUHWND__@@@Z 004e9080 f   drag-n-drop.obj
 0001:000e8120       ?FromWindowHandle@CDropTarget@@SAPAV1@PAUHWND__@@@Z 004e9120 f   drag-n-drop.obj
 0001:000e81b0       ?FromScreenPoint@CDropTarget@@SAPAV1@AAVCPoint@@@Z 004e91b0 f   drag-n-drop.obj
 0001:000e8280       ?CanAcceptDrop@CDropTarget@@UAEPAUHICON__@@AAVCDraggable@@AAVCPoint@@@Z 004e9280 f   drag-n-drop.obj
 0001:000e82c0       ?AcceptDrop@CDropTarget@@UAEXAAVCDraggable@@AAVCPoint@@@Z 004e92c0 f   drag-n-drop.obj
 0001:000e82f0       ?_GetBaseMessageMap@CDragDropMgr@@KGPBUAFX_MSGMAP@@XZ 004e92f0 f   drag-n-drop.obj
 0001:000e8320       ?GetMessageMap@CDragDropMgr@@MBEPBUAFX_MSGMAP@@XZ 004e9320 f   drag-n-drop.obj
 0001:000e8360       ??0CDragDropMgr@@QAE@XZ    004e9360 f   drag-n-drop.obj
 0001:000e8470       ??_ECDragDropMgr@@UAEPAXI@Z 004e9470 f i drag-n-drop.obj
 0001:000e8470       ??_GCDragDropMgr@@UAEPAXI@Z 004e9470 f i drag-n-drop.obj
 0001:000e84e0       ??1CDragDropMgr@@UAE@XZ    004e94e0 f   drag-n-drop.obj
 0001:000e8580       ?StartDrag@CDragDropMgr@@QAEXPAVCDraggable@@@Z 004e9580 f   drag-n-drop.obj
 0001:000e86f0       ?StopDrag@CDragDropMgr@@QAEXXZ 004e96f0 f   drag-n-drop.obj
 0001:000e87b0       ?OnMouseMove@CDragDropMgr@@IAEXIVCPoint@@@Z 004e97b0 f   drag-n-drop.obj
 0001:000e88f0       ?OnLButtonUp@CDragDropMgr@@IAEXIVCPoint@@@Z 004e98f0 f   drag-n-drop.obj
 0001:000e89e0       ?OnRButtonUp@CDragDropMgr@@IAEXIVCPoint@@@Z 004e99e0 f   drag-n-drop.obj
 0001:000e8a30       ?OnLButtonDown@CDragDropMgr@@IAEXIVCPoint@@@Z 004e9a30 f   drag-n-drop.obj
 0001:000e8a80       ?OnRButtonDown@CDragDropMgr@@IAEXIVCPoint@@@Z 004e9a80 f   drag-n-drop.obj
 0001:000e8ad0       ?OnKillFocus@CDragDropMgr@@IAEXPAVCWnd@@@Z 004e9ad0 f   drag-n-drop.obj
 0001:000e8ba0       ?UpdatePosn@CDragDropMgr@@QAEXAAVCPoint@@@Z 004e9ba0 f   drag-n-drop.obj
 0001:000e8c40       ?Hide@CDragDropMgr@@QAEXXZ 004e9c40 f   drag-n-drop.obj
 0001:000e8c90       ?Show@CDragDropMgr@@QAEXXZ 004e9c90 f   drag-n-drop.obj
 0001:000e8ce0       ?IsDragging@CDragDropMgr@@QAE_NXZ 004e9ce0 f   drag-n-drop.obj
 0001:000e8d20       ?UpdateFastScroll@CDragDropMgr@@QAEPAUHICON__@@XZ 004e9d20 f   drag-n-drop.obj
 0001:000e8dd0       ??0?$map@PAUHWND__@@PAVCDropTarget@@U?$less@PAUHWND__@@@std@@V?$allocator@PAVCDropTarget@@@4@@std@@QAE@ABU?$less@PAUHWND__@@@1@ABV?$allocator@PAVCDropTarget@@@1@@Z 004e9dd0 f i drag-n-drop.obj
 0001:000e8e30       ?end@?$map@PAUHWND__@@PAVCDropTarget@@U?$less@PAUHWND__@@@std@@V?$allocator@PAVCDropTarget@@@4@@std@@QAE?AViterator@?$_Tree@PAUHWND__@@U?$pair@QAUHWND__@@PAVCDropTarget@@@std@@U_Kfn@?$map@PAUHWND__@@PAVCDropTarget@@U?$less@PAUHWND__@@@std@@V?$allocator@PAVCDropTarget@@@4@@3@U?$less@PAUHWND__@@@3@V?$allocator@PAVCDropTarget@@@3@@2@XZ 004e9e30 f i drag-n-drop.obj
 0001:000e8e90       ??A?$map@PAUHWND__@@PAVCDropTarget@@U?$less@PAUHWND__@@@std@@V?$allocator@PAVCDropTarget@@@4@@std@@QAEAAPAVCDropTarget@@ABQAUHWND__@@@Z 004e9e90 f i drag-n-drop.obj
 0001:000e8f10       ?erase@?$map@PAUHWND__@@PAVCDropTarget@@U?$less@PAUHWND__@@@std@@V?$allocator@PAVCDropTarget@@@4@@std@@QAEIABQAUHWND__@@@Z 004e9f10 f i drag-n-drop.obj
 0001:000e8f60       ?find@?$map@PAUHWND__@@PAVCDropTarget@@U?$less@PAUHWND__@@@std@@V?$allocator@PAVCDropTarget@@@4@@std@@QAE?AViterator@?$_Tree@PAUHWND__@@U?$pair@QAUHWND__@@PAVCDropTarget@@@std@@U_Kfn@?$map@PAUHWND__@@PAVCDropTarget@@U?$less@PAUHWND__@@@std@@V?$allocator@PAVCDropTarget@@@4@@3@U?$less@PAUHWND__@@@3@V?$allocator@PAVCDropTarget@@@3@@2@ABQAUHWND__@@@Z 004e9f60 f i drag-n-drop.obj
 0001:000e8fc0       ??1?$_Tree@PAUHWND__@@U?$pair@QAUHWND__@@PAVCDropTarget@@@std@@U_Kfn@?$map@PAUHWND__@@PAVCDropTarget@@U?$less@PAUHWND__@@@std@@V?$allocator@PAVCDropTarget@@@4@@3@U?$less@PAUHWND__@@@3@V?$allocator@PAVCDropTarget@@@3@@std@@QAE@XZ 004e9fc0 f i drag-n-drop.obj
 0001:000e9100       ??Diterator@?$_Tree@PAUHWND__@@U?$pair@QAUHWND__@@PAVCDropTarget@@@std@@U_Kfn@?$map@PAUHWND__@@PAVCDropTarget@@U?$less@PAUHWND__@@@std@@V?$allocator@PAVCDropTarget@@@4@@3@U?$less@PAUHWND__@@@3@V?$allocator@PAVCDropTarget@@@3@@std@@QBEAAU?$pair@QAUHWND__@@PAVCDropTarget@@@2@XZ 004ea100 f i drag-n-drop.obj
 0001:000e9150       ??9iterator@?$_Tree@PAUHWND__@@U?$pair@QAUHWND__@@PAVCDropTarget@@@std@@U_Kfn@?$map@PAUHWND__@@PAVCDropTarget@@U?$less@PAUHWND__@@@std@@V?$allocator@PAVCDropTarget@@@4@@3@U?$less@PAUHWND__@@@3@V?$allocator@PAVCDropTarget@@@3@@std@@QBE_NABV012@@Z 004ea150 f i drag-n-drop.obj
 0001:000e91b0       ?insert@?$map@PAUHWND__@@PAVCDropTarget@@U?$less@PAUHWND__@@@std@@V?$allocator@PAVCDropTarget@@@4@@std@@QAE?AU?$pair@Viterator@?$_Tree@PAUHWND__@@U?$pair@QAUHWND__@@PAVCDropTarget@@@std@@U_Kfn@?$map@PAUHWND__@@PAVCDropTarget@@U?$less@PAUHWND__@@@std@@V?$allocator@PAVCDropTarget@@@4@@3@U?$less@PAUHWND__@@@3@V?$allocator@PAVCDropTarget@@@3@@std@@_N@2@ABU?$pair@QAUHWND__@@PAVCDropTarget@@@2@@Z 004ea1b0 f i drag-n-drop.obj
 0001:000e9240       ?_Value@?$_Tree@PAUHWND__@@U?$pair@QAUHWND__@@PAVCDropTarget@@@std@@U_Kfn@?$map@PAUHWND__@@PAVCDropTarget@@U?$less@PAUHWND__@@@std@@V?$allocator@PAVCDropTarget@@@4@@3@U?$less@PAUHWND__@@@3@V?$allocator@PAVCDropTarget@@@3@@std@@KAAAU?$pair@QAUHWND__@@PAVCDropTarget@@@2@PAU_Node@12@@Z 004ea240 f i drag-n-drop.obj
 0001:000e9270       ??0?$_Tree@PAUHWND__@@U?$pair@QAUHWND__@@PAVCDropTarget@@@std@@U_Kfn@?$map@PAUHWND__@@PAVCDropTarget@@U?$less@PAUHWND__@@@std@@V?$allocator@PAVCDropTarget@@@4@@3@U?$less@PAUHWND__@@@3@V?$allocator@PAVCDropTarget@@@3@@std@@QAE@ABU?$less@PAUHWND__@@@1@_NABV?$allocator@PAVCDropTarget@@@1@@Z 004ea270 f i drag-n-drop.obj
 0001:000e92e0       ?begin@?$_Tree@PAUHWND__@@U?$pair@QAUHWND__@@PAVCDropTarget@@@std@@U_Kfn@?$map@PAUHWND__@@PAVCDropTarget@@U?$less@PAUHWND__@@@std@@V?$allocator@PAVCDropTarget@@@4@@3@U?$less@PAUHWND__@@@3@V?$allocator@PAVCDropTarget@@@3@@std@@QAE?AViterator@12@XZ 004ea2e0 f i drag-n-drop.obj
 0001:000e9340       ?end@?$_Tree@PAUHWND__@@U?$pair@QAUHWND__@@PAVCDropTarget@@@std@@U_Kfn@?$map@PAUHWND__@@PAVCDropTarget@@U?$less@PAUHWND__@@@std@@V?$allocator@PAVCDropTarget@@@4@@3@U?$less@PAUHWND__@@@3@V?$allocator@PAVCDropTarget@@@3@@std@@QAE?AViterator@12@XZ 004ea340 f i drag-n-drop.obj
 0001:000e93a0       ?erase@?$_Tree@PAUHWND__@@U?$pair@QAUHWND__@@PAVCDropTarget@@@std@@U_Kfn@?$map@PAUHWND__@@PAVCDropTarget@@U?$less@PAUHWND__@@@std@@V?$allocator@PAVCDropTarget@@@4@@3@U?$less@PAUHWND__@@@3@V?$allocator@PAVCDropTarget@@@3@@std@@QAE?AViterator@12@V312@0@Z 004ea3a0 f i drag-n-drop.obj
 0001:000e9570       ?erase@?$_Tree@PAUHWND__@@U?$pair@QAUHWND__@@PAVCDropTarget@@@std@@U_Kfn@?$map@PAUHWND__@@PAVCDropTarget@@U?$less@PAUHWND__@@@std@@V?$allocator@PAVCDropTarget@@@4@@3@U?$less@PAUHWND__@@@3@V?$allocator@PAVCDropTarget@@@3@@std@@QAEIABQAUHWND__@@@Z 004ea570 f i drag-n-drop.obj
 0001:000e9610       ?find@?$_Tree@PAUHWND__@@U?$pair@QAUHWND__@@PAVCDropTarget@@@std@@U_Kfn@?$map@PAUHWND__@@PAVCDropTarget@@U?$less@PAUHWND__@@@std@@V?$allocator@PAVCDropTarget@@@4@@3@U?$less@PAUHWND__@@@3@V?$allocator@PAVCDropTarget@@@3@@std@@QAE?AViterator@12@ABQAUHWND__@@@Z 004ea610 f i drag-n-drop.obj
 0001:000e9700       ?_Freenode@?$_Tree@PAUHWND__@@U?$pair@QAUHWND__@@PAVCDropTarget@@@std@@U_Kfn@?$map@PAUHWND__@@PAVCDropTarget@@U?$less@PAUHWND__@@@std@@V?$allocator@PAVCDropTarget@@@4@@3@U?$less@PAUHWND__@@@3@V?$allocator@PAVCDropTarget@@@3@@std@@IAEXPAU_Node@12@@Z 004ea700 f i drag-n-drop.obj
 0001:000e9750       ??0?$pair@QAUHWND__@@PAVCDropTarget@@@std@@QAE@ABQAUHWND__@@ABQAVCDropTarget@@@Z 004ea750 f i drag-n-drop.obj
 0001:000e97a0       ??8iterator@?$_Tree@PAUHWND__@@U?$pair@QAUHWND__@@PAVCDropTarget@@@std@@U_Kfn@?$map@PAUHWND__@@PAVCDropTarget@@U?$less@PAUHWND__@@@std@@V?$allocator@PAVCDropTarget@@@4@@3@U?$less@PAUHWND__@@@3@V?$allocator@PAVCDropTarget@@@3@@std@@QBE_NABV012@@Z 004ea7a0 f i drag-n-drop.obj
 0001:000e97f0       ??R?$less@PAUHWND__@@@std@@QBE_NABQAUHWND__@@0@Z 004ea7f0 f i drag-n-drop.obj
 0001:000e9840       ?deallocate@?$allocator@PAVCDropTarget@@@std@@QAEXPAXI@Z 004ea840 f i drag-n-drop.obj
 0001:000e9890       ?_Key@?$_Tree@PAUHWND__@@U?$pair@QAUHWND__@@PAVCDropTarget@@@std@@U_Kfn@?$map@PAUHWND__@@PAVCDropTarget@@U?$less@PAUHWND__@@@std@@V?$allocator@PAVCDropTarget@@@4@@3@U?$less@PAUHWND__@@@3@V?$allocator@PAVCDropTarget@@@3@@std@@KAABQAUHWND__@@PAU_Node@12@@Z 004ea890 f i drag-n-drop.obj
 0001:000e98e0       ?size@?$_Tree@PAUHWND__@@U?$pair@QAUHWND__@@PAVCDropTarget@@@std@@U_Kfn@?$map@PAUHWND__@@PAVCDropTarget@@U?$less@PAUHWND__@@@std@@V?$allocator@PAVCDropTarget@@@4@@3@U?$less@PAUHWND__@@@3@V?$allocator@PAVCDropTarget@@@3@@std@@QBEIXZ 004ea8e0 f i drag-n-drop.obj
 0001:000e9920       ?insert@?$_Tree@PAUHWND__@@U?$pair@QAUHWND__@@PAVCDropTarget@@@std@@U_Kfn@?$map@PAUHWND__@@PAVCDropTarget@@U?$less@PAUHWND__@@@std@@V?$allocator@PAVCDropTarget@@@4@@3@U?$less@PAUHWND__@@@3@V?$allocator@PAVCDropTarget@@@3@@std@@QAE?AU?$pair@Viterator@?$_Tree@PAUHWND__@@U?$pair@QAUHWND__@@PAVCDropTarget@@@std@@U_Kfn@?$map@PAUHWND__@@PAVCDropTarget@@U?$less@PAUHWND__@@@std@@V?$allocator@PAVCDropTarget@@@4@@3@U?$less@PAUHWND__@@@3@V?$allocator@PAVCDropTarget@@@3@@std@@_N@2@ABU?$pair@QAUHWND__@@PAVCDropTarget@@@2@@Z 004ea920 f i drag-n-drop.obj
 0001:000e9c40       ?erase@?$_Tree@PAUHWND__@@U?$pair@QAUHWND__@@PAVCDropTarget@@@std@@U_Kfn@?$map@PAUHWND__@@PAVCDropTarget@@U?$less@PAUHWND__@@@std@@V?$allocator@PAVCDropTarget@@@4@@3@U?$less@PAUHWND__@@@3@V?$allocator@PAVCDropTarget@@@3@@std@@QAE?AViterator@12@V312@@Z 004eac40 f i drag-n-drop.obj
 0001:000ea6e0       ?lower_bound@?$_Tree@PAUHWND__@@U?$pair@QAUHWND__@@PAVCDropTarget@@@std@@U_Kfn@?$map@PAUHWND__@@PAVCDropTarget@@U?$less@PAUHWND__@@@std@@V?$allocator@PAVCDropTarget@@@4@@3@U?$less@PAUHWND__@@@3@V?$allocator@PAVCDropTarget@@@3@@std@@QAE?AViterator@12@ABQAUHWND__@@@Z 004eb6e0 f i drag-n-drop.obj
 0001:000ea750       ?equal_range@?$_Tree@PAUHWND__@@U?$pair@QAUHWND__@@PAVCDropTarget@@@std@@U_Kfn@?$map@PAUHWND__@@PAVCDropTarget@@U?$less@PAUHWND__@@@std@@V?$allocator@PAVCDropTarget@@@4@@3@U?$less@PAUHWND__@@@3@V?$allocator@PAVCDropTarget@@@3@@std@@QAE?AU?$pair@Viterator@?$_Tree@PAUHWND__@@U?$pair@QAUHWND__@@PAVCDropTarget@@@std@@U_Kfn@?$map@PAUHWND__@@PAVCDropTarget@@U?$less@PAUHWND__@@@std@@V?$allocator@PAVCDropTarget@@@4@@3@U?$less@PAUHWND__@@@3@V?$allocator@PAVCDropTarget@@@3@@std@@V123@@2@ABQAUHWND__@@@Z 004eb750 f i drag-n-drop.obj
 0001:000ea7e0       ?_Erase@?$_Tree@PAUHWND__@@U?$pair@QAUHWND__@@PAVCDropTarget@@@std@@U_Kfn@?$map@PAUHWND__@@PAVCDropTarget@@U?$less@PAUHWND__@@@std@@V?$allocator@PAVCDropTarget@@@4@@3@U?$less@PAUHWND__@@@3@V?$allocator@PAVCDropTarget@@@3@@std@@IAEXPAU_Node@12@@Z 004eb7e0 f i drag-n-drop.obj
 0001:000ea900       ?_Init@?$_Tree@PAUHWND__@@U?$pair@QAUHWND__@@PAVCDropTarget@@@std@@U_Kfn@?$map@PAUHWND__@@PAVCDropTarget@@U?$less@PAUHWND__@@@std@@V?$allocator@PAVCDropTarget@@@4@@3@U?$less@PAUHWND__@@@3@V?$allocator@PAVCDropTarget@@@3@@std@@IAEXXZ 004eb900 f i drag-n-drop.obj
 0001:000eaa60       ?_Lmost@?$_Tree@PAUHWND__@@U?$pair@QAUHWND__@@PAVCDropTarget@@@std@@U_Kfn@?$map@PAUHWND__@@PAVCDropTarget@@U?$less@PAUHWND__@@@std@@V?$allocator@PAVCDropTarget@@@4@@3@U?$less@PAUHWND__@@@3@V?$allocator@PAVCDropTarget@@@3@@std@@IAEAAPAU_Node@12@XZ 004eba60 f i drag-n-drop.obj
 0001:000eaab0       ?_Rmost@?$_Tree@PAUHWND__@@U?$pair@QAUHWND__@@PAVCDropTarget@@@std@@U_Kfn@?$map@PAUHWND__@@PAVCDropTarget@@U?$less@PAUHWND__@@@std@@V?$allocator@PAVCDropTarget@@@4@@3@U?$less@PAUHWND__@@@3@V?$allocator@PAVCDropTarget@@@3@@std@@IAEAAPAU_Node@12@XZ 004ebab0 f i drag-n-drop.obj
 0001:000eab00       ?_Root@?$_Tree@PAUHWND__@@U?$pair@QAUHWND__@@PAVCDropTarget@@@std@@U_Kfn@?$map@PAUHWND__@@PAVCDropTarget@@U?$less@PAUHWND__@@@std@@V?$allocator@PAVCDropTarget@@@4@@3@U?$less@PAUHWND__@@@3@V?$allocator@PAVCDropTarget@@@3@@std@@IAEAAPAU_Node@12@XZ 004ebb00 f i drag-n-drop.obj
 0001:000eab50       ?_Mynode@const_iterator@?$_Tree@PAUHWND__@@U?$pair@QAUHWND__@@PAVCDropTarget@@@std@@U_Kfn@?$map@PAUHWND__@@PAVCDropTarget@@U?$less@PAUHWND__@@@std@@V?$allocator@PAVCDropTarget@@@4@@3@U?$less@PAUHWND__@@@3@V?$allocator@PAVCDropTarget@@@3@@std@@QBEPAU_Node@23@XZ 004ebb50 f i drag-n-drop.obj
 0001:000eab90       ??0iterator@?$_Tree@PAUHWND__@@U?$pair@QAUHWND__@@PAVCDropTarget@@@std@@U_Kfn@?$map@PAUHWND__@@PAVCDropTarget@@U?$less@PAUHWND__@@@std@@V?$allocator@PAVCDropTarget@@@4@@3@U?$less@PAUHWND__@@@3@V?$allocator@PAVCDropTarget@@@3@@std@@QAE@PAU_Node@12@@Z 004ebb90 f i drag-n-drop.obj
 0001:000eabe0       ??Eiterator@?$_Tree@PAUHWND__@@U?$pair@QAUHWND__@@PAVCDropTarget@@@std@@U_Kfn@?$map@PAUHWND__@@PAVCDropTarget@@U?$less@PAUHWND__@@@std@@V?$allocator@PAVCDropTarget@@@4@@3@U?$less@PAUHWND__@@@3@V?$allocator@PAVCDropTarget@@@3@@std@@QAE?AV012@H@Z 004ebbe0 f i drag-n-drop.obj
 0001:000eac40       ??0?$pair@Viterator@?$_Tree@PAUHWND__@@U?$pair@QAUHWND__@@PAVCDropTarget@@@std@@U_Kfn@?$map@PAUHWND__@@PAVCDropTarget@@U?$less@PAUHWND__@@@std@@V?$allocator@PAVCDropTarget@@@4@@3@U?$less@PAUHWND__@@@3@V?$allocator@PAVCDropTarget@@@3@@std@@_N@std@@QAE@ABViterator@?$_Tree@PAUHWND__@@U?$pair@QAUHWND__@@PAVCDropTarget@@@std@@U_Kfn@?$map@PAUHWND__@@PAVCDropTarget@@U?$less@PAUHWND__@@@std@@V?$allocator@PAVCDropTarget@@@4@@3@U?$less@PAUHWND__@@@3@V?$allocator@PAVCDropTarget@@@3@@1@AB_N@Z 004ebc40 f i drag-n-drop.obj
 0001:000eac90       ??R_Kfn@?$map@PAUHWND__@@PAVCDropTarget@@U?$less@PAUHWND__@@@std@@V?$allocator@PAVCDropTarget@@@4@@std@@QBEABQAUHWND__@@ABU?$pair@QAUHWND__@@PAVCDropTarget@@@2@@Z 004ebc90 f i drag-n-drop.obj
 0001:000eacd0       ?_Color@?$_Tree@PAUHWND__@@U?$pair@QAUHWND__@@PAVCDropTarget@@@std@@U_Kfn@?$map@PAUHWND__@@PAVCDropTarget@@U?$less@PAUHWND__@@@std@@V?$allocator@PAVCDropTarget@@@4@@3@U?$less@PAUHWND__@@@3@V?$allocator@PAVCDropTarget@@@3@@std@@KAAAW4_Redbl@12@PAU_Node@12@@Z 004ebcd0 f i drag-n-drop.obj
 0001:000ead00       ?_Left@?$_Tree@PAUHWND__@@U?$pair@QAUHWND__@@PAVCDropTarget@@@std@@U_Kfn@?$map@PAUHWND__@@PAVCDropTarget@@U?$less@PAUHWND__@@@std@@V?$allocator@PAVCDropTarget@@@4@@3@U?$less@PAUHWND__@@@3@V?$allocator@PAVCDropTarget@@@3@@std@@KAAAPAU_Node@12@PAU312@@Z 004ebd00 f i drag-n-drop.obj
 0001:000ead30       ?_Parent@?$_Tree@PAUHWND__@@U?$pair@QAUHWND__@@PAVCDropTarget@@@std@@U_Kfn@?$map@PAUHWND__@@PAVCDropTarget@@U?$less@PAUHWND__@@@std@@V?$allocator@PAVCDropTarget@@@4@@3@U?$less@PAUHWND__@@@3@V?$allocator@PAVCDropTarget@@@3@@std@@KAAAPAU_Node@12@PAU312@@Z 004ebd30 f i drag-n-drop.obj
 0001:000ead60       ?_Right@?$_Tree@PAUHWND__@@U?$pair@QAUHWND__@@PAVCDropTarget@@@std@@U_Kfn@?$map@PAUHWND__@@PAVCDropTarget@@U?$less@PAUHWND__@@@std@@V?$allocator@PAVCDropTarget@@@4@@3@U?$less@PAUHWND__@@@3@V?$allocator@PAVCDropTarget@@@3@@std@@KAAAPAU_Node@12@PAU312@@Z 004ebd60 f i drag-n-drop.obj
 0001:000ead90       ?upper_bound@?$_Tree@PAUHWND__@@U?$pair@QAUHWND__@@PAVCDropTarget@@@std@@U_Kfn@?$map@PAUHWND__@@PAVCDropTarget@@U?$less@PAUHWND__@@@std@@V?$allocator@PAVCDropTarget@@@4@@3@U?$less@PAUHWND__@@@3@V?$allocator@PAVCDropTarget@@@3@@std@@QAE?AViterator@12@ABQAUHWND__@@@Z 004ebd90 f i drag-n-drop.obj
 0001:000eae00       ?_Insert@?$_Tree@PAUHWND__@@U?$pair@QAUHWND__@@PAVCDropTarget@@@std@@U_Kfn@?$map@PAUHWND__@@PAVCDropTarget@@U?$less@PAUHWND__@@@std@@V?$allocator@PAVCDropTarget@@@4@@3@U?$less@PAUHWND__@@@3@V?$allocator@PAVCDropTarget@@@3@@std@@IAE?AViterator@12@PAU_Node@12@0ABU?$pair@QAUHWND__@@PAVCDropTarget@@@2@@Z 004ebe00 f i drag-n-drop.obj
 0001:000eb440       ?_Lbound@?$_Tree@PAUHWND__@@U?$pair@QAUHWND__@@PAVCDropTarget@@@std@@U_Kfn@?$map@PAUHWND__@@PAVCDropTarget@@U?$less@PAUHWND__@@@std@@V?$allocator@PAVCDropTarget@@@4@@3@U?$less@PAUHWND__@@@3@V?$allocator@PAVCDropTarget@@@3@@std@@IBEPAU_Node@12@ABQAUHWND__@@@Z 004ec440 f i drag-n-drop.obj
 0001:000eb580       ?_Lrotate@?$_Tree@PAUHWND__@@U?$pair@QAUHWND__@@PAVCDropTarget@@@std@@U_Kfn@?$map@PAUHWND__@@PAVCDropTarget@@U?$less@PAUHWND__@@@std@@V?$allocator@PAVCDropTarget@@@4@@3@U?$less@PAUHWND__@@@3@V?$allocator@PAVCDropTarget@@@3@@std@@IAEXPAU_Node@12@@Z 004ec580 f i drag-n-drop.obj
 0001:000eb780       ?_Max@?$_Tree@PAUHWND__@@U?$pair@QAUHWND__@@PAVCDropTarget@@@std@@U_Kfn@?$map@PAUHWND__@@PAVCDropTarget@@U?$less@PAUHWND__@@@std@@V?$allocator@PAVCDropTarget@@@4@@3@U?$less@PAUHWND__@@@3@V?$allocator@PAVCDropTarget@@@3@@std@@KAPAU_Node@12@PAU312@@Z 004ec780 f i drag-n-drop.obj
 0001:000eb860       ?_Min@?$_Tree@PAUHWND__@@U?$pair@QAUHWND__@@PAVCDropTarget@@@std@@U_Kfn@?$map@PAUHWND__@@PAVCDropTarget@@U?$less@PAUHWND__@@@std@@V?$allocator@PAVCDropTarget@@@4@@3@U?$less@PAUHWND__@@@3@V?$allocator@PAVCDropTarget@@@3@@std@@KAPAU_Node@12@PAU312@@Z 004ec860 f i drag-n-drop.obj
 0001:000eb940       ?_Rrotate@?$_Tree@PAUHWND__@@U?$pair@QAUHWND__@@PAVCDropTarget@@@std@@U_Kfn@?$map@PAUHWND__@@PAVCDropTarget@@U?$less@PAUHWND__@@@std@@V?$allocator@PAVCDropTarget@@@4@@3@U?$less@PAUHWND__@@@3@V?$allocator@PAVCDropTarget@@@3@@std@@IAEXPAU_Node@12@@Z 004ec940 f i drag-n-drop.obj
 0001:000ebb40       ?_Buynode@?$_Tree@PAUHWND__@@U?$pair@QAUHWND__@@PAVCDropTarget@@@std@@U_Kfn@?$map@PAUHWND__@@PAVCDropTarget@@U?$less@PAUHWND__@@@std@@V?$allocator@PAVCDropTarget@@@4@@3@U?$less@PAUHWND__@@@3@V?$allocator@PAVCDropTarget@@@3@@std@@IAEPAU_Node@12@PAU312@W4_Redbl@12@@Z 004ecb40 f i drag-n-drop.obj
 0001:000ebbc0       ?_Destval@?$_Tree@PAUHWND__@@U?$pair@QAUHWND__@@PAVCDropTarget@@@std@@U_Kfn@?$map@PAUHWND__@@PAVCDropTarget@@U?$less@PAUHWND__@@@std@@V?$allocator@PAVCDropTarget@@@4@@3@U?$less@PAUHWND__@@@3@V?$allocator@PAVCDropTarget@@@3@@std@@IAEXPAU?$pair@QAUHWND__@@PAVCDropTarget@@@2@@Z 004ecbc0 f i drag-n-drop.obj
 0001:000ebc10       ??0const_iterator@?$_Tree@PAUHWND__@@U?$pair@QAUHWND__@@PAVCDropTarget@@@std@@U_Kfn@?$map@PAUHWND__@@PAVCDropTarget@@U?$less@PAUHWND__@@@std@@V?$allocator@PAVCDropTarget@@@4@@3@U?$less@PAUHWND__@@@3@V?$allocator@PAVCDropTarget@@@3@@std@@QAE@PAU_Node@12@@Z 004ecc10 f i drag-n-drop.obj
 0001:000ebc50       ??Eiterator@?$_Tree@PAUHWND__@@U?$pair@QAUHWND__@@PAVCDropTarget@@@std@@U_Kfn@?$map@PAUHWND__@@PAVCDropTarget@@U?$less@PAUHWND__@@@std@@V?$allocator@PAVCDropTarget@@@4@@3@U?$less@PAUHWND__@@@3@V?$allocator@PAVCDropTarget@@@3@@std@@QAEAAV012@XZ 004ecc50 f i drag-n-drop.obj
 0001:000ebca0       ??Fiterator@?$_Tree@PAUHWND__@@U?$pair@QAUHWND__@@PAVCDropTarget@@@std@@U_Kfn@?$map@PAUHWND__@@PAVCDropTarget@@U?$less@PAUHWND__@@@std@@V?$allocator@PAVCDropTarget@@@4@@3@U?$less@PAUHWND__@@@3@V?$allocator@PAVCDropTarget@@@3@@std@@QAEAAV012@XZ 004ecca0 f i drag-n-drop.obj
 0001:000ebcf0       ??0?$pair@Viterator@?$_Tree@PAUHWND__@@U?$pair@QAUHWND__@@PAVCDropTarget@@@std@@U_Kfn@?$map@PAUHWND__@@PAVCDropTarget@@U?$less@PAUHWND__@@@std@@V?$allocator@PAVCDropTarget@@@4@@3@U?$less@PAUHWND__@@@3@V?$allocator@PAVCDropTarget@@@3@@std@@V123@@std@@QAE@ABViterator@?$_Tree@PAUHWND__@@U?$pair@QAUHWND__@@PAVCDropTarget@@@std@@U_Kfn@?$map@PAUHWND__@@PAVCDropTarget@@U?$less@PAUHWND__@@@std@@V?$allocator@PAVCDropTarget@@@4@@3@U?$less@PAUHWND__@@@3@V?$allocator@PAVCDropTarget@@@3@@1@0@Z 004eccf0 f i drag-n-drop.obj
 0001:000ebd40       ?_Charalloc@?$allocator@PAVCDropTarget@@@std@@QAEPADI@Z 004ecd40 f i drag-n-drop.obj
 0001:000ebd90       ?_Root@?$_Tree@PAUHWND__@@U?$pair@QAUHWND__@@PAVCDropTarget@@@std@@U_Kfn@?$map@PAUHWND__@@PAVCDropTarget@@U?$less@PAUHWND__@@@std@@V?$allocator@PAVCDropTarget@@@4@@3@U?$less@PAUHWND__@@@3@V?$allocator@PAVCDropTarget@@@3@@std@@IBEAAPAU_Node@12@XZ 004ecd90 f i drag-n-drop.obj
 0001:000ebde0       ?_Ubound@?$_Tree@PAUHWND__@@U?$pair@QAUHWND__@@PAVCDropTarget@@@std@@U_Kfn@?$map@PAUHWND__@@PAVCDropTarget@@U?$less@PAUHWND__@@@std@@V?$allocator@PAVCDropTarget@@@4@@3@U?$less@PAUHWND__@@@3@V?$allocator@PAVCDropTarget@@@3@@std@@IBEPAU_Node@12@ABQAUHWND__@@@Z 004ecde0 f i drag-n-drop.obj
 0001:000ebf20       ?_Consval@?$_Tree@PAUHWND__@@U?$pair@QAUHWND__@@PAVCDropTarget@@@std@@U_Kfn@?$map@PAUHWND__@@PAVCDropTarget@@U?$less@PAUHWND__@@@std@@V?$allocator@PAVCDropTarget@@@4@@3@U?$less@PAUHWND__@@@3@V?$allocator@PAVCDropTarget@@@3@@std@@IAEXPAU?$pair@QAUHWND__@@PAVCDropTarget@@@2@ABU32@@Z 004ecf20 f i drag-n-drop.obj
 0001:000ebf70       ?_Dec@const_iterator@?$_Tree@PAUHWND__@@U?$pair@QAUHWND__@@PAVCDropTarget@@@std@@U_Kfn@?$map@PAUHWND__@@PAVCDropTarget@@U?$less@PAUHWND__@@@std@@V?$allocator@PAVCDropTarget@@@4@@3@U?$less@PAUHWND__@@@3@V?$allocator@PAVCDropTarget@@@3@@std@@QAEXXZ 004ecf70 f i drag-n-drop.obj
 0001:000ec100       ?_Inc@const_iterator@?$_Tree@PAUHWND__@@U?$pair@QAUHWND__@@PAVCDropTarget@@@std@@U_Kfn@?$map@PAUHWND__@@PAVCDropTarget@@U?$less@PAUHWND__@@@std@@V?$allocator@PAVCDropTarget@@@4@@3@U?$less@PAUHWND__@@@3@V?$allocator@PAVCDropTarget@@@3@@std@@QAEXXZ 004ed100 f i drag-n-drop.obj
 0001:000ec250       ?_Distance@std@@YAXViterator@?$_Tree@PAUHWND__@@U?$pair@QAUHWND__@@PAVCDropTarget@@@std@@U_Kfn@?$map@PAUHWND__@@PAVCDropTarget@@U?$less@PAUHWND__@@@std@@V?$allocator@PAVCDropTarget@@@4@@3@U?$less@PAUHWND__@@@3@V?$allocator@PAVCDropTarget@@@3@@1@0AAI@Z 004ed250 f i drag-n-drop.obj
 0001:000ec2c0       ?swap@std@@YAXAAW4_Redbl@?$_Tree@PAUHWND__@@U?$pair@QAUHWND__@@PAVCDropTarget@@@std@@U_Kfn@?$map@PAUHWND__@@PAVCDropTarget@@U?$less@PAUHWND__@@@std@@V?$allocator@PAVCDropTarget@@@4@@3@U?$less@PAUHWND__@@@3@V?$allocator@PAVCDropTarget@@@3@@1@0@Z 004ed2c0 f i drag-n-drop.obj
 0001:000ec310       ?_Destroy@std@@YAXPAU?$pair@QAUHWND__@@PAVCDropTarget@@@1@@Z 004ed310 f i drag-n-drop.obj
 0001:000ec340       ?_Construct@std@@YAXPAU?$pair@QAUHWND__@@PAVCDropTarget@@@1@ABU21@@Z 004ed340 f i drag-n-drop.obj
 0001:000ec3c0       ?_Iter_cat@std@@YA?AUbidirectional_iterator_tag@1@ABU?$iterator@Ubidirectional_iterator_tag@std@@U?$pair@QAUHWND__@@PAVCDropTarget@@@2@H@1@@Z 004ed3c0 f i drag-n-drop.obj
 0001:000ec400       ?_Distance@std@@YAXViterator@?$_Tree@PAUHWND__@@U?$pair@QAUHWND__@@PAVCDropTarget@@@std@@U_Kfn@?$map@PAUHWND__@@PAVCDropTarget@@U?$less@PAUHWND__@@@std@@V?$allocator@PAVCDropTarget@@@4@@3@U?$less@PAUHWND__@@@3@V?$allocator@PAVCDropTarget@@@3@@1@0AAIUbidirectional_iterator_tag@1@@Z 004ed400 f i drag-n-drop.obj
 0001:000ec470       ?SetFocusable@CSkinWnd@@QAEX_N@Z 004ed470 f i drag-n-drop.obj
 0001:000ec4b0       ??0CWorldObjectDraggable@@QAE@VCSCI_WorldObject@@AAVCPoint@@@Z 004ed4b0 f   dragworldobject.obj
 0001:000ec870       ??_ECWorldObjectDraggable@@UAEPAXI@Z 004ed870 f i dragworldobject.obj
 0001:000ec870       ??_GCWorldObjectDraggable@@UAEPAXI@Z 004ed870 f i dragworldobject.obj
 0001:000ec8e0       ??0CSCI_BCarryable@@QAE@ABV0@@Z 004ed8e0 f i dragworldobject.obj
 0001:000ec930       ??1CWorldObjectDraggable@@UAE@XZ 004ed930 f   dragworldobject.obj
 0001:000ec980       ?GetType@CWorldObjectDraggable@@UAE?AW4eDragType@CDraggable@@XZ 004ed980 f   dragworldobject.obj
 0001:000ec9c0       ?CalcCursor@CWorldObjectDraggable@@QAEPAUHICON__@@VCSCI_WorldObject@@@Z 004ed9c0 f   dragworldobject.obj
 0001:000ecc10       ??0CSCI_VerbList@@QAE@ABV0@@Z 004edc10 f i dragworldobject.obj
 0001:000ecc60       ??0CSCI_Set@@QAE@ABV0@@Z   004edc60 f i dragworldobject.obj
 0001:000eccb0       ??0CSCI_List@@QAE@ABV0@@Z  004edcb0 f i dragworldobject.obj
 0001:000ecd00       ??0CSCI_Collection@@QAE@ABV0@@Z 004edd00 f i dragworldobject.obj
 0001:000ecd50       ?get_elements@CSCI_Collection@@QAEFXZ 004edd50 f i dragworldobject.obj
 0001:000ecda0       ?get_scaleX@CSCI_BitMap@@QAEFXZ 004edda0 f i dragworldobject.obj
 0001:000ecdf0       ?get_scaleY@CSCI_BitMap@@QAEFXZ 004eddf0 f i dragworldobject.obj
 0001:000ece40       ?get_pOwner@CSCI_BCarryable@@QAEFXZ 004ede40 f i dragworldobject.obj
 0001:000ece90       ??0CSCI_VerbList@@QAE@ABVObjectID@@@Z 004ede90 f i dragworldobject.obj
 0001:000ecee0       ??0CSCI_Set@@QAE@ABVMemID@@@Z 004edee0 f i dragworldobject.obj
 0001:000ecf30       ??0CSCI_List@@QAE@ABVMemID@@@Z 004edf30 f i dragworldobject.obj
 0001:000ecf80       ??0CSCI_Collection@@QAE@ABVMemID@@@Z 004edf80 f i dragworldobject.obj
 0001:000ed050       ??0CEventVerbHandler@@QAE@XZ 004ee050 f i EventVerbs.obj
 0001:000ed0b0       ?HandleVerb@CEventVerbHandler@@UAEHHVCSCI_WorldObject@@@Z 004ee0b0 f i EventVerbs.obj
 0001:000ed290       ??1CEventVerbHandler@@UAE@XZ 004ee290 f i EventVerbs.obj
 0001:000ed2e0       ??_ECEventVerbHandler@@UAEPAXI@Z 004ee2e0 f i EventVerbs.obj
 0001:000ed2e0       ??_GCEventVerbHandler@@UAEPAXI@Z 004ee2e0 f i EventVerbs.obj
 0001:000ed350       ??0CEventVerbs@@QAE@XZ     004ee350 f   EventVerbs.obj
 0001:000ed3c0       ??_ECEventVerbs@@UAEPAXI@Z 004ee3c0 f i EventVerbs.obj
 0001:000ed3c0       ??_GCEventVerbs@@UAEPAXI@Z 004ee3c0 f i EventVerbs.obj
 0001:000ed430       ??1CEventVerbs@@UAE@XZ     004ee430 f   EventVerbs.obj
 0001:000ed480       ?Create@CEventVerbs@@UAEHXZ 004ee480 f   EventVerbs.obj
 0001:000ed590       ??0COpenEventDlg@@QAE@XZ   004ee590 f   EventVerbs.obj
 0001:000ed5f0       ??_ECOpenEventDlg@@UAEPAXI@Z 004ee5f0 f i EventVerbs.obj
 0001:000ed5f0       ??_GCOpenEventDlg@@UAEPAXI@Z 004ee5f0 f i EventVerbs.obj
 0001:000ed660       ??1COpenEventDlg@@UAE@XZ   004ee660 f i EventVerbs.obj
 0001:000ed6b0       ?CloseSelf@COpenEventDlg@@UAEX_N@Z 004ee6b0 f   EventVerbs.obj
 0001:000ed7c0       ?Create@COpenEventDlg@@QAEHXZ 004ee7c0 f   EventVerbs.obj
 0001:000ed880       ?MakeSkinCtrl@COpenEventDlg@@UAEPAVCSkinCtrl@@VCSkinObj@@@Z 004ee880 f   EventVerbs.obj
 0001:000edc20       ?_GetBaseMessageMap@CTopicLine@@KGPBUAFX_MSGMAP@@XZ 004eec20 f   EventVerbs.obj
 0001:000edc50       ?GetMessageMap@CTopicLine@@MBEPBUAFX_MSGMAP@@XZ 004eec50 f   EventVerbs.obj
 0001:000edc90       ??0CTopicLine@@QAE@VCSkinObj@@PAVCSkinWnd@@IK_N22@Z 004eec90 f   EventVerbs.obj
 0001:000edd90       ??_GCTopicLine@@UAEPAXI@Z  004eed90 f i EventVerbs.obj
 0001:000edd90       ??_ECTopicLine@@UAEPAXI@Z  004eed90 f i EventVerbs.obj
 0001:000ede00       ??1CTopicLine@@UAE@XZ      004eee00 f i EventVerbs.obj
 0001:000ede50       ?OnChar@CTopicLine@@QAEXIII@Z 004eee50 f   EventVerbs.obj
 0001:000ee180       ??_ECTopicLine@@WGA@AEPAXI@Z 004ef180 f i EventVerbs.obj
 0001:000ee190       ??_ECTopicLine@@WHE@AEPAXI@Z 004ef190 f i EventVerbs.obj
 0001:000ee1a0       ?IsEvent@CEventDlg@@QAEHXZ 004ef1a0 f i EventVerbs.obj
 0001:000ee1e0       ?getRights@CToonSettings@@QAEHH@Z 004ef1e0 f i EventVerbs.obj
 0001:000ee220       ??0CEvictDlg@@QAE@XZ       004ef220 f   evict.obj
 0001:000ee280       ??_ECEvictDlg@@UAEPAXI@Z   004ef280 f i evict.obj
 0001:000ee280       ??_GCEvictDlg@@UAEPAXI@Z   004ef280 f i evict.obj
 0001:000ee2f0       ??1CEvictDlg@@UAE@XZ       004ef2f0 f   evict.obj
 0001:000ee340       ?Create@CEvictDlg@@UAEXPAVCWnd@@@Z 004ef340 f   evict.obj
 0001:000ee420       ?MakeSkinCtrl@CEvictDlg@@UAEPAVCSkinCtrl@@VCSkinObj@@@Z 004ef420 f   evict.obj
 0001:000ee610       ??0CEvictBtn@@QAE@VCSkinObj@@PAVCSkinWnd@@@Z 004ef610 f i evict.obj
 0001:000ee6d0       ?OnActivate@CEvictBtn@@UAEXFF@Z 004ef6d0 f i evict.obj
 0001:000ee720       ??_ECEvictBtn@@UAEPAXI@Z   004ef720 f i evict.obj
 0001:000ee720       ??_GCEvictBtn@@UAEPAXI@Z   004ef720 f i evict.obj
 0001:000ee790       ??1CEvictBtn@@UAE@XZ       004ef790 f i evict.obj
 0001:000ee7e0       ??0CPerson@@QAE@XZ         004ef7e0 f   friendmgr.obj
 0001:000ee890       ??_GCPerson@@UAEPAXI@Z     004ef890 f i friendmgr.obj
 0001:000ee890       ??_ECPerson@@UAEPAXI@Z     004ef890 f i friendmgr.obj
 0001:000ee900       ??1CPerson@@UAE@XZ         004ef900 f   friendmgr.obj
 0001:000ee960       ?SetName@CPerson@@QAEXPBD@Z 004ef960 f   friendmgr.obj
 0001:000ee9b0       ?SetBusy@CPerson@@QAEHH@Z  004ef9b0 f   friendmgr.obj
 0001:000eea20       ?SetOnline@CPerson@@QAEHH@Z 004efa20 f   friendmgr.obj
 0001:000eea90       ?SetPermenant@CPerson@@QAEHH@Z 004efa90 f   friendmgr.obj
 0001:000eeb00       ?GetName@CPerson@@QAEXAAVCString@@@Z 004efb00 f   friendmgr.obj
 0001:000eeb50       ?GetBusy@CPerson@@QAEHXZ   004efb50 f   friendmgr.obj
 0001:000eeb90       ?GetOnline@CPerson@@QAEHXZ 004efb90 f   friendmgr.obj
 0001:000eebd0       ?GetPermenant@CPerson@@QAEHXZ 004efbd0 f   friendmgr.obj
 0001:000eec10       ?Compare@CPerson@@QAEHPAV1@@Z 004efc10 f   friendmgr.obj
 0001:000eed10       ?_GetBaseMessageMap@CAddFriendDlg@@KGPBUAFX_MSGMAP@@XZ 004efd10 f   friendmgr.obj
 0001:000eed40       ?GetMessageMap@CAddFriendDlg@@MBEPBUAFX_MSGMAP@@XZ 004efd40 f   friendmgr.obj
 0001:000eed80       ??0CAddFriendDlg@@QAE@XZ   004efd80 f   friendmgr.obj
 0001:000eee00       ??_ECAddFriendDlg@@UAEPAXI@Z 004efe00 f i friendmgr.obj
 0001:000eee00       ??_GCAddFriendDlg@@UAEPAXI@Z 004efe00 f i friendmgr.obj
 0001:000eee70       ??1CAddFriendDlg@@UAE@XZ   004efe70 f i friendmgr.obj
 0001:000eeec0       ?ExecuteButton@CAddFriendDlg@@UAEXH@Z 004efec0 f   friendmgr.obj
 0001:000ef080       ?Create@CAddFriendDlg@@QAEHPAD0@Z 004f0080 f   friendmgr.obj
 0001:000ef180       ?MakeSkinCtrl@CAddFriendDlg@@UAEPAVCSkinCtrl@@VCSkinObj@@@Z 004f0180 f   friendmgr.obj
 0001:000ef3b0       ?Next@CAddFriendDlg@@UAEXXZ 004f03b0 f   friendmgr.obj
 0001:000ef410       ?OnSetFocus@CAddFriendDlg@@QAEXPAVCWnd@@@Z 004f0410 f   friendmgr.obj
 0001:000ef480       ?_GetBaseMessageMap@CAddFoeDlg@@KGPBUAFX_MSGMAP@@XZ 004f0480 f   friendmgr.obj
 0001:000ef4b0       ?GetMessageMap@CAddFoeDlg@@MBEPBUAFX_MSGMAP@@XZ 004f04b0 f   friendmgr.obj
 0001:000ef4f0       ??0CAddFoeDlg@@QAE@XZ      004f04f0 f   friendmgr.obj
 0001:000ef570       ??_GCAddFoeDlg@@UAEPAXI@Z  004f0570 f i friendmgr.obj
 0001:000ef570       ??_ECAddFoeDlg@@UAEPAXI@Z  004f0570 f i friendmgr.obj
 0001:000ef5e0       ??1CAddFoeDlg@@UAE@XZ      004f05e0 f i friendmgr.obj
 0001:000ef630       ?ExecuteButton@CAddFoeDlg@@UAEXH@Z 004f0630 f   friendmgr.obj
 0001:000ef7f0       ?Create@CAddFoeDlg@@QAEHPAD0@Z 004f07f0 f   friendmgr.obj
 0001:000ef8f0       ?MakeSkinCtrl@CAddFoeDlg@@UAEPAVCSkinCtrl@@VCSkinObj@@@Z 004f08f0 f   friendmgr.obj
 0001:000efb20       ?Next@CAddFoeDlg@@UAEXXZ   004f0b20 f   friendmgr.obj
 0001:000efb80       ?OnSetFocus@CAddFoeDlg@@QAEXPAVCWnd@@@Z 004f0b80 f   friendmgr.obj
 0001:000efbf0       ??0CPeopleMgrWnd@@QAE@XZ   004f0bf0 f   friendmgr.obj
 0001:000efce0       ??_GCPeopleMgrWnd@@UAEPAXI@Z 004f0ce0 f i friendmgr.obj
 0001:000efce0       ??_ECPeopleMgrWnd@@UAEPAXI@Z 004f0ce0 f i friendmgr.obj
 0001:000efd50       ??1CPeopleMgrWnd@@UAE@XZ   004f0d50 f   friendmgr.obj
 0001:000efff0       ?CloseSelf@CPeopleMgrWnd@@UAEX_N@Z 004f0ff0 f   friendmgr.obj
 0001:000f0090       ?Create@CPeopleMgrWnd@@QAEHXZ 004f1090 f   friendmgr.obj
 0001:000f04b0       ?MakeSkinCtrl@CPeopleMgrWnd@@UAEPAVCSkinCtrl@@VCSkinObj@@@Z 004f14b0 f   friendmgr.obj
 0001:000f0d70       ??0CFriendListCtrl@@QAE@XZ 004f1d70 f i friendmgr.obj
 0001:000f0df0       ?OnItemActivate@CFriendListCtrl@@UAEXH_N@Z 004f1df0 f i friendmgr.obj
 0001:000f1080       ??_GCFriendListCtrl@@UAEPAXI@Z 004f2080 f i friendmgr.obj
 0001:000f1080       ??_ECFriendListCtrl@@UAEPAXI@Z 004f2080 f i friendmgr.obj
 0001:000f10f0       ??1CFriendListCtrl@@UAE@XZ 004f20f0 f i friendmgr.obj
 0001:000f1140       ??0CFoeListCtrl@@QAE@XZ    004f2140 f i friendmgr.obj
 0001:000f11c0       ?OnItemActivate@CFoeListCtrl@@UAEXH_N@Z 004f21c0 f i friendmgr.obj
 0001:000f1490       ??_ECFoeListCtrl@@UAEPAXI@Z 004f2490 f i friendmgr.obj
 0001:000f1490       ??_GCFoeListCtrl@@UAEPAXI@Z 004f2490 f i friendmgr.obj
 0001:000f1500       ??1CFoeListCtrl@@UAE@XZ    004f2500 f i friendmgr.obj
 0001:000f1550       ??0CAddFriendBtn@@QAE@VCSkinObj@@PAVCSkinWnd@@@Z 004f2550 f i friendmgr.obj
 0001:000f1610       ?OnActivate@CAddFriendBtn@@UAEXFF@Z 004f2610 f i friendmgr.obj
 0001:000f16e0       ??_ECAddFriendBtn@@UAEPAXI@Z 004f26e0 f i friendmgr.obj
 0001:000f16e0       ??_GCAddFriendBtn@@UAEPAXI@Z 004f26e0 f i friendmgr.obj
 0001:000f1750       ??1CAddFriendBtn@@UAE@XZ   004f2750 f i friendmgr.obj
 0001:000f17a0       ??0CAddFoeBtn@@QAE@VCSkinObj@@PAVCSkinWnd@@@Z 004f27a0 f i friendmgr.obj
 0001:000f1860       ?OnActivate@CAddFoeBtn@@UAEXFF@Z 004f2860 f i friendmgr.obj
 0001:000f1930       ??_ECAddFoeBtn@@UAEPAXI@Z  004f2930 f i friendmgr.obj
 0001:000f1930       ??_GCAddFoeBtn@@UAEPAXI@Z  004f2930 f i friendmgr.obj
 0001:000f19a0       ??1CAddFoeBtn@@UAE@XZ      004f29a0 f i friendmgr.obj
 0001:000f19f0       ??0CWhoBtn@@QAE@VCSkinObj@@PAVCSkinWnd@@@Z 004f29f0 f i friendmgr.obj
 0001:000f1ab0       ?OnActivate@CWhoBtn@@UAEXFF@Z 004f2ab0 f i friendmgr.obj
 0001:000f1b00       ??_ECWhoBtn@@UAEPAXI@Z     004f2b00 f i friendmgr.obj
 0001:000f1b00       ??_GCWhoBtn@@UAEPAXI@Z     004f2b00 f i friendmgr.obj
 0001:000f1b70       ??1CWhoBtn@@UAE@XZ         004f2b70 f i friendmgr.obj
 0001:000f1bc0       ?ClearFriends@CPeopleMgrWnd@@QAEXXZ 004f2bc0 f   friendmgr.obj
 0001:000f1c20       ?AddFriend@CPeopleMgrWnd@@QAEXPAVCPerson@@H@Z 004f2c20 f   friendmgr.obj
 0001:000f1d20       ?DelFriend@CPeopleMgrWnd@@QAEXPAVCPerson@@H@Z 004f2d20 f   friendmgr.obj
 0001:000f1dd0       ?UpdateFriend@CPeopleMgrWnd@@QAEXPAVCPerson@@H@Z 004f2dd0 f   friendmgr.obj
 0001:000f1f60       ?ClearFoes@CPeopleMgrWnd@@QAEXXZ 004f2f60 f   friendmgr.obj
 0001:000f1fc0       ?AddFoe@CPeopleMgrWnd@@QAEXPAVCPerson@@H@Z 004f2fc0 f   friendmgr.obj
 0001:000f20b0       ?DelFoe@CPeopleMgrWnd@@QAEXPAVCPerson@@H@Z 004f30b0 f   friendmgr.obj
 0001:000f2160       ?UpdateFoe@CPeopleMgrWnd@@QAEXPAVCPerson@@H@Z 004f3160 f   friendmgr.obj
 0001:000f2250       ?CompareFriends@CPeopleMgrWnd@@KGHPAVCPerson@@0PAVCSkinListCtrl@@@Z 004f3250 f   friendmgr.obj
 0001:000f22b0       ?Sort@CPeopleMgrWnd@@QAEXXZ 004f32b0 f   friendmgr.obj
 0001:000f2340       ??0CFriendMgr@@QAE@XZ      004f3340 f   friendmgr.obj
 0001:000f23f0       ??_GCFriendMgr@@UAEPAXI@Z  004f33f0 f i friendmgr.obj
 0001:000f23f0       ??_ECFriendMgr@@UAEPAXI@Z  004f33f0 f i friendmgr.obj
 0001:000f2460       ??1CFriendMgr@@UAE@XZ      004f3460 f   friendmgr.obj
 0001:000f2570       ??1?$map@VCString@@VCPerson@@U?$less@VCString@@@std@@V?$allocator@VCPerson@@@4@@std@@QAE@XZ 004f3570 f i friendmgr.obj
 0001:000f25c0       ?LoadFriends@CFriendMgr@@QAEXXZ 004f35c0 f   friendmgr.obj
 0001:000f2810       ?UnregisterFriends@CFriendMgr@@QAEXXZ 004f3810 f   friendmgr.obj
 0001:000f29f0       ?ShowFriends@CFriendMgr@@QAEXXZ 004f39f0 f   friendmgr.obj
 0001:000f2b80       ?HideFriends@CFriendMgr@@QAEXXZ 004f3b80 f   friendmgr.obj
 0001:000f2bf0       ?HandleMessage@CFriendMgr@@QAEXPBD@Z 004f3bf0 f   friendmgr.obj
 0001:000f2f60       ?IsFriend@CFriendMgr@@QAEHAAVCString@@@Z 004f3f60 f   friendmgr.obj
 0001:000f3040       ?AddFriend@CFriendMgr@@QAEXAAVCString@@@Z 004f4040 f   friendmgr.obj
 0001:000f3150       ?DelFriend@CFriendMgr@@QAEXAAVCString@@@Z 004f4150 f   friendmgr.obj
 0001:000f32a0       ??0CEnemyMgr@@QAE@XZ       004f42a0 f   friendmgr.obj
 0001:000f3350       ??_GCEnemyMgr@@UAEPAXI@Z   004f4350 f i friendmgr.obj
 0001:000f3350       ??_ECEnemyMgr@@UAEPAXI@Z   004f4350 f i friendmgr.obj
 0001:000f33c0       ??1CEnemyMgr@@UAE@XZ       004f43c0 f   friendmgr.obj
 0001:000f34d0       ?ShowEnemies@CEnemyMgr@@QAEXXZ 004f44d0 f   friendmgr.obj
 0001:000f3660       ?HideEnemies@CEnemyMgr@@QAEXXZ 004f4660 f   friendmgr.obj
 0001:000f36d0       ?HandleMessage@CEnemyMgr@@QAEXPBD@Z 004f46d0 f   friendmgr.obj
 0001:000f3920       ?IsEnemy@CEnemyMgr@@QAEHAAVCString@@PA_N@Z 004f4920 f   friendmgr.obj
 0001:000f3a70       ?IsEnemy@CEnemyMgr@@QAEHPADPA_N@Z 004f4a70 f   friendmgr.obj
 0001:000f3bc0       ?AddEnemy@CEnemyMgr@@QAEXAAVCString@@_N@Z 004f4bc0 f   friendmgr.obj
 0001:000f3ce0       ?DelEnemy@CEnemyMgr@@QAEXAAVCString@@@Z 004f4ce0 f   friendmgr.obj
 0001:000f3e40       ??0?$map@VCString@@VCPerson@@U?$less@VCString@@@std@@V?$allocator@VCPerson@@@4@@std@@QAE@ABU?$less@VCString@@@1@ABV?$allocator@VCPerson@@@1@@Z 004f4e40 f i friendmgr.obj
 0001:000f3ea0       ?begin@?$map@VCString@@VCPerson@@U?$less@VCString@@@std@@V?$allocator@VCPerson@@@4@@std@@QAE?AViterator@?$_Tree@VCString@@U?$pair@$$CBVCString@@VCPerson@@@std@@U_Kfn@?$map@VCString@@VCPerson@@U?$less@VCString@@@std@@V?$allocator@VCPerson@@@4@@3@U?$less@VCString@@@3@V?$allocator@VCPerson@@@3@@2@XZ 004f4ea0 f i friendmgr.obj
 0001:000f3f00       ?end@?$map@VCString@@VCPerson@@U?$less@VCString@@@std@@V?$allocator@VCPerson@@@4@@std@@QAE?AViterator@?$_Tree@VCString@@U?$pair@$$CBVCString@@VCPerson@@@std@@U_Kfn@?$map@VCString@@VCPerson@@U?$less@VCString@@@std@@V?$allocator@VCPerson@@@4@@3@U?$less@VCString@@@3@V?$allocator@VCPerson@@@3@@2@XZ 004f4f00 f i friendmgr.obj
 0001:000f3f60       ??A?$map@VCString@@VCPerson@@U?$less@VCString@@@std@@V?$allocator@VCPerson@@@4@@std@@QAEAAVCPerson@@ABVCString@@@Z 004f4f60 f i friendmgr.obj
 0001:000f4060       ?erase@?$map@VCString@@VCPerson@@U?$less@VCString@@@std@@V?$allocator@VCPerson@@@4@@std@@QAE?AViterator@?$_Tree@VCString@@U?$pair@$$CBVCString@@VCPerson@@@std@@U_Kfn@?$map@VCString@@VCPerson@@U?$less@VCString@@@std@@V?$allocator@VCPerson@@@4@@3@U?$less@VCString@@@3@V?$allocator@VCPerson@@@3@@2@V342@@Z 004f5060 f i friendmgr.obj
 0001:000f40c0       ?erase@?$map@VCString@@VCPerson@@U?$less@VCString@@@std@@V?$allocator@VCPerson@@@4@@std@@QAEIABVCString@@@Z 004f50c0 f i friendmgr.obj
 0001:000f4110       ?find@?$map@VCString@@VCPerson@@U?$less@VCString@@@std@@V?$allocator@VCPerson@@@4@@std@@QAE?AViterator@?$_Tree@VCString@@U?$pair@$$CBVCString@@VCPerson@@@std@@U_Kfn@?$map@VCString@@VCPerson@@U?$less@VCString@@@std@@V?$allocator@VCPerson@@@4@@3@U?$less@VCString@@@3@V?$allocator@VCPerson@@@3@@2@ABVCString@@@Z 004f5110 f i friendmgr.obj
 0001:000f4170       ??1?$_Tree@VCString@@U?$pair@$$CBVCString@@VCPerson@@@std@@U_Kfn@?$map@VCString@@VCPerson@@U?$less@VCString@@@std@@V?$allocator@VCPerson@@@4@@3@U?$less@VCString@@@3@V?$allocator@VCPerson@@@3@@std@@QAE@XZ 004f5170 f i friendmgr.obj
 0001:000f42b0       ??0iterator@?$_Tree@VCString@@U?$pair@$$CBVCString@@VCPerson@@@std@@U_Kfn@?$map@VCString@@VCPerson@@U?$less@VCString@@@std@@V?$allocator@VCPerson@@@4@@3@U?$less@VCString@@@3@V?$allocator@VCPerson@@@3@@std@@QAE@XZ 004f52b0 f i friendmgr.obj
 0001:000f4300       ??Diterator@?$_Tree@VCString@@U?$pair@$$CBVCString@@VCPerson@@@std@@U_Kfn@?$map@VCString@@VCPerson@@U?$less@VCString@@@std@@V?$allocator@VCPerson@@@4@@3@U?$less@VCString@@@3@V?$allocator@VCPerson@@@3@@std@@QBEAAU?$pair@$$CBVCString@@VCPerson@@@2@XZ 004f5300 f i friendmgr.obj
 0001:000f4350       ??Eiterator@?$_Tree@VCString@@U?$pair@$$CBVCString@@VCPerson@@@std@@U_Kfn@?$map@VCString@@VCPerson@@U?$less@VCString@@@std@@V?$allocator@VCPerson@@@4@@3@U?$less@VCString@@@3@V?$allocator@VCPerson@@@3@@std@@QAE?AV012@H@Z 004f5350 f i friendmgr.obj
 0001:000f43b0       ??8iterator@?$_Tree@VCString@@U?$pair@$$CBVCString@@VCPerson@@@std@@U_Kfn@?$map@VCString@@VCPerson@@U?$less@VCString@@@std@@V?$allocator@VCPerson@@@4@@3@U?$less@VCString@@@3@V?$allocator@VCPerson@@@3@@std@@QBE_NABV012@@Z 004f53b0 f i friendmgr.obj
 0001:000f4400       ??9iterator@?$_Tree@VCString@@U?$pair@$$CBVCString@@VCPerson@@@std@@U_Kfn@?$map@VCString@@VCPerson@@U?$less@VCString@@@std@@V?$allocator@VCPerson@@@4@@3@U?$less@VCString@@@3@V?$allocator@VCPerson@@@3@@std@@QBE_NABV012@@Z 004f5400 f i friendmgr.obj
 0001:000f4460       ??1?$pair@$$CBVCString@@VCPerson@@@std@@QAE@XZ 004f5460 f i friendmgr.obj
 0001:000f44f0       ?insert@?$map@VCString@@VCPerson@@U?$less@VCString@@@std@@V?$allocator@VCPerson@@@4@@std@@QAE?AU?$pair@Viterator@?$_Tree@VCString@@U?$pair@$$CBVCString@@VCPerson@@@std@@U_Kfn@?$map@VCString@@VCPerson@@U?$less@VCString@@@std@@V?$allocator@VCPerson@@@4@@3@U?$less@VCString@@@3@V?$allocator@VCPerson@@@3@@std@@_N@2@ABU?$pair@$$CBVCString@@VCPerson@@@2@@Z 004f54f0 f i friendmgr.obj
 0001:000f4580       ?_Value@?$_Tree@VCString@@U?$pair@$$CBVCString@@VCPerson@@@std@@U_Kfn@?$map@VCString@@VCPerson@@U?$less@VCString@@@std@@V?$allocator@VCPerson@@@4@@3@U?$less@VCString@@@3@V?$allocator@VCPerson@@@3@@std@@KAAAU?$pair@$$CBVCString@@VCPerson@@@2@PAU_Node@12@@Z 004f5580 f i friendmgr.obj
 0001:000f45b0       ??0?$_Tree@VCString@@U?$pair@$$CBVCString@@VCPerson@@@std@@U_Kfn@?$map@VCString@@VCPerson@@U?$less@VCString@@@std@@V?$allocator@VCPerson@@@4@@3@U?$less@VCString@@@3@V?$allocator@VCPerson@@@3@@std@@QAE@ABU?$less@VCString@@@1@_NABV?$allocator@VCPerson@@@1@@Z 004f55b0 f i friendmgr.obj
 0001:000f4620       ?begin@?$_Tree@VCString@@U?$pair@$$CBVCString@@VCPerson@@@std@@U_Kfn@?$map@VCString@@VCPerson@@U?$less@VCString@@@std@@V?$allocator@VCPerson@@@4@@3@U?$less@VCString@@@3@V?$allocator@VCPerson@@@3@@std@@QAE?AViterator@12@XZ 004f5620 f i friendmgr.obj
 0001:000f4680       ?end@?$_Tree@VCString@@U?$pair@$$CBVCString@@VCPerson@@@std@@U_Kfn@?$map@VCString@@VCPerson@@U?$less@VCString@@@std@@V?$allocator@VCPerson@@@4@@3@U?$less@VCString@@@3@V?$allocator@VCPerson@@@3@@std@@QAE?AViterator@12@XZ 004f5680 f i friendmgr.obj
 0001:000f46e0       ?erase@?$_Tree@VCString@@U?$pair@$$CBVCString@@VCPerson@@@std@@U_Kfn@?$map@VCString@@VCPerson@@U?$less@VCString@@@std@@V?$allocator@VCPerson@@@4@@3@U?$less@VCString@@@3@V?$allocator@VCPerson@@@3@@std@@QAE?AViterator@12@V312@@Z 004f56e0 f i friendmgr.obj
 0001:000f5180       ?erase@?$_Tree@VCString@@U?$pair@$$CBVCString@@VCPerson@@@std@@U_Kfn@?$map@VCString@@VCPerson@@U?$less@VCString@@@std@@V?$allocator@VCPerson@@@4@@3@U?$less@VCString@@@3@V?$allocator@VCPerson@@@3@@std@@QAE?AViterator@12@V312@0@Z 004f6180 f i friendmgr.obj
 0001:000f5350       ?erase@?$_Tree@VCString@@U?$pair@$$CBVCString@@VCPerson@@@std@@U_Kfn@?$map@VCString@@VCPerson@@U?$less@VCString@@@std@@V?$allocator@VCPerson@@@4@@3@U?$less@VCString@@@3@V?$allocator@VCPerson@@@3@@std@@QAEIABVCString@@@Z 004f6350 f i friendmgr.obj
 0001:000f53f0       ?find@?$_Tree@VCString@@U?$pair@$$CBVCString@@VCPerson@@@std@@U_Kfn@?$map@VCString@@VCPerson@@U?$less@VCString@@@std@@V?$allocator@VCPerson@@@4@@3@U?$less@VCString@@@3@V?$allocator@VCPerson@@@3@@std@@QAE?AViterator@12@ABVCString@@@Z 004f63f0 f i friendmgr.obj
 0001:000f54e0       ?_Freenode@?$_Tree@VCString@@U?$pair@$$CBVCString@@VCPerson@@@std@@U_Kfn@?$map@VCString@@VCPerson@@U?$less@VCString@@@std@@V?$allocator@VCPerson@@@4@@3@U?$less@VCString@@@3@V?$allocator@VCPerson@@@3@@std@@IAEXPAU_Node@12@@Z 004f64e0 f i friendmgr.obj
 0001:000f5530       ??0?$pair@$$CBVCString@@VCPerson@@@std@@QAE@ABVCString@@ABVCPerson@@@Z 004f6530 f i friendmgr.obj
 0001:000f55d0       ??0const_iterator@?$_Tree@VCString@@U?$pair@$$CBVCString@@VCPerson@@@std@@U_Kfn@?$map@VCString@@VCPerson@@U?$less@VCString@@@std@@V?$allocator@VCPerson@@@4@@3@U?$less@VCString@@@3@V?$allocator@VCPerson@@@3@@std@@QAE@XZ 004f65d0 f i friendmgr.obj
 0001:000f5600       ??Eiterator@?$_Tree@VCString@@U?$pair@$$CBVCString@@VCPerson@@@std@@U_Kfn@?$map@VCString@@VCPerson@@U?$less@VCString@@@std@@V?$allocator@VCPerson@@@4@@3@U?$less@VCString@@@3@V?$allocator@VCPerson@@@3@@std@@QAEAAV012@XZ 004f6600 f i friendmgr.obj
 0001:000f5650       ??0CPerson@@QAE@ABV0@@Z    004f6650 f i friendmgr.obj
 0001:000f56c0       ??R?$less@VCString@@@std@@QBE_NABVCString@@0@Z 004f66c0 f i friendmgr.obj
 0001:000f5710       ?deallocate@?$allocator@VCPerson@@@std@@QAEXPAXI@Z 004f6710 f i friendmgr.obj
 0001:000f5760       ?_Color@?$_Tree@VCString@@U?$pair@$$CBVCString@@VCPerson@@@std@@U_Kfn@?$map@VCString@@VCPerson@@U?$less@VCString@@@std@@V?$allocator@VCPerson@@@4@@3@U?$less@VCString@@@3@V?$allocator@VCPerson@@@3@@std@@KAAAW4_Redbl@12@PAU_Node@12@@Z 004f6760 f i friendmgr.obj
 0001:000f5790       ?_Key@?$_Tree@VCString@@U?$pair@$$CBVCString@@VCPerson@@@std@@U_Kfn@?$map@VCString@@VCPerson@@U?$less@VCString@@@std@@V?$allocator@VCPerson@@@4@@3@U?$less@VCString@@@3@V?$allocator@VCPerson@@@3@@std@@KAABVCString@@PAU_Node@12@@Z 004f6790 f i friendmgr.obj
 0001:000f57e0       ?_Left@?$_Tree@VCString@@U?$pair@$$CBVCString@@VCPerson@@@std@@U_Kfn@?$map@VCString@@VCPerson@@U?$less@VCString@@@std@@V?$allocator@VCPerson@@@4@@3@U?$less@VCString@@@3@V?$allocator@VCPerson@@@3@@std@@KAAAPAU_Node@12@PAU312@@Z 004f67e0 f i friendmgr.obj
 0001:000f5810       ?_Parent@?$_Tree@VCString@@U?$pair@$$CBVCString@@VCPerson@@@std@@U_Kfn@?$map@VCString@@VCPerson@@U?$less@VCString@@@std@@V?$allocator@VCPerson@@@4@@3@U?$less@VCString@@@3@V?$allocator@VCPerson@@@3@@std@@KAAAPAU_Node@12@PAU312@@Z 004f6810 f i friendmgr.obj
 0001:000f5840       ?_Right@?$_Tree@VCString@@U?$pair@$$CBVCString@@VCPerson@@@std@@U_Kfn@?$map@VCString@@VCPerson@@U?$less@VCString@@@std@@V?$allocator@VCPerson@@@4@@3@U?$less@VCString@@@3@V?$allocator@VCPerson@@@3@@std@@KAAAPAU_Node@12@PAU312@@Z 004f6840 f i friendmgr.obj
 0001:000f5870       ?size@?$_Tree@VCString@@U?$pair@$$CBVCString@@VCPerson@@@std@@U_Kfn@?$map@VCString@@VCPerson@@U?$less@VCString@@@std@@V?$allocator@VCPerson@@@4@@3@U?$less@VCString@@@3@V?$allocator@VCPerson@@@3@@std@@QBEIXZ 004f6870 f i friendmgr.obj
 0001:000f58b0       ?insert@?$_Tree@VCString@@U?$pair@$$CBVCString@@VCPerson@@@std@@U_Kfn@?$map@VCString@@VCPerson@@U?$less@VCString@@@std@@V?$allocator@VCPerson@@@4@@3@U?$less@VCString@@@3@V?$allocator@VCPerson@@@3@@std@@QAE?AU?$pair@Viterator@?$_Tree@VCString@@U?$pair@$$CBVCString@@VCPerson@@@std@@U_Kfn@?$map@VCString@@VCPerson@@U?$less@VCString@@@std@@V?$allocator@VCPerson@@@4@@3@U?$less@VCString@@@3@V?$allocator@VCPerson@@@3@@std@@_N@2@ABU?$pair@$$CBVCString@@VCPerson@@@2@@Z 004f68b0 f i friendmgr.obj
 0001:000f5bd0       ?lower_bound@?$_Tree@VCString@@U?$pair@$$CBVCString@@VCPerson@@@std@@U_Kfn@?$map@VCString@@VCPerson@@U?$less@VCString@@@std@@V?$allocator@VCPerson@@@4@@3@U?$less@VCString@@@3@V?$allocator@VCPerson@@@3@@std@@QAE?AViterator@12@ABVCString@@@Z 004f6bd0 f i friendmgr.obj
 0001:000f5c40       ?equal_range@?$_Tree@VCString@@U?$pair@$$CBVCString@@VCPerson@@@std@@U_Kfn@?$map@VCString@@VCPerson@@U?$less@VCString@@@std@@V?$allocator@VCPerson@@@4@@3@U?$less@VCString@@@3@V?$allocator@VCPerson@@@3@@std@@QAE?AU?$pair@Viterator@?$_Tree@VCString@@U?$pair@$$CBVCString@@VCPerson@@@std@@U_Kfn@?$map@VCString@@VCPerson@@U?$less@VCString@@@std@@V?$allocator@VCPerson@@@4@@3@U?$less@VCString@@@3@V?$allocator@VCPerson@@@3@@std@@V123@@2@ABVCString@@@Z 004f6c40 f i friendmgr.obj
 0001:000f5cd0       ?_Erase@?$_Tree@VCString@@U?$pair@$$CBVCString@@VCPerson@@@std@@U_Kfn@?$map@VCString@@VCPerson@@U?$less@VCString@@@std@@V?$allocator@VCPerson@@@4@@3@U?$less@VCString@@@3@V?$allocator@VCPerson@@@3@@std@@IAEXPAU_Node@12@@Z 004f6cd0 f i friendmgr.obj
 0001:000f5df0       ?_Init@?$_Tree@VCString@@U?$pair@$$CBVCString@@VCPerson@@@std@@U_Kfn@?$map@VCString@@VCPerson@@U?$less@VCString@@@std@@V?$allocator@VCPerson@@@4@@3@U?$less@VCString@@@3@V?$allocator@VCPerson@@@3@@std@@IAEXXZ 004f6df0 f i friendmgr.obj
 0001:000f5f50       ?_Lmost@?$_Tree@VCString@@U?$pair@$$CBVCString@@VCPerson@@@std@@U_Kfn@?$map@VCString@@VCPerson@@U?$less@VCString@@@std@@V?$allocator@VCPerson@@@4@@3@U?$less@VCString@@@3@V?$allocator@VCPerson@@@3@@std@@IAEAAPAU_Node@12@XZ 004f6f50 f i friendmgr.obj
 0001:000f5fa0       ?_Lrotate@?$_Tree@VCString@@U?$pair@$$CBVCString@@VCPerson@@@std@@U_Kfn@?$map@VCString@@VCPerson@@U?$less@VCString@@@std@@V?$allocator@VCPerson@@@4@@3@U?$less@VCString@@@3@V?$allocator@VCPerson@@@3@@std@@IAEXPAU_Node@12@@Z 004f6fa0 f i friendmgr.obj
 0001:000f61a0       ?_Max@?$_Tree@VCString@@U?$pair@$$CBVCString@@VCPerson@@@std@@U_Kfn@?$map@VCString@@VCPerson@@U?$less@VCString@@@std@@V?$allocator@VCPerson@@@4@@3@U?$less@VCString@@@3@V?$allocator@VCPerson@@@3@@std@@KAPAU_Node@12@PAU312@@Z 004f71a0 f i friendmgr.obj
 0001:000f6280       ?_Min@?$_Tree@VCString@@U?$pair@$$CBVCString@@VCPerson@@@std@@U_Kfn@?$map@VCString@@VCPerson@@U?$less@VCString@@@std@@V?$allocator@VCPerson@@@4@@3@U?$less@VCString@@@3@V?$allocator@VCPerson@@@3@@std@@KAPAU_Node@12@PAU312@@Z 004f7280 f i friendmgr.obj
 0001:000f6360       ?_Rmost@?$_Tree@VCString@@U?$pair@$$CBVCString@@VCPerson@@@std@@U_Kfn@?$map@VCString@@VCPerson@@U?$less@VCString@@@std@@V?$allocator@VCPerson@@@4@@3@U?$less@VCString@@@3@V?$allocator@VCPerson@@@3@@std@@IAEAAPAU_Node@12@XZ 004f7360 f i friendmgr.obj
 0001:000f63b0       ?_Root@?$_Tree@VCString@@U?$pair@$$CBVCString@@VCPerson@@@std@@U_Kfn@?$map@VCString@@VCPerson@@U?$less@VCString@@@std@@V?$allocator@VCPerson@@@4@@3@U?$less@VCString@@@3@V?$allocator@VCPerson@@@3@@std@@IAEAAPAU_Node@12@XZ 004f73b0 f i friendmgr.obj
 0001:000f6400       ?_Rrotate@?$_Tree@VCString@@U?$pair@$$CBVCString@@VCPerson@@@std@@U_Kfn@?$map@VCString@@VCPerson@@U?$less@VCString@@@std@@V?$allocator@VCPerson@@@4@@3@U?$less@VCString@@@3@V?$allocator@VCPerson@@@3@@std@@IAEXPAU_Node@12@@Z 004f7400 f i friendmgr.obj
 0001:000f6600       ?_Destval@?$_Tree@VCString@@U?$pair@$$CBVCString@@VCPerson@@@std@@U_Kfn@?$map@VCString@@VCPerson@@U?$less@VCString@@@std@@V?$allocator@VCPerson@@@4@@3@U?$less@VCString@@@3@V?$allocator@VCPerson@@@3@@std@@IAEXPAU?$pair@$$CBVCString@@VCPerson@@@2@@Z 004f7600 f i friendmgr.obj
 0001:000f6650       ?_Inc@const_iterator@?$_Tree@VCString@@U?$pair@$$CBVCString@@VCPerson@@@std@@U_Kfn@?$map@VCString@@VCPerson@@U?$less@VCString@@@std@@V?$allocator@VCPerson@@@4@@3@U?$less@VCString@@@3@V?$allocator@VCPerson@@@3@@std@@QAEXXZ 004f7650 f i friendmgr.obj
 0001:000f67a0       ?_Mynode@const_iterator@?$_Tree@VCString@@U?$pair@$$CBVCString@@VCPerson@@@std@@U_Kfn@?$map@VCString@@VCPerson@@U?$less@VCString@@@std@@V?$allocator@VCPerson@@@4@@3@U?$less@VCString@@@3@V?$allocator@VCPerson@@@3@@std@@QBEPAU_Node@23@XZ 004f77a0 f i friendmgr.obj
 0001:000f67e0       ??0iterator@?$_Tree@VCString@@U?$pair@$$CBVCString@@VCPerson@@@std@@U_Kfn@?$map@VCString@@VCPerson@@U?$less@VCString@@@std@@V?$allocator@VCPerson@@@4@@3@U?$less@VCString@@@3@V?$allocator@VCPerson@@@3@@std@@QAE@PAU_Node@12@@Z 004f77e0 f i friendmgr.obj
 0001:000f6830       ??0?$pair@Viterator@?$_Tree@VCString@@U?$pair@$$CBVCString@@VCPerson@@@std@@U_Kfn@?$map@VCString@@VCPerson@@U?$less@VCString@@@std@@V?$allocator@VCPerson@@@4@@3@U?$less@VCString@@@3@V?$allocator@VCPerson@@@3@@std@@_N@std@@QAE@ABViterator@?$_Tree@VCString@@U?$pair@$$CBVCString@@VCPerson@@@std@@U_Kfn@?$map@VCString@@VCPerson@@U?$less@VCString@@@std@@V?$allocator@VCPerson@@@4@@3@U?$less@VCString@@@3@V?$allocator@VCPerson@@@3@@1@AB_N@Z 004f7830 f i friendmgr.obj
 0001:000f6880       ??R_Kfn@?$map@VCString@@VCPerson@@U?$less@VCString@@@std@@V?$allocator@VCPerson@@@4@@std@@QBEABVCString@@ABU?$pair@$$CBVCString@@VCPerson@@@2@@Z 004f7880 f i friendmgr.obj
 0001:000f68c0       ?upper_bound@?$_Tree@VCString@@U?$pair@$$CBVCString@@VCPerson@@@std@@U_Kfn@?$map@VCString@@VCPerson@@U?$less@VCString@@@std@@V?$allocator@VCPerson@@@4@@3@U?$less@VCString@@@3@V?$allocator@VCPerson@@@3@@std@@QAE?AViterator@12@ABVCString@@@Z 004f78c0 f i friendmgr.obj
 0001:000f6930       ?_Insert@?$_Tree@VCString@@U?$pair@$$CBVCString@@VCPerson@@@std@@U_Kfn@?$map@VCString@@VCPerson@@U?$less@VCString@@@std@@V?$allocator@VCPerson@@@4@@3@U?$less@VCString@@@3@V?$allocator@VCPerson@@@3@@std@@IAE?AViterator@12@PAU_Node@12@0ABU?$pair@$$CBVCString@@VCPerson@@@2@@Z 004f7930 f i friendmgr.obj
 0001:000f6f70       ?_Lbound@?$_Tree@VCString@@U?$pair@$$CBVCString@@VCPerson@@@std@@U_Kfn@?$map@VCString@@VCPerson@@U?$less@VCString@@@std@@V?$allocator@VCPerson@@@4@@3@U?$less@VCString@@@3@V?$allocator@VCPerson@@@3@@std@@IBEPAU_Node@12@ABVCString@@@Z 004f7f70 f i friendmgr.obj
 0001:000f70b0       ?_Buynode@?$_Tree@VCString@@U?$pair@$$CBVCString@@VCPerson@@@std@@U_Kfn@?$map@VCString@@VCPerson@@U?$less@VCString@@@std@@V?$allocator@VCPerson@@@4@@3@U?$less@VCString@@@3@V?$allocator@VCPerson@@@3@@std@@IAEPAU_Node@12@PAU312@W4_Redbl@12@@Z 004f80b0 f i friendmgr.obj
 0001:000f7130       ??0const_iterator@?$_Tree@VCString@@U?$pair@$$CBVCString@@VCPerson@@@std@@U_Kfn@?$map@VCString@@VCPerson@@U?$less@VCString@@@std@@V?$allocator@VCPerson@@@4@@3@U?$less@VCString@@@3@V?$allocator@VCPerson@@@3@@std@@QAE@PAU_Node@12@@Z 004f8130 f i friendmgr.obj
 0001:000f7170       ??Fiterator@?$_Tree@VCString@@U?$pair@$$CBVCString@@VCPerson@@@std@@U_Kfn@?$map@VCString@@VCPerson@@U?$less@VCString@@@std@@V?$allocator@VCPerson@@@4@@3@U?$less@VCString@@@3@V?$allocator@VCPerson@@@3@@std@@QAEAAV012@XZ 004f8170 f i friendmgr.obj
 0001:000f71c0       ??0?$pair@Viterator@?$_Tree@VCString@@U?$pair@$$CBVCString@@VCPerson@@@std@@U_Kfn@?$map@VCString@@VCPerson@@U?$less@VCString@@@std@@V?$allocator@VCPerson@@@4@@3@U?$less@VCString@@@3@V?$allocator@VCPerson@@@3@@std@@V123@@std@@QAE@ABViterator@?$_Tree@VCString@@U?$pair@$$CBVCString@@VCPerson@@@std@@U_Kfn@?$map@VCString@@VCPerson@@U?$less@VCString@@@std@@V?$allocator@VCPerson@@@4@@3@U?$less@VCString@@@3@V?$allocator@VCPerson@@@3@@1@0@Z 004f81c0 f i friendmgr.obj
 0001:000f7210       ?_Charalloc@?$allocator@VCPerson@@@std@@QAEPADI@Z 004f8210 f i friendmgr.obj
 0001:000f7260       ?_Root@?$_Tree@VCString@@U?$pair@$$CBVCString@@VCPerson@@@std@@U_Kfn@?$map@VCString@@VCPerson@@U?$less@VCString@@@std@@V?$allocator@VCPerson@@@4@@3@U?$less@VCString@@@3@V?$allocator@VCPerson@@@3@@std@@IBEAAPAU_Node@12@XZ 004f8260 f i friendmgr.obj
 0001:000f72b0       ?_Ubound@?$_Tree@VCString@@U?$pair@$$CBVCString@@VCPerson@@@std@@U_Kfn@?$map@VCString@@VCPerson@@U?$less@VCString@@@std@@V?$allocator@VCPerson@@@4@@3@U?$less@VCString@@@3@V?$allocator@VCPerson@@@3@@std@@IBEPAU_Node@12@ABVCString@@@Z 004f82b0 f i friendmgr.obj
 0001:000f73f0       ?_Consval@?$_Tree@VCString@@U?$pair@$$CBVCString@@VCPerson@@@std@@U_Kfn@?$map@VCString@@VCPerson@@U?$less@VCString@@@std@@V?$allocator@VCPerson@@@4@@3@U?$less@VCString@@@3@V?$allocator@VCPerson@@@3@@std@@IAEXPAU?$pair@$$CBVCString@@VCPerson@@@2@ABU32@@Z 004f83f0 f i friendmgr.obj
 0001:000f7440       ?_Dec@const_iterator@?$_Tree@VCString@@U?$pair@$$CBVCString@@VCPerson@@@std@@U_Kfn@?$map@VCString@@VCPerson@@U?$less@VCString@@@std@@V?$allocator@VCPerson@@@4@@3@U?$less@VCString@@@3@V?$allocator@VCPerson@@@3@@std@@QAEXXZ 004f8440 f i friendmgr.obj
 0001:000f75d0       ?swap@std@@YAXAAW4_Redbl@?$_Tree@VCString@@U?$pair@$$CBVCString@@VCPerson@@@std@@U_Kfn@?$map@VCString@@VCPerson@@U?$less@VCString@@@std@@V?$allocator@VCPerson@@@4@@3@U?$less@VCString@@@3@V?$allocator@VCPerson@@@3@@1@0@Z 004f85d0 f i friendmgr.obj
 0001:000f7620       ?_Distance@std@@YAXViterator@?$_Tree@VCString@@U?$pair@$$CBVCString@@VCPerson@@@std@@U_Kfn@?$map@VCString@@VCPerson@@U?$less@VCString@@@std@@V?$allocator@VCPerson@@@4@@3@U?$less@VCString@@@3@V?$allocator@VCPerson@@@3@@1@0AAI@Z 004f8620 f i friendmgr.obj
 0001:000f7690       ?_Destroy@std@@YAXPAU?$pair@$$CBVCString@@VCPerson@@@1@@Z 004f8690 f i friendmgr.obj
 0001:000f76d0       ?_Construct@std@@YAXPAU?$pair@$$CBVCString@@VCPerson@@@1@ABU21@@Z 004f86d0 f i friendmgr.obj
 0001:000f7780       ??_G?$pair@$$CBVCString@@VCPerson@@@std@@QAEPAXI@Z 004f8780 f i friendmgr.obj
 0001:000f77f0       ??0?$pair@$$CBVCString@@VCPerson@@@std@@QAE@ABU01@@Z 004f87f0 f i friendmgr.obj
 0001:000f7890       ?_Iter_cat@std@@YA?AUbidirectional_iterator_tag@1@ABU?$iterator@Ubidirectional_iterator_tag@std@@U?$pair@$$CBVCString@@VCPerson@@@2@H@1@@Z 004f8890 f i friendmgr.obj
 0001:000f78d0       ?_Distance@std@@YAXViterator@?$_Tree@VCString@@U?$pair@$$CBVCString@@VCPerson@@@std@@U_Kfn@?$map@VCString@@VCPerson@@U?$less@VCString@@@std@@V?$allocator@VCPerson@@@4@@3@U?$less@VCString@@@3@V?$allocator@VCPerson@@@3@@1@0AAIUbidirectional_iterator_tag@1@@Z 004f88d0 f i friendmgr.obj
 0001:000f7940       ??_ECFriendListCtrl@@WEA@AEPAXI@Z 004f8940 f i friendmgr.obj
 0001:000f7950       ??_ECFriendListCtrl@@WHE@AEPAXI@Z 004f8950 f i friendmgr.obj
 0001:000f7960       ??_ECFoeListCtrl@@WEA@AEPAXI@Z 004f8960 f i friendmgr.obj
 0001:000f7970       ??_ECFoeListCtrl@@WHE@AEPAXI@Z 004f8970 f i friendmgr.obj
 0001:000f7980       ??0CDoubleButtonDlg@@QAE@XZ 004f8980 f i friendmgr.obj
 0001:000f79e0       ??_ECDoubleButtonDlg@@UAEPAXI@Z 004f89e0 f i friendmgr.obj
 0001:000f79e0       ??_GCDoubleButtonDlg@@UAEPAXI@Z 004f89e0 f i friendmgr.obj
 0001:000f7a50       ??1CDoubleButtonDlg@@UAE@XZ 004f8a50 f i friendmgr.obj
 0001:000f7aa0       ??0CSfxVolume@@QAE@XZ      004f8aa0 f   GameSettings.obj
 0001:000f7b20       ?UpdateMe@CSfxVolume@@UAEXXZ 004f8b20 f   GameSettings.obj
 0001:000f7ba0       ??0CMidiVolume@@QAE@XZ     004f8ba0 f   GameSettings.obj
 0001:000f7c20       ?UpdateMe@CMidiVolume@@UAEXXZ 004f8c20 f   GameSettings.obj
 0001:000f7ca0       ??0CMidiBtn@@QAE@VCSkinObj@@PAVCSkinWnd@@@Z 004f8ca0 f   GameSettings.obj
 0001:000f7da0       ??_ECMidiBtn@@UAEPAXI@Z    004f8da0 f i GameSettings.obj
 0001:000f7da0       ??_GCMidiBtn@@UAEPAXI@Z    004f8da0 f i GameSettings.obj
 0001:000f7e10       ??1CMidiBtn@@UAE@XZ        004f8e10 f i GameSettings.obj
 0001:000f7e60       ?OnActivate@CMidiBtn@@UAEXFF@Z 004f8e60 f   GameSettings.obj
 0001:000f7f30       ??0CSfxBtn@@QAE@VCSkinObj@@PAVCSkinWnd@@@Z 004f8f30 f   GameSettings.obj
 0001:000f8030       ??_GCSfxBtn@@UAEPAXI@Z     004f9030 f i GameSettings.obj
 0001:000f8030       ??_ECSfxBtn@@UAEPAXI@Z     004f9030 f i GameSettings.obj
 0001:000f80a0       ??1CSfxBtn@@UAE@XZ         004f90a0 f i GameSettings.obj
 0001:000f80f0       ?OnActivate@CSfxBtn@@UAEXFF@Z 004f90f0 f   GameSettings.obj
 0001:000f81c0       ??0CAcceptBtn@@QAE@VCSkinObj@@PAVCSkinWnd@@@Z 004f91c0 f   GameSettings.obj
 0001:000f82c0       ??_ECAcceptBtn@@UAEPAXI@Z  004f92c0 f i GameSettings.obj
 0001:000f82c0       ??_GCAcceptBtn@@UAEPAXI@Z  004f92c0 f i GameSettings.obj
 0001:000f8330       ??1CAcceptBtn@@UAE@XZ      004f9330 f i GameSettings.obj
 0001:000f8380       ?OnActivate@CAcceptBtn@@UAEXFF@Z 004f9380 f   GameSettings.obj
 0001:000f8430       ??0CLagBtn@@QAE@VCSkinObj@@PAVCSkinWnd@@@Z 004f9430 f   GameSettings.obj
 0001:000f8530       ??_GCLagBtn@@UAEPAXI@Z     004f9530 f i GameSettings.obj
 0001:000f8530       ??_ECLagBtn@@UAEPAXI@Z     004f9530 f i GameSettings.obj
 0001:000f85a0       ??1CLagBtn@@UAE@XZ         004f95a0 f i GameSettings.obj
 0001:000f85f0       ?OnActivate@CLagBtn@@UAEXFF@Z 004f95f0 f   GameSettings.obj
 0001:000f86a0       ??0CAltEnterBtn@@QAE@VCSkinObj@@PAVCSkinWnd@@@Z 004f96a0 f   GameSettings.obj
 0001:000f87a0       ??_GCAltEnterBtn@@UAEPAXI@Z 004f97a0 f i GameSettings.obj
 0001:000f87a0       ??_ECAltEnterBtn@@UAEPAXI@Z 004f97a0 f i GameSettings.obj
 0001:000f8810       ??1CAltEnterBtn@@UAE@XZ    004f9810 f i GameSettings.obj
 0001:000f8860       ?OnActivate@CAltEnterBtn@@UAEXFF@Z 004f9860 f   GameSettings.obj
 0001:000f8910       ??0CFullScreenBtn@@QAE@VCSkinObj@@PAVCSkinWnd@@@Z 004f9910 f   GameSettings.obj
 0001:000f8a40       ??_ECFullScreenBtn@@UAEPAXI@Z 004f9a40 f i GameSettings.obj
 0001:000f8a40       ??_GCFullScreenBtn@@UAEPAXI@Z 004f9a40 f i GameSettings.obj
 0001:000f8ab0       ??1CFullScreenBtn@@UAE@XZ  004f9ab0 f i GameSettings.obj
 0001:000f8b00       ?OnActivate@CFullScreenBtn@@UAEXFF@Z 004f9b00 f   GameSettings.obj
 0001:000f8ba0       ??0CTabDispBtn@@QAE@VCSkinObj@@PAVCSkinWnd@@@Z 004f9ba0 f   GameSettings.obj
 0001:000f8ca0       ??_GCTabDispBtn@@UAEPAXI@Z 004f9ca0 f i GameSettings.obj
 0001:000f8ca0       ??_ECTabDispBtn@@UAEPAXI@Z 004f9ca0 f i GameSettings.obj
 0001:000f8d10       ??1CTabDispBtn@@UAE@XZ     004f9d10 f i GameSettings.obj
 0001:000f8d60       ?OnActivate@CTabDispBtn@@UAEXFF@Z 004f9d60 f   GameSettings.obj
 0001:000f8e10       ??0CSpeedBtn@@QAE@VCSkinObj@@PAVCSkinWnd@@@Z 004f9e10 f   GameSettings.obj
 0001:000f8f70       ??_ECSpeedBtn@@UAEPAXI@Z   004f9f70 f i GameSettings.obj
 0001:000f8f70       ??_GCSpeedBtn@@UAEPAXI@Z   004f9f70 f i GameSettings.obj
 0001:000f8fe0       ??1CSpeedBtn@@UAE@XZ       004f9fe0 f i GameSettings.obj
 0001:000f9030       ?OnActivate@CSpeedBtn@@UAEXFF@Z 004fa030 f   GameSettings.obj
 0001:000f9090       ??0CSetPasswordBtn@@QAE@VCSkinObj@@PAVCSkinWnd@@@Z 004fa090 f   GameSettings.obj
 0001:000f9150       ??_ECSetPasswordBtn@@UAEPAXI@Z 004fa150 f i GameSettings.obj
 0001:000f9150       ??_GCSetPasswordBtn@@UAEPAXI@Z 004fa150 f i GameSettings.obj
 0001:000f91c0       ??1CSetPasswordBtn@@UAE@XZ 004fa1c0 f i GameSettings.obj
 0001:000f9210       ?OnActivate@CSetPasswordBtn@@UAEXFF@Z 004fa210 f   GameSettings.obj
 0001:000f92b0       ??0CGameSettingsDlg@@QAE@XZ 004fa2b0 f   GameSettings.obj
 0001:000f9370       ??_ECGameSettingsDlg@@UAEPAXI@Z 004fa370 f i GameSettings.obj
 0001:000f9370       ??_GCGameSettingsDlg@@UAEPAXI@Z 004fa370 f i GameSettings.obj
 0001:000f93e0       ??1CGameSettingsDlg@@UAE@XZ 004fa3e0 f i GameSettings.obj
 0001:000f9430       ?CloseSelf@CGameSettingsDlg@@UAEX_N@Z 004fa430 f   GameSettings.obj
 0001:000f9510       ?Create@CGameSettingsDlg@@QAEHXZ 004fa510 f   GameSettings.obj
 0001:000f9890       ?MakeSkinCtrl@CGameSettingsDlg@@UAEPAVCSkinCtrl@@VCSkinObj@@@Z 004fa890 f   GameSettings.obj
 0001:000fa540       ?EnableTabOption@CGameSettingsDlg@@QAEX_N@Z 004fb540 f   GameSettings.obj
 0001:000fa620       ?SetFullScreenOption@CGameSettingsDlg@@QAEX_N@Z 004fb620 f   GameSettings.obj
 0001:000fa730       ?EnableGameModal@CGameSettingsDlg@@UAEXHPAH@Z 004fb730 f   GameSettings.obj
 0001:000fa790       ?DisableGameModal@CGameSettingsDlg@@UAEXHPAH_N@Z 004fb790 f   GameSettings.obj
 0001:000fa7f0       ?get_AutoAccept@CToonSettings@@QAEHXZ 004fb7f0 f i GameSettings.obj
 0001:000fa830       ?get_LagDisplay@CToonSettings@@QAEHXZ 004fb830 f i GameSettings.obj
 0001:000fa870       ?get_AltEnter@CToonSettings@@QAEHXZ 004fb870 f i GameSettings.obj
 0001:000fa8b0       ?getCombat_Speed@CToonSettings@@QAEHXZ 004fb8b0 f i GameSettings.obj
 0001:000fa8f0       ?getSound_MidiOn@CToonSettings@@QAEHXZ 004fb8f0 f i GameSettings.obj
 0001:000fa930       ?getSound_MidiVolume@CToonSettings@@QAEHXZ 004fb930 f i GameSettings.obj
 0001:000fa970       ?getSound_SfxOn@CToonSettings@@QAEHXZ 004fb970 f i GameSettings.obj
 0001:000fa9b0       ?getSound_SfxVolume@CToonSettings@@QAEHXZ 004fb9b0 f i GameSettings.obj
 0001:000fa9f0       ??0CSCIButtonBtn@@QAE@VCSkinObj@@PAVCSkinWnd@@@Z 004fb9f0 f   GenericDlg.obj
 0001:000fab30       ??_ECSCIButtonBtn@@UAEPAXI@Z 004fbb30 f i GenericDlg.obj
 0001:000fab30       ??_GCSCIButtonBtn@@UAEPAXI@Z 004fbb30 f i GenericDlg.obj
 0001:000faba0       ??1CSCIButtonBtn@@UAE@XZ   004fbba0 f i GenericDlg.obj
 0001:000fabf0       ?OnActivate@CSCIButtonBtn@@UAEXFF@Z 004fbbf0 f   GenericDlg.obj
 0001:000fac70       ??0CSCIObjectMethodPair@@QAE@VCSCI_Object@@F@Z 004fbc70 f   GenericDlg.obj
 0001:000face0       ?Execute@CSCIObjectMethodPair@@QAEXXZ 004fbce0 f   GenericDlg.obj
 0001:000fad50       ?_GetBaseMessageMap@CNoButtonDlg@@KGPBUAFX_MSGMAP@@XZ 004fbd50 f   GenericDlg.obj
 0001:000fad80       ?GetMessageMap@CNoButtonDlg@@MBEPBUAFX_MSGMAP@@XZ 004fbd80 f   GenericDlg.obj
 0001:000faf10       ??1?$map@VCSCI_Object@@PAVCNoButtonDlg@@U?$less@VCSCI_Object@@@std@@V?$allocator@PAVCNoButtonDlg@@@4@@std@@QAE@XZ 004fbf10 f i GenericDlg.obj
 0001:000faf60       ?OnResize@CNoButtonDlg@@QAEXPAUtagNMHDR@@PAJ@Z 004fbf60 f   GenericDlg.obj
 0001:000fb050       ??0CNoButtonDlg@@QAE@XZ    004fc050 f   GenericDlg.obj
 0001:000fb140       ??_ECNoButtonDlg@@UAEPAXI@Z 004fc140 f i GenericDlg.obj
 0001:000fb140       ??_GCNoButtonDlg@@UAEPAXI@Z 004fc140 f i GenericDlg.obj
 0001:000fb1b0       ??1CNoButtonDlg@@UAE@XZ    004fc1b0 f   GenericDlg.obj
 0001:000fb390       ?CloseSelf@CNoButtonDlg@@UAEX_N@Z 004fc390 f   GenericDlg.obj
 0001:000fb460       ?AddButton@CNoButtonDlg@@IAEXVCSCI_Object@@F@Z 004fc460 f   GenericDlg.obj
 0001:000fb570       ?Dispose@CNoButtonDlg@@SAXVCSCI_Object@@@Z 004fc570 f   GenericDlg.obj
 0001:000fb640       ?CreatePopup@CNoButtonDlg@@QAEHPBDPAD1@Z 004fc640 f   GenericDlg.obj
 0001:000fb790       ?Create@CNoButtonDlg@@QAEHPBDPAD1_N@Z 004fc790 f   GenericDlg.obj
 0001:000fb930       ?Create@CNoButtonDlg@@QAEHPAD0_N@Z 004fc930 f   GenericDlg.obj
 0001:000fbb00       ?MakeSkinCtrl@CNoButtonDlg@@UAEPAVCSkinCtrl@@VCSkinObj@@@Z 004fcb00 f   GenericDlg.obj
 0001:000fbe30       ?ExecuteButton@CNoButtonDlg@@UAEXH@Z 004fce30 f   GenericDlg.obj
 0001:000fbed0       ??0CSingleButtonDlg@@QAE@VCSCI_Object@@F@Z 004fced0 f   GenericDlg.obj
 0001:000fbf90       ??_GCSingleButtonDlg@@UAEPAXI@Z 004fcf90 f i GenericDlg.obj
 0001:000fbf90       ??_ECSingleButtonDlg@@UAEPAXI@Z 004fcf90 f i GenericDlg.obj
 0001:000fc000       ??1CSingleButtonDlg@@UAE@XZ 004fd000 f i GenericDlg.obj
 0001:000fc050       ?Create@CSingleButtonDlg@@QAEHPAD00_N@Z 004fd050 f   GenericDlg.obj
 0001:000fc150       ??0CDoubleButtonDlg@@QAE@VCSCI_Object@@F0F@Z 004fd150 f   GenericDlg.obj
 0001:000fc240       ?Create@CDoubleButtonDlg@@QAEHPAD000_N1@Z 004fd240 f   GenericDlg.obj
 0001:000fc3e0       ?CreateSkin@CDoubleButtonDlg@@QAEHPBDPAD111_N@Z 004fd3e0 f   GenericDlg.obj
 0001:000fc530       ?_GetBaseMessageMap@CTextDoubleButtonDlg@@KGPBUAFX_MSGMAP@@XZ 004fd530 f   GenericDlg.obj
 0001:000fc560       ?GetMessageMap@CTextDoubleButtonDlg@@MBEPBUAFX_MSGMAP@@XZ 004fd560 f   GenericDlg.obj
 0001:000fc5a0       ??0CTextDoubleButtonDlg@@QAE@VStringID@@VCSCI_Object@@F1F@Z 004fd5a0 f   GenericDlg.obj
 0001:000fc6a0       ??_GCTextDoubleButtonDlg@@UAEPAXI@Z 004fd6a0 f i GenericDlg.obj
 0001:000fc6a0       ??_ECTextDoubleButtonDlg@@UAEPAXI@Z 004fd6a0 f i GenericDlg.obj
 0001:000fc710       ??1CTextDoubleButtonDlg@@UAE@XZ 004fd710 f i GenericDlg.obj
 0001:000fc760       ?ExecuteButton@CTextDoubleButtonDlg@@UAEXH@Z 004fd760 f   GenericDlg.obj
 0001:000fc840       ?Create@CTextDoubleButtonDlg@@QAEHPAD0H00_N1@Z 004fd840 f   GenericDlg.obj
 0001:000fc990       ?MakeSkinCtrl@CTextDoubleButtonDlg@@UAEPAVCSkinCtrl@@VCSkinObj@@@Z 004fd990 f   GenericDlg.obj
 0001:000fcbc0       ?Next@CTextDoubleButtonDlg@@UAEXXZ 004fdbc0 f   GenericDlg.obj
 0001:000fcc20       ?OnSetFocus@CTextDoubleButtonDlg@@QAEXPAVCWnd@@@Z 004fdc20 f   GenericDlg.obj
 0001:000fcc90       ?_GetBaseMessageMap@CPasswordDoubleButtonDlg@@KGPBUAFX_MSGMAP@@XZ 004fdc90 f   GenericDlg.obj
 0001:000fccc0       ?GetMessageMap@CPasswordDoubleButtonDlg@@MBEPBUAFX_MSGMAP@@XZ 004fdcc0 f   GenericDlg.obj
 0001:000fcd00       ??0CPasswordDoubleButtonDlg@@QAE@VStringID@@VCSCI_Object@@F1F@Z 004fdd00 f   GenericDlg.obj
 0001:000fce00       ??_GCPasswordDoubleButtonDlg@@UAEPAXI@Z 004fde00 f i GenericDlg.obj
 0001:000fce00       ??_ECPasswordDoubleButtonDlg@@UAEPAXI@Z 004fde00 f i GenericDlg.obj
 0001:000fce70       ??1CPasswordDoubleButtonDlg@@UAE@XZ 004fde70 f i GenericDlg.obj
 0001:000fcec0       ?ExecuteButton@CPasswordDoubleButtonDlg@@UAEXH@Z 004fdec0 f   GenericDlg.obj
 0001:000fcfc0       ?Create@CPasswordDoubleButtonDlg@@QAEHPAD0H00_N@Z 004fdfc0 f   GenericDlg.obj
 0001:000fd0f0       ?MakeSkinCtrl@CPasswordDoubleButtonDlg@@UAEPAVCSkinCtrl@@VCSkinObj@@@Z 004fe0f0 f   GenericDlg.obj
 0001:000fd310       ?Next@CPasswordDoubleButtonDlg@@UAEXXZ 004fe310 f   GenericDlg.obj
 0001:000fd370       ?OnSetFocus@CPasswordDoubleButtonDlg@@QAEXPAVCWnd@@@Z 004fe370 f   GenericDlg.obj
 0001:000fd3e0       ??0CGroupQuestionDlg@@QAE@H@Z 004fe3e0 f   GenericDlg.obj
 0001:000fd4c0       ??_GCGroupQuestionDlg@@UAEPAXI@Z 004fe4c0 f i GenericDlg.obj
 0001:000fd4c0       ??_ECGroupQuestionDlg@@UAEPAXI@Z 004fe4c0 f i GenericDlg.obj
 0001:000fd530       ??1CGroupQuestionDlg@@UAE@XZ 004fe530 f i GenericDlg.obj
 0001:000fd580       ?ExecuteButton@CGroupQuestionDlg@@UAEXH@Z 004fe580 f   GenericDlg.obj
 0001:000fd610       ?CloseSelf@CGroupQuestionDlg@@UAEX_N@Z 004fe610 f   GenericDlg.obj
 0001:000fd6b0       ?Create@CGroupQuestionDlg@@QAEHPAD000_N1@Z 004fe6b0 f   GenericDlg.obj
 0001:000fd850       ??0CSkinEditField@@QAE@VCSkinObj@@PAVCSkinWnd@@IK_N2@Z 004fe850 f   GenericDlg.obj
 0001:000fd950       ??_ECSkinEditField@@UAEPAXI@Z 004fe950 f i GenericDlg.obj
 0001:000fd950       ??_GCSkinEditField@@UAEPAXI@Z 004fe950 f i GenericDlg.obj
 0001:000fd9c0       ??1CSkinEditField@@UAE@XZ  004fe9c0 f i GenericDlg.obj
 0001:000fda10       ?OnReturn@CSkinEditField@@UAEXXZ 004fea10 f   GenericDlg.obj
 0001:000fda70       ?OnEscape@CSkinEditField@@UAEXXZ 004fea70 f   GenericDlg.obj
 0001:000fdad0       ?_GetBaseMessageMap@CGenericDlg@@KGPBUAFX_MSGMAP@@XZ 004fead0 f   GenericDlg.obj
 0001:000fdb00       ?GetMessageMap@CGenericDlg@@MBEPBUAFX_MSGMAP@@XZ 004feb00 f   GenericDlg.obj
 0001:000fdb40       ?OnResize@CGenericDlg@@QAEXPAUtagNMHDR@@PAJ@Z 004feb40 f   GenericDlg.obj
 0001:000fdc60       ??0CGenericDlg@@QAE@XZ     004fec60 f   GenericDlg.obj
 0001:000fdcd0       ??_ECGenericDlg@@UAEPAXI@Z 004fecd0 f i GenericDlg.obj
 0001:000fdcd0       ??_GCGenericDlg@@UAEPAXI@Z 004fecd0 f i GenericDlg.obj
 0001:000fdd40       ??1CGenericDlg@@UAE@XZ     004fed40 f i GenericDlg.obj
 0001:000fdd90       ?CloseSelf@CGenericDlg@@UAEX_N@Z 004fed90 f   GenericDlg.obj
 0001:000fdde0       ?Create@CGenericDlg@@QAEHPBD0_N1@Z 004fede0 f   GenericDlg.obj
 0001:000fdf90       ?Create@CGenericDlg@@QAEHPBDVCSCI_Object@@_N2@Z 004fef90 f   GenericDlg.obj
 0001:000fe2b0       ?MakeSkinCtrl@CGenericDlg@@UAEPAVCSkinCtrl@@VCSkinObj@@@Z 004ff2b0 f   GenericDlg.obj
 0001:000fe6f0       ??0CQuestDlg@@QAE@XZ       004ff6f0 f   GenericDlg.obj
 0001:000fe7c0       ??_GCQuestDlg@@UAEPAXI@Z   004ff7c0 f i GenericDlg.obj
 0001:000fe7c0       ??_ECQuestDlg@@UAEPAXI@Z   004ff7c0 f i GenericDlg.obj
 0001:000fe830       ??1CQuestDlg@@UAE@XZ       004ff830 f i GenericDlg.obj
 0001:000fe880       ?CloseSelf@CQuestDlg@@UAEX_N@Z 004ff880 f   GenericDlg.obj
 0001:000fe8e0       ??0CDeadDlg@@QAE@XZ        004ff8e0 f   GenericDlg.obj
 0001:000fe980       ??_ECDeadDlg@@UAEPAXI@Z    004ff980 f i GenericDlg.obj
 0001:000fe980       ??_GCDeadDlg@@UAEPAXI@Z    004ff980 f i GenericDlg.obj
 0001:000fe9f0       ??1CDeadDlg@@UAE@XZ        004ff9f0 f i GenericDlg.obj
 0001:000fea40       ?Create@CDeadDlg@@QAEHVCSCI_Script@@@Z 004ffa40 f   GenericDlg.obj
 0001:000feb10       ?MakeSkinCtrl@CDeadDlg@@UAEPAVCSkinCtrl@@VCSkinObj@@@Z 004ffb10 f   GenericDlg.obj
 0001:000fee20       ??0CPerformBtn@@QAE@VCSkinObj@@PAVCSkinWnd@@VCSCI_Script@@@Z 004ffe20 f   GenericDlg.obj
 0001:000feef0       ??_ECPerformBtn@@UAEPAXI@Z 004ffef0 f i GenericDlg.obj
 0001:000feef0       ??_GCPerformBtn@@UAEPAXI@Z 004ffef0 f i GenericDlg.obj
 0001:000fef60       ??1CPerformBtn@@UAE@XZ     004fff60 f i GenericDlg.obj
 0001:000fefb0       ?OnActivate@CPerformBtn@@UAEXFF@Z 004fffb0 f   GenericDlg.obj
 0001:000ff030       ??0CCueBtn@@QAE@VCSkinObj@@PAVCSkinWnd@@VCSCI_Script@@@Z 00500030 f   GenericDlg.obj
 0001:000ff100       ??_GCCueBtn@@UAEPAXI@Z     00500100 f i GenericDlg.obj
 0001:000ff100       ??_ECCueBtn@@UAEPAXI@Z     00500100 f i GenericDlg.obj
 0001:000ff170       ??1CCueBtn@@UAE@XZ         00500170 f i GenericDlg.obj
 0001:000ff1c0       ?OnActivate@CCueBtn@@UAEXFF@Z 005001c0 f   GenericDlg.obj
 0001:000ff240       ??0CLeaveBtn@@QAE@VCSkinObj@@PAVCSkinWnd@@@Z 00500240 f   GenericDlg.obj
 0001:000ff300       ??_GCLeaveBtn@@UAEPAXI@Z   00500300 f i GenericDlg.obj
 0001:000ff300       ??_ECLeaveBtn@@UAEPAXI@Z   00500300 f i GenericDlg.obj
 0001:000ff370       ??1CLeaveBtn@@UAE@XZ       00500370 f i GenericDlg.obj
 0001:000ff3c0       ?OnActivate@CLeaveBtn@@UAEXFF@Z 005003c0 f   GenericDlg.obj
 0001:000ff420       ??0CNetworkErrorDlg@@QAE@XZ 00500420 f   GenericDlg.obj
 0001:000ff490       ??_GCNetworkErrorDlg@@UAEPAXI@Z 00500490 f i GenericDlg.obj
 0001:000ff490       ??_ECNetworkErrorDlg@@UAEPAXI@Z 00500490 f i GenericDlg.obj
 0001:000ff500       ??1CNetworkErrorDlg@@UAE@XZ 00500500 f i GenericDlg.obj
 0001:000ff550       ?CloseSelf@CNetworkErrorDlg@@UAEX_N@Z 00500550 f   GenericDlg.obj
 0001:000ff5b0       ?Create@CNetworkErrorDlg@@QAEHXZ 005005b0 f   GenericDlg.obj
 0001:000ff760       ?MakeSkinCtrl@CNetworkErrorDlg@@UAEPAVCSkinCtrl@@VCSkinObj@@@Z 00500760 f   GenericDlg.obj
 0001:000ffbd0       ??0?$vector@PAVCSCIObjectMethodPair@@V?$allocator@PAVCSCIObjectMethodPair@@@std@@@std@@QAE@ABV?$allocator@PAVCSCIObjectMethodPair@@@1@@Z 00500bd0 f i GenericDlg.obj
 0001:000ffc40       ??1?$vector@PAVCSCIObjectMethodPair@@V?$allocator@PAVCSCIObjectMethodPair@@@std@@@std@@QAE@XZ 00500c40 f i GenericDlg.obj
 0001:000ffcf0       ?begin@?$vector@PAVCSCIObjectMethodPair@@V?$allocator@PAVCSCIObjectMethodPair@@@std@@@std@@QAEPAPAVCSCIObjectMethodPair@@XZ 00500cf0 f i GenericDlg.obj
 0001:000ffd30       ?end@?$vector@PAVCSCIObjectMethodPair@@V?$allocator@PAVCSCIObjectMethodPair@@@std@@@std@@QAEPAPAVCSCIObjectMethodPair@@XZ 00500d30 f i GenericDlg.obj
 0001:000ffd70       ?size@?$vector@PAVCSCIObjectMethodPair@@V?$allocator@PAVCSCIObjectMethodPair@@@std@@@std@@QBEIXZ 00500d70 f i GenericDlg.obj
 0001:000ffdd0       ??A?$vector@PAVCSCIObjectMethodPair@@V?$allocator@PAVCSCIObjectMethodPair@@@std@@@std@@QAEAAPAVCSCIObjectMethodPair@@I@Z 00500dd0 f i GenericDlg.obj
 0001:000ffe20       ?push_back@?$vector@PAVCSCIObjectMethodPair@@V?$allocator@PAVCSCIObjectMethodPair@@@std@@@std@@QAEXABQAVCSCIObjectMethodPair@@@Z 00500e20 f i GenericDlg.obj
 0001:000ffe80       ?clear@?$vector@PAVCSCIObjectMethodPair@@V?$allocator@PAVCSCIObjectMethodPair@@@std@@@std@@QAEXXZ 00500e80 f i GenericDlg.obj
 0001:000ffee0       ??0?$map@VCSCI_Object@@PAVCNoButtonDlg@@U?$less@VCSCI_Object@@@std@@V?$allocator@PAVCNoButtonDlg@@@4@@std@@QAE@ABU?$less@VCSCI_Object@@@1@ABV?$allocator@PAVCNoButtonDlg@@@1@@Z 00500ee0 f i GenericDlg.obj
 0001:000fff40       ?end@?$map@VCSCI_Object@@PAVCNoButtonDlg@@U?$less@VCSCI_Object@@@std@@V?$allocator@PAVCNoButtonDlg@@@4@@std@@QAE?AViterator@?$_Tree@VCSCI_Object@@U?$pair@$$CBVCSCI_Object@@PAVCNoButtonDlg@@@std@@U_Kfn@?$map@VCSCI_Object@@PAVCNoButtonDlg@@U?$less@VCSCI_Object@@@std@@V?$allocator@PAVCNoButtonDlg@@@4@@3@U?$less@VCSCI_Object@@@3@V?$allocator@PAVCNoButtonDlg@@@3@@2@XZ 00500f40 f i GenericDlg.obj
 0001:000fffa0       ??A?$map@VCSCI_Object@@PAVCNoButtonDlg@@U?$less@VCSCI_Object@@@std@@V?$allocator@PAVCNoButtonDlg@@@4@@std@@QAEAAPAVCNoButtonDlg@@ABVCSCI_Object@@@Z 00500fa0 f i GenericDlg.obj
 0001:00100020       ?erase@?$map@VCSCI_Object@@PAVCNoButtonDlg@@U?$less@VCSCI_Object@@@std@@V?$allocator@PAVCNoButtonDlg@@@4@@std@@QAE?AViterator@?$_Tree@VCSCI_Object@@U?$pair@$$CBVCSCI_Object@@PAVCNoButtonDlg@@@std@@U_Kfn@?$map@VCSCI_Object@@PAVCNoButtonDlg@@U?$less@VCSCI_Object@@@std@@V?$allocator@PAVCNoButtonDlg@@@4@@3@U?$less@VCSCI_Object@@@3@V?$allocator@PAVCNoButtonDlg@@@3@@2@V342@@Z 00501020 f i GenericDlg.obj
 0001:00100080       ?find@?$map@VCSCI_Object@@PAVCNoButtonDlg@@U?$less@VCSCI_Object@@@std@@V?$allocator@PAVCNoButtonDlg@@@4@@std@@QAE?AViterator@?$_Tree@VCSCI_Object@@U?$pair@$$CBVCSCI_Object@@PAVCNoButtonDlg@@@std@@U_Kfn@?$map@VCSCI_Object@@PAVCNoButtonDlg@@U?$less@VCSCI_Object@@@std@@V?$allocator@PAVCNoButtonDlg@@@4@@3@U?$less@VCSCI_Object@@@3@V?$allocator@PAVCNoButtonDlg@@@3@@2@ABVCSCI_Object@@@Z 00501080 f i GenericDlg.obj
 0001:001000e0       ??1?$_Tree@VCSCI_Object@@U?$pair@$$CBVCSCI_Object@@PAVCNoButtonDlg@@@std@@U_Kfn@?$map@VCSCI_Object@@PAVCNoButtonDlg@@U?$less@VCSCI_Object@@@std@@V?$allocator@PAVCNoButtonDlg@@@4@@3@U?$less@VCSCI_Object@@@3@V?$allocator@PAVCNoButtonDlg@@@3@@std@@QAE@XZ 005010e0 f i GenericDlg.obj
 0001:00100220       ??0iterator@?$_Tree@VCSCI_Object@@U?$pair@$$CBVCSCI_Object@@PAVCNoButtonDlg@@@std@@U_Kfn@?$map@VCSCI_Object@@PAVCNoButtonDlg@@U?$less@VCSCI_Object@@@std@@V?$allocator@PAVCNoButtonDlg@@@4@@3@U?$less@VCSCI_Object@@@3@V?$allocator@PAVCNoButtonDlg@@@3@@std@@QAE@XZ 00501220 f i GenericDlg.obj
 0001:00100270       ??9iterator@?$_Tree@VCSCI_Object@@U?$pair@$$CBVCSCI_Object@@PAVCNoButtonDlg@@@std@@U_Kfn@?$map@VCSCI_Object@@PAVCNoButtonDlg@@U?$less@VCSCI_Object@@@std@@V?$allocator@PAVCNoButtonDlg@@@4@@3@U?$less@VCSCI_Object@@@3@V?$allocator@PAVCNoButtonDlg@@@3@@std@@QBE_NABV012@@Z 00501270 f i GenericDlg.obj
 0001:001002d0       ?insert@?$vector@PAVCSCIObjectMethodPair@@V?$allocator@PAVCSCIObjectMethodPair@@@std@@@std@@QAEPAPAVCSCIObjectMethodPair@@PAPAV3@ABQAV3@@Z 005012d0 f i GenericDlg.obj
 0001:00100350       ?erase@?$vector@PAVCSCIObjectMethodPair@@V?$allocator@PAVCSCIObjectMethodPair@@@std@@@std@@QAEPAPAVCSCIObjectMethodPair@@PAPAV3@0@Z 00501350 f i GenericDlg.obj
 0001:001003e0       ?_Destroy@?$vector@PAVCSCIObjectMethodPair@@V?$allocator@PAVCSCIObjectMethodPair@@@std@@@std@@IAEXPAPAVCSCIObjectMethodPair@@0@Z 005013e0 f i GenericDlg.obj
 0001:00100450       ?deallocate@?$allocator@PAVCSCIObjectMethodPair@@@std@@QAEXPAXI@Z 00501450 f i GenericDlg.obj
 0001:001004a0       ?insert@?$map@VCSCI_Object@@PAVCNoButtonDlg@@U?$less@VCSCI_Object@@@std@@V?$allocator@PAVCNoButtonDlg@@@4@@std@@QAE?AU?$pair@Viterator@?$_Tree@VCSCI_Object@@U?$pair@$$CBVCSCI_Object@@PAVCNoButtonDlg@@@std@@U_Kfn@?$map@VCSCI_Object@@PAVCNoButtonDlg@@U?$less@VCSCI_Object@@@std@@V?$allocator@PAVCNoButtonDlg@@@4@@3@U?$less@VCSCI_Object@@@3@V?$allocator@PAVCNoButtonDlg@@@3@@std@@_N@2@ABU?$pair@$$CBVCSCI_Object@@PAVCNoButtonDlg@@@2@@Z 005014a0 f i GenericDlg.obj
 0001:00100530       ??0?$_Tree@VCSCI_Object@@U?$pair@$$CBVCSCI_Object@@PAVCNoButtonDlg@@@std@@U_Kfn@?$map@VCSCI_Object@@PAVCNoButtonDlg@@U?$less@VCSCI_Object@@@std@@V?$allocator@PAVCNoButtonDlg@@@4@@3@U?$less@VCSCI_Object@@@3@V?$allocator@PAVCNoButtonDlg@@@3@@std@@QAE@ABU?$less@VCSCI_Object@@@1@_NABV?$allocator@PAVCNoButtonDlg@@@1@@Z 00501530 f i GenericDlg.obj
 0001:001005a0       ?begin@?$_Tree@VCSCI_Object@@U?$pair@$$CBVCSCI_Object@@PAVCNoButtonDlg@@@std@@U_Kfn@?$map@VCSCI_Object@@PAVCNoButtonDlg@@U?$less@VCSCI_Object@@@std@@V?$allocator@PAVCNoButtonDlg@@@4@@3@U?$less@VCSCI_Object@@@3@V?$allocator@PAVCNoButtonDlg@@@3@@std@@QAE?AViterator@12@XZ 005015a0 f i GenericDlg.obj
 0001:00100600       ?end@?$_Tree@VCSCI_Object@@U?$pair@$$CBVCSCI_Object@@PAVCNoButtonDlg@@@std@@U_Kfn@?$map@VCSCI_Object@@PAVCNoButtonDlg@@U?$less@VCSCI_Object@@@std@@V?$allocator@PAVCNoButtonDlg@@@4@@3@U?$less@VCSCI_Object@@@3@V?$allocator@PAVCNoButtonDlg@@@3@@std@@QAE?AViterator@12@XZ 00501600 f i GenericDlg.obj
 0001:00100660       ?erase@?$_Tree@VCSCI_Object@@U?$pair@$$CBVCSCI_Object@@PAVCNoButtonDlg@@@std@@U_Kfn@?$map@VCSCI_Object@@PAVCNoButtonDlg@@U?$less@VCSCI_Object@@@std@@V?$allocator@PAVCNoButtonDlg@@@4@@3@U?$less@VCSCI_Object@@@3@V?$allocator@PAVCNoButtonDlg@@@3@@std@@QAE?AViterator@12@V312@@Z 00501660 f i GenericDlg.obj
 0001:00101100       ?erase@?$_Tree@VCSCI_Object@@U?$pair@$$CBVCSCI_Object@@PAVCNoButtonDlg@@@std@@U_Kfn@?$map@VCSCI_Object@@PAVCNoButtonDlg@@U?$less@VCSCI_Object@@@std@@V?$allocator@PAVCNoButtonDlg@@@4@@3@U?$less@VCSCI_Object@@@3@V?$allocator@PAVCNoButtonDlg@@@3@@std@@QAE?AViterator@12@V312@0@Z 00502100 f i GenericDlg.obj
 0001:001012d0       ?find@?$_Tree@VCSCI_Object@@U?$pair@$$CBVCSCI_Object@@PAVCNoButtonDlg@@@std@@U_Kfn@?$map@VCSCI_Object@@PAVCNoButtonDlg@@U?$less@VCSCI_Object@@@std@@V?$allocator@PAVCNoButtonDlg@@@4@@3@U?$less@VCSCI_Object@@@3@V?$allocator@PAVCNoButtonDlg@@@3@@std@@QAE?AViterator@12@ABVCSCI_Object@@@Z 005022d0 f i GenericDlg.obj
 0001:001013c0       ?_Freenode@?$_Tree@VCSCI_Object@@U?$pair@$$CBVCSCI_Object@@PAVCNoButtonDlg@@@std@@U_Kfn@?$map@VCSCI_Object@@PAVCNoButtonDlg@@U?$less@VCSCI_Object@@@std@@V?$allocator@PAVCNoButtonDlg@@@4@@3@U?$less@VCSCI_Object@@@3@V?$allocator@PAVCNoButtonDlg@@@3@@std@@IAEXPAU_Node@12@@Z 005023c0 f i GenericDlg.obj
 0001:00101410       ??0?$pair@$$CBVCSCI_Object@@PAVCNoButtonDlg@@@std@@QAE@ABVCSCI_Object@@ABQAVCNoButtonDlg@@@Z 00502410 f i GenericDlg.obj
 0001:00101470       ??0const_iterator@?$_Tree@VCSCI_Object@@U?$pair@$$CBVCSCI_Object@@PAVCNoButtonDlg@@@std@@U_Kfn@?$map@VCSCI_Object@@PAVCNoButtonDlg@@U?$less@VCSCI_Object@@@std@@V?$allocator@PAVCNoButtonDlg@@@4@@3@U?$less@VCSCI_Object@@@3@V?$allocator@PAVCNoButtonDlg@@@3@@std@@QAE@XZ 00502470 f i GenericDlg.obj
 0001:001014a0       ??Diterator@?$_Tree@VCSCI_Object@@U?$pair@$$CBVCSCI_Object@@PAVCNoButtonDlg@@@std@@U_Kfn@?$map@VCSCI_Object@@PAVCNoButtonDlg@@U?$less@VCSCI_Object@@@std@@V?$allocator@PAVCNoButtonDlg@@@4@@3@U?$less@VCSCI_Object@@@3@V?$allocator@PAVCNoButtonDlg@@@3@@std@@QBEAAU?$pair@$$CBVCSCI_Object@@PAVCNoButtonDlg@@@2@XZ 005024a0 f i GenericDlg.obj
 0001:001014f0       ??8iterator@?$_Tree@VCSCI_Object@@U?$pair@$$CBVCSCI_Object@@PAVCNoButtonDlg@@@std@@U_Kfn@?$map@VCSCI_Object@@PAVCNoButtonDlg@@U?$less@VCSCI_Object@@@std@@V?$allocator@PAVCNoButtonDlg@@@4@@3@U?$less@VCSCI_Object@@@3@V?$allocator@PAVCNoButtonDlg@@@3@@std@@QBE_NABV012@@Z 005024f0 f i GenericDlg.obj
 0001:00101540       ?insert@?$vector@PAVCSCIObjectMethodPair@@V?$allocator@PAVCSCIObjectMethodPair@@@std@@@std@@QAEXPAPAVCSCIObjectMethodPair@@IABQAV3@@Z 00502540 f i GenericDlg.obj
 0001:00101810       ?destroy@?$allocator@PAVCSCIObjectMethodPair@@@std@@QAEXPAPAVCSCIObjectMethodPair@@@Z 00502810 f i GenericDlg.obj
 0001:00101860       ??R?$less@VCSCI_Object@@@std@@QBE_NABVCSCI_Object@@0@Z 00502860 f i GenericDlg.obj
 0001:001018d0       ?deallocate@?$allocator@PAVCNoButtonDlg@@@std@@QAEXPAXI@Z 005028d0 f i GenericDlg.obj
 0001:00101920       ?_Color@?$_Tree@VCSCI_Object@@U?$pair@$$CBVCSCI_Object@@PAVCNoButtonDlg@@@std@@U_Kfn@?$map@VCSCI_Object@@PAVCNoButtonDlg@@U?$less@VCSCI_Object@@@std@@V?$allocator@PAVCNoButtonDlg@@@4@@3@U?$less@VCSCI_Object@@@3@V?$allocator@PAVCNoButtonDlg@@@3@@std@@KAAAW4_Redbl@12@PAU_Node@12@@Z 00502920 f i GenericDlg.obj
 0001:00101950       ?_Key@?$_Tree@VCSCI_Object@@U?$pair@$$CBVCSCI_Object@@PAVCNoButtonDlg@@@std@@U_Kfn@?$map@VCSCI_Object@@PAVCNoButtonDlg@@U?$less@VCSCI_Object@@@std@@V?$allocator@PAVCNoButtonDlg@@@4@@3@U?$less@VCSCI_Object@@@3@V?$allocator@PAVCNoButtonDlg@@@3@@std@@KAABVCSCI_Object@@PAU_Node@12@@Z 00502950 f i GenericDlg.obj
 0001:001019a0       ?_Left@?$_Tree@VCSCI_Object@@U?$pair@$$CBVCSCI_Object@@PAVCNoButtonDlg@@@std@@U_Kfn@?$map@VCSCI_Object@@PAVCNoButtonDlg@@U?$less@VCSCI_Object@@@std@@V?$allocator@PAVCNoButtonDlg@@@4@@3@U?$less@VCSCI_Object@@@3@V?$allocator@PAVCNoButtonDlg@@@3@@std@@KAAAPAU_Node@12@PAU312@@Z 005029a0 f i GenericDlg.obj
 0001:001019d0       ?_Parent@?$_Tree@VCSCI_Object@@U?$pair@$$CBVCSCI_Object@@PAVCNoButtonDlg@@@std@@U_Kfn@?$map@VCSCI_Object@@PAVCNoButtonDlg@@U?$less@VCSCI_Object@@@std@@V?$allocator@PAVCNoButtonDlg@@@4@@3@U?$less@VCSCI_Object@@@3@V?$allocator@PAVCNoButtonDlg@@@3@@std@@KAAAPAU_Node@12@PAU312@@Z 005029d0 f i GenericDlg.obj
 0001:00101a00       ?_Right@?$_Tree@VCSCI_Object@@U?$pair@$$CBVCSCI_Object@@PAVCNoButtonDlg@@@std@@U_Kfn@?$map@VCSCI_Object@@PAVCNoButtonDlg@@U?$less@VCSCI_Object@@@std@@V?$allocator@PAVCNoButtonDlg@@@4@@3@U?$less@VCSCI_Object@@@3@V?$allocator@PAVCNoButtonDlg@@@3@@std@@KAAAPAU_Node@12@PAU312@@Z 00502a00 f i GenericDlg.obj
 0001:00101a30       ?_Value@?$_Tree@VCSCI_Object@@U?$pair@$$CBVCSCI_Object@@PAVCNoButtonDlg@@@std@@U_Kfn@?$map@VCSCI_Object@@PAVCNoButtonDlg@@U?$less@VCSCI_Object@@@std@@V?$allocator@PAVCNoButtonDlg@@@4@@3@U?$less@VCSCI_Object@@@3@V?$allocator@PAVCNoButtonDlg@@@3@@std@@KAAAU?$pair@$$CBVCSCI_Object@@PAVCNoButtonDlg@@@2@PAU_Node@12@@Z 00502a30 f i GenericDlg.obj
 0001:00101a60       ?size@?$_Tree@VCSCI_Object@@U?$pair@$$CBVCSCI_Object@@PAVCNoButtonDlg@@@std@@U_Kfn@?$map@VCSCI_Object@@PAVCNoButtonDlg@@U?$less@VCSCI_Object@@@std@@V?$allocator@PAVCNoButtonDlg@@@4@@3@U?$less@VCSCI_Object@@@3@V?$allocator@PAVCNoButtonDlg@@@3@@std@@QBEIXZ 00502a60 f i GenericDlg.obj
 0001:00101aa0       ?insert@?$_Tree@VCSCI_Object@@U?$pair@$$CBVCSCI_Object@@PAVCNoButtonDlg@@@std@@U_Kfn@?$map@VCSCI_Object@@PAVCNoButtonDlg@@U?$less@VCSCI_Object@@@std@@V?$allocator@PAVCNoButtonDlg@@@4@@3@U?$less@VCSCI_Object@@@3@V?$allocator@PAVCNoButtonDlg@@@3@@std@@QAE?AU?$pair@Viterator@?$_Tree@VCSCI_Object@@U?$pair@$$CBVCSCI_Object@@PAVCNoButtonDlg@@@std@@U_Kfn@?$map@VCSCI_Object@@PAVCNoButtonDlg@@U?$less@VCSCI_Object@@@std@@V?$allocator@PAVCNoButtonDlg@@@4@@3@U?$less@VCSCI_Object@@@3@V?$allocator@PAVCNoButtonDlg@@@3@@std@@_N@2@ABU?$pair@$$CBVCSCI_Object@@PAVCNoButtonDlg@@@2@@Z 00502aa0 f i GenericDlg.obj
 0001:00101dc0       ?lower_bound@?$_Tree@VCSCI_Object@@U?$pair@$$CBVCSCI_Object@@PAVCNoButtonDlg@@@std@@U_Kfn@?$map@VCSCI_Object@@PAVCNoButtonDlg@@U?$less@VCSCI_Object@@@std@@V?$allocator@PAVCNoButtonDlg@@@4@@3@U?$less@VCSCI_Object@@@3@V?$allocator@PAVCNoButtonDlg@@@3@@std@@QAE?AViterator@12@ABVCSCI_Object@@@Z 00502dc0 f i GenericDlg.obj
 0001:00101e30       ?_Erase@?$_Tree@VCSCI_Object@@U?$pair@$$CBVCSCI_Object@@PAVCNoButtonDlg@@@std@@U_Kfn@?$map@VCSCI_Object@@PAVCNoButtonDlg@@U?$less@VCSCI_Object@@@std@@V?$allocator@PAVCNoButtonDlg@@@4@@3@U?$less@VCSCI_Object@@@3@V?$allocator@PAVCNoButtonDlg@@@3@@std@@IAEXPAU_Node@12@@Z 00502e30 f i GenericDlg.obj
 0001:00101f50       ?_Init@?$_Tree@VCSCI_Object@@U?$pair@$$CBVCSCI_Object@@PAVCNoButtonDlg@@@std@@U_Kfn@?$map@VCSCI_Object@@PAVCNoButtonDlg@@U?$less@VCSCI_Object@@@std@@V?$allocator@PAVCNoButtonDlg@@@4@@3@U?$less@VCSCI_Object@@@3@V?$allocator@PAVCNoButtonDlg@@@3@@std@@IAEXXZ 00502f50 f i GenericDlg.obj
 0001:001020b0       ?_Lmost@?$_Tree@VCSCI_Object@@U?$pair@$$CBVCSCI_Object@@PAVCNoButtonDlg@@@std@@U_Kfn@?$map@VCSCI_Object@@PAVCNoButtonDlg@@U?$less@VCSCI_Object@@@std@@V?$allocator@PAVCNoButtonDlg@@@4@@3@U?$less@VCSCI_Object@@@3@V?$allocator@PAVCNoButtonDlg@@@3@@std@@IAEAAPAU_Node@12@XZ 005030b0 f i GenericDlg.obj
 0001:00102100       ?_Lrotate@?$_Tree@VCSCI_Object@@U?$pair@$$CBVCSCI_Object@@PAVCNoButtonDlg@@@std@@U_Kfn@?$map@VCSCI_Object@@PAVCNoButtonDlg@@U?$less@VCSCI_Object@@@std@@V?$allocator@PAVCNoButtonDlg@@@4@@3@U?$less@VCSCI_Object@@@3@V?$allocator@PAVCNoButtonDlg@@@3@@std@@IAEXPAU_Node@12@@Z 00503100 f i GenericDlg.obj
 0001:00102300       ?_Max@?$_Tree@VCSCI_Object@@U?$pair@$$CBVCSCI_Object@@PAVCNoButtonDlg@@@std@@U_Kfn@?$map@VCSCI_Object@@PAVCNoButtonDlg@@U?$less@VCSCI_Object@@@std@@V?$allocator@PAVCNoButtonDlg@@@4@@3@U?$less@VCSCI_Object@@@3@V?$allocator@PAVCNoButtonDlg@@@3@@std@@KAPAU_Node@12@PAU312@@Z 00503300 f i GenericDlg.obj
 0001:001023e0       ?_Min@?$_Tree@VCSCI_Object@@U?$pair@$$CBVCSCI_Object@@PAVCNoButtonDlg@@@std@@U_Kfn@?$map@VCSCI_Object@@PAVCNoButtonDlg@@U?$less@VCSCI_Object@@@std@@V?$allocator@PAVCNoButtonDlg@@@4@@3@U?$less@VCSCI_Object@@@3@V?$allocator@PAVCNoButtonDlg@@@3@@std@@KAPAU_Node@12@PAU312@@Z 005033e0 f i GenericDlg.obj
 0001:001024c0       ?_Rmost@?$_Tree@VCSCI_Object@@U?$pair@$$CBVCSCI_Object@@PAVCNoButtonDlg@@@std@@U_Kfn@?$map@VCSCI_Object@@PAVCNoButtonDlg@@U?$less@VCSCI_Object@@@std@@V?$allocator@PAVCNoButtonDlg@@@4@@3@U?$less@VCSCI_Object@@@3@V?$allocator@PAVCNoButtonDlg@@@3@@std@@IAEAAPAU_Node@12@XZ 005034c0 f i GenericDlg.obj
 0001:00102510       ?_Root@?$_Tree@VCSCI_Object@@U?$pair@$$CBVCSCI_Object@@PAVCNoButtonDlg@@@std@@U_Kfn@?$map@VCSCI_Object@@PAVCNoButtonDlg@@U?$less@VCSCI_Object@@@std@@V?$allocator@PAVCNoButtonDlg@@@4@@3@U?$less@VCSCI_Object@@@3@V?$allocator@PAVCNoButtonDlg@@@3@@std@@IAEAAPAU_Node@12@XZ 00503510 f i GenericDlg.obj
 0001:00102560       ?_Rrotate@?$_Tree@VCSCI_Object@@U?$pair@$$CBVCSCI_Object@@PAVCNoButtonDlg@@@std@@U_Kfn@?$map@VCSCI_Object@@PAVCNoButtonDlg@@U?$less@VCSCI_Object@@@std@@V?$allocator@PAVCNoButtonDlg@@@4@@3@U?$less@VCSCI_Object@@@3@V?$allocator@PAVCNoButtonDlg@@@3@@std@@IAEXPAU_Node@12@@Z 00503560 f i GenericDlg.obj
 0001:00102760       ?_Destval@?$_Tree@VCSCI_Object@@U?$pair@$$CBVCSCI_Object@@PAVCNoButtonDlg@@@std@@U_Kfn@?$map@VCSCI_Object@@PAVCNoButtonDlg@@U?$less@VCSCI_Object@@@std@@V?$allocator@PAVCNoButtonDlg@@@4@@3@U?$less@VCSCI_Object@@@3@V?$allocator@PAVCNoButtonDlg@@@3@@std@@IAEXPAU?$pair@$$CBVCSCI_Object@@PAVCNoButtonDlg@@@2@@Z 00503760 f i GenericDlg.obj
 0001:001027b0       ?_Mynode@const_iterator@?$_Tree@VCSCI_Object@@U?$pair@$$CBVCSCI_Object@@PAVCNoButtonDlg@@@std@@U_Kfn@?$map@VCSCI_Object@@PAVCNoButtonDlg@@U?$less@VCSCI_Object@@@std@@V?$allocator@PAVCNoButtonDlg@@@4@@3@U?$less@VCSCI_Object@@@3@V?$allocator@PAVCNoButtonDlg@@@3@@std@@QBEPAU_Node@23@XZ 005037b0 f i GenericDlg.obj
 0001:001027f0       ??0iterator@?$_Tree@VCSCI_Object@@U?$pair@$$CBVCSCI_Object@@PAVCNoButtonDlg@@@std@@U_Kfn@?$map@VCSCI_Object@@PAVCNoButtonDlg@@U?$less@VCSCI_Object@@@std@@V?$allocator@PAVCNoButtonDlg@@@4@@3@U?$less@VCSCI_Object@@@3@V?$allocator@PAVCNoButtonDlg@@@3@@std@@QAE@PAU_Node@12@@Z 005037f0 f i GenericDlg.obj
 0001:00102840       ??Eiterator@?$_Tree@VCSCI_Object@@U?$pair@$$CBVCSCI_Object@@PAVCNoButtonDlg@@@std@@U_Kfn@?$map@VCSCI_Object@@PAVCNoButtonDlg@@U?$less@VCSCI_Object@@@std@@V?$allocator@PAVCNoButtonDlg@@@4@@3@U?$less@VCSCI_Object@@@3@V?$allocator@PAVCNoButtonDlg@@@3@@std@@QAE?AV012@H@Z 00503840 f i GenericDlg.obj
 0001:001028a0       ??0?$pair@Viterator@?$_Tree@VCSCI_Object@@U?$pair@$$CBVCSCI_Object@@PAVCNoButtonDlg@@@std@@U_Kfn@?$map@VCSCI_Object@@PAVCNoButtonDlg@@U?$less@VCSCI_Object@@@std@@V?$allocator@PAVCNoButtonDlg@@@4@@3@U?$less@VCSCI_Object@@@3@V?$allocator@PAVCNoButtonDlg@@@3@@std@@_N@std@@QAE@ABViterator@?$_Tree@VCSCI_Object@@U?$pair@$$CBVCSCI_Object@@PAVCNoButtonDlg@@@std@@U_Kfn@?$map@VCSCI_Object@@PAVCNoButtonDlg@@U?$less@VCSCI_Object@@@std@@V?$allocator@PAVCNoButtonDlg@@@4@@3@U?$less@VCSCI_Object@@@3@V?$allocator@PAVCNoButtonDlg@@@3@@1@AB_N@Z 005038a0 f i GenericDlg.obj
 0001:001028f0       ?_Ucopy@?$vector@PAVCSCIObjectMethodPair@@V?$allocator@PAVCSCIObjectMethodPair@@@std@@@std@@IAEPAPAVCSCIObjectMethodPair@@PBQAV3@0PAPAV3@@Z 005038f0 f i GenericDlg.obj
 0001:00102970       ?_Ufill@?$vector@PAVCSCIObjectMethodPair@@V?$allocator@PAVCSCIObjectMethodPair@@@std@@@std@@IAEXPAPAVCSCIObjectMethodPair@@IABQAV3@@Z 00503970 f i GenericDlg.obj
 0001:001029f0       ?allocate@?$allocator@PAVCSCIObjectMethodPair@@@std@@QAEPAPAVCSCIObjectMethodPair@@IPBX@Z 005039f0 f i GenericDlg.obj
 0001:00102a40       ??R_Kfn@?$map@VCSCI_Object@@PAVCNoButtonDlg@@U?$less@VCSCI_Object@@@std@@V?$allocator@PAVCNoButtonDlg@@@4@@std@@QBEABVCSCI_Object@@ABU?$pair@$$CBVCSCI_Object@@PAVCNoButtonDlg@@@2@@Z 00503a40 f i GenericDlg.obj
 0001:00102a80       ?_Insert@?$_Tree@VCSCI_Object@@U?$pair@$$CBVCSCI_Object@@PAVCNoButtonDlg@@@std@@U_Kfn@?$map@VCSCI_Object@@PAVCNoButtonDlg@@U?$less@VCSCI_Object@@@std@@V?$allocator@PAVCNoButtonDlg@@@4@@3@U?$less@VCSCI_Object@@@3@V?$allocator@PAVCNoButtonDlg@@@3@@std@@IAE?AViterator@12@PAU_Node@12@0ABU?$pair@$$CBVCSCI_Object@@PAVCNoButtonDlg@@@2@@Z 00503a80 f i GenericDlg.obj
 0001:001030c0       ?_Lbound@?$_Tree@VCSCI_Object@@U?$pair@$$CBVCSCI_Object@@PAVCNoButtonDlg@@@std@@U_Kfn@?$map@VCSCI_Object@@PAVCNoButtonDlg@@U?$less@VCSCI_Object@@@std@@V?$allocator@PAVCNoButtonDlg@@@4@@3@U?$less@VCSCI_Object@@@3@V?$allocator@PAVCNoButtonDlg@@@3@@std@@IBEPAU_Node@12@ABVCSCI_Object@@@Z 005040c0 f i GenericDlg.obj
 0001:00103200       ?_Buynode@?$_Tree@VCSCI_Object@@U?$pair@$$CBVCSCI_Object@@PAVCNoButtonDlg@@@std@@U_Kfn@?$map@VCSCI_Object@@PAVCNoButtonDlg@@U?$less@VCSCI_Object@@@std@@V?$allocator@PAVCNoButtonDlg@@@4@@3@U?$less@VCSCI_Object@@@3@V?$allocator@PAVCNoButtonDlg@@@3@@std@@IAEPAU_Node@12@PAU312@W4_Redbl@12@@Z 00504200 f i GenericDlg.obj
 0001:00103280       ??0const_iterator@?$_Tree@VCSCI_Object@@U?$pair@$$CBVCSCI_Object@@PAVCNoButtonDlg@@@std@@U_Kfn@?$map@VCSCI_Object@@PAVCNoButtonDlg@@U?$less@VCSCI_Object@@@std@@V?$allocator@PAVCNoButtonDlg@@@4@@3@U?$less@VCSCI_Object@@@3@V?$allocator@PAVCNoButtonDlg@@@3@@std@@QAE@PAU_Node@12@@Z 00504280 f i GenericDlg.obj
 0001:001032c0       ??Eiterator@?$_Tree@VCSCI_Object@@U?$pair@$$CBVCSCI_Object@@PAVCNoButtonDlg@@@std@@U_Kfn@?$map@VCSCI_Object@@PAVCNoButtonDlg@@U?$less@VCSCI_Object@@@std@@V?$allocator@PAVCNoButtonDlg@@@4@@3@U?$less@VCSCI_Object@@@3@V?$allocator@PAVCNoButtonDlg@@@3@@std@@QAEAAV012@XZ 005042c0 f i GenericDlg.obj
 0001:00103310       ??Fiterator@?$_Tree@VCSCI_Object@@U?$pair@$$CBVCSCI_Object@@PAVCNoButtonDlg@@@std@@U_Kfn@?$map@VCSCI_Object@@PAVCNoButtonDlg@@U?$less@VCSCI_Object@@@std@@V?$allocator@PAVCNoButtonDlg@@@4@@3@U?$less@VCSCI_Object@@@3@V?$allocator@PAVCNoButtonDlg@@@3@@std@@QAEAAV012@XZ 00504310 f i GenericDlg.obj
 0001:00103360       ?construct@?$allocator@PAVCSCIObjectMethodPair@@@std@@QAEXPAPAVCSCIObjectMethodPair@@ABQAV3@@Z 00504360 f i GenericDlg.obj
 0001:001033b0       ?_Charalloc@?$allocator@PAVCNoButtonDlg@@@std@@QAEPADI@Z 005043b0 f i GenericDlg.obj
 0001:00103400       ?_Root@?$_Tree@VCSCI_Object@@U?$pair@$$CBVCSCI_Object@@PAVCNoButtonDlg@@@std@@U_Kfn@?$map@VCSCI_Object@@PAVCNoButtonDlg@@U?$less@VCSCI_Object@@@std@@V?$allocator@PAVCNoButtonDlg@@@4@@3@U?$less@VCSCI_Object@@@3@V?$allocator@PAVCNoButtonDlg@@@3@@std@@IBEAAPAU_Node@12@XZ 00504400 f i GenericDlg.obj
 0001:00103450       ?_Consval@?$_Tree@VCSCI_Object@@U?$pair@$$CBVCSCI_Object@@PAVCNoButtonDlg@@@std@@U_Kfn@?$map@VCSCI_Object@@PAVCNoButtonDlg@@U?$less@VCSCI_Object@@@std@@V?$allocator@PAVCNoButtonDlg@@@4@@3@U?$less@VCSCI_Object@@@3@V?$allocator@PAVCNoButtonDlg@@@3@@std@@IAEXPAU?$pair@$$CBVCSCI_Object@@PAVCNoButtonDlg@@@2@ABU32@@Z 00504450 f i GenericDlg.obj
 0001:001034a0       ?_Dec@const_iterator@?$_Tree@VCSCI_Object@@U?$pair@$$CBVCSCI_Object@@PAVCNoButtonDlg@@@std@@U_Kfn@?$map@VCSCI_Object@@PAVCNoButtonDlg@@U?$less@VCSCI_Object@@@std@@V?$allocator@PAVCNoButtonDlg@@@4@@3@U?$less@VCSCI_Object@@@3@V?$allocator@PAVCNoButtonDlg@@@3@@std@@QAEXXZ 005044a0 f i GenericDlg.obj
 0001:00103630       ?_Inc@const_iterator@?$_Tree@VCSCI_Object@@U?$pair@$$CBVCSCI_Object@@PAVCNoButtonDlg@@@std@@U_Kfn@?$map@VCSCI_Object@@PAVCNoButtonDlg@@U?$less@VCSCI_Object@@@std@@V?$allocator@PAVCNoButtonDlg@@@4@@3@U?$less@VCSCI_Object@@@3@V?$allocator@PAVCNoButtonDlg@@@3@@std@@QAEXXZ 00504630 f i GenericDlg.obj
 0001:00103780       ?copy@std@@YAPAPAVCSCIObjectMethodPair@@PAPAV2@00@Z 00504780 f i GenericDlg.obj
 0001:001037e0       ?swap@std@@YAXAAW4_Redbl@?$_Tree@VCSCI_Object@@U?$pair@$$CBVCSCI_Object@@PAVCNoButtonDlg@@@std@@U_Kfn@?$map@VCSCI_Object@@PAVCNoButtonDlg@@U?$less@VCSCI_Object@@@std@@V?$allocator@PAVCNoButtonDlg@@@4@@3@U?$less@VCSCI_Object@@@3@V?$allocator@PAVCNoButtonDlg@@@3@@1@0@Z 005047e0 f i GenericDlg.obj
 0001:00103830       ?fill@std@@YAXPAPAVCSCIObjectMethodPair@@0ABQAV2@@Z 00504830 f i GenericDlg.obj
 0001:00103880       ?copy_backward@std@@YAPAPAVCSCIObjectMethodPair@@PAPAV2@00@Z 00504880 f i GenericDlg.obj
 0001:001038e0       ?_Destroy@std@@YAXPAPAVCSCIObjectMethodPair@@@Z 005048e0 f i GenericDlg.obj
 0001:00103910       ?_Destroy@std@@YAXPAU?$pair@$$CBVCSCI_Object@@PAVCNoButtonDlg@@@1@@Z 00504910 f i GenericDlg.obj
 0001:00103940       ?_Allocate@std@@YAPAPAVCSCIObjectMethodPair@@HPAPAV2@@Z 00504940 f i GenericDlg.obj
 0001:001039a0       ?_Construct@std@@YAXPAPAVCSCIObjectMethodPair@@ABQAV2@@Z 005049a0 f i GenericDlg.obj
 0001:00103a10       ?_Construct@std@@YAXPAU?$pair@$$CBVCSCI_Object@@PAVCNoButtonDlg@@@1@ABU21@@Z 00504a10 f i GenericDlg.obj
 0001:00103ac0       ??0?$pair@$$CBVCSCI_Object@@PAVCNoButtonDlg@@@std@@QAE@ABU01@@Z 00504ac0 f i GenericDlg.obj
 0001:00103b20       ??_ECSkinEditField@@WGA@AEPAXI@Z 00504b20 f i GenericDlg.obj
 0001:00103b30       ??_ECSkinEditField@@WHE@AEPAXI@Z 00504b30 f i GenericDlg.obj
 0001:00103b40       ??0CSCI_Script@@QAE@XZ     00504b40 f i GenericDlg.obj
 0001:00103b90       ?getObject@CSCIObjectMethodPair@@QAE?AVCSCI_Object@@XZ 00504b90 f i GenericDlg.obj
 0001:00103be0       ?GetProcessEvents@CNetworkErrorDlg@@UAE_NXZ 00504be0 f i GenericDlg.obj
 0001:00103c10       ??0CGroupListWnd@@QAE@XZ   00504c10 f   GroupList.obj
 0001:00103cf0       ??_GCGroupListWnd@@UAEPAXI@Z 00504cf0 f i GroupList.obj
 0001:00103cf0       ??_ECGroupListWnd@@UAEPAXI@Z 00504cf0 f i GroupList.obj
 0001:00103d60       ??1CGroupListWnd@@UAE@XZ   00504d60 f i GroupList.obj
 0001:00103db0       ?CloseSelf@CGroupListWnd@@UAEX_N@Z 00504db0 f   GroupList.obj
 0001:00103e10       ?CompareNames@CGroupListWnd@@KGHHHPAVCSkinListCtrl@@@Z 00504e10 f   GroupList.obj
 0001:00103f40       ?Create@CGroupListWnd@@QAEHVCSCI_GroupList@@@Z 00504f40 f   GroupList.obj
 0001:00104270       ?MakeSkinCtrl@CGroupListWnd@@UAEPAVCSkinCtrl@@VCSkinObj@@@Z 00505270 f   GroupList.obj
 0001:001044c0       ??0CGroupListCtrl@@QAE@XZ  005054c0 f i GroupList.obj
 0001:00104540       ?OnItemActivate@CGroupListCtrl@@UAEXH_N@Z 00505540 f i GroupList.obj
 0001:00104750       ??_GCGroupListCtrl@@UAEPAXI@Z 00505750 f i GroupList.obj
 0001:00104750       ??_ECGroupListCtrl@@UAEPAXI@Z 00505750 f i GroupList.obj
 0001:001047c0       ??1CGroupListCtrl@@UAE@XZ  005057c0 f i GroupList.obj
 0001:00104840       ?Add@CGroupListWnd@@QAEXVCSCI_GroupMember@@@Z 00505840 f   GroupList.obj
 0001:001048f0       ?Delete@CGroupListWnd@@QAEXVCSCI_GroupMember@@@Z 005058f0 f   GroupList.obj
 0001:001049b0       ?SortByName@CGroupListWnd@@QAEXXZ 005059b0 f   GroupList.obj
 0001:00104a10       ??_ECGroupListCtrl@@WEA@AEPAXI@Z 00505a10 f i GroupList.obj
 0001:00104a20       ??_ECGroupListCtrl@@WHE@AEPAXI@Z 00505a20 f i GroupList.obj
 0001:00104a30       ?get_size@CSCI_Collection@@QAEFXZ 00505a30 f i GroupList.obj
 0001:00104a80       ?get_pName@CSCI_GroupMember@@QAE?AVStringID@@XZ 00505a80 f i GroupList.obj
 0001:00104af0       ?get_pLeader@CSCI_GroupList@@QAE?AVCSCI_GroupMember@@XZ 00505af0 f i GroupList.obj
 0001:00104d00       ?groupLeader@@YA_NXZ       00505d00 f   GroupVerbs.obj
 0001:00104e00       ??0CSCI_GroupMember@@QAE@ABV0@@Z 00505e00 f i GroupVerbs.obj
 0001:00104e50       ?groupMember@@YAFPBD@Z     00505e50 f   GroupVerbs.obj
 0001:00104fe0       ??0CGroupVerbHandler@@QAE@XZ 00505fe0 f i GroupVerbs.obj
 0001:00105040       ?HandleVerb@CGroupVerbHandler@@UAEHHVCSCI_WorldObject@@@Z 00506040 f i GroupVerbs.obj
 0001:001053a0       ??1CGroupVerbHandler@@UAE@XZ 005063a0 f i GroupVerbs.obj
 0001:001053f0       ??_GCGroupVerbHandler@@UAEPAXI@Z 005063f0 f i GroupVerbs.obj
 0001:001053f0       ??_ECGroupVerbHandler@@UAEPAXI@Z 005063f0 f i GroupVerbs.obj
 0001:00105460       ??0CSCI_GroupList@@QAE@ABV0@@Z 00506460 f i GroupVerbs.obj
 0001:001054b0       ??0CGroupVerbs@@QAE@XZ     005064b0 f   GroupVerbs.obj
 0001:00105520       ??_ECGroupVerbs@@UAEPAXI@Z 00506520 f i GroupVerbs.obj
 0001:00105520       ??_GCGroupVerbs@@UAEPAXI@Z 00506520 f i GroupVerbs.obj
 0001:00105590       ??1CGroupVerbs@@UAE@XZ     00506590 f   GroupVerbs.obj
 0001:001055e0       ?Create@CGroupVerbs@@UAEHXZ 005065e0 f   GroupVerbs.obj
 0001:00105850       ?get_pWhoToFollow@CSCI_WorldActor@@QAE?AVCSCI_LongInt@@XZ 00506850 f i GroupVerbs.obj
 0001:001058b0       ?get_pServID@CSCI_GroupMember@@QAE?AVCSCI_LongInt@@XZ 005068b0 f i GroupVerbs.obj
 0001:00105910       ??0CSCI_GroupList@@QAE@G@Z 00506910 f i GroupVerbs.obj
 0001:00105960       ??0CSCI_Set@@QAE@G@Z       00506960 f i GroupVerbs.obj
 0001:001059b0       ?getGroup_Open@CToonSettings@@QAEHXZ 005069b0 f i GroupVerbs.obj
 0001:00105db0       ??0CGspSettingsDlg@@QAE@XZ 00506db0 f   GspSettings.obj
 0001:00105ee0       ??_GCGspSettingsDlg@@UAEPAXI@Z 00506ee0 f i GspSettings.obj
 0001:00105ee0       ??_ECGspSettingsDlg@@UAEPAXI@Z 00506ee0 f i GspSettings.obj
 0001:00105f50       ??1CGspSettingsDlg@@UAE@XZ 00506f50 f i GspSettings.obj
 0001:00105fa0       ?CloseSelf@CGspSettingsDlg@@UAEX_N@Z 00506fa0 f   GspSettings.obj
 0001:00106000       ?Create@CGspSettingsDlg@@QAEH_N@Z 00507000 f   GspSettings.obj
 0001:001062b0       ?MakeSkinCtrl@CGspSettingsDlg@@UAEPAVCSkinCtrl@@VCSkinObj@@@Z 005072b0 f   GspSettings.obj
 0001:00106b10       ?Process@CGspSettingsDlg@@QAEXXZ 00507b10 f   GspSettings.obj
 0001:00106d80       ?Update@CGspSettingsDlg@@QAEXPBD0@Z 00507d80 f   GspSettings.obj
 0001:00106df0       ??0CGspViewerDlg@@QAE@XZ   00507df0 f   GspSettings.obj
 0001:00106e70       ??_ECGspViewerDlg@@UAEPAXI@Z 00507e70 f i GspSettings.obj
 0001:00106e70       ??_GCGspViewerDlg@@UAEPAXI@Z 00507e70 f i GspSettings.obj
 0001:00106ee0       ??1CGspViewerDlg@@UAE@XZ   00507ee0 f i GspSettings.obj
 0001:00106f30       ?CloseSelf@CGspViewerDlg@@UAEX_N@Z 00507f30 f   GspSettings.obj
 0001:00106f90       ?Create@CGspViewerDlg@@QAEHXZ 00507f90 f   GspSettings.obj
 0001:00107120       ?MakeSkinCtrl@CGspViewerDlg@@UAEPAVCSkinCtrl@@VCSkinObj@@@Z 00508120 f   GspSettings.obj
 0001:00107480       ?Update@CGspViewerDlg@@QAEXPBD0@Z 00508480 f   GspSettings.obj
 0001:001074f0       ??0CCreateBtn@@QAE@VCSkinObj@@PAVCSkinWnd@@_N@Z 005084f0 f   GspSettings.obj
 0001:001075e0       ??_ECCreateBtn@@UAEPAXI@Z  005085e0 f i GspSettings.obj
 0001:001075e0       ??_GCCreateBtn@@UAEPAXI@Z  005085e0 f i GspSettings.obj
 0001:00107650       ??1CCreateBtn@@UAE@XZ      00508650 f i GspSettings.obj
 0001:001076a0       ?OnActivate@CCreateBtn@@UAEXFF@Z 005086a0 f   GspSettings.obj
 0001:00107700       ?getChannel_Topic@CToonSettings@@QAE?AVCString@@XZ 00508700 f i GspSettings.obj
 0001:00107770       ?getChannel_Password@CToonSettings@@QAE?AVCString@@XZ 00508770 f i GspSettings.obj
 0001:00107860       ??0CHelpVerbHandler@@QAE@XZ 00508860 f i HelpVerbs.obj
 0001:001078c0       ?HandleVerb@CHelpVerbHandler@@UAEHHVCSCI_WorldObject@@@Z 005088c0 f i HelpVerbs.obj
 0001:00107bb0       ??1CHelpVerbHandler@@UAE@XZ 00508bb0 f i HelpVerbs.obj
 0001:00107c00       ??_GCHelpVerbHandler@@UAEPAXI@Z 00508c00 f i HelpVerbs.obj
 0001:00107c00       ??_ECHelpVerbHandler@@UAEPAXI@Z 00508c00 f i HelpVerbs.obj
 0001:00107c70       ??0CHelpVerbs@@QAE@XZ      00508c70 f   HelpVerbs.obj
 0001:00107ce0       ??_ECHelpVerbs@@UAEPAXI@Z  00508ce0 f i HelpVerbs.obj
 0001:00107ce0       ??_GCHelpVerbs@@UAEPAXI@Z  00508ce0 f i HelpVerbs.obj
 0001:00107d50       ??1CHelpVerbs@@UAE@XZ      00508d50 f   HelpVerbs.obj
 0001:00107da0       ?Create@CHelpVerbs@@UAEHXZ 00508da0 f   HelpVerbs.obj
 0001:00107e90       ??0CEmotesDlg@@QAE@XZ      00508e90 f   HelpVerbs.obj
 0001:00107ef0       ??_ECEmotesDlg@@UAEPAXI@Z  00508ef0 f i HelpVerbs.obj
 0001:00107ef0       ??_GCEmotesDlg@@UAEPAXI@Z  00508ef0 f i HelpVerbs.obj
 0001:00107f60       ??1CEmotesDlg@@UAE@XZ      00508f60 f i HelpVerbs.obj
 0001:00107fb0       ?CloseSelf@CEmotesDlg@@UAEX_N@Z 00508fb0 f   HelpVerbs.obj
 0001:00108010       ?Create@CEmotesDlg@@QAEHXZ 00509010 f   HelpVerbs.obj
 0001:00108090       ??0CCreditsDlg@@QAE@XZ     00509090 f   HelpVerbs.obj
 0001:001080f0       ??_ECCreditsDlg@@UAEPAXI@Z 005090f0 f i HelpVerbs.obj
 0001:001080f0       ??_GCCreditsDlg@@UAEPAXI@Z 005090f0 f i HelpVerbs.obj
 0001:00108160       ??1CCreditsDlg@@UAE@XZ     00509160 f i HelpVerbs.obj
 0001:001081b0       ?CloseSelf@CCreditsDlg@@UAEX_N@Z 005091b0 f   HelpVerbs.obj
 0001:001082d0       ?Create@CCreditsDlg@@QAEHXZ 005092d0 f   HelpVerbs.obj
 0001:00108550       ??1?$map@VCSkinObj@@PAVCFastScrollCtrl@@U?$less@VCSkinObj@@@std@@V?$allocator@PAVCFastScrollCtrl@@@4@@std@@QAE@XZ 00509550 f i inventorydlg.obj
 0001:001085a0       ??0CFastScrollCtrl@@QAE@VCSkinObj@@PAVCSkinWnd@@H@Z 005095a0 f   inventorydlg.obj
 0001:001086a0       ??_ECFastScrollCtrl@@UAEPAXI@Z 005096a0 f i inventorydlg.obj
 0001:001086a0       ??_GCFastScrollCtrl@@UAEPAXI@Z 005096a0 f i inventorydlg.obj
 0001:00108710       ??1CFastScrollCtrl@@UAE@XZ 00509710 f   inventorydlg.obj
 0001:001087e0       ?Refresh@CFastScrollCtrl@@UAEXXZ 005097e0 f   inventorydlg.obj
 0001:00108810       ?GetCursor@CFastScrollCtrl@@UAEPAUHICON__@@XZ 00509810 f   inventorydlg.obj
 0001:00108860       ?SetScrollable@CFastScrollCtrl@@QAEXPAVCScrollable@@@Z 00509860 f   inventorydlg.obj
 0001:001088a0       ?Scroll@CFastScrollCtrl@@QAEXXZ 005098a0 f   inventorydlg.obj
 0001:00108960       ?FromScreenPoint@CFastScrollCtrl@@SAPAV1@AAVCPoint@@@Z 00509960 f   inventorydlg.obj
 0001:00108ce0       ??1?$map@VCSCI_WorldObject@@PAVCInventoryDlg@@U?$less@VCSCI_WorldObject@@@std@@V?$allocator@PAVCInventoryDlg@@@4@@std@@QAE@XZ 00509ce0 f i inventorydlg.obj
 0001:00108e80       ??0CInventoryDlg@@QAE@XZ   00509e80 f   inventorydlg.obj
 0001:00108fa0       ??_ECInventoryDlg@@UAEPAXI@Z 00509fa0 f i inventorydlg.obj
 0001:00108fa0       ??_GCInventoryDlg@@UAEPAXI@Z 00509fa0 f i inventorydlg.obj
 0001:00109010       ??1CInventoryDlg@@UAE@XZ   0050a010 f   inventorydlg.obj
 0001:001091a0       ?EnableGameModal@CInventoryDlg@@UAEXHPAH@Z 0050a1a0 f   inventorydlg.obj
 0001:00109210       ?DisableGameModal@CInventoryDlg@@UAEXHPAH_N@Z 0050a210 f   inventorydlg.obj
 0001:00109280       ?Create@CInventoryDlg@@QAEHVCSCI_WorldObject@@@Z 0050a280 f   inventorydlg.obj
 0001:00109a80       ?AddObject@CInventoryDlg@@QAEXVCSCI_WorldObject@@@Z 0050aa80 f   inventorydlg.obj
 0001:00109c40       ?DelObject@CInventoryDlg@@QAEXVCSCI_WorldObject@@@Z 0050ac40 f   inventorydlg.obj
 0001:00109cd0       ?UpdateObject@CInventoryDlg@@QAEXVCSCI_WorldObject@@@Z 0050acd0 f   inventorydlg.obj
 0001:00109da0       ?UpdateObjectIcon@CInventoryDlg@@QAEXVCSCI_WorldObject@@H@Z 0050ada0 f   inventorydlg.obj
 0001:00109ee0       ??0CSCI_BWeapon@@QAE@ABV0@@Z 0050aee0 f i inventorydlg.obj
 0001:00109f30       ?FromObject@CInventoryDlg@@SAPAV1@VCSCI_WorldObject@@@Z 0050af30 f   inventorydlg.obj
 0001:00109fc0       ?MakeSkinCtrl@CInventoryDlg@@UAEPAVCSkinCtrl@@VCSkinObj@@@Z 0050afc0 f   inventorydlg.obj
 0001:0010a360       ??0?$map@VCSkinObj@@PAVCFastScrollCtrl@@U?$less@VCSkinObj@@@std@@V?$allocator@PAVCFastScrollCtrl@@@4@@std@@QAE@ABU?$less@VCSkinObj@@@1@ABV?$allocator@PAVCFastScrollCtrl@@@1@@Z 0050b360 f i inventorydlg.obj
 0001:0010a3c0       ?end@?$map@VCSkinObj@@PAVCFastScrollCtrl@@U?$less@VCSkinObj@@@std@@V?$allocator@PAVCFastScrollCtrl@@@4@@std@@QAE?AViterator@?$_Tree@VCSkinObj@@U?$pair@$$CBVCSkinObj@@PAVCFastScrollCtrl@@@std@@U_Kfn@?$map@VCSkinObj@@PAVCFastScrollCtrl@@U?$less@VCSkinObj@@@std@@V?$allocator@PAVCFastScrollCtrl@@@4@@3@U?$less@VCSkinObj@@@3@V?$allocator@PAVCFastScrollCtrl@@@3@@2@XZ 0050b3c0 f i inventorydlg.obj
 0001:0010a420       ??A?$map@VCSkinObj@@PAVCFastScrollCtrl@@U?$less@VCSkinObj@@@std@@V?$allocator@PAVCFastScrollCtrl@@@4@@std@@QAEAAPAVCFastScrollCtrl@@ABVCSkinObj@@@Z 0050b420 f i inventorydlg.obj
 0001:0010a4f0       ?erase@?$map@VCSkinObj@@PAVCFastScrollCtrl@@U?$less@VCSkinObj@@@std@@V?$allocator@PAVCFastScrollCtrl@@@4@@std@@QAEIABVCSkinObj@@@Z 0050b4f0 f i inventorydlg.obj
 0001:0010a540       ?find@?$map@VCSkinObj@@PAVCFastScrollCtrl@@U?$less@VCSkinObj@@@std@@V?$allocator@PAVCFastScrollCtrl@@@4@@std@@QAE?AViterator@?$_Tree@VCSkinObj@@U?$pair@$$CBVCSkinObj@@PAVCFastScrollCtrl@@@std@@U_Kfn@?$map@VCSkinObj@@PAVCFastScrollCtrl@@U?$less@VCSkinObj@@@std@@V?$allocator@PAVCFastScrollCtrl@@@4@@3@U?$less@VCSkinObj@@@3@V?$allocator@PAVCFastScrollCtrl@@@3@@2@ABVCSkinObj@@@Z 0050b540 f i inventorydlg.obj
 0001:0010a5a0       ??1?$_Tree@VCSkinObj@@U?$pair@$$CBVCSkinObj@@PAVCFastScrollCtrl@@@std@@U_Kfn@?$map@VCSkinObj@@PAVCFastScrollCtrl@@U?$less@VCSkinObj@@@std@@V?$allocator@PAVCFastScrollCtrl@@@4@@3@U?$less@VCSkinObj@@@3@V?$allocator@PAVCFastScrollCtrl@@@3@@std@@QAE@XZ 0050b5a0 f i inventorydlg.obj
 0001:0010a6e0       ??0iterator@?$_Tree@VCSkinObj@@U?$pair@$$CBVCSkinObj@@PAVCFastScrollCtrl@@@std@@U_Kfn@?$map@VCSkinObj@@PAVCFastScrollCtrl@@U?$less@VCSkinObj@@@std@@V?$allocator@PAVCFastScrollCtrl@@@4@@3@U?$less@VCSkinObj@@@3@V?$allocator@PAVCFastScrollCtrl@@@3@@std@@QAE@XZ 0050b6e0 f i inventorydlg.obj
 0001:0010a730       ??Diterator@?$_Tree@VCSkinObj@@U?$pair@$$CBVCSkinObj@@PAVCFastScrollCtrl@@@std@@U_Kfn@?$map@VCSkinObj@@PAVCFastScrollCtrl@@U?$less@VCSkinObj@@@std@@V?$allocator@PAVCFastScrollCtrl@@@4@@3@U?$less@VCSkinObj@@@3@V?$allocator@PAVCFastScrollCtrl@@@3@@std@@QBEAAU?$pair@$$CBVCSkinObj@@PAVCFastScrollCtrl@@@2@XZ 0050b730 f i inventorydlg.obj
 0001:0010a780       ??9iterator@?$_Tree@VCSkinObj@@U?$pair@$$CBVCSkinObj@@PAVCFastScrollCtrl@@@std@@U_Kfn@?$map@VCSkinObj@@PAVCFastScrollCtrl@@U?$less@VCSkinObj@@@std@@V?$allocator@PAVCFastScrollCtrl@@@4@@3@U?$less@VCSkinObj@@@3@V?$allocator@PAVCFastScrollCtrl@@@3@@std@@QBE_NABV012@@Z 0050b780 f i inventorydlg.obj
 0001:0010a7e0       ??0?$map@VCSCI_WorldObject@@PAVCInventoryDlg@@U?$less@VCSCI_WorldObject@@@std@@V?$allocator@PAVCInventoryDlg@@@4@@std@@QAE@ABU?$less@VCSCI_WorldObject@@@1@ABV?$allocator@PAVCInventoryDlg@@@1@@Z 0050b7e0 f i inventorydlg.obj
 0001:0010a840       ?end@?$map@VCSCI_WorldObject@@PAVCInventoryDlg@@U?$less@VCSCI_WorldObject@@@std@@V?$allocator@PAVCInventoryDlg@@@4@@std@@QAE?AViterator@?$_Tree@VCSCI_WorldObject@@U?$pair@$$CBVCSCI_WorldObject@@PAVCInventoryDlg@@@std@@U_Kfn@?$map@VCSCI_WorldObject@@PAVCInventoryDlg@@U?$less@VCSCI_WorldObject@@@std@@V?$allocator@PAVCInventoryDlg@@@4@@3@U?$less@VCSCI_WorldObject@@@3@V?$allocator@PAVCInventoryDlg@@@3@@2@XZ 0050b840 f i inventorydlg.obj
 0001:0010a8a0       ??A?$map@VCSCI_WorldObject@@PAVCInventoryDlg@@U?$less@VCSCI_WorldObject@@@std@@V?$allocator@PAVCInventoryDlg@@@4@@std@@QAEAAPAVCInventoryDlg@@ABVCSCI_WorldObject@@@Z 0050b8a0 f i inventorydlg.obj
 0001:0010a920       ?erase@?$map@VCSCI_WorldObject@@PAVCInventoryDlg@@U?$less@VCSCI_WorldObject@@@std@@V?$allocator@PAVCInventoryDlg@@@4@@std@@QAEIABVCSCI_WorldObject@@@Z 0050b920 f i inventorydlg.obj
 0001:0010a970       ?find@?$map@VCSCI_WorldObject@@PAVCInventoryDlg@@U?$less@VCSCI_WorldObject@@@std@@V?$allocator@PAVCInventoryDlg@@@4@@std@@QAE?AViterator@?$_Tree@VCSCI_WorldObject@@U?$pair@$$CBVCSCI_WorldObject@@PAVCInventoryDlg@@@std@@U_Kfn@?$map@VCSCI_WorldObject@@PAVCInventoryDlg@@U?$less@VCSCI_WorldObject@@@std@@V?$allocator@PAVCInventoryDlg@@@4@@3@U?$less@VCSCI_WorldObject@@@3@V?$allocator@PAVCInventoryDlg@@@3@@2@ABVCSCI_WorldObject@@@Z 0050b970 f i inventorydlg.obj
 0001:0010a9d0       ??1?$_Tree@VCSCI_WorldObject@@U?$pair@$$CBVCSCI_WorldObject@@PAVCInventoryDlg@@@std@@U_Kfn@?$map@VCSCI_WorldObject@@PAVCInventoryDlg@@U?$less@VCSCI_WorldObject@@@std@@V?$allocator@PAVCInventoryDlg@@@4@@3@U?$less@VCSCI_WorldObject@@@3@V?$allocator@PAVCInventoryDlg@@@3@@std@@QAE@XZ 0050b9d0 f i inventorydlg.obj
 0001:0010ab10       ??Diterator@?$_Tree@VCSCI_WorldObject@@U?$pair@$$CBVCSCI_WorldObject@@PAVCInventoryDlg@@@std@@U_Kfn@?$map@VCSCI_WorldObject@@PAVCInventoryDlg@@U?$less@VCSCI_WorldObject@@@std@@V?$allocator@PAVCInventoryDlg@@@4@@3@U?$less@VCSCI_WorldObject@@@3@V?$allocator@PAVCInventoryDlg@@@3@@std@@QBEAAU?$pair@$$CBVCSCI_WorldObject@@PAVCInventoryDlg@@@2@XZ 0050bb10 f i inventorydlg.obj
 0001:0010ab60       ??8iterator@?$_Tree@VCSCI_WorldObject@@U?$pair@$$CBVCSCI_WorldObject@@PAVCInventoryDlg@@@std@@U_Kfn@?$map@VCSCI_WorldObject@@PAVCInventoryDlg@@U?$less@VCSCI_WorldObject@@@std@@V?$allocator@PAVCInventoryDlg@@@4@@3@U?$less@VCSCI_WorldObject@@@3@V?$allocator@PAVCInventoryDlg@@@3@@std@@QBE_NABV012@@Z 0050bb60 f i inventorydlg.obj
 0001:0010abb0       ??0?$list@PAVCInventoryDlg@@V?$allocator@PAVCInventoryDlg@@@std@@@std@@QAE@ABV?$allocator@PAVCInventoryDlg@@@1@@Z 0050bbb0 f i inventorydlg.obj
 0001:0010ac20       ??1?$list@PAVCInventoryDlg@@V?$allocator@PAVCInventoryDlg@@@std@@@std@@QAE@XZ 0050bc20 f i inventorydlg.obj
 0001:0010acc0       ?begin@?$list@PAVCInventoryDlg@@V?$allocator@PAVCInventoryDlg@@@std@@@std@@QAE?AViterator@12@XZ 0050bcc0 f i inventorydlg.obj
 0001:0010ad30       ?size@?$list@PAVCInventoryDlg@@V?$allocator@PAVCInventoryDlg@@@std@@@std@@QBEIXZ 0050bd30 f i inventorydlg.obj
 0001:0010ad70       ?push_back@?$list@PAVCInventoryDlg@@V?$allocator@PAVCInventoryDlg@@@std@@@std@@QAEXABQAVCInventoryDlg@@@Z 0050bd70 f i inventorydlg.obj
 0001:0010ade0       ?remove@?$list@PAVCInventoryDlg@@V?$allocator@PAVCInventoryDlg@@@std@@@std@@QAEXABQAVCInventoryDlg@@@Z 0050bde0 f i inventorydlg.obj
 0001:0010aeb0       ??Diterator@?$list@PAVCInventoryDlg@@V?$allocator@PAVCInventoryDlg@@@std@@@std@@QBEAAPAVCInventoryDlg@@XZ 0050beb0 f i inventorydlg.obj
 0001:0010af00       ??1?$pair@$$CBVCSkinObj@@PAVCFastScrollCtrl@@@std@@QAE@XZ 0050bf00 f i inventorydlg.obj
 0001:0010af50       ?insert@?$map@VCSkinObj@@PAVCFastScrollCtrl@@U?$less@VCSkinObj@@@std@@V?$allocator@PAVCFastScrollCtrl@@@4@@std@@QAE?AU?$pair@Viterator@?$_Tree@VCSkinObj@@U?$pair@$$CBVCSkinObj@@PAVCFastScrollCtrl@@@std@@U_Kfn@?$map@VCSkinObj@@PAVCFastScrollCtrl@@U?$less@VCSkinObj@@@std@@V?$allocator@PAVCFastScrollCtrl@@@4@@3@U?$less@VCSkinObj@@@3@V?$allocator@PAVCFastScrollCtrl@@@3@@std@@_N@2@ABU?$pair@$$CBVCSkinObj@@PAVCFastScrollCtrl@@@2@@Z 0050bf50 f i inventorydlg.obj
 0001:0010afe0       ?_Value@?$_Tree@VCSkinObj@@U?$pair@$$CBVCSkinObj@@PAVCFastScrollCtrl@@@std@@U_Kfn@?$map@VCSkinObj@@PAVCFastScrollCtrl@@U?$less@VCSkinObj@@@std@@V?$allocator@PAVCFastScrollCtrl@@@4@@3@U?$less@VCSkinObj@@@3@V?$allocator@PAVCFastScrollCtrl@@@3@@std@@KAAAU?$pair@$$CBVCSkinObj@@PAVCFastScrollCtrl@@@2@PAU_Node@12@@Z 0050bfe0 f i inventorydlg.obj
 0001:0010b010       ??0?$_Tree@VCSkinObj@@U?$pair@$$CBVCSkinObj@@PAVCFastScrollCtrl@@@std@@U_Kfn@?$map@VCSkinObj@@PAVCFastScrollCtrl@@U?$less@VCSkinObj@@@std@@V?$allocator@PAVCFastScrollCtrl@@@4@@3@U?$less@VCSkinObj@@@3@V?$allocator@PAVCFastScrollCtrl@@@3@@std@@QAE@ABU?$less@VCSkinObj@@@1@_NABV?$allocator@PAVCFastScrollCtrl@@@1@@Z 0050c010 f i inventorydlg.obj
 0001:0010b080       ?begin@?$_Tree@VCSkinObj@@U?$pair@$$CBVCSkinObj@@PAVCFastScrollCtrl@@@std@@U_Kfn@?$map@VCSkinObj@@PAVCFastScrollCtrl@@U?$less@VCSkinObj@@@std@@V?$allocator@PAVCFastScrollCtrl@@@4@@3@U?$less@VCSkinObj@@@3@V?$allocator@PAVCFastScrollCtrl@@@3@@std@@QAE?AViterator@12@XZ 0050c080 f i inventorydlg.obj
 0001:0010b0e0       ?end@?$_Tree@VCSkinObj@@U?$pair@$$CBVCSkinObj@@PAVCFastScrollCtrl@@@std@@U_Kfn@?$map@VCSkinObj@@PAVCFastScrollCtrl@@U?$less@VCSkinObj@@@std@@V?$allocator@PAVCFastScrollCtrl@@@4@@3@U?$less@VCSkinObj@@@3@V?$allocator@PAVCFastScrollCtrl@@@3@@std@@QAE?AViterator@12@XZ 0050c0e0 f i inventorydlg.obj
 0001:0010b140       ?erase@?$_Tree@VCSkinObj@@U?$pair@$$CBVCSkinObj@@PAVCFastScrollCtrl@@@std@@U_Kfn@?$map@VCSkinObj@@PAVCFastScrollCtrl@@U?$less@VCSkinObj@@@std@@V?$allocator@PAVCFastScrollCtrl@@@4@@3@U?$less@VCSkinObj@@@3@V?$allocator@PAVCFastScrollCtrl@@@3@@std@@QAE?AViterator@12@V312@0@Z 0050c140 f i inventorydlg.obj
 0001:0010b310       ?erase@?$_Tree@VCSkinObj@@U?$pair@$$CBVCSkinObj@@PAVCFastScrollCtrl@@@std@@U_Kfn@?$map@VCSkinObj@@PAVCFastScrollCtrl@@U?$less@VCSkinObj@@@std@@V?$allocator@PAVCFastScrollCtrl@@@4@@3@U?$less@VCSkinObj@@@3@V?$allocator@PAVCFastScrollCtrl@@@3@@std@@QAEIABVCSkinObj@@@Z 0050c310 f i inventorydlg.obj
 0001:0010b3b0       ?find@?$_Tree@VCSkinObj@@U?$pair@$$CBVCSkinObj@@PAVCFastScrollCtrl@@@std@@U_Kfn@?$map@VCSkinObj@@PAVCFastScrollCtrl@@U?$less@VCSkinObj@@@std@@V?$allocator@PAVCFastScrollCtrl@@@4@@3@U?$less@VCSkinObj@@@3@V?$allocator@PAVCFastScrollCtrl@@@3@@std@@QAE?AViterator@12@ABVCSkinObj@@@Z 0050c3b0 f i inventorydlg.obj
 0001:0010b4a0       ?_Freenode@?$_Tree@VCSkinObj@@U?$pair@$$CBVCSkinObj@@PAVCFastScrollCtrl@@@std@@U_Kfn@?$map@VCSkinObj@@PAVCFastScrollCtrl@@U?$less@VCSkinObj@@@std@@V?$allocator@PAVCFastScrollCtrl@@@4@@3@U?$less@VCSkinObj@@@3@V?$allocator@PAVCFastScrollCtrl@@@3@@std@@IAEXPAU_Node@12@@Z 0050c4a0 f i inventorydlg.obj
 0001:0010b4f0       ??0?$pair@$$CBVCSkinObj@@PAVCFastScrollCtrl@@@std@@QAE@ABVCSkinObj@@ABQAVCFastScrollCtrl@@@Z 0050c4f0 f i inventorydlg.obj
 0001:0010b550       ??0const_iterator@?$_Tree@VCSkinObj@@U?$pair@$$CBVCSkinObj@@PAVCFastScrollCtrl@@@std@@U_Kfn@?$map@VCSkinObj@@PAVCFastScrollCtrl@@U?$less@VCSkinObj@@@std@@V?$allocator@PAVCFastScrollCtrl@@@4@@3@U?$less@VCSkinObj@@@3@V?$allocator@PAVCFastScrollCtrl@@@3@@std@@QAE@XZ 0050c550 f i inventorydlg.obj
 0001:0010b580       ??8iterator@?$_Tree@VCSkinObj@@U?$pair@$$CBVCSkinObj@@PAVCFastScrollCtrl@@@std@@U_Kfn@?$map@VCSkinObj@@PAVCFastScrollCtrl@@U?$less@VCSkinObj@@@std@@V?$allocator@PAVCFastScrollCtrl@@@4@@3@U?$less@VCSkinObj@@@3@V?$allocator@PAVCFastScrollCtrl@@@3@@std@@QBE_NABV012@@Z 0050c580 f i inventorydlg.obj
 0001:0010b5d0       ?insert@?$map@VCSCI_WorldObject@@PAVCInventoryDlg@@U?$less@VCSCI_WorldObject@@@std@@V?$allocator@PAVCInventoryDlg@@@4@@std@@QAE?AU?$pair@Viterator@?$_Tree@VCSCI_WorldObject@@U?$pair@$$CBVCSCI_WorldObject@@PAVCInventoryDlg@@@std@@U_Kfn@?$map@VCSCI_WorldObject@@PAVCInventoryDlg@@U?$less@VCSCI_WorldObject@@@std@@V?$allocator@PAVCInventoryDlg@@@4@@3@U?$less@VCSCI_WorldObject@@@3@V?$allocator@PAVCInventoryDlg@@@3@@std@@_N@2@ABU?$pair@$$CBVCSCI_WorldObject@@PAVCInventoryDlg@@@2@@Z 0050c5d0 f i inventorydlg.obj
 0001:0010b660       ?_Value@?$_Tree@VCSCI_WorldObject@@U?$pair@$$CBVCSCI_WorldObject@@PAVCInventoryDlg@@@std@@U_Kfn@?$map@VCSCI_WorldObject@@PAVCInventoryDlg@@U?$less@VCSCI_WorldObject@@@std@@V?$allocator@PAVCInventoryDlg@@@4@@3@U?$less@VCSCI_WorldObject@@@3@V?$allocator@PAVCInventoryDlg@@@3@@std@@KAAAU?$pair@$$CBVCSCI_WorldObject@@PAVCInventoryDlg@@@2@PAU_Node@12@@Z 0050c660 f i inventorydlg.obj
 0001:0010b690       ??0?$_Tree@VCSCI_WorldObject@@U?$pair@$$CBVCSCI_WorldObject@@PAVCInventoryDlg@@@std@@U_Kfn@?$map@VCSCI_WorldObject@@PAVCInventoryDlg@@U?$less@VCSCI_WorldObject@@@std@@V?$allocator@PAVCInventoryDlg@@@4@@3@U?$less@VCSCI_WorldObject@@@3@V?$allocator@PAVCInventoryDlg@@@3@@std@@QAE@ABU?$less@VCSCI_WorldObject@@@1@_NABV?$allocator@PAVCInventoryDlg@@@1@@Z 0050c690 f i inventorydlg.obj
 0001:0010b700       ?begin@?$_Tree@VCSCI_WorldObject@@U?$pair@$$CBVCSCI_WorldObject@@PAVCInventoryDlg@@@std@@U_Kfn@?$map@VCSCI_WorldObject@@PAVCInventoryDlg@@U?$less@VCSCI_WorldObject@@@std@@V?$allocator@PAVCInventoryDlg@@@4@@3@U?$less@VCSCI_WorldObject@@@3@V?$allocator@PAVCInventoryDlg@@@3@@std@@QAE?AViterator@12@XZ 0050c700 f i inventorydlg.obj
 0001:0010b760       ?end@?$_Tree@VCSCI_WorldObject@@U?$pair@$$CBVCSCI_WorldObject@@PAVCInventoryDlg@@@std@@U_Kfn@?$map@VCSCI_WorldObject@@PAVCInventoryDlg@@U?$less@VCSCI_WorldObject@@@std@@V?$allocator@PAVCInventoryDlg@@@4@@3@U?$less@VCSCI_WorldObject@@@3@V?$allocator@PAVCInventoryDlg@@@3@@std@@QAE?AViterator@12@XZ 0050c760 f i inventorydlg.obj
 0001:0010b7c0       ?erase@?$_Tree@VCSCI_WorldObject@@U?$pair@$$CBVCSCI_WorldObject@@PAVCInventoryDlg@@@std@@U_Kfn@?$map@VCSCI_WorldObject@@PAVCInventoryDlg@@U?$less@VCSCI_WorldObject@@@std@@V?$allocator@PAVCInventoryDlg@@@4@@3@U?$less@VCSCI_WorldObject@@@3@V?$allocator@PAVCInventoryDlg@@@3@@std@@QAE?AViterator@12@V312@0@Z 0050c7c0 f i inventorydlg.obj
 0001:0010b990       ?erase@?$_Tree@VCSCI_WorldObject@@U?$pair@$$CBVCSCI_WorldObject@@PAVCInventoryDlg@@@std@@U_Kfn@?$map@VCSCI_WorldObject@@PAVCInventoryDlg@@U?$less@VCSCI_WorldObject@@@std@@V?$allocator@PAVCInventoryDlg@@@4@@3@U?$less@VCSCI_WorldObject@@@3@V?$allocator@PAVCInventoryDlg@@@3@@std@@QAEIABVCSCI_WorldObject@@@Z 0050c990 f i inventorydlg.obj
 0001:0010ba30       ?find@?$_Tree@VCSCI_WorldObject@@U?$pair@$$CBVCSCI_WorldObject@@PAVCInventoryDlg@@@std@@U_Kfn@?$map@VCSCI_WorldObject@@PAVCInventoryDlg@@U?$less@VCSCI_WorldObject@@@std@@V?$allocator@PAVCInventoryDlg@@@4@@3@U?$less@VCSCI_WorldObject@@@3@V?$allocator@PAVCInventoryDlg@@@3@@std@@QAE?AViterator@12@ABVCSCI_WorldObject@@@Z 0050ca30 f i inventorydlg.obj
 0001:0010bb20       ?_Freenode@?$_Tree@VCSCI_WorldObject@@U?$pair@$$CBVCSCI_WorldObject@@PAVCInventoryDlg@@@std@@U_Kfn@?$map@VCSCI_WorldObject@@PAVCInventoryDlg@@U?$less@VCSCI_WorldObject@@@std@@V?$allocator@PAVCInventoryDlg@@@4@@3@U?$less@VCSCI_WorldObject@@@3@V?$allocator@PAVCInventoryDlg@@@3@@std@@IAEXPAU_Node@12@@Z 0050cb20 f i inventorydlg.obj
 0001:0010bb70       ??0?$pair@$$CBVCSCI_WorldObject@@PAVCInventoryDlg@@@std@@QAE@ABVCSCI_WorldObject@@ABQAVCInventoryDlg@@@Z 0050cb70 f i inventorydlg.obj
 0001:0010bbd0       ?end@?$list@PAVCInventoryDlg@@V?$allocator@PAVCInventoryDlg@@@std@@@std@@QAE?AViterator@12@XZ 0050cbd0 f i inventorydlg.obj
 0001:0010bc30       ?insert@?$list@PAVCInventoryDlg@@V?$allocator@PAVCInventoryDlg@@@std@@@std@@QAE?AViterator@12@V312@ABQAVCInventoryDlg@@@Z 0050cc30 f i inventorydlg.obj
 0001:0010bd40       ?erase@?$list@PAVCInventoryDlg@@V?$allocator@PAVCInventoryDlg@@@std@@@std@@QAE?AViterator@12@V312@@Z 0050cd40 f i inventorydlg.obj
 0001:0010be50       ?erase@?$list@PAVCInventoryDlg@@V?$allocator@PAVCInventoryDlg@@@std@@@std@@QAE?AViterator@12@V312@0@Z 0050ce50 f i inventorydlg.obj
 0001:0010bee0       ?_Buynode@?$list@PAVCInventoryDlg@@V?$allocator@PAVCInventoryDlg@@@std@@@std@@IAEPAU_Node@12@PAU312@0@Z 0050cee0 f i inventorydlg.obj
 0001:0010bf90       ?_Freenode@?$list@PAVCInventoryDlg@@V?$allocator@PAVCInventoryDlg@@@std@@@std@@IAEXPAU_Node@12@@Z 0050cf90 f i inventorydlg.obj
 0001:0010bfe0       ?_Next@_Acc@?$list@PAVCInventoryDlg@@V?$allocator@PAVCInventoryDlg@@@std@@@std@@SAAAPAU_Node@23@PAU423@@Z 0050cfe0 f i inventorydlg.obj
 0001:0010c010       ?_Value@_Acc@?$list@PAVCInventoryDlg@@V?$allocator@PAVCInventoryDlg@@@std@@@std@@SAAAPAVCInventoryDlg@@PAU_Node@23@@Z 0050d010 f i inventorydlg.obj
 0001:0010c040       ??0iterator@?$list@PAVCInventoryDlg@@V?$allocator@PAVCInventoryDlg@@@std@@@std@@QAE@PAU_Node@12@@Z 0050d040 f i inventorydlg.obj
 0001:0010c090       ??Eiterator@?$list@PAVCInventoryDlg@@V?$allocator@PAVCInventoryDlg@@@std@@@std@@QAEAAV012@XZ 0050d090 f i inventorydlg.obj
 0001:0010c0f0       ??Eiterator@?$list@PAVCInventoryDlg@@V?$allocator@PAVCInventoryDlg@@@std@@@std@@QAE?AV012@H@Z 0050d0f0 f i inventorydlg.obj
 0001:0010c150       ??9iterator@?$list@PAVCInventoryDlg@@V?$allocator@PAVCInventoryDlg@@@std@@@std@@QBE_NABV012@@Z 0050d150 f i inventorydlg.obj
 0001:0010c1b0       ??R?$less@VCSkinObj@@@std@@QBE_NABVCSkinObj@@0@Z 0050d1b0 f i inventorydlg.obj
 0001:0010c200       ?deallocate@?$allocator@PAVCFastScrollCtrl@@@std@@QAEXPAXI@Z 0050d200 f i inventorydlg.obj
 0001:0010c250       ?_Key@?$_Tree@VCSkinObj@@U?$pair@$$CBVCSkinObj@@PAVCFastScrollCtrl@@@std@@U_Kfn@?$map@VCSkinObj@@PAVCFastScrollCtrl@@U?$less@VCSkinObj@@@std@@V?$allocator@PAVCFastScrollCtrl@@@4@@3@U?$less@VCSkinObj@@@3@V?$allocator@PAVCFastScrollCtrl@@@3@@std@@KAABVCSkinObj@@PAU_Node@12@@Z 0050d250 f i inventorydlg.obj
 0001:0010c2a0       ?size@?$_Tree@VCSkinObj@@U?$pair@$$CBVCSkinObj@@PAVCFastScrollCtrl@@@std@@U_Kfn@?$map@VCSkinObj@@PAVCFastScrollCtrl@@U?$less@VCSkinObj@@@std@@V?$allocator@PAVCFastScrollCtrl@@@4@@3@U?$less@VCSkinObj@@@3@V?$allocator@PAVCFastScrollCtrl@@@3@@std@@QBEIXZ 0050d2a0 f i inventorydlg.obj
 0001:0010c2e0       ?insert@?$_Tree@VCSkinObj@@U?$pair@$$CBVCSkinObj@@PAVCFastScrollCtrl@@@std@@U_Kfn@?$map@VCSkinObj@@PAVCFastScrollCtrl@@U?$less@VCSkinObj@@@std@@V?$allocator@PAVCFastScrollCtrl@@@4@@3@U?$less@VCSkinObj@@@3@V?$allocator@PAVCFastScrollCtrl@@@3@@std@@QAE?AU?$pair@Viterator@?$_Tree@VCSkinObj@@U?$pair@$$CBVCSkinObj@@PAVCFastScrollCtrl@@@std@@U_Kfn@?$map@VCSkinObj@@PAVCFastScrollCtrl@@U?$less@VCSkinObj@@@std@@V?$allocator@PAVCFastScrollCtrl@@@4@@3@U?$less@VCSkinObj@@@3@V?$allocator@PAVCFastScrollCtrl@@@3@@std@@_N@2@ABU?$pair@$$CBVCSkinObj@@PAVCFastScrollCtrl@@@2@@Z 0050d2e0 f i inventorydlg.obj
 0001:0010c600       ?erase@?$_Tree@VCSkinObj@@U?$pair@$$CBVCSkinObj@@PAVCFastScrollCtrl@@@std@@U_Kfn@?$map@VCSkinObj@@PAVCFastScrollCtrl@@U?$less@VCSkinObj@@@std@@V?$allocator@PAVCFastScrollCtrl@@@4@@3@U?$less@VCSkinObj@@@3@V?$allocator@PAVCFastScrollCtrl@@@3@@std@@QAE?AViterator@12@V312@@Z 0050d600 f i inventorydlg.obj
 0001:0010d0a0       ?lower_bound@?$_Tree@VCSkinObj@@U?$pair@$$CBVCSkinObj@@PAVCFastScrollCtrl@@@std@@U_Kfn@?$map@VCSkinObj@@PAVCFastScrollCtrl@@U?$less@VCSkinObj@@@std@@V?$allocator@PAVCFastScrollCtrl@@@4@@3@U?$less@VCSkinObj@@@3@V?$allocator@PAVCFastScrollCtrl@@@3@@std@@QAE?AViterator@12@ABVCSkinObj@@@Z 0050e0a0 f i inventorydlg.obj
 0001:0010d110       ?equal_range@?$_Tree@VCSkinObj@@U?$pair@$$CBVCSkinObj@@PAVCFastScrollCtrl@@@std@@U_Kfn@?$map@VCSkinObj@@PAVCFastScrollCtrl@@U?$less@VCSkinObj@@@std@@V?$allocator@PAVCFastScrollCtrl@@@4@@3@U?$less@VCSkinObj@@@3@V?$allocator@PAVCFastScrollCtrl@@@3@@std@@QAE?AU?$pair@Viterator@?$_Tree@VCSkinObj@@U?$pair@$$CBVCSkinObj@@PAVCFastScrollCtrl@@@std@@U_Kfn@?$map@VCSkinObj@@PAVCFastScrollCtrl@@U?$less@VCSkinObj@@@std@@V?$allocator@PAVCFastScrollCtrl@@@4@@3@U?$less@VCSkinObj@@@3@V?$allocator@PAVCFastScrollCtrl@@@3@@std@@V123@@2@ABVCSkinObj@@@Z 0050e110 f i inventorydlg.obj
 0001:0010d1a0       ?_Erase@?$_Tree@VCSkinObj@@U?$pair@$$CBVCSkinObj@@PAVCFastScrollCtrl@@@std@@U_Kfn@?$map@VCSkinObj@@PAVCFastScrollCtrl@@U?$less@VCSkinObj@@@std@@V?$allocator@PAVCFastScrollCtrl@@@4@@3@U?$less@VCSkinObj@@@3@V?$allocator@PAVCFastScrollCtrl@@@3@@std@@IAEXPAU_Node@12@@Z 0050e1a0 f i inventorydlg.obj
 0001:0010d2c0       ?_Init@?$_Tree@VCSkinObj@@U?$pair@$$CBVCSkinObj@@PAVCFastScrollCtrl@@@std@@U_Kfn@?$map@VCSkinObj@@PAVCFastScrollCtrl@@U?$less@VCSkinObj@@@std@@V?$allocator@PAVCFastScrollCtrl@@@4@@3@U?$less@VCSkinObj@@@3@V?$allocator@PAVCFastScrollCtrl@@@3@@std@@IAEXXZ 0050e2c0 f i inventorydlg.obj
 0001:0010d420       ?_Lmost@?$_Tree@VCSkinObj@@U?$pair@$$CBVCSkinObj@@PAVCFastScrollCtrl@@@std@@U_Kfn@?$map@VCSkinObj@@PAVCFastScrollCtrl@@U?$less@VCSkinObj@@@std@@V?$allocator@PAVCFastScrollCtrl@@@4@@3@U?$less@VCSkinObj@@@3@V?$allocator@PAVCFastScrollCtrl@@@3@@std@@IAEAAPAU_Node@12@XZ 0050e420 f i inventorydlg.obj
 0001:0010d470       ?_Rmost@?$_Tree@VCSkinObj@@U?$pair@$$CBVCSkinObj@@PAVCFastScrollCtrl@@@std@@U_Kfn@?$map@VCSkinObj@@PAVCFastScrollCtrl@@U?$less@VCSkinObj@@@std@@V?$allocator@PAVCFastScrollCtrl@@@4@@3@U?$less@VCSkinObj@@@3@V?$allocator@PAVCFastScrollCtrl@@@3@@std@@IAEAAPAU_Node@12@XZ 0050e470 f i inventorydlg.obj
 0001:0010d4c0       ?_Root@?$_Tree@VCSkinObj@@U?$pair@$$CBVCSkinObj@@PAVCFastScrollCtrl@@@std@@U_Kfn@?$map@VCSkinObj@@PAVCFastScrollCtrl@@U?$less@VCSkinObj@@@std@@V?$allocator@PAVCFastScrollCtrl@@@4@@3@U?$less@VCSkinObj@@@3@V?$allocator@PAVCFastScrollCtrl@@@3@@std@@IAEAAPAU_Node@12@XZ 0050e4c0 f i inventorydlg.obj
 0001:0010d510       ?_Mynode@const_iterator@?$_Tree@VCSkinObj@@U?$pair@$$CBVCSkinObj@@PAVCFastScrollCtrl@@@std@@U_Kfn@?$map@VCSkinObj@@PAVCFastScrollCtrl@@U?$less@VCSkinObj@@@std@@V?$allocator@PAVCFastScrollCtrl@@@4@@3@U?$less@VCSkinObj@@@3@V?$allocator@PAVCFastScrollCtrl@@@3@@std@@QBEPAU_Node@23@XZ 0050e510 f i inventorydlg.obj
 0001:0010d550       ??0iterator@?$_Tree@VCSkinObj@@U?$pair@$$CBVCSkinObj@@PAVCFastScrollCtrl@@@std@@U_Kfn@?$map@VCSkinObj@@PAVCFastScrollCtrl@@U?$less@VCSkinObj@@@std@@V?$allocator@PAVCFastScrollCtrl@@@4@@3@U?$less@VCSkinObj@@@3@V?$allocator@PAVCFastScrollCtrl@@@3@@std@@QAE@PAU_Node@12@@Z 0050e550 f i inventorydlg.obj
 0001:0010d5a0       ??Eiterator@?$_Tree@VCSkinObj@@U?$pair@$$CBVCSkinObj@@PAVCFastScrollCtrl@@@std@@U_Kfn@?$map@VCSkinObj@@PAVCFastScrollCtrl@@U?$less@VCSkinObj@@@std@@V?$allocator@PAVCFastScrollCtrl@@@4@@3@U?$less@VCSkinObj@@@3@V?$allocator@PAVCFastScrollCtrl@@@3@@std@@QAE?AV012@H@Z 0050e5a0 f i inventorydlg.obj
 0001:0010d600       ??R?$less@VCSCI_WorldObject@@@std@@QBE_NABVCSCI_WorldObject@@0@Z 0050e600 f i inventorydlg.obj
 0001:0010d670       ?_Charalloc@?$allocator@PAVCInventoryDlg@@@std@@QAEPADI@Z 0050e670 f i inventorydlg.obj
 0001:0010d6c0       ?deallocate@?$allocator@PAVCInventoryDlg@@@std@@QAEXPAXI@Z 0050e6c0 f i inventorydlg.obj
 0001:0010d710       ?construct@?$allocator@PAVCInventoryDlg@@@std@@QAEXPAPAVCInventoryDlg@@ABQAV3@@Z 0050e710 f i inventorydlg.obj
 0001:0010d760       ?destroy@?$allocator@PAVCInventoryDlg@@@std@@QAEXPAPAVCInventoryDlg@@@Z 0050e760 f i inventorydlg.obj
 0001:0010d7b0       ?_Key@?$_Tree@VCSCI_WorldObject@@U?$pair@$$CBVCSCI_WorldObject@@PAVCInventoryDlg@@@std@@U_Kfn@?$map@VCSCI_WorldObject@@PAVCInventoryDlg@@U?$less@VCSCI_WorldObject@@@std@@V?$allocator@PAVCInventoryDlg@@@4@@3@U?$less@VCSCI_WorldObject@@@3@V?$allocator@PAVCInventoryDlg@@@3@@std@@KAABVCSCI_WorldObject@@PAU_Node@12@@Z 0050e7b0 f i inventorydlg.obj
 0001:0010d800       ?size@?$_Tree@VCSCI_WorldObject@@U?$pair@$$CBVCSCI_WorldObject@@PAVCInventoryDlg@@@std@@U_Kfn@?$map@VCSCI_WorldObject@@PAVCInventoryDlg@@U?$less@VCSCI_WorldObject@@@std@@V?$allocator@PAVCInventoryDlg@@@4@@3@U?$less@VCSCI_WorldObject@@@3@V?$allocator@PAVCInventoryDlg@@@3@@std@@QBEIXZ 0050e800 f i inventorydlg.obj
 0001:0010d840       ?insert@?$_Tree@VCSCI_WorldObject@@U?$pair@$$CBVCSCI_WorldObject@@PAVCInventoryDlg@@@std@@U_Kfn@?$map@VCSCI_WorldObject@@PAVCInventoryDlg@@U?$less@VCSCI_WorldObject@@@std@@V?$allocator@PAVCInventoryDlg@@@4@@3@U?$less@VCSCI_WorldObject@@@3@V?$allocator@PAVCInventoryDlg@@@3@@std@@QAE?AU?$pair@Viterator@?$_Tree@VCSCI_WorldObject@@U?$pair@$$CBVCSCI_WorldObject@@PAVCInventoryDlg@@@std@@U_Kfn@?$map@VCSCI_WorldObject@@PAVCInventoryDlg@@U?$less@VCSCI_WorldObject@@@std@@V?$allocator@PAVCInventoryDlg@@@4@@3@U?$less@VCSCI_WorldObject@@@3@V?$allocator@PAVCInventoryDlg@@@3@@std@@_N@2@ABU?$pair@$$CBVCSCI_WorldObject@@PAVCInventoryDlg@@@2@@Z 0050e840 f i inventorydlg.obj
 0001:0010db60       ?erase@?$_Tree@VCSCI_WorldObject@@U?$pair@$$CBVCSCI_WorldObject@@PAVCInventoryDlg@@@std@@U_Kfn@?$map@VCSCI_WorldObject@@PAVCInventoryDlg@@U?$less@VCSCI_WorldObject@@@std@@V?$allocator@PAVCInventoryDlg@@@4@@3@U?$less@VCSCI_WorldObject@@@3@V?$allocator@PAVCInventoryDlg@@@3@@std@@QAE?AViterator@12@V312@@Z 0050eb60 f i inventorydlg.obj
 0001:0010e600       ?lower_bound@?$_Tree@VCSCI_WorldObject@@U?$pair@$$CBVCSCI_WorldObject@@PAVCInventoryDlg@@@std@@U_Kfn@?$map@VCSCI_WorldObject@@PAVCInventoryDlg@@U?$less@VCSCI_WorldObject@@@std@@V?$allocator@PAVCInventoryDlg@@@4@@3@U?$less@VCSCI_WorldObject@@@3@V?$allocator@PAVCInventoryDlg@@@3@@std@@QAE?AViterator@12@ABVCSCI_WorldObject@@@Z 0050f600 f i inventorydlg.obj
 0001:0010e670       ?equal_range@?$_Tree@VCSCI_WorldObject@@U?$pair@$$CBVCSCI_WorldObject@@PAVCInventoryDlg@@@std@@U_Kfn@?$map@VCSCI_WorldObject@@PAVCInventoryDlg@@U?$less@VCSCI_WorldObject@@@std@@V?$allocator@PAVCInventoryDlg@@@4@@3@U?$less@VCSCI_WorldObject@@@3@V?$allocator@PAVCInventoryDlg@@@3@@std@@QAE?AU?$pair@Viterator@?$_Tree@VCSCI_WorldObject@@U?$pair@$$CBVCSCI_WorldObject@@PAVCInventoryDlg@@@std@@U_Kfn@?$map@VCSCI_WorldObject@@PAVCInventoryDlg@@U?$less@VCSCI_WorldObject@@@std@@V?$allocator@PAVCInventoryDlg@@@4@@3@U?$less@VCSCI_WorldObject@@@3@V?$allocator@PAVCInventoryDlg@@@3@@std@@V123@@2@ABVCSCI_WorldObject@@@Z 0050f670 f i inventorydlg.obj
 0001:0010e700       ?_Erase@?$_Tree@VCSCI_WorldObject@@U?$pair@$$CBVCSCI_WorldObject@@PAVCInventoryDlg@@@std@@U_Kfn@?$map@VCSCI_WorldObject@@PAVCInventoryDlg@@U?$less@VCSCI_WorldObject@@@std@@V?$allocator@PAVCInventoryDlg@@@4@@3@U?$less@VCSCI_WorldObject@@@3@V?$allocator@PAVCInventoryDlg@@@3@@std@@IAEXPAU_Node@12@@Z 0050f700 f i inventorydlg.obj
 0001:0010e820       ?_Init@?$_Tree@VCSCI_WorldObject@@U?$pair@$$CBVCSCI_WorldObject@@PAVCInventoryDlg@@@std@@U_Kfn@?$map@VCSCI_WorldObject@@PAVCInventoryDlg@@U?$less@VCSCI_WorldObject@@@std@@V?$allocator@PAVCInventoryDlg@@@4@@3@U?$less@VCSCI_WorldObject@@@3@V?$allocator@PAVCInventoryDlg@@@3@@std@@IAEXXZ 0050f820 f i inventorydlg.obj
 0001:0010e980       ?_Lmost@?$_Tree@VCSCI_WorldObject@@U?$pair@$$CBVCSCI_WorldObject@@PAVCInventoryDlg@@@std@@U_Kfn@?$map@VCSCI_WorldObject@@PAVCInventoryDlg@@U?$less@VCSCI_WorldObject@@@std@@V?$allocator@PAVCInventoryDlg@@@4@@3@U?$less@VCSCI_WorldObject@@@3@V?$allocator@PAVCInventoryDlg@@@3@@std@@IAEAAPAU_Node@12@XZ 0050f980 f i inventorydlg.obj
 0001:0010e9d0       ?_Rmost@?$_Tree@VCSCI_WorldObject@@U?$pair@$$CBVCSCI_WorldObject@@PAVCInventoryDlg@@@std@@U_Kfn@?$map@VCSCI_WorldObject@@PAVCInventoryDlg@@U?$less@VCSCI_WorldObject@@@std@@V?$allocator@PAVCInventoryDlg@@@4@@3@U?$less@VCSCI_WorldObject@@@3@V?$allocator@PAVCInventoryDlg@@@3@@std@@IAEAAPAU_Node@12@XZ 0050f9d0 f i inventorydlg.obj
 0001:0010ea20       ?_Root@?$_Tree@VCSCI_WorldObject@@U?$pair@$$CBVCSCI_WorldObject@@PAVCInventoryDlg@@@std@@U_Kfn@?$map@VCSCI_WorldObject@@PAVCInventoryDlg@@U?$less@VCSCI_WorldObject@@@std@@V?$allocator@PAVCInventoryDlg@@@4@@3@U?$less@VCSCI_WorldObject@@@3@V?$allocator@PAVCInventoryDlg@@@3@@std@@IAEAAPAU_Node@12@XZ 0050fa20 f i inventorydlg.obj
 0001:0010ea70       ?_Mynode@const_iterator@?$_Tree@VCSCI_WorldObject@@U?$pair@$$CBVCSCI_WorldObject@@PAVCInventoryDlg@@@std@@U_Kfn@?$map@VCSCI_WorldObject@@PAVCInventoryDlg@@U?$less@VCSCI_WorldObject@@@std@@V?$allocator@PAVCInventoryDlg@@@4@@3@U?$less@VCSCI_WorldObject@@@3@V?$allocator@PAVCInventoryDlg@@@3@@std@@QBEPAU_Node@23@XZ 0050fa70 f i inventorydlg.obj
 0001:0010eab0       ??0iterator@?$_Tree@VCSCI_WorldObject@@U?$pair@$$CBVCSCI_WorldObject@@PAVCInventoryDlg@@@std@@U_Kfn@?$map@VCSCI_WorldObject@@PAVCInventoryDlg@@U?$less@VCSCI_WorldObject@@@std@@V?$allocator@PAVCInventoryDlg@@@4@@3@U?$less@VCSCI_WorldObject@@@3@V?$allocator@PAVCInventoryDlg@@@3@@std@@QAE@PAU_Node@12@@Z 0050fab0 f i inventorydlg.obj
 0001:0010eb00       ??Eiterator@?$_Tree@VCSCI_WorldObject@@U?$pair@$$CBVCSCI_WorldObject@@PAVCInventoryDlg@@@std@@U_Kfn@?$map@VCSCI_WorldObject@@PAVCInventoryDlg@@U?$less@VCSCI_WorldObject@@@std@@V?$allocator@PAVCInventoryDlg@@@4@@3@U?$less@VCSCI_WorldObject@@@3@V?$allocator@PAVCInventoryDlg@@@3@@std@@QAE?AV012@H@Z 0050fb00 f i inventorydlg.obj
 0001:0010eb60       ??9iterator@?$_Tree@VCSCI_WorldObject@@U?$pair@$$CBVCSCI_WorldObject@@PAVCInventoryDlg@@@std@@U_Kfn@?$map@VCSCI_WorldObject@@PAVCInventoryDlg@@U?$less@VCSCI_WorldObject@@@std@@V?$allocator@PAVCInventoryDlg@@@4@@3@U?$less@VCSCI_WorldObject@@@3@V?$allocator@PAVCInventoryDlg@@@3@@std@@QBE_NABV012@@Z 0050fb60 f i inventorydlg.obj
 0001:0010ebc0       ?_Prev@_Acc@?$list@PAVCInventoryDlg@@V?$allocator@PAVCInventoryDlg@@@std@@@std@@SAAAPAU_Node@23@PAU423@@Z 0050fbc0 f i inventorydlg.obj
 0001:0010ebf0       ??0const_iterator@?$list@PAVCInventoryDlg@@V?$allocator@PAVCInventoryDlg@@@std@@@std@@QAE@PAU_Node@12@@Z 0050fbf0 f i inventorydlg.obj
 0001:0010ec30       ?_Mynode@const_iterator@?$list@PAVCInventoryDlg@@V?$allocator@PAVCInventoryDlg@@@std@@@std@@QBEPAU_Node@23@XZ 0050fc30 f i inventorydlg.obj
 0001:0010ec70       ??8iterator@?$list@PAVCInventoryDlg@@V?$allocator@PAVCInventoryDlg@@@std@@@std@@QBE_NABV012@@Z 0050fc70 f i inventorydlg.obj
 0001:0010ecc0       ??0?$pair@Viterator@?$_Tree@VCSkinObj@@U?$pair@$$CBVCSkinObj@@PAVCFastScrollCtrl@@@std@@U_Kfn@?$map@VCSkinObj@@PAVCFastScrollCtrl@@U?$less@VCSkinObj@@@std@@V?$allocator@PAVCFastScrollCtrl@@@4@@3@U?$less@VCSkinObj@@@3@V?$allocator@PAVCFastScrollCtrl@@@3@@std@@_N@std@@QAE@ABViterator@?$_Tree@VCSkinObj@@U?$pair@$$CBVCSkinObj@@PAVCFastScrollCtrl@@@std@@U_Kfn@?$map@VCSkinObj@@PAVCFastScrollCtrl@@U?$less@VCSkinObj@@@std@@V?$allocator@PAVCFastScrollCtrl@@@4@@3@U?$less@VCSkinObj@@@3@V?$allocator@PAVCFastScrollCtrl@@@3@@1@AB_N@Z 0050fcc0 f i inventorydlg.obj
 0001:0010ed10       ??0?$pair@Viterator@?$_Tree@VCSCI_WorldObject@@U?$pair@$$CBVCSCI_WorldObject@@PAVCInventoryDlg@@@std@@U_Kfn@?$map@VCSCI_WorldObject@@PAVCInventoryDlg@@U?$less@VCSCI_WorldObject@@@std@@V?$allocator@PAVCInventoryDlg@@@4@@3@U?$less@VCSCI_WorldObject@@@3@V?$allocator@PAVCInventoryDlg@@@3@@std@@_N@std@@QAE@ABViterator@?$_Tree@VCSCI_WorldObject@@U?$pair@$$CBVCSCI_WorldObject@@PAVCInventoryDlg@@@std@@U_Kfn@?$map@VCSCI_WorldObject@@PAVCInventoryDlg@@U?$less@VCSCI_WorldObject@@@std@@V?$allocator@PAVCInventoryDlg@@@4@@3@U?$less@VCSCI_WorldObject@@@3@V?$allocator@PAVCInventoryDlg@@@3@@1@AB_N@Z 0050fd10 f i inventorydlg.obj
 0001:0010ed60       ??R_Kfn@?$map@VCSkinObj@@PAVCFastScrollCtrl@@U?$less@VCSkinObj@@@std@@V?$allocator@PAVCFastScrollCtrl@@@4@@std@@QBEABVCSkinObj@@ABU?$pair@$$CBVCSkinObj@@PAVCFastScrollCtrl@@@2@@Z 0050fd60 f i inventorydlg.obj
 0001:0010eda0       ?_Color@?$_Tree@VCSkinObj@@U?$pair@$$CBVCSkinObj@@PAVCFastScrollCtrl@@@std@@U_Kfn@?$map@VCSkinObj@@PAVCFastScrollCtrl@@U?$less@VCSkinObj@@@std@@V?$allocator@PAVCFastScrollCtrl@@@4@@3@U?$less@VCSkinObj@@@3@V?$allocator@PAVCFastScrollCtrl@@@3@@std@@KAAAW4_Redbl@12@PAU_Node@12@@Z 0050fda0 f i inventorydlg.obj
 0001:0010edd0       ?_Left@?$_Tree@VCSkinObj@@U?$pair@$$CBVCSkinObj@@PAVCFastScrollCtrl@@@std@@U_Kfn@?$map@VCSkinObj@@PAVCFastScrollCtrl@@U?$less@VCSkinObj@@@std@@V?$allocator@PAVCFastScrollCtrl@@@4@@3@U?$less@VCSkinObj@@@3@V?$allocator@PAVCFastScrollCtrl@@@3@@std@@KAAAPAU_Node@12@PAU312@@Z 0050fdd0 f i inventorydlg.obj
 0001:0010ee00       ?_Parent@?$_Tree@VCSkinObj@@U?$pair@$$CBVCSkinObj@@PAVCFastScrollCtrl@@@std@@U_Kfn@?$map@VCSkinObj@@PAVCFastScrollCtrl@@U?$less@VCSkinObj@@@std@@V?$allocator@PAVCFastScrollCtrl@@@4@@3@U?$less@VCSkinObj@@@3@V?$allocator@PAVCFastScrollCtrl@@@3@@std@@KAAAPAU_Node@12@PAU312@@Z 0050fe00 f i inventorydlg.obj
 0001:0010ee30       ?_Right@?$_Tree@VCSkinObj@@U?$pair@$$CBVCSkinObj@@PAVCFastScrollCtrl@@@std@@U_Kfn@?$map@VCSkinObj@@PAVCFastScrollCtrl@@U?$less@VCSkinObj@@@std@@V?$allocator@PAVCFastScrollCtrl@@@4@@3@U?$less@VCSkinObj@@@3@V?$allocator@PAVCFastScrollCtrl@@@3@@std@@KAAAPAU_Node@12@PAU312@@Z 0050fe30 f i inventorydlg.obj
 0001:0010ee60       ?upper_bound@?$_Tree@VCSkinObj@@U?$pair@$$CBVCSkinObj@@PAVCFastScrollCtrl@@@std@@U_Kfn@?$map@VCSkinObj@@PAVCFastScrollCtrl@@U?$less@VCSkinObj@@@std@@V?$allocator@PAVCFastScrollCtrl@@@4@@3@U?$less@VCSkinObj@@@3@V?$allocator@PAVCFastScrollCtrl@@@3@@std@@QAE?AViterator@12@ABVCSkinObj@@@Z 0050fe60 f i inventorydlg.obj
 0001:0010eed0       ?_Insert@?$_Tree@VCSkinObj@@U?$pair@$$CBVCSkinObj@@PAVCFastScrollCtrl@@@std@@U_Kfn@?$map@VCSkinObj@@PAVCFastScrollCtrl@@U?$less@VCSkinObj@@@std@@V?$allocator@PAVCFastScrollCtrl@@@4@@3@U?$less@VCSkinObj@@@3@V?$allocator@PAVCFastScrollCtrl@@@3@@std@@IAE?AViterator@12@PAU_Node@12@0ABU?$pair@$$CBVCSkinObj@@PAVCFastScrollCtrl@@@2@@Z 0050fed0 f i inventorydlg.obj
 0001:0010f510       ?_Lbound@?$_Tree@VCSkinObj@@U?$pair@$$CBVCSkinObj@@PAVCFastScrollCtrl@@@std@@U_Kfn@?$map@VCSkinObj@@PAVCFastScrollCtrl@@U?$less@VCSkinObj@@@std@@V?$allocator@PAVCFastScrollCtrl@@@4@@3@U?$less@VCSkinObj@@@3@V?$allocator@PAVCFastScrollCtrl@@@3@@std@@IBEPAU_Node@12@ABVCSkinObj@@@Z 00510510 f i inventorydlg.obj
 0001:0010f650       ?_Lrotate@?$_Tree@VCSkinObj@@U?$pair@$$CBVCSkinObj@@PAVCFastScrollCtrl@@@std@@U_Kfn@?$map@VCSkinObj@@PAVCFastScrollCtrl@@U?$less@VCSkinObj@@@std@@V?$allocator@PAVCFastScrollCtrl@@@4@@3@U?$less@VCSkinObj@@@3@V?$allocator@PAVCFastScrollCtrl@@@3@@std@@IAEXPAU_Node@12@@Z 00510650 f i inventorydlg.obj
 0001:0010f850       ?_Max@?$_Tree@VCSkinObj@@U?$pair@$$CBVCSkinObj@@PAVCFastScrollCtrl@@@std@@U_Kfn@?$map@VCSkinObj@@PAVCFastScrollCtrl@@U?$less@VCSkinObj@@@std@@V?$allocator@PAVCFastScrollCtrl@@@4@@3@U?$less@VCSkinObj@@@3@V?$allocator@PAVCFastScrollCtrl@@@3@@std@@KAPAU_Node@12@PAU312@@Z 00510850 f i inventorydlg.obj
 0001:0010f930       ?_Min@?$_Tree@VCSkinObj@@U?$pair@$$CBVCSkinObj@@PAVCFastScrollCtrl@@@std@@U_Kfn@?$map@VCSkinObj@@PAVCFastScrollCtrl@@U?$less@VCSkinObj@@@std@@V?$allocator@PAVCFastScrollCtrl@@@4@@3@U?$less@VCSkinObj@@@3@V?$allocator@PAVCFastScrollCtrl@@@3@@std@@KAPAU_Node@12@PAU312@@Z 00510930 f i inventorydlg.obj
 0001:0010fa10       ?_Rrotate@?$_Tree@VCSkinObj@@U?$pair@$$CBVCSkinObj@@PAVCFastScrollCtrl@@@std@@U_Kfn@?$map@VCSkinObj@@PAVCFastScrollCtrl@@U?$less@VCSkinObj@@@std@@V?$allocator@PAVCFastScrollCtrl@@@4@@3@U?$less@VCSkinObj@@@3@V?$allocator@PAVCFastScrollCtrl@@@3@@std@@IAEXPAU_Node@12@@Z 00510a10 f i inventorydlg.obj
 0001:0010fc10       ?_Buynode@?$_Tree@VCSkinObj@@U?$pair@$$CBVCSkinObj@@PAVCFastScrollCtrl@@@std@@U_Kfn@?$map@VCSkinObj@@PAVCFastScrollCtrl@@U?$less@VCSkinObj@@@std@@V?$allocator@PAVCFastScrollCtrl@@@4@@3@U?$less@VCSkinObj@@@3@V?$allocator@PAVCFastScrollCtrl@@@3@@std@@IAEPAU_Node@12@PAU312@W4_Redbl@12@@Z 00510c10 f i inventorydlg.obj
 0001:0010fc90       ?_Destval@?$_Tree@VCSkinObj@@U?$pair@$$CBVCSkinObj@@PAVCFastScrollCtrl@@@std@@U_Kfn@?$map@VCSkinObj@@PAVCFastScrollCtrl@@U?$less@VCSkinObj@@@std@@V?$allocator@PAVCFastScrollCtrl@@@4@@3@U?$less@VCSkinObj@@@3@V?$allocator@PAVCFastScrollCtrl@@@3@@std@@IAEXPAU?$pair@$$CBVCSkinObj@@PAVCFastScrollCtrl@@@2@@Z 00510c90 f i inventorydlg.obj
 0001:0010fce0       ??0const_iterator@?$_Tree@VCSkinObj@@U?$pair@$$CBVCSkinObj@@PAVCFastScrollCtrl@@@std@@U_Kfn@?$map@VCSkinObj@@PAVCFastScrollCtrl@@U?$less@VCSkinObj@@@std@@V?$allocator@PAVCFastScrollCtrl@@@4@@3@U?$less@VCSkinObj@@@3@V?$allocator@PAVCFastScrollCtrl@@@3@@std@@QAE@PAU_Node@12@@Z 00510ce0 f i inventorydlg.obj
 0001:0010fd20       ??Eiterator@?$_Tree@VCSkinObj@@U?$pair@$$CBVCSkinObj@@PAVCFastScrollCtrl@@@std@@U_Kfn@?$map@VCSkinObj@@PAVCFastScrollCtrl@@U?$less@VCSkinObj@@@std@@V?$allocator@PAVCFastScrollCtrl@@@4@@3@U?$less@VCSkinObj@@@3@V?$allocator@PAVCFastScrollCtrl@@@3@@std@@QAEAAV012@XZ 00510d20 f i inventorydlg.obj
 0001:0010fd70       ??Fiterator@?$_Tree@VCSkinObj@@U?$pair@$$CBVCSkinObj@@PAVCFastScrollCtrl@@@std@@U_Kfn@?$map@VCSkinObj@@PAVCFastScrollCtrl@@U?$less@VCSkinObj@@@std@@V?$allocator@PAVCFastScrollCtrl@@@4@@3@U?$less@VCSkinObj@@@3@V?$allocator@PAVCFastScrollCtrl@@@3@@std@@QAEAAV012@XZ 00510d70 f i inventorydlg.obj
 0001:0010fdc0       ??R_Kfn@?$map@VCSCI_WorldObject@@PAVCInventoryDlg@@U?$less@VCSCI_WorldObject@@@std@@V?$allocator@PAVCInventoryDlg@@@4@@std@@QBEABVCSCI_WorldObject@@ABU?$pair@$$CBVCSCI_WorldObject@@PAVCInventoryDlg@@@2@@Z 00510dc0 f i inventorydlg.obj
 0001:0010fe00       ?_Color@?$_Tree@VCSCI_WorldObject@@U?$pair@$$CBVCSCI_WorldObject@@PAVCInventoryDlg@@@std@@U_Kfn@?$map@VCSCI_WorldObject@@PAVCInventoryDlg@@U?$less@VCSCI_WorldObject@@@std@@V?$allocator@PAVCInventoryDlg@@@4@@3@U?$less@VCSCI_WorldObject@@@3@V?$allocator@PAVCInventoryDlg@@@3@@std@@KAAAW4_Redbl@12@PAU_Node@12@@Z 00510e00 f i inventorydlg.obj
 0001:0010fe30       ?_Left@?$_Tree@VCSCI_WorldObject@@U?$pair@$$CBVCSCI_WorldObject@@PAVCInventoryDlg@@@std@@U_Kfn@?$map@VCSCI_WorldObject@@PAVCInventoryDlg@@U?$less@VCSCI_WorldObject@@@std@@V?$allocator@PAVCInventoryDlg@@@4@@3@U?$less@VCSCI_WorldObject@@@3@V?$allocator@PAVCInventoryDlg@@@3@@std@@KAAAPAU_Node@12@PAU312@@Z 00510e30 f i inventorydlg.obj
 0001:0010fe60       ?_Parent@?$_Tree@VCSCI_WorldObject@@U?$pair@$$CBVCSCI_WorldObject@@PAVCInventoryDlg@@@std@@U_Kfn@?$map@VCSCI_WorldObject@@PAVCInventoryDlg@@U?$less@VCSCI_WorldObject@@@std@@V?$allocator@PAVCInventoryDlg@@@4@@3@U?$less@VCSCI_WorldObject@@@3@V?$allocator@PAVCInventoryDlg@@@3@@std@@KAAAPAU_Node@12@PAU312@@Z 00510e60 f i inventorydlg.obj
 0001:0010fe90       ?_Right@?$_Tree@VCSCI_WorldObject@@U?$pair@$$CBVCSCI_WorldObject@@PAVCInventoryDlg@@@std@@U_Kfn@?$map@VCSCI_WorldObject@@PAVCInventoryDlg@@U?$less@VCSCI_WorldObject@@@std@@V?$allocator@PAVCInventoryDlg@@@4@@3@U?$less@VCSCI_WorldObject@@@3@V?$allocator@PAVCInventoryDlg@@@3@@std@@KAAAPAU_Node@12@PAU312@@Z 00510e90 f i inventorydlg.obj
 0001:0010fec0       ?upper_bound@?$_Tree@VCSCI_WorldObject@@U?$pair@$$CBVCSCI_WorldObject@@PAVCInventoryDlg@@@std@@U_Kfn@?$map@VCSCI_WorldObject@@PAVCInventoryDlg@@U?$less@VCSCI_WorldObject@@@std@@V?$allocator@PAVCInventoryDlg@@@4@@3@U?$less@VCSCI_WorldObject@@@3@V?$allocator@PAVCInventoryDlg@@@3@@std@@QAE?AViterator@12@ABVCSCI_WorldObject@@@Z 00510ec0 f i inventorydlg.obj
 0001:0010ff30       ?_Insert@?$_Tree@VCSCI_WorldObject@@U?$pair@$$CBVCSCI_WorldObject@@PAVCInventoryDlg@@@std@@U_Kfn@?$map@VCSCI_WorldObject@@PAVCInventoryDlg@@U?$less@VCSCI_WorldObject@@@std@@V?$allocator@PAVCInventoryDlg@@@4@@3@U?$less@VCSCI_WorldObject@@@3@V?$allocator@PAVCInventoryDlg@@@3@@std@@IAE?AViterator@12@PAU_Node@12@0ABU?$pair@$$CBVCSCI_WorldObject@@PAVCInventoryDlg@@@2@@Z 00510f30 f i inventorydlg.obj
 0001:00110570       ?_Lbound@?$_Tree@VCSCI_WorldObject@@U?$pair@$$CBVCSCI_WorldObject@@PAVCInventoryDlg@@@std@@U_Kfn@?$map@VCSCI_WorldObject@@PAVCInventoryDlg@@U?$less@VCSCI_WorldObject@@@std@@V?$allocator@PAVCInventoryDlg@@@4@@3@U?$less@VCSCI_WorldObject@@@3@V?$allocator@PAVCInventoryDlg@@@3@@std@@IBEPAU_Node@12@ABVCSCI_WorldObject@@@Z 00511570 f i inventorydlg.obj
 0001:001106b0       ?_Lrotate@?$_Tree@VCSCI_WorldObject@@U?$pair@$$CBVCSCI_WorldObject@@PAVCInventoryDlg@@@std@@U_Kfn@?$map@VCSCI_WorldObject@@PAVCInventoryDlg@@U?$less@VCSCI_WorldObject@@@std@@V?$allocator@PAVCInventoryDlg@@@4@@3@U?$less@VCSCI_WorldObject@@@3@V?$allocator@PAVCInventoryDlg@@@3@@std@@IAEXPAU_Node@12@@Z 005116b0 f i inventorydlg.obj
 0001:001108b0       ?_Max@?$_Tree@VCSCI_WorldObject@@U?$pair@$$CBVCSCI_WorldObject@@PAVCInventoryDlg@@@std@@U_Kfn@?$map@VCSCI_WorldObject@@PAVCInventoryDlg@@U?$less@VCSCI_WorldObject@@@std@@V?$allocator@PAVCInventoryDlg@@@4@@3@U?$less@VCSCI_WorldObject@@@3@V?$allocator@PAVCInventoryDlg@@@3@@std@@KAPAU_Node@12@PAU312@@Z 005118b0 f i inventorydlg.obj
 0001:00110990       ?_Min@?$_Tree@VCSCI_WorldObject@@U?$pair@$$CBVCSCI_WorldObject@@PAVCInventoryDlg@@@std@@U_Kfn@?$map@VCSCI_WorldObject@@PAVCInventoryDlg@@U?$less@VCSCI_WorldObject@@@std@@V?$allocator@PAVCInventoryDlg@@@4@@3@U?$less@VCSCI_WorldObject@@@3@V?$allocator@PAVCInventoryDlg@@@3@@std@@KAPAU_Node@12@PAU312@@Z 00511990 f i inventorydlg.obj
 0001:00110a70       ?_Rrotate@?$_Tree@VCSCI_WorldObject@@U?$pair@$$CBVCSCI_WorldObject@@PAVCInventoryDlg@@@std@@U_Kfn@?$map@VCSCI_WorldObject@@PAVCInventoryDlg@@U?$less@VCSCI_WorldObject@@@std@@V?$allocator@PAVCInventoryDlg@@@4@@3@U?$less@VCSCI_WorldObject@@@3@V?$allocator@PAVCInventoryDlg@@@3@@std@@IAEXPAU_Node@12@@Z 00511a70 f i inventorydlg.obj
 0001:00110c70       ?_Buynode@?$_Tree@VCSCI_WorldObject@@U?$pair@$$CBVCSCI_WorldObject@@PAVCInventoryDlg@@@std@@U_Kfn@?$map@VCSCI_WorldObject@@PAVCInventoryDlg@@U?$less@VCSCI_WorldObject@@@std@@V?$allocator@PAVCInventoryDlg@@@4@@3@U?$less@VCSCI_WorldObject@@@3@V?$allocator@PAVCInventoryDlg@@@3@@std@@IAEPAU_Node@12@PAU312@W4_Redbl@12@@Z 00511c70 f i inventorydlg.obj
 0001:00110cf0       ?_Destval@?$_Tree@VCSCI_WorldObject@@U?$pair@$$CBVCSCI_WorldObject@@PAVCInventoryDlg@@@std@@U_Kfn@?$map@VCSCI_WorldObject@@PAVCInventoryDlg@@U?$less@VCSCI_WorldObject@@@std@@V?$allocator@PAVCInventoryDlg@@@4@@3@U?$less@VCSCI_WorldObject@@@3@V?$allocator@PAVCInventoryDlg@@@3@@std@@IAEXPAU?$pair@$$CBVCSCI_WorldObject@@PAVCInventoryDlg@@@2@@Z 00511cf0 f i inventorydlg.obj
 0001:00110d40       ??0const_iterator@?$_Tree@VCSCI_WorldObject@@U?$pair@$$CBVCSCI_WorldObject@@PAVCInventoryDlg@@@std@@U_Kfn@?$map@VCSCI_WorldObject@@PAVCInventoryDlg@@U?$less@VCSCI_WorldObject@@@std@@V?$allocator@PAVCInventoryDlg@@@4@@3@U?$less@VCSCI_WorldObject@@@3@V?$allocator@PAVCInventoryDlg@@@3@@std@@QAE@PAU_Node@12@@Z 00511d40 f i inventorydlg.obj
 0001:00110d80       ??Eiterator@?$_Tree@VCSCI_WorldObject@@U?$pair@$$CBVCSCI_WorldObject@@PAVCInventoryDlg@@@std@@U_Kfn@?$map@VCSCI_WorldObject@@PAVCInventoryDlg@@U?$less@VCSCI_WorldObject@@@std@@V?$allocator@PAVCInventoryDlg@@@4@@3@U?$less@VCSCI_WorldObject@@@3@V?$allocator@PAVCInventoryDlg@@@3@@std@@QAEAAV012@XZ 00511d80 f i inventorydlg.obj
 0001:00110dd0       ??Fiterator@?$_Tree@VCSCI_WorldObject@@U?$pair@$$CBVCSCI_WorldObject@@PAVCInventoryDlg@@@std@@U_Kfn@?$map@VCSCI_WorldObject@@PAVCInventoryDlg@@U?$less@VCSCI_WorldObject@@@std@@V?$allocator@PAVCInventoryDlg@@@4@@3@U?$less@VCSCI_WorldObject@@@3@V?$allocator@PAVCInventoryDlg@@@3@@std@@QAEAAV012@XZ 00511dd0 f i inventorydlg.obj
 0001:00110e20       ??0?$pair@Viterator@?$_Tree@VCSkinObj@@U?$pair@$$CBVCSkinObj@@PAVCFastScrollCtrl@@@std@@U_Kfn@?$map@VCSkinObj@@PAVCFastScrollCtrl@@U?$less@VCSkinObj@@@std@@V?$allocator@PAVCFastScrollCtrl@@@4@@3@U?$less@VCSkinObj@@@3@V?$allocator@PAVCFastScrollCtrl@@@3@@std@@V123@@std@@QAE@ABViterator@?$_Tree@VCSkinObj@@U?$pair@$$CBVCSkinObj@@PAVCFastScrollCtrl@@@std@@U_Kfn@?$map@VCSkinObj@@PAVCFastScrollCtrl@@U?$less@VCSkinObj@@@std@@V?$allocator@PAVCFastScrollCtrl@@@4@@3@U?$less@VCSkinObj@@@3@V?$allocator@PAVCFastScrollCtrl@@@3@@1@0@Z 00511e20 f i inventorydlg.obj
 0001:00110e70       ??0?$pair@Viterator@?$_Tree@VCSCI_WorldObject@@U?$pair@$$CBVCSCI_WorldObject@@PAVCInventoryDlg@@@std@@U_Kfn@?$map@VCSCI_WorldObject@@PAVCInventoryDlg@@U?$less@VCSCI_WorldObject@@@std@@V?$allocator@PAVCInventoryDlg@@@4@@3@U?$less@VCSCI_WorldObject@@@3@V?$allocator@PAVCInventoryDlg@@@3@@std@@V123@@std@@QAE@ABViterator@?$_Tree@VCSCI_WorldObject@@U?$pair@$$CBVCSCI_WorldObject@@PAVCInventoryDlg@@@std@@U_Kfn@?$map@VCSCI_WorldObject@@PAVCInventoryDlg@@U?$less@VCSCI_WorldObject@@@std@@V?$allocator@PAVCInventoryDlg@@@4@@3@U?$less@VCSCI_WorldObject@@@3@V?$allocator@PAVCInventoryDlg@@@3@@1@0@Z 00511e70 f i inventorydlg.obj
 0001:00110ec0       ?_Charalloc@?$allocator@PAVCFastScrollCtrl@@@std@@QAEPADI@Z 00511ec0 f i inventorydlg.obj
 0001:00110f10       ?_Root@?$_Tree@VCSkinObj@@U?$pair@$$CBVCSkinObj@@PAVCFastScrollCtrl@@@std@@U_Kfn@?$map@VCSkinObj@@PAVCFastScrollCtrl@@U?$less@VCSkinObj@@@std@@V?$allocator@PAVCFastScrollCtrl@@@4@@3@U?$less@VCSkinObj@@@3@V?$allocator@PAVCFastScrollCtrl@@@3@@std@@IBEAAPAU_Node@12@XZ 00511f10 f i inventorydlg.obj
 0001:00110f60       ?_Ubound@?$_Tree@VCSkinObj@@U?$pair@$$CBVCSkinObj@@PAVCFastScrollCtrl@@@std@@U_Kfn@?$map@VCSkinObj@@PAVCFastScrollCtrl@@U?$less@VCSkinObj@@@std@@V?$allocator@PAVCFastScrollCtrl@@@4@@3@U?$less@VCSkinObj@@@3@V?$allocator@PAVCFastScrollCtrl@@@3@@std@@IBEPAU_Node@12@ABVCSkinObj@@@Z 00511f60 f i inventorydlg.obj
 0001:001110a0       ?_Consval@?$_Tree@VCSkinObj@@U?$pair@$$CBVCSkinObj@@PAVCFastScrollCtrl@@@std@@U_Kfn@?$map@VCSkinObj@@PAVCFastScrollCtrl@@U?$less@VCSkinObj@@@std@@V?$allocator@PAVCFastScrollCtrl@@@4@@3@U?$less@VCSkinObj@@@3@V?$allocator@PAVCFastScrollCtrl@@@3@@std@@IAEXPAU?$pair@$$CBVCSkinObj@@PAVCFastScrollCtrl@@@2@ABU32@@Z 005120a0 f i inventorydlg.obj
 0001:001110f0       ?_Dec@const_iterator@?$_Tree@VCSkinObj@@U?$pair@$$CBVCSkinObj@@PAVCFastScrollCtrl@@@std@@U_Kfn@?$map@VCSkinObj@@PAVCFastScrollCtrl@@U?$less@VCSkinObj@@@std@@V?$allocator@PAVCFastScrollCtrl@@@4@@3@U?$less@VCSkinObj@@@3@V?$allocator@PAVCFastScrollCtrl@@@3@@std@@QAEXXZ 005120f0 f i inventorydlg.obj
 0001:00111280       ?_Inc@const_iterator@?$_Tree@VCSkinObj@@U?$pair@$$CBVCSkinObj@@PAVCFastScrollCtrl@@@std@@U_Kfn@?$map@VCSkinObj@@PAVCFastScrollCtrl@@U?$less@VCSkinObj@@@std@@V?$allocator@PAVCFastScrollCtrl@@@4@@3@U?$less@VCSkinObj@@@3@V?$allocator@PAVCFastScrollCtrl@@@3@@std@@QAEXXZ 00512280 f i inventorydlg.obj
 0001:001113d0       ?_Root@?$_Tree@VCSCI_WorldObject@@U?$pair@$$CBVCSCI_WorldObject@@PAVCInventoryDlg@@@std@@U_Kfn@?$map@VCSCI_WorldObject@@PAVCInventoryDlg@@U?$less@VCSCI_WorldObject@@@std@@V?$allocator@PAVCInventoryDlg@@@4@@3@U?$less@VCSCI_WorldObject@@@3@V?$allocator@PAVCInventoryDlg@@@3@@std@@IBEAAPAU_Node@12@XZ 005123d0 f i inventorydlg.obj
 0001:00111420       ?_Ubound@?$_Tree@VCSCI_WorldObject@@U?$pair@$$CBVCSCI_WorldObject@@PAVCInventoryDlg@@@std@@U_Kfn@?$map@VCSCI_WorldObject@@PAVCInventoryDlg@@U?$less@VCSCI_WorldObject@@@std@@V?$allocator@PAVCInventoryDlg@@@4@@3@U?$less@VCSCI_WorldObject@@@3@V?$allocator@PAVCInventoryDlg@@@3@@std@@IBEPAU_Node@12@ABVCSCI_WorldObject@@@Z 00512420 f i inventorydlg.obj
 0001:00111560       ?_Consval@?$_Tree@VCSCI_WorldObject@@U?$pair@$$CBVCSCI_WorldObject@@PAVCInventoryDlg@@@std@@U_Kfn@?$map@VCSCI_WorldObject@@PAVCInventoryDlg@@U?$less@VCSCI_WorldObject@@@std@@V?$allocator@PAVCInventoryDlg@@@4@@3@U?$less@VCSCI_WorldObject@@@3@V?$allocator@PAVCInventoryDlg@@@3@@std@@IAEXPAU?$pair@$$CBVCSCI_WorldObject@@PAVCInventoryDlg@@@2@ABU32@@Z 00512560 f i inventorydlg.obj
 0001:001115b0       ?_Dec@const_iterator@?$_Tree@VCSCI_WorldObject@@U?$pair@$$CBVCSCI_WorldObject@@PAVCInventoryDlg@@@std@@U_Kfn@?$map@VCSCI_WorldObject@@PAVCInventoryDlg@@U?$less@VCSCI_WorldObject@@@std@@V?$allocator@PAVCInventoryDlg@@@4@@3@U?$less@VCSCI_WorldObject@@@3@V?$allocator@PAVCInventoryDlg@@@3@@std@@QAEXXZ 005125b0 f i inventorydlg.obj
 0001:00111740       ?_Inc@const_iterator@?$_Tree@VCSCI_WorldObject@@U?$pair@$$CBVCSCI_WorldObject@@PAVCInventoryDlg@@@std@@U_Kfn@?$map@VCSCI_WorldObject@@PAVCInventoryDlg@@U?$less@VCSCI_WorldObject@@@std@@V?$allocator@PAVCInventoryDlg@@@4@@3@U?$less@VCSCI_WorldObject@@@3@V?$allocator@PAVCInventoryDlg@@@3@@std@@QAEXXZ 00512740 f i inventorydlg.obj
 0001:00111890       ?_Distance@std@@YAXViterator@?$_Tree@VCSkinObj@@U?$pair@$$CBVCSkinObj@@PAVCFastScrollCtrl@@@std@@U_Kfn@?$map@VCSkinObj@@PAVCFastScrollCtrl@@U?$less@VCSkinObj@@@std@@V?$allocator@PAVCFastScrollCtrl@@@4@@3@U?$less@VCSkinObj@@@3@V?$allocator@PAVCFastScrollCtrl@@@3@@1@0AAI@Z 00512890 f i inventorydlg.obj
 0001:00111900       ?_Distance@std@@YAXViterator@?$_Tree@VCSCI_WorldObject@@U?$pair@$$CBVCSCI_WorldObject@@PAVCInventoryDlg@@@std@@U_Kfn@?$map@VCSCI_WorldObject@@PAVCInventoryDlg@@U?$less@VCSCI_WorldObject@@@std@@V?$allocator@PAVCInventoryDlg@@@4@@3@U?$less@VCSCI_WorldObject@@@3@V?$allocator@PAVCInventoryDlg@@@3@@1@0AAI@Z 00512900 f i inventorydlg.obj
 0001:00111970       ?swap@std@@YAXAAW4_Redbl@?$_Tree@VCSkinObj@@U?$pair@$$CBVCSkinObj@@PAVCFastScrollCtrl@@@std@@U_Kfn@?$map@VCSkinObj@@PAVCFastScrollCtrl@@U?$less@VCSkinObj@@@std@@V?$allocator@PAVCFastScrollCtrl@@@4@@3@U?$less@VCSkinObj@@@3@V?$allocator@PAVCFastScrollCtrl@@@3@@1@0@Z 00512970 f i inventorydlg.obj
 0001:001119c0       ?_Construct@std@@YAXPAPAVCInventoryDlg@@ABQAV2@@Z 005129c0 f i inventorydlg.obj
 0001:00111a30       ?_Destroy@std@@YAXPAPAVCInventoryDlg@@@Z 00512a30 f i inventorydlg.obj
 0001:00111a60       ?swap@std@@YAXAAW4_Redbl@?$_Tree@VCSCI_WorldObject@@U?$pair@$$CBVCSCI_WorldObject@@PAVCInventoryDlg@@@std@@U_Kfn@?$map@VCSCI_WorldObject@@PAVCInventoryDlg@@U?$less@VCSCI_WorldObject@@@std@@V?$allocator@PAVCInventoryDlg@@@4@@3@U?$less@VCSCI_WorldObject@@@3@V?$allocator@PAVCInventoryDlg@@@3@@1@0@Z 00512a60 f i inventorydlg.obj
 0001:00111ab0       ?_Destroy@std@@YAXPAU?$pair@$$CBVCSkinObj@@PAVCFastScrollCtrl@@@1@@Z 00512ab0 f i inventorydlg.obj
 0001:00111af0       ?_Destroy@std@@YAXPAU?$pair@$$CBVCSCI_WorldObject@@PAVCInventoryDlg@@@1@@Z 00512af0 f i inventorydlg.obj
 0001:00111b20       ?_Construct@std@@YAXPAU?$pair@$$CBVCSkinObj@@PAVCFastScrollCtrl@@@1@ABU21@@Z 00512b20 f i inventorydlg.obj
 0001:00111bd0       ?_Construct@std@@YAXPAU?$pair@$$CBVCSCI_WorldObject@@PAVCInventoryDlg@@@1@ABU21@@Z 00512bd0 f i inventorydlg.obj
 0001:00111c80       ??_G?$pair@$$CBVCSkinObj@@PAVCFastScrollCtrl@@@std@@QAEPAXI@Z 00512c80 f i inventorydlg.obj
 0001:00111cf0       ??0?$pair@$$CBVCSkinObj@@PAVCFastScrollCtrl@@@std@@QAE@ABU01@@Z 00512cf0 f i inventorydlg.obj
 0001:00111d50       ??0?$pair@$$CBVCSCI_WorldObject@@PAVCInventoryDlg@@@std@@QAE@ABU01@@Z 00512d50 f i inventorydlg.obj
 0001:00111db0       ?_Iter_cat@std@@YA?AUbidirectional_iterator_tag@1@ABU?$iterator@Ubidirectional_iterator_tag@std@@U?$pair@$$CBVCSkinObj@@PAVCFastScrollCtrl@@@2@H@1@@Z 00512db0 f i inventorydlg.obj
 0001:00111df0       ?_Distance@std@@YAXViterator@?$_Tree@VCSkinObj@@U?$pair@$$CBVCSkinObj@@PAVCFastScrollCtrl@@@std@@U_Kfn@?$map@VCSkinObj@@PAVCFastScrollCtrl@@U?$less@VCSkinObj@@@std@@V?$allocator@PAVCFastScrollCtrl@@@4@@3@U?$less@VCSkinObj@@@3@V?$allocator@PAVCFastScrollCtrl@@@3@@1@0AAIUbidirectional_iterator_tag@1@@Z 00512df0 f i inventorydlg.obj
 0001:00111e60       ?_Iter_cat@std@@YA?AUbidirectional_iterator_tag@1@ABU?$iterator@Ubidirectional_iterator_tag@std@@U?$pair@$$CBVCSCI_WorldObject@@PAVCInventoryDlg@@@2@H@1@@Z 00512e60 f i inventorydlg.obj
 0001:00111ea0       ?_Distance@std@@YAXViterator@?$_Tree@VCSCI_WorldObject@@U?$pair@$$CBVCSCI_WorldObject@@PAVCInventoryDlg@@@std@@U_Kfn@?$map@VCSCI_WorldObject@@PAVCInventoryDlg@@U?$less@VCSCI_WorldObject@@@std@@V?$allocator@PAVCInventoryDlg@@@4@@3@U?$less@VCSCI_WorldObject@@@3@V?$allocator@PAVCInventoryDlg@@@3@@1@0AAIUbidirectional_iterator_tag@1@@Z 00512ea0 f i inventorydlg.obj
 0001:00111f10       ??0CSCI_BContainer@@QAE@XZ 00512f10 f i inventorydlg.obj
 0001:00111f60       ??0CSCI_WorldObjectBase@@QAE@XZ 00512f60 f i inventorydlg.obj
 0001:00111fb0       ?get_pContents@CSCI_BContainer@@QAEFXZ 00512fb0 f i inventorydlg.obj
 0001:00112000       ?get_pIsWorn@CSCI_BWearable@@QAEFXZ 00513000 f i inventorydlg.obj
 0001:00112050       ?_GetBaseMessageMap@CInventoryListCtrl@@KGPBUAFX_MSGMAP@@XZ 00513050 f   invlistctrl.obj
 0001:00112080       ?GetMessageMap@CInventoryListCtrl@@MBEPBUAFX_MSGMAP@@XZ 00513080 f   invlistctrl.obj
 0001:001120c0       ??0CInventoryListCtrl@@QAE@VCSkinObj@@VCSCI_WorldObject@@@Z 005130c0 f   invlistctrl.obj
 0001:00112200       ??_GCInventoryListCtrl@@UAEPAXI@Z 00513200 f i invlistctrl.obj
 0001:00112200       ??_ECInventoryListCtrl@@UAEPAXI@Z 00513200 f i invlistctrl.obj
 0001:00112270       ??1CInventoryListCtrl@@UAE@XZ 00513270 f   invlistctrl.obj
 0001:00112360       ?OnItemActivate@CInventoryListCtrl@@UAEXH_N@Z 00513360 f   invlistctrl.obj
 0001:00112640       ?OnStartDrag@CInventoryListCtrl@@IAEXPAUtagNMHDR@@PAJ@Z 00513640 f   invlistctrl.obj
 0001:001127a0       ?CanAcceptDrop@CInventoryListCtrl@@UAEPAUHICON__@@AAVCDraggable@@AAVCPoint@@@Z 005137a0 f   invlistctrl.obj
 0001:00112860       ?AcceptDrop@CInventoryListCtrl@@UAEXAAVCDraggable@@AAVCPoint@@@Z 00513860 f   invlistctrl.obj
 0001:00112bf0       ?OnCreate@CInventoryListCtrl@@IAEHPAUtagCREATESTRUCTA@@@Z 00513bf0 f   invlistctrl.obj
 0001:00112c60       ?ObjectFromPoint@CInventoryListCtrl@@QAE?AVCSCI_WorldObject@@AAVCPoint@@@Z 00513c60 f   invlistctrl.obj
 0001:00112d30       ?ObjectFromScreenPoint@CInventoryListCtrl@@QAE?AVCSCI_WorldObject@@AAVCPoint@@@Z 00513d30 f   invlistctrl.obj
 0001:00112db0       ?SetFastScrollUp@CInventoryListCtrl@@QAEXPAVCFastScrollCtrl@@@Z 00513db0 f   invlistctrl.obj
 0001:00112df0       ?SetFastScrollDown@CInventoryListCtrl@@QAEXPAVCFastScrollCtrl@@@Z 00513df0 f   invlistctrl.obj
 0001:00112e30       ?OnSetCursor@CInventoryListCtrl@@IAEHPAVCWnd@@II@Z 00513e30 f   invlistctrl.obj
 0001:00113030       ??_ECInventoryListCtrl@@WEA@AEPAXI@Z 00514030 f i invlistctrl.obj
 0001:00113040       ??_ECInventoryListCtrl@@WHE@AEPAXI@Z 00514040 f i invlistctrl.obj
 0001:00113050       ??_ECInventoryListCtrl@@WLE@AEPAXI@Z 00514050 f i invlistctrl.obj
 0001:00113060       ?set_pDirectObject@CSCI_WorldObject@@QAEXF@Z 00514060 f i invlistctrl.obj
 0001:001130c0       ?set_pIndirectObject@CSCI_WorldObject@@QAEXF@Z 005140c0 f i invlistctrl.obj
 0001:00113120       ?get_pTargetting@CSCI_WorldEgo@@QAEFXZ 00514120 f i invlistctrl.obj
 0001:00113170       ??0CSCI_VerbList@@QAE@G@Z  00514170 f i invlistctrl.obj
 0001:001131c0       ?GetObjectA@CWorldObjectDraggable@@QAE?AVCSCI_WorldObject@@XZ 005141c0 f i invlistctrl.obj
 0001:00113220       ??0CItemListDlg@@QAE@XZ    00514220 f   ItemList.obj
 0001:00113340       ??_ECItemListDlg@@UAEPAXI@Z 00514340 f i ItemList.obj
 0001:00113340       ??_GCItemListDlg@@UAEPAXI@Z 00514340 f i ItemList.obj
 0001:001133b0       ??1CItemListDlg@@UAE@XZ    005143b0 f i ItemList.obj
 0001:00113460       ?CloseSelf@CItemListDlg@@UAEX_N@Z 00514460 f   ItemList.obj
 0001:00113520       ?Create@CItemListDlg@@QAEHVCSCI_List@@VCSCI_Object@@@Z 00514520 f   ItemList.obj
 0001:00113920       ?MakeSkinCtrl@CItemListDlg@@UAEPAVCSkinCtrl@@VCSkinObj@@@Z 00514920 f   ItemList.obj
 0001:00113b70       ??0CItemListCtrl@@QAE@XZ   00514b70 f i ItemList.obj
 0001:00113bf0       ?OnItemActivate@CItemListCtrl@@UAEXH_N@Z 00514bf0 f i ItemList.obj
 0001:00113c50       ??_ECItemListCtrl@@UAEPAXI@Z 00514c50 f i ItemList.obj
 0001:00113c50       ??_GCItemListCtrl@@UAEPAXI@Z 00514c50 f i ItemList.obj
 0001:00113cc0       ??1CItemListCtrl@@UAE@XZ   00514cc0 f i ItemList.obj
 0001:00113d40       ?OnClick@CItemListDlg@@QAEXF_N@Z 00514d40 f   ItemList.obj
 0001:00113fc0       ?HandleVerb@CItemListDlg@@UAEHHVCSCI_WorldObject@@@Z 00514fc0 f   ItemList.obj
 0001:00114080       ??_ECItemListCtrl@@WEA@AEPAXI@Z 00515080 f i ItemList.obj
 0001:00114090       ??_ECItemListCtrl@@WHE@AEPAXI@Z 00515090 f i ItemList.obj
 0001:001140a0       ??_ECItemListDlg@@WJE@AEPAXI@Z 005150a0 f i ItemList.obj
 0001:001140b0       ?get_scratch@CSCI_Object@@QAEFXZ 005150b0 f i ItemList.obj
 0001:00114100       ?_GetBaseMessageMap@CLogInDlg@@KGPBUAFX_MSGMAP@@XZ 00515100 f   LogInDlg.obj
 0001:00114130       ?GetMessageMap@CLogInDlg@@MBEPBUAFX_MSGMAP@@XZ 00515130 f   LogInDlg.obj
 0001:00114170       ?_GetBaseMessageMap@CSplashDlg@@KGPBUAFX_MSGMAP@@XZ 00515170 f   LogInDlg.obj
 0001:001141a0       ?GetMessageMap@CSplashDlg@@MBEPBUAFX_MSGMAP@@XZ 005151a0 f   LogInDlg.obj
 0001:001141e0       ?OnResize@CLogInDlg@@QAEXPAUtagNMHDR@@PAJ@Z 005151e0 f   LogInDlg.obj
 0001:001142d0       ??0CLogInDlg@@QAE@XZ       005152d0 f   LogInDlg.obj
 0001:00114340       ??_GCLogInDlg@@UAEPAXI@Z   00515340 f i LogInDlg.obj
 0001:00114340       ??_ECLogInDlg@@UAEPAXI@Z   00515340 f i LogInDlg.obj
 0001:001143b0       ??1CLogInDlg@@UAE@XZ       005153b0 f   LogInDlg.obj
 0001:00114490       ?CloseSelf@CLogInDlg@@UAEX_N@Z 00515490 f   LogInDlg.obj
 0001:001144e0       ?Create@CLogInDlg@@QAEHPAD0@Z 005154e0 f   LogInDlg.obj
 0001:00114660       ?AddText@CLogInDlg@@QAEXPADH@Z 00515660 f   LogInDlg.obj
 0001:00114700       ?MakeSkinCtrl@CLogInDlg@@UAEPAVCSkinCtrl@@VCSkinObj@@@Z 00515700 f   LogInDlg.obj
 0001:00114950       ?Create@CSplashDlg@@QAEHPAVCWnd@@@Z 00515950 f   LogInDlg.obj
 0001:00114a40       ?OnWindowPosChanged@CSplashDlg@@QAEXPAUtagWINDOWPOS@@@Z 00515a40 f   LogInDlg.obj
 0001:00114ab0       ??0CLogInPassword@@QAE@VCSCI_Script@@VStringID@@1VCSCI_LongInt@@1@Z 00515ab0 f   LogInDlg.obj
 0001:00114bd0       ??_ECLogInPassword@@UAEPAXI@Z 00515bd0 f i LogInDlg.obj
 0001:00114bd0       ??_GCLogInPassword@@UAEPAXI@Z 00515bd0 f i LogInDlg.obj
 0001:00114c40       ??1CLogInPassword@@UAE@XZ  00515c40 f i LogInDlg.obj
 0001:00114c90       ?CloseSelf@CLogInPassword@@UAEX_N@Z 00515c90 f   LogInDlg.obj
 0001:00114f10       ?Create@CLogInPassword@@QAEHXZ 00515f10 f   LogInDlg.obj
 0001:00115130       ?MakeSkinCtrl@CLogInPassword@@UAEPAVCSkinCtrl@@VCSkinObj@@@Z 00516130 f   LogInDlg.obj
 0001:00115560       ?Next@CLogInPassword@@UAEXXZ 00516560 f   LogInDlg.obj
 0001:001155c0       ??0CSignupBtn@@QAE@VCSkinObj@@PAVCSkinWnd@@@Z 005165c0 f   LogInDlg.obj
 0001:00115680       ??_GCSignupBtn@@UAEPAXI@Z  00516680 f i LogInDlg.obj
 0001:00115680       ??_ECSignupBtn@@UAEPAXI@Z  00516680 f i LogInDlg.obj
 0001:001156f0       ??1CSignupBtn@@UAE@XZ      005166f0 f i LogInDlg.obj
 0001:00115740       ?OnActivate@CSignupBtn@@UAEXFF@Z 00516740 f   LogInDlg.obj
 0001:001157b0       ??0CAccountDlg@@QAE@VCSCI_Script@@@Z 005167b0 f   LogInDlg.obj
 0001:00115870       ??_GCAccountDlg@@UAEPAXI@Z 00516870 f i LogInDlg.obj
 0001:00115870       ??_ECAccountDlg@@UAEPAXI@Z 00516870 f i LogInDlg.obj
 0001:001158e0       ??1CAccountDlg@@UAE@XZ     005168e0 f i LogInDlg.obj
 0001:00115930       ?CloseSelf@CAccountDlg@@UAEX_N@Z 00516930 f   LogInDlg.obj
 0001:001159f0       ?Create@CAccountDlg@@QAEHXZ 005169f0 f   LogInDlg.obj
 0001:00115aa0       ??0CLoginWnd@@QAE@XZ       00516aa0 f   loginwnd.obj
 0001:00115b30       ??_GCLoginWnd@@UAEPAXI@Z   00516b30 f i loginwnd.obj
 0001:00115b30       ??_ECLoginWnd@@UAEPAXI@Z   00516b30 f i loginwnd.obj
 0001:00115ba0       ??1CLoginWnd@@UAE@XZ       00516ba0 f   loginwnd.obj
 0001:00115d60       ?Create@CLoginWnd@@QAEHXZ  00516d60 f   loginwnd.obj
 0001:00116120       ?_GetBaseMessageMap@CBioLine@@KGPBUAFX_MSGMAP@@XZ 00517120 f   LookAt.obj
 0001:00116150       ?GetMessageMap@CBioLine@@MBEPBUAFX_MSGMAP@@XZ 00517150 f   LookAt.obj
 0001:00116190       ??0CBioLine@@QAE@VCSkinObj@@PAVCSkinWnd@@IK_N22@Z 00517190 f   LookAt.obj
 0001:00116290       ??_GCBioLine@@UAEPAXI@Z    00517290 f i LookAt.obj
 0001:00116290       ??_ECBioLine@@UAEPAXI@Z    00517290 f i LookAt.obj
 0001:00116300       ??1CBioLine@@UAE@XZ        00517300 f i LookAt.obj
 0001:00116350       ?OnChar@CBioLine@@QAEXIII@Z 00517350 f   LookAt.obj
 0001:00116680       ?MakeString@@YA?AVCString@@H@Z 00517680 f   LookAt.obj
 0001:001168a0       ??0CLookAt@@QAE@H@Z        005178a0 f   LookAt.obj
 0001:001169f0       ??_GCLookAt@@UAEPAXI@Z     005179f0 f i LookAt.obj
 0001:001169f0       ??_ECLookAt@@UAEPAXI@Z     005179f0 f i LookAt.obj
 0001:00116a60       ??1CLookAt@@UAE@XZ         00517a60 f i LookAt.obj
 0001:00116af0       ?CloseSelf@CLookAt@@UAEX_N@Z 00517af0 f   LookAt.obj
 0001:00116c80       ?Create@CLookAt@@QAEHPBD@Z 00517c80 f   LookAt.obj
 0001:00117650       ?MakeSkinCtrl@CLookAt@@UAEPAVCSkinCtrl@@VCSkinObj@@@Z 00518650 f   LookAt.obj
 0001:0011cf10       ?SaveName@CLookAt@@QAEXXZ  0051df10 f   LookAt.obj
 0001:0011d0c0       ?Hide@CLookAt@@UAEXXZ      0051e0c0 f   LookAt.obj
 0001:0011d110       ?Show@CLookAt@@UAEXXZ      0051e110 f   LookAt.obj
 0001:0011d1a0       ?TogglePVP@CLookAt@@QAE_NXZ 0051e1a0 f   LookAt.obj
 0001:0011d240       ??0CLookAtFiller@@QAE@XZ   0051e240 f   LookAt.obj
 0001:0011d2a0       ??_GCLookAtFiller@@UAEPAXI@Z 0051e2a0 f i LookAt.obj
 0001:0011d2a0       ??_ECLookAtFiller@@UAEPAXI@Z 0051e2a0 f i LookAt.obj
 0001:0011d310       ??1CLookAtFiller@@UAE@XZ   0051e310 f i LookAt.obj
 0001:0011d360       ?CloseSelf@CLookAtFiller@@UAEX_N@Z 0051e360 f   LookAt.obj
 0001:0011d3c0       ?Create@CLookAtFiller@@QAEHPAVCWnd@@@Z 0051e3c0 f   LookAt.obj
 0001:0011d460       ??0CPVPAttribute@@QAE@VCSkinObj@@PAVCSkinWnd@@_N@Z 0051e460 f   LookAt.obj
 0001:0011d560       ??_GCPVPAttribute@@UAEPAXI@Z 0051e560 f i LookAt.obj
 0001:0011d560       ??_ECPVPAttribute@@UAEPAXI@Z 0051e560 f i LookAt.obj
 0001:0011d5d0       ??1CPVPAttribute@@UAE@XZ   0051e5d0 f i LookAt.obj
 0001:0011d620       ?ChangeValue@CPVPAttribute@@UAEXH@Z 0051e620 f   LookAt.obj
 0001:0011d6b0       ??0CLookAtBtn@@QAE@VCSkinObj@@PAVCSkinWnd@@H@Z 0051e6b0 f   LookAt.obj
 0001:0011d780       ??_ECLookAtBtn@@UAEPAXI@Z  0051e780 f i LookAt.obj
 0001:0011d780       ??_GCLookAtBtn@@UAEPAXI@Z  0051e780 f i LookAt.obj
 0001:0011d7f0       ??1CLookAtBtn@@UAE@XZ      0051e7f0 f i LookAt.obj
 0001:0011d840       ?OnActivate@CLookAtBtn@@UAEXFF@Z 0051e840 f   LookAt.obj
 0001:0011daf0       ?_GetBaseMessageMap@CLookAtItem@@KGPBUAFX_MSGMAP@@XZ 0051eaf0 f   LookAt.obj
 0001:0011db20       ?GetMessageMap@CLookAtItem@@MBEPBUAFX_MSGMAP@@XZ 0051eb20 f   LookAt.obj
 0001:0011db60       ??0CLookAtItem@@QAE@XZ     0051eb60 f   LookAt.obj
 0001:0011dc40       ??_GCLookAtItem@@UAEPAXI@Z 0051ec40 f i LookAt.obj
 0001:0011dc40       ??_ECLookAtItem@@UAEPAXI@Z 0051ec40 f i LookAt.obj
 0001:0011dcb0       ??1CLookAtItem@@UAE@XZ     0051ecb0 f   LookAt.obj
 0001:0011dd70       ?Create@CLookAtItem@@QAEHVCSCI_WorldObject@@VStringID@@@Z 0051ed70 f   LookAt.obj
 0001:0011e4b0       ?MakeSkinCtrl@CLookAtItem@@UAEPAVCSkinCtrl@@VCSkinObj@@@Z 0051f4b0 f   LookAt.obj
 0001:0011e6e0       ?Update@CLookAtItem@@QAEXVStringID@@@Z 0051f6e0 f   LookAt.obj
 0001:0011e7f0       ?Match@CLookAtItem@@QAEHVCSCI_WorldObject@@@Z 0051f7f0 f   LookAt.obj
 0001:0011e850       ?Look@CLookAtItem@@SAXVCSCI_WorldObject@@VStringID@@@Z 0051f850 f   LookAt.obj
 0001:0011ea70       ?OnResize@CLookAtItem@@QAEXPAUtagNMHDR@@PAJ@Z 0051fa70 f   LookAt.obj
 0001:0011eb60       ??0?$list@PAVCLookAtItem@@V?$allocator@PAVCLookAtItem@@@std@@@std@@QAE@ABV?$allocator@PAVCLookAtItem@@@1@@Z 0051fb60 f i LookAt.obj
 0001:0011ebd0       ??1?$list@PAVCLookAtItem@@V?$allocator@PAVCLookAtItem@@@std@@@std@@QAE@XZ 0051fbd0 f i LookAt.obj
 0001:0011ec70       ?begin@?$list@PAVCLookAtItem@@V?$allocator@PAVCLookAtItem@@@std@@@std@@QAE?AViterator@12@XZ 0051fc70 f i LookAt.obj
 0001:0011ece0       ?end@?$list@PAVCLookAtItem@@V?$allocator@PAVCLookAtItem@@@std@@@std@@QAE?AViterator@12@XZ 0051fce0 f i LookAt.obj
 0001:0011ed40       ?size@?$list@PAVCLookAtItem@@V?$allocator@PAVCLookAtItem@@@std@@@std@@QBEIXZ 0051fd40 f i LookAt.obj
 0001:0011ed80       ?front@?$list@PAVCLookAtItem@@V?$allocator@PAVCLookAtItem@@@std@@@std@@QAEAAPAVCLookAtItem@@XZ 0051fd80 f i LookAt.obj
 0001:0011ede0       ?push_back@?$list@PAVCLookAtItem@@V?$allocator@PAVCLookAtItem@@@std@@@std@@QAEXABQAVCLookAtItem@@@Z 0051fde0 f i LookAt.obj
 0001:0011ee50       ?remove@?$list@PAVCLookAtItem@@V?$allocator@PAVCLookAtItem@@@std@@@std@@QAEXABQAVCLookAtItem@@@Z 0051fe50 f i LookAt.obj
 0001:0011ef20       ??0iterator@?$list@PAVCLookAtItem@@V?$allocator@PAVCLookAtItem@@@std@@@std@@QAE@XZ 0051ff20 f i LookAt.obj
 0001:0011ef70       ??Diterator@?$list@PAVCLookAtItem@@V?$allocator@PAVCLookAtItem@@@std@@@std@@QBEAAPAVCLookAtItem@@XZ 0051ff70 f i LookAt.obj
 0001:0011efc0       ??Eiterator@?$list@PAVCLookAtItem@@V?$allocator@PAVCLookAtItem@@@std@@@std@@QAE?AV012@H@Z 0051ffc0 f i LookAt.obj
 0001:0011f020       ??9iterator@?$list@PAVCLookAtItem@@V?$allocator@PAVCLookAtItem@@@std@@@std@@QBE_NABV012@@Z 00520020 f i LookAt.obj
 0001:0011f080       ?insert@?$list@PAVCLookAtItem@@V?$allocator@PAVCLookAtItem@@@std@@@std@@QAE?AViterator@12@V312@ABQAVCLookAtItem@@@Z 00520080 f i LookAt.obj
 0001:0011f190       ?erase@?$list@PAVCLookAtItem@@V?$allocator@PAVCLookAtItem@@@std@@@std@@QAE?AViterator@12@V312@@Z 00520190 f i LookAt.obj
 0001:0011f2a0       ?erase@?$list@PAVCLookAtItem@@V?$allocator@PAVCLookAtItem@@@std@@@std@@QAE?AViterator@12@V312@0@Z 005202a0 f i LookAt.obj
 0001:0011f330       ?_Buynode@?$list@PAVCLookAtItem@@V?$allocator@PAVCLookAtItem@@@std@@@std@@IAEPAU_Node@12@PAU312@0@Z 00520330 f i LookAt.obj
 0001:0011f3e0       ?_Freenode@?$list@PAVCLookAtItem@@V?$allocator@PAVCLookAtItem@@@std@@@std@@IAEXPAU_Node@12@@Z 005203e0 f i LookAt.obj
 0001:0011f430       ?_Next@_Acc@?$list@PAVCLookAtItem@@V?$allocator@PAVCLookAtItem@@@std@@@std@@SAAAPAU_Node@23@PAU423@@Z 00520430 f i LookAt.obj
 0001:0011f460       ?_Value@_Acc@?$list@PAVCLookAtItem@@V?$allocator@PAVCLookAtItem@@@std@@@std@@SAAAPAVCLookAtItem@@PAU_Node@23@@Z 00520460 f i LookAt.obj
 0001:0011f490       ??0const_iterator@?$list@PAVCLookAtItem@@V?$allocator@PAVCLookAtItem@@@std@@@std@@QAE@XZ 00520490 f i LookAt.obj
 0001:0011f4c0       ??0iterator@?$list@PAVCLookAtItem@@V?$allocator@PAVCLookAtItem@@@std@@@std@@QAE@PAU_Node@12@@Z 005204c0 f i LookAt.obj
 0001:0011f510       ??Eiterator@?$list@PAVCLookAtItem@@V?$allocator@PAVCLookAtItem@@@std@@@std@@QAEAAV012@XZ 00520510 f i LookAt.obj
 0001:0011f570       ??8iterator@?$list@PAVCLookAtItem@@V?$allocator@PAVCLookAtItem@@@std@@@std@@QBE_NABV012@@Z 00520570 f i LookAt.obj
 0001:0011f5c0       ?_Prev@_Acc@?$list@PAVCLookAtItem@@V?$allocator@PAVCLookAtItem@@@std@@@std@@SAAAPAU_Node@23@PAU423@@Z 005205c0 f i LookAt.obj
 0001:0011f5f0       ?_Charalloc@?$allocator@PAVCLookAtItem@@@std@@QAEPADI@Z 005205f0 f i LookAt.obj
 0001:0011f640       ?deallocate@?$allocator@PAVCLookAtItem@@@std@@QAEXPAXI@Z 00520640 f i LookAt.obj
 0001:0011f690       ?construct@?$allocator@PAVCLookAtItem@@@std@@QAEXPAPAVCLookAtItem@@ABQAV3@@Z 00520690 f i LookAt.obj
 0001:0011f6e0       ?destroy@?$allocator@PAVCLookAtItem@@@std@@QAEXPAPAVCLookAtItem@@@Z 005206e0 f i LookAt.obj
 0001:0011f730       ??0const_iterator@?$list@PAVCLookAtItem@@V?$allocator@PAVCLookAtItem@@@std@@@std@@QAE@PAU_Node@12@@Z 00520730 f i LookAt.obj
 0001:0011f770       ?_Mynode@const_iterator@?$list@PAVCLookAtItem@@V?$allocator@PAVCLookAtItem@@@std@@@std@@QBEPAU_Node@23@XZ 00520770 f i LookAt.obj
 0001:0011f7b0       ?_Construct@std@@YAXPAPAVCLookAtItem@@ABQAV2@@Z 005207b0 f i LookAt.obj
 0001:0011f820       ?_Destroy@std@@YAXPAPAVCLookAtItem@@@Z 00520820 f i LookAt.obj
 0001:0011f850       ??_ECBioLine@@WGA@AEPAXI@Z 00520850 f i LookAt.obj
 0001:0011f860       ??_ECBioLine@@WHE@AEPAXI@Z 00520860 f i LookAt.obj
 0001:0011f870       ??0CSCI_CharInfo@@QAE@XZ   00520870 f i LookAt.obj
 0001:0011f8c0       ?get_pIsSelf@CSCI_CharInfo@@QAEFXZ 005208c0 f i LookAt.obj
 0001:0011f910       ?get_pName@CSCI_CharInfo@@QAEFXZ 00520910 f i LookAt.obj
 0001:0011f960       ?get_pTitle@CSCI_CharInfo@@QAE?AVStringID@@XZ 00520960 f i LookAt.obj
 0001:0011f9d0       ?get_pProfession@CSCI_CharInfo@@QAE?AVStringID@@XZ 005209d0 f i LookAt.obj
 0001:0011fa40       ?get_pBiography@CSCI_CharInfo@@QAE?AVStringID@@XZ 00520a40 f i LookAt.obj
 0001:0011fab0       ?get_pLevel@CSCI_CharInfo@@QAEFXZ 00520ab0 f i LookAt.obj
 0001:0011fb00       ?get_pStrength@CSCI_CharInfo@@QAEFXZ 00520b00 f i LookAt.obj
 0001:0011fb50       ?get_pDexterity@CSCI_CharInfo@@QAEFXZ 00520b50 f i LookAt.obj
 0001:0011fba0       ?get_pIntelligence@CSCI_CharInfo@@QAEFXZ 00520ba0 f i LookAt.obj
 0001:0011fbf0       ?get_pEndurance@CSCI_CharInfo@@QAEFXZ 00520bf0 f i LookAt.obj
 0001:0011fc40       ?get_pCarry@CSCI_CharInfo@@QAEFXZ 00520c40 f i LookAt.obj
 0001:0011fc90       ?get_pCarryMax@CSCI_CharInfo@@QAEFXZ 00520c90 f i LookAt.obj
 0001:0011fce0       ?get_pExperience@CSCI_CharInfo@@QAE?AVCSCI_LongInt@@XZ 00520ce0 f i LookAt.obj
 0001:0011fd40       ?get_pBuildPoints@CSCI_CharInfo@@QAEFXZ 00520d40 f i LookAt.obj
 0001:0011fd90       ?get_pArmorRating@CSCI_CharInfo@@QAEFXZ 00520d90 f i LookAt.obj
 0001:0011fde0       ?get_pPvp@CSCI_CharInfo@@QAEFXZ 00520de0 f i LookAt.obj
 0001:0011fe30       ?set_pPvp@CSCI_CharInfo@@QAEXF@Z 00520e30 f i LookAt.obj
 0001:0011fe90       ?get_pAlignment@CSCI_CharInfo@@QAEFXZ 00520e90 f i LookAt.obj
 0001:0011fee0       ?get_pFace@CSCI_CharInfo@@QAEFXZ 00520ee0 f i LookAt.obj
 0001:0011ff30       ?get_pAttackStance@CSCI_CharInfo@@QAEFXZ 00520f30 f i LookAt.obj
 0001:0011ff80       ?get_pAttackWidth@CSCI_CharInfo@@QAEFXZ 00520f80 f i LookAt.obj
 0001:0011ffd0       ?get_pAttackHeight@CSCI_CharInfo@@QAEFXZ 00520fd0 f i LookAt.obj
 0001:00120020       ?get_pStand@CSCI_CharInfo@@QAEFXZ 00521020 f i LookAt.obj
 0001:00120070       ?get_pArmorInfoList@CSCI_CharInfo@@QAEFXZ 00521070 f i LookAt.obj
 0001:001200c0       ?get_pWeaponName@CSCI_CharInfo@@QAEFXZ 005210c0 f i LookAt.obj
 0001:00120110       ?get_pWeaponDamageMin@CSCI_CharInfo@@QAEFXZ 00521110 f i LookAt.obj
 0001:00120160       ?get_pWeaponDamageMax@CSCI_CharInfo@@QAEFXZ 00521160 f i LookAt.obj
 0001:001201b0       ?get_pWeaponCondition@CSCI_CharInfo@@QAEFXZ 005211b0 f i LookAt.obj
 0001:00120200       ?get_pAttacksPerRound@CSCI_CharInfo@@QAEFXZ 00521200 f i LookAt.obj
 0001:00120250       ?get_pDodgesPerRound@CSCI_CharInfo@@QAEFXZ 00521250 f i LookAt.obj
 0001:001202a0       ?get_pBlocksPerRound@CSCI_CharInfo@@QAEFXZ 005212a0 f i LookAt.obj
 0001:001202f0       ?get_pAttackDamageMin@CSCI_CharInfo@@QAEFXZ 005212f0 f i LookAt.obj
 0001:00120340       ?get_pAttackDamageMax@CSCI_CharInfo@@QAEFXZ 00521340 f i LookAt.obj
 0001:00120390       ?get_pMovementRate@CSCI_CharInfo@@QAEFXZ 00521390 f i LookAt.obj
 0001:001203e0       ?get_pSkillArray@CSCI_CharInfo@@QAEFXZ 005213e0 f i LookAt.obj
 0001:00120430       ?get_pStatusArray@CSCI_CharInfo@@QAEFXZ 00521430 f i LookAt.obj
 0001:00120480       ?get_pNPCKills@CSCI_CharInfo@@QAEFXZ 00521480 f i LookAt.obj
 0001:001204d0       ?get_pPKills@CSCI_CharInfo@@QAEFXZ 005214d0 f i LookAt.obj
 0001:00120520       ?get_pMeleeMod@CSCI_CharInfo@@QAEFXZ 00521520 f i LookAt.obj
 0001:00120570       ?get_pSpellMod@CSCI_CharInfo@@QAEFXZ 00521570 f i LookAt.obj
 0001:001205c0       ?get_pOldLevel@CSCI_CharInfo@@QAEFXZ 005215c0 f i LookAt.obj
 0001:00120610       ?set_pUpdateBio@CSCI_CharInfo@@QAEXF@Z 00521610 f i LookAt.obj
 0001:00120670       ?set_pUpdateTitle@CSCI_CharInfo@@QAEXF@Z 00521670 f i LookAt.obj
 0001:001206d0       ?get_pManaDrain@CSCI_CharInfo@@QAE?AVCSCI_LongInt@@XZ 005216d0 f i LookAt.obj
 0001:00120730       ?get_pMeleeArmorPierce@CSCI_CharInfo@@QAE?AVCSCI_LongInt@@XZ 00521730 f i LookAt.obj
 0001:00120790       ?get_pEvilMDM@CSCI_CharInfo@@QAE?AVCSCI_LongInt@@XZ 00521790 f i LookAt.obj
 0001:001207f0       ?get_pGoodMDM@CSCI_CharInfo@@QAE?AVCSCI_LongInt@@XZ 005217f0 f i LookAt.obj
 0001:00120850       ?get_pAccountType@CSCI_CharInfo@@QAE?AVStringID@@XZ 00521850 f i LookAt.obj
 0001:001208c0       ?get_pBillingDate@CSCI_CharInfo@@QAE?AVCSCI_LongInt@@XZ 005218c0 f i LookAt.obj
