 Sciw

 Timestamp is 5e36113c (Sat Feb 01 16:01:00 2020)

 Preferred load address is 00400000

 Start         Length     Name                   Class
 0001:00000000 000e1fd2H .text                   CODE
 0001:000e1fe0 00008b4bH .text$x                 CODE
 0002:00000000 0000109eH CODESEG                 CODE
 0003:00000000 000008d4H .idata$5                DATA
 0003:000008d8 0000d08cH .rdata                  DATA
 0003:0000d968 0000008cH .rdata$r                DATA
 0003:0000d9f8 0000bb30H .xdata$x                DATA
 0003:00019528 00000104H .idata$2                DATA
 0003:0001962c 00000014H .idata$3                DATA
 0003:00019640 000008d4H .idata$4                DATA
 0003:00019f14 00002138H .idata$6                DATA
 0003:0001c050 0000005dH .edata                  DATA
 0004:00000000 00000004H .CRT$XCA                DATA
 0004:00000004 00000004H .CRT$XCL                DATA
 0004:00000008 00000104H .CRT$XCU                DATA
 0004:0000010c 00000004H .CRT$XCZ                DATA
 0004:00000110 00000004H .CRT$XIA                DATA
 0004:00000114 00000004H .CRT$XIZ                DATA
 0004:00000120 00020071H .data                   DATA
 0004:00020198 0006c838H .bss                    DATA
 0005:00000000 00000868H .rsrc$01                DATA
 0005:00000870 0000b6a0H .rsrc$02                DATA

  Address         Publics by Value              Rva+Base     Lib:Object

 0001:00000000       ?KArgList@@YAXPAF@Z        00401000 f   Arglist.obj
 0001:00000210       ?Free@MemID@@QAEXXZ        00401210 f i Arglist.obj
 0001:00000250       ??BMemID@@QBEGXZ           00401250 f i Arglist.obj
 0001:00000270       ??DTextID@@QAEPADXZ        00401270 f i Arglist.obj
 0001:000002a0       ??DMemID@@QBEPAXXZ         004012a0 f i Arglist.obj
 0001:000002c0       ?GetAddr@MemoryMgr@@QAEPAXG@Z 004012c0 f i Arglist.obj
 0001:000002e0       ?Get@TextID@@QAEXII@Z      004012e0 f i Arglist.obj
 0001:00000310       ?Get@MemID@@QAEXW4MemType@@IIIPAUMemClient@@DW4ReservedHandle@@@Z 00401310 f i Arglist.obj
 0001:00000350       ?KArray@@YAXPAF@Z          00401350 f   Array.obj
 0001:00000800       ?size@Array@@QAEGXZ        00401800 f   Array.obj
 0001:0000084c       ?elementSize@Array@@QAEGXZ 0040184c f   Array.obj
 0001:00000888       ?checkBounds@Array@@QAEHH@Z 00401888 f   Array.obj
 0001:000008c2       ?calcAddress@Array@@QAEPAXH@Z 004018c2 f   Array.obj
 0001:000009c8       ?resize@Array@@QAEXH@Z     004019c8 f   Array.obj
 0001:00000ad3       ?at@Array@@QAEHH@Z         00401ad3 f   Array.obj
 0001:00000b73       ?at@Array@@QAEXHH@Z        00401b73 f   Array.obj
 0001:00000c0b       ?at@Array@@QAEXHHPAX@Z     00401c0b f   Array.obj
 0001:00000d1a       ?fill@Array@@QAEXHHH@Z     00401d1a f   Array.obj
 0001:00000e33       ?copy@Array@@QAEXHVMemID@@HH@Z 00401e33 f   Array.obj
 0001:00000f6f       ?copy@Array@@QAEXHPAXHH@Z  00401f6f f   Array.obj
 0001:00001006       ?insert@Array@@QAEXHH@Z    00402006 f   Array.obj
 0001:0000104f       ?del@Array@@QAEXH@Z        0040204f f   Array.obj
 0001:000010d0       ?ValidateArray@@YAXVMemID@@PADH@Z 004020d0 f i Array.obj
 0001:00001130       ??0MemID@@QAE@ABV0@@Z      00402130 f i Array.obj
 0001:00001150       ??0MemID@@QAE@G@Z          00402150 f i Array.obj
 0001:00001170       ?IsValid@MemID@@QBEHXZ     00402170 f i Array.obj
 0001:00001190       ?IsValid@MemoryMgr@@QAEHG@Z 00402190 f i Array.obj
 0001:00001220       ?Duplicate@MemID@@QAE?AV1@XZ 00402220 f i Array.obj
 0001:00001290       ??0MemID@@QAE@XZ           00402290 f i Array.obj
 0001:000012b0       ??0ObjectID@@QAE@G@Z       004022b0 f i Array.obj
 0001:000012b0       ??0ArrayID@@QAE@G@Z        004022b0 f i Array.obj
 0001:000012b0       ??0ScrollEntryID@@QAE@G@Z  004022b0 f i Array.obj
 0001:000012b0       ??0SOL_ListID@@QAE@G@Z     004022b0 f i Array.obj
 0001:000012b0       ??0ScrollWindowID@@QAE@G@Z 004022b0 f i Array.obj
 0001:000012d0       ??0FakeScrollEntryID@@QAE@G@Z 004022d0 f i Array.obj
 0001:000012d0       ??0FakeScrollWindowID@@QAE@G@Z 004022d0 f i Array.obj
 0001:000012d0       ??0FakeObjectID@@QAE@G@Z   004022d0 f i Array.obj
 0001:000012d0       ??0FakeArrayID@@QAE@G@Z    004022d0 f i Array.obj
 0001:000012d0       ??0FakeSOL_ListID@@QAE@G@Z 004022d0 f i Array.obj
 0001:000012d0       ??0ScriptID@@QAE@G@Z       004022d0 f i Array.obj
 0001:000012f0       ??0ArrayID@@QAE@HW4ArrayType@@@Z 004022f0 f i Array.obj
 0001:00001350       ?Get@ArrayID@@QAEXI@Z      00402350 f i Array.obj
 0001:00001380       ??0Array@@QAE@XZ           00402380 f i Array.obj
 0001:000013b0       ??0Array@@QAE@VMemID@@@Z   004023b0 f i Array.obj
 0001:000013e0       ?memType@Array@@QAE?AW4MemType@@XZ 004023e0 f i Array.obj
 0001:00001400       ?dataID@Array@@QAE?AVMemID@@XZ 00402400 f i Array.obj
 0001:00001420       ?dataID@Array@@QAEXVMemID@@@Z 00402420 f i Array.obj
 0001:00001440       ??0ScriptEntryID@@QAE@XZ   00402440 f i Array.obj
 0001:00001440       ??0VariableID@@QAE@XZ      00402440 f i Array.obj
 0001:00001440       ??0SOL_ListID@@QAE@XZ      00402440 f i Array.obj
 0001:00001440       ??0ArrayID@@QAE@XZ         00402440 f i Array.obj
 0001:00001440       ??0ScrollWindowID@@QAE@XZ  00402440 f i Array.obj
 0001:00001440       ??0ObjectID@@QAE@XZ        00402440 f i Array.obj
 0001:00001440       ??0ScrollEntryID@@QAE@XZ   00402440 f i Array.obj
 0001:00001440       ??0ResTagID@@QAE@XZ        00402440 f i Array.obj
 0001:00001440       ??0DispatchTblID@@QAE@XZ   00402440 f i Array.obj
 0001:00001440       ??0ClassTblID@@QAE@XZ      00402440 f i Array.obj
 0001:00001460       ?IsObject@ObjectID@@QBEHXZ 00402460 f i Array.obj
 0001:000014a0       ?GetProperty@ObjectID@@QBEFG@Z 004024a0 f i Array.obj
 0001:000014d0       ?GetProperty@Object@@QAEFG@Z 004024d0 f i Array.obj
 0001:000014f0       ?GetPropAddrCheck@Object@@QAEPAFG@Z 004024f0 f i Array.obj
 0001:00001540       ?GetPropAddr@Object@@QAEPAFG@Z 00402540 f i Array.obj
 0001:000015a0       ??AObject@@QAEAAFH@Z       004025a0 f i Array.obj
 0001:000015c0       ?AssureValid@ObjectID@@QBEXXZ 004025c0 f i Array.obj
 0001:00001600       ??0BufferStd@@QAE@HHPAE@Z  00402600 f   Bufferd.obj
 0001:00001632       ??0BufferStd@@QAE@ABV0@@Z  00402632 f   Bufferd.obj
 0001:00001663       ??4BufferStd@@QAEAAV0@ABV0@@Z 00402663 f   Bufferd.obj
 0001:00001680       ??0Buffer@@IAE@HH@Z        00402680 f i Bufferd.obj
 0001:000016b0       ?Addr@BufferStd@@UBEPAEHH@Z 004026b0 f i Bufferd.obj
 0001:000016e0       ??0Buffer@@IAE@ABV0@@Z     004026e0 f i Bufferd.obj
 0001:00001720       ??0BufferWin@@QAE@HHPAE@Z  00402720 f   Bufferw.obj
 0001:00001752       ??0BufferWin@@QAE@ABV0@@Z  00402752 f   Bufferw.obj
 0001:00001783       ??4BufferWin@@QAEAAV0@ABV0@@Z 00402783 f   Bufferw.obj
 0001:000017a0       ?Clear@BufferWin@@UBEXE@Z  004027a0 f i Bufferw.obj
 0001:000017a0       ?Clear@BufferStd@@UBEXE@Z  004027a0 f i Bufferw.obj
 0001:000017e0       ?IsNull@BufferWin@@UBEHXZ  004027e0 f i Bufferw.obj
 0001:000017e0       ?IsNull@BufferStd@@UBEHXZ  004027e0 f i Bufferw.obj
 0001:000017e0       ?IsColored@SOL_Plane@@QBEHXZ 004027e0 f i Bufferw.obj
 0001:00001800       ?Addr@BufferWin@@UBEPAEHH@Z 00402800 f i Bufferw.obj
 0001:0000188c       ?ValidateControlTable@@YAXVMemID@@HHHPADH@Z 0040288c f   Celobj.obj
 0001:00001a7c       ?ValidateControlTable@@YAXHHHPADH@Z 00402a7c f   Celobj.obj
 0001:00001ad5       ?CheckBuffer@@YAHPAJ0PAEH@Z 00402ad5 f   Celobj.obj
 0001:00001adf       ?ValidateView@@YAXVMemID@@HPADH@Z 00402adf f   Celobj.obj
 0001:00001c10       ?CheckView@@YAHVMemID@@@Z  00402c10 f   Celobj.obj
 0001:00001d76       ?ValidateViews@@YAXPADH@Z  00402d76 f   Celobj.obj
 0001:00001dea       ??0CelObj@@QAE@ABV0@@Z     00402dea f   Celobj.obj
 0001:00001ecd       ??8CelObj@@QBEHABV0@@Z     00402ecd f   Celobj.obj
 0001:00001f8d       ?SearchCache@CelObj@@QBEHVBitmap@@PAH@Z 00402f8d f   Celobj.obj
 0001:00002021       ?FindReplacementEntryInCache@CelObj@@QBEHXZ 00403021 f   Celobj.obj
 0001:000020a4       ?PutCopyInCache@CelObj@@QAEXXZ 004030a4 f   Celobj.obj
 0001:00002139       ?SubmitPalette@CelObj@@QAEXXZ 00403139 f   Celobj.obj
 0001:000021a2       ?Draw@CelObj@@QAEXABVBuffer@@ABVScreenItem@@ABVSOL_Rect@@@Z 004031a2 f   Celobj.obj
 0001:00002891       ?DrawTo@CelObj@@QAEXABVBuffer@@ABVSOL_Rect@@VSOL_Point@@VRatio@@3@Z 00403891 f   Celobj.obj
 0001:00002af9       ?AnalyzeForRemap@CelObjView@@QAEHXZ 00403af9 f   Celobj.obj
 0001:00002d2b       ?AnalyzeUncompForRemap@CelObjView@@QAEHXZ 00403d2b f   Celobj.obj
 0001:00002e12       ?AnalyzeForSkip@CelObjPic@@IAEHXZ 00403e12 f   Celobj.obj
 0001:00002f82       ?AnalyzeUncompForSkip@CelObjPic@@IAEHXZ 00403f82 f   Celobj.obj
 0001:0000302a       ?ScaleTables@CelObj@@QAEXABVRatio@@0@Z 0040402a f   Celobj.obj
 0001:00003262       ?DoTable@CelObj@@QAEXPAHABVRatio@@@Z 00404262 f   Celobj.obj
 0001:000032de       ?ReadPix@CelObj@@UAEEHHH@Z 004042de f   Celobj.obj
 0001:000034d9       ?ReadLineSpan@CelObj@@QAE?AVSOL_Rect@@H@Z 004044d9 f   Celobj.obj
 0001:000036e6       ?CompareLinkArray@@YAHPBX0@Z 004046e6 f   Celobj.obj
 0001:0000372e       ?GetFirstLink@CelObj@@QAEFXZ 0040472e f   Celobj.obj
 0001:0000383e       ?GetNextLink@CelObj@@QAEFH@Z 0040483e f   Celobj.obj
 0001:000039a5       ?GetLinkPoint@CelObj@@QAEFHH@Z 004049a5 f   Celobj.obj
 0001:00003b0e       ?ResPointer@CelObjView@@UAEPAEXZ 00404b0e f   Celobj.obj
 0001:00003b57       ?Draw@CelObjView@@UAEXABVBuffer@@ABVScreenItem@@ABVSOL_Rect@@H@Z 00404b57 f   Celobj.obj
 0001:00003b81       ?Draw@CelObjView@@UAEXABVBuffer@@ABVSOL_Rect@@VSOL_Point@@H@Z 00404b81 f   Celobj.obj
 0001:00003be1       ?Draw@CelObjView@@QAEXABVBuffer@@ABVSOL_Rect@@VSOL_Point@@HVRatio@@3@Z 00404be1 f   Celobj.obj
 0001:00003c33       ??0CelObjView@@QAE@HHH@Z   00404c33 f   Celobj.obj
 0001:000040de       ??0CelObjMem@@QAE@VMemID@@@Z 004050de f   Celobj.obj
 0001:00004229       ?ResPointer@CelObjMem@@UAEPAEXZ 00405229 f   Celobj.obj
 0001:000042cb       ?Draw@CelObjMem@@UAEXABVBuffer@@ABVScreenItem@@ABVSOL_Rect@@H@Z 004052cb f   Celobj.obj
 0001:000042f5       ?Draw@CelObjMem@@QAEXABVBuffer@@ABVSOL_Rect@@VSOL_Point@@HVRatio@@3@Z 004052f5 f   Celobj.obj
 0001:00004347       ?Draw@CelObjMem@@UAEXABVBuffer@@ABVSOL_Rect@@VSOL_Point@@H@Z 00405347 f   Celobj.obj
 0001:000043a7       ?CreateHBitmap@CelObj@@QAEPAUHBITMAP__@@NPAK@Z 004053a7 f   Celobj.obj
 0001:000043ea       ?CreateHBitmap@CelObj@@QAEPAUHBITMAP__@@NAAVRatio@@0PAK@Z 004053ea f   Celobj.obj
 0001:000049ec       ??0CelObjColor@@QAE@EHH@Z  004059ec f   Celobj.obj
 0001:00004a69       ?Draw@CelObjColor@@UAEXABVBuffer@@ABVScreenItem@@ABVSOL_Rect@@H@Z 00405a69 f   Celobj.obj
 0001:00004a8f       ?Draw@CelObjColor@@QAEXABVBuffer@@ABVSOL_Rect@@@Z 00405a8f f   Celobj.obj
 0001:00004b1a       ?Draw@CelObjColor@@UAEXABVBuffer@@ABVSOL_Rect@@VSOL_Point@@H@Z 00405b1a f   Celobj.obj
 0001:00004b46       ?ResPointer@CelObjColor@@MAEPAEXZ 00405b46 f   Celobj.obj
 0001:00004b72       ??0CelObjPic@@QAE@HH@Z     00405b72 f   Celobj.obj
 0001:00004ec5       ??0CelObjPic@@QAE@ABV0@@Z  00405ec5 f   Celobj.obj
 0001:00004f4c       ?Draw@CelObjPic@@UAEXABVBuffer@@ABVScreenItem@@ABVSOL_Rect@@H@Z 00405f4c f   Celobj.obj
 0001:00004f76       ?Draw@CelObjPic@@UAEXABVBuffer@@ABVSOL_Rect@@VSOL_Point@@H@Z 00405f76 f   Celobj.obj
 0001:00004fd6       ?ResPointer@CelObjPic@@MAEPAEXZ 00405fd6 f   Celobj.obj
 0001:00005020       ??1CelObjArray@CelObj@@QAE@XZ 00406020 f i Celobj.obj
 0001:00005040       ??1CelObjArrayItem@CelObjArray@CelObj@@QAE@XZ 00406040 f i Celobj.obj
 0001:00005080       ??0CelObjArray@CelObj@@QAE@XZ 00406080 f i Celobj.obj
 0001:000050b0       ??0CelObjArrayItem@CelObjArray@CelObj@@QAE@XZ 004060b0 f i Celobj.obj
 0001:000050e0       ?size@SOL_List@@QAEAAHXZ   004060e0 f i Celobj.obj
 0001:00005100       ??0Bitmap@@QAE@XZ          00406100 f i Celobj.obj
 0001:00005140       ??_ECelObj@@UAEPAXI@Z      00406140 f i Celobj.obj
 0001:00005140       ??_GCelObj@@UAEPAXI@Z      00406140 f i Celobj.obj
 0001:00005170       ??1CelObj@@UAE@XZ          00406170 f i Celobj.obj
 0001:00005190       ??8Bitmap@@QBEHABV0@@Z     00406190 f i Celobj.obj
 0001:00005200       ??8MemID@@QBEHABV0@@Z      00406200 f i Celobj.obj
 0001:00005230       ??ACelObjArray@CelObj@@QAEAAUCelObjArrayItem@01@H@Z 00406230 f i Celobj.obj
 0001:00005250       ??0?$_com_ptr_t@V?$_com_IIID@UISkinForm@@$1?_GUID_972de6c1_8b09_11d2_b652_a1fd6cc34260@@3U__s_GUID@@A@@@@QAE@XZ 00406250 f i Celobj.obj
 0001:00005250       ??0HunkPalette@@QAE@XZ     00406250 f i Celobj.obj
 0001:00005270       ?IsPic@Bitmap@@QBEHXZ      00406270 f i Celobj.obj
 0001:00005290       ?IsOne@Ratio@@QBEHXZ       00406290 f i Celobj.obj
 0001:000052b0       ?ScaleX@ScreenItem@@QBE?AVRatio@@XZ 004062b0 f i Celobj.obj
 0001:000052d0       ?ScaleY@ScreenItem@@QBE?AVRatio@@XZ 004062d0 f i Celobj.obj
 0001:00005300       ?Y1@ScreenItem@@QBEHXZ     00406300 f i Celobj.obj
 0001:00005320       ??0Ratio@@QAE@XZ           00406320 f i Celobj.obj
 0001:00005350       ??_H@YGXPAXIHP6EX0@Z@Z     00406350 f i Celobj.obj
 0001:00005380       ?Skip@CelObj@@QBEEXZ       00406380 f i Celobj.obj
 0001:000053a0       ??0SOL_Rect@@QAE@XZ        004063a0 f i Celobj.obj
 0001:000053d0       ??0SOL_Point@@QAE@XZ       004063d0 f i Celobj.obj
 0001:00005400       ??4SOL_Rect@@QAEAAV0@ABV0@@Z 00406400 f i Celobj.obj
 0001:00005400       ??0SOL_Rect@@QAE@ABV0@@Z   00406400 f i Celobj.obj
 0001:00005430       ??0Ratio@@QAE@H@Z          00406430 f i Celobj.obj
 0001:00005460       ?setWindow@CTabEntry@@QAEXPAVCWnd@@@Z 00406460 f i Celobj.obj
 0001:00005460       ?SetCel@Bitmap@@QAEXH@Z    00406460 f i Celobj.obj
 0001:00005480       ?SetLoop@Bitmap@@QAEXH@Z   00406480 f i Celobj.obj
 0001:000054a0       ??0CelObj@@QAE@HHH@Z       004064a0 f i Celobj.obj
 0001:00005500       ??0Bitmap@@QAE@HHH@Z       00406500 f i Celobj.obj
 0001:00005540       ?Duplicate@CelObjView@@UBEPAVCelObj@@XZ 00406540 f i Celobj.obj
 0001:000055b0       ??0CelObjView@@QAE@ABV0@@Z 004065b0 f i Celobj.obj
 0001:000055e0       ??_ECelObjView@@UAEPAXI@Z  004065e0 f i Celobj.obj
 0001:000055e0       ??_GCelObjView@@UAEPAXI@Z  004065e0 f i Celobj.obj
 0001:000055e0       ??_ECelObjPic@@UAEPAXI@Z   004065e0 f i Celobj.obj
 0001:000055e0       ??_ECelObjColor@@UAEPAXI@Z 004065e0 f i Celobj.obj
 0001:000055e0       ??_GCelObjPic@@UAEPAXI@Z   004065e0 f i Celobj.obj
 0001:000055e0       ??_GCelObjColor@@UAEPAXI@Z 004065e0 f i Celobj.obj
 0001:00005610       ??1CelObjColor@@UAE@XZ     00406610 f i Celobj.obj
 0001:00005610       ??1CelObjView@@UAE@XZ      00406610 f i Celobj.obj
 0001:00005610       ??1CelObjPic@@UAE@XZ       00406610 f i Celobj.obj
 0001:00005630       ??0Bitmap@@QAE@ABV0@@Z     00406630 f i Celobj.obj
 0001:00005690       ??4CelObjView@@QAEAAV0@ABV0@@Z 00406690 f i Celobj.obj
 0001:000056b0       ??4CelObj@@QAEAAV0@ABV0@@Z 004066b0 f i Celobj.obj
 0001:00005780       ?CheckValid@MemoryMgr@@QAEXG@Z 00406780 f i Celobj.obj
 0001:000057b0       ??0CelObj@@QAE@VMemID@@@Z  004067b0 f i Celobj.obj
 0001:00005810       ??0Bitmap@@QAE@VMemID@@@Z  00406810 f i Celobj.obj
 0001:00005860       ?Duplicate@CelObjMem@@UBEPAVCelObj@@XZ 00406860 f i Celobj.obj
 0001:000058d0       ??0CelObjMem@@QAE@ABV0@@Z  004068d0 f i Celobj.obj
 0001:00005900       ??_GCelObjMem@@UAEPAXI@Z   00406900 f i Celobj.obj
 0001:00005900       ??_ECelObjMem@@UAEPAXI@Z   00406900 f i Celobj.obj
 0001:00005930       ??1CelObjMem@@UAE@XZ       00406930 f i Celobj.obj
 0001:00005950       ?Handle@Bitmap@@QBE?AVMemID@@XZ 00406950 f i Celobj.obj
 0001:00005970       ??0Ratio@@QAE@HH@Z         00406970 f i Celobj.obj
 0001:000059a0       ??0SOL_Rect@@QAE@HHHH@Z    004069a0 f i Celobj.obj
 0001:000059f0       ?Xlen@SOL_Rect@@QBEHXZ     004069f0 f i Celobj.obj
 0001:00005a10       ?Ylen@SOL_Rect@@QBEHXZ     00406a10 f i Celobj.obj
 0001:00005a30       ?Scale@SOL_Rect@@QAEXHHHH@Z 00406a30 f i Celobj.obj
 0001:00005a90       ??0CelObj@@QAE@E@Z         00406a90 f i Celobj.obj
 0001:00005ac0       ??0Bitmap@@QAE@E@Z         00406ac0 f i Celobj.obj
 0001:00005b10       ?Duplicate@CelObjColor@@UBEPAVCelObj@@XZ 00406b10 f i Celobj.obj
 0001:00005b80       ??0CelObjColor@@QAE@ABV0@@Z 00406b80 f i Celobj.obj
 0001:00005bb0       ?Color@Bitmap@@QBEHXZ      00406bb0 f i Celobj.obj
 0001:00005bd0       ?XDim@Buffer@@QBEHXZ       00406bd0 f i Celobj.obj
 0001:00005bf0       ??0SOL_Point@@QAE@ABV0@@Z  00406bf0 f i Celobj.obj
 0001:00005bf0       ??4SOL_Point@@QAEAAV0@ABV0@@Z 00406bf0 f i Celobj.obj
 0001:00005c20       ??0CelObj@@QAE@HH@Z        00406c20 f i Celobj.obj
 0001:00005c80       ??0Bitmap@@QAE@HH@Z        00406c80 f i Celobj.obj
 0001:00005cc0       ?Duplicate@CelObjPic@@UBEPAVCelObj@@XZ 00406cc0 f i Celobj.obj
 0001:00005d30       ??4CelObjPic@@QAEAAV0@ABV0@@Z 00406d30 f i Celobj.obj
 0001:00005d80       ?DrawHzFlip@CelObj@@QAEXABVBuffer@@ABVSOL_Rect@@VSOL_Point@@@Z 00406d80 f   Celobj1.obj
 0001:0000615a       ?DrawNoFlip@CelObj@@QAEXABVBuffer@@ABVSOL_Rect@@VSOL_Point@@@Z 0040715a f   Celobj1.obj
 0001:0000650b       ?DrawUncompNoFlip@CelObj@@QAEXABVBuffer@@ABVSOL_Rect@@VSOL_Point@@@Z 0040750b f   Celobj1.obj
 0001:00006643       ?DrawUncompHzFlip@CelObj@@QAEXABVBuffer@@ABVSOL_Rect@@VSOL_Point@@@Z 00407643 f   Celobj1.obj
 0001:00006794       ?ScaleDraw@CelObj@@QAEXABVBuffer@@ABVRatio@@1ABVSOL_Rect@@ABVSOL_Point@@@Z 00407794 f   Celobj1.obj
 0001:00006b0c       ?ScaleDrawUncomp@CelObj@@QAEXABVBuffer@@ABVRatio@@1ABVSOL_Rect@@ABVSOL_Point@@@Z 00407b0c f   Celobj1.obj
 0001:00006d00       ?DrawHzFlipMap@CelObj@@QAEXABVBuffer@@ABVSOL_Rect@@VSOL_Point@@@Z 00407d00 f   Celobj2.obj
 0001:00007180       ?DrawNoFlipMap@CelObj@@QAEXABVBuffer@@ABVSOL_Rect@@VSOL_Point@@@Z 00408180 f   Celobj2.obj
 0001:000075d0       ?DrawUncompNoFlipMap@CelObj@@QAEXABVBuffer@@ABVSOL_Rect@@VSOL_Point@@@Z 004085d0 f   Celobj2.obj
 0001:00007741       ?DrawUncompHzFlipMap@CelObj@@QAEXABVBuffer@@ABVSOL_Rect@@VSOL_Point@@@Z 00408741 f   Celobj2.obj
 0001:000078db       ?ScaleDrawMap@CelObj@@QAEXABVBuffer@@ABVRatio@@1ABVSOL_Rect@@ABVSOL_Point@@@Z 004088db f   Celobj2.obj
 0001:00007c97       ?ScaleDrawUncompMap@CelObj@@QAEXABVBuffer@@ABVRatio@@1ABVSOL_Rect@@ABVSOL_Point@@@Z 00408c97 f   Celobj2.obj
 0001:00007ec0       ?DrawHzFlipNoMD@CelObj@@QAEXABVBuffer@@ABVSOL_Rect@@VSOL_Point@@@Z 00408ec0 f   Celobja.obj
 0001:0000803c       ?DrawNoFlipNoMD@CelObj@@QAEXABVBuffer@@ABVSOL_Rect@@VSOL_Point@@@Z 0040903c f   Celobja.obj
 0001:0000819c       ?DrawUncompNoFlipNoMD@CelObj@@QAEXABVBuffer@@ABVSOL_Rect@@VSOL_Point@@@Z 0040919c f   Celobja.obj
 0001:000082aa       ?DrawUncompNoFlipNoMDNoSkip@CelObj@@QAEXABVBuffer@@ABVSOL_Rect@@VSOL_Point@@@Z 004092aa f   Celobja.obj
 0001:00008397       ?DrawUncompHzFlipNoMD@CelObj@@QAEXABVBuffer@@ABVSOL_Rect@@VSOL_Point@@@Z 00409397 f   Celobja.obj
 0001:000084c1       ?DrawUncompHzFlipNoMDNoSkip@CelObj@@QAEXABVBuffer@@ABVSOL_Rect@@VSOL_Point@@@Z 004094c1 f   Celobja.obj
 0001:000085e0       ?ScaleDrawNoMD@CelObj@@QAEXABVBuffer@@ABVRatio@@1ABVSOL_Rect@@ABVSOL_Point@@@Z 004095e0 f   Celobja.obj
 0001:00008970       ?ScaleDrawUncompNoMD@CelObj@@QAEXABVBuffer@@ABVRatio@@1ABVSOL_Rect@@ABVSOL_Point@@@Z 00409970 f   Celobja.obj
 0001:00008fcf       ??0ConfigMgr@@QAE@PBDHPAPAD@Z 00409fcf f   Config.obj
 0001:00009001       ?ReadCommandLine@ConfigMgr@@IAEXPBDHPAPAD@Z 0040a001 f   Config.obj
 0001:0000920f       ?FindConfigFile@ConfigMgr@@SAHPADPBD@Z 0040a20f f   Config.obj
 0001:00009238       ?IsFlag@ConfigMgr@@IAE?AW4Flag@1@D@Z 0040a238 f   Config.obj
 0001:0000927d       ?ShowUsage@ConfigMgr@@IBEXXZ 0040a27d f   Config.obj
 0001:000093ba       ?ReadFile@ConfigMgr@@IAEXXZ 0040a3ba f   Config.obj
 0001:000094bd       ?Tokenize@ConfigMgr@@IAEHPAD@Z 0040a4bd f   Config.obj
 0001:000095aa       ?GetNum@ConfigMgr@@QAEHPADHH@Z 0040a5aa f   Config.obj
 0001:000096a7       ?Get@ConfigMgr@@QAEPADPADH@Z 0040a6a7 f   Config.obj
 0001:000096e6       ?Get@ConfigMgr@@QAEPADW4MemType@@H@Z 0040a6e6 f   Config.obj
 0001:00009725       ?GetBool@ConfigMgr@@QAEHPADH@Z 0040a725 f   Config.obj
 0001:00009820       ?GetBool@ConfigMgr@@QAEHW4MemType@@H@Z 0040a820 f   Config.obj
 0001:000098ef       ?Str@ConfigMgr@@QAEPADW4Flag@1@@Z 0040a8ef f   Config.obj
 0001:00009908       ?Get@ConfigMgr@@QAEHW4Flag@1@@Z 0040a908 f   Config.obj
 0001:00009921       ?Arg@ConfigMgr@@QAEHW4Flag@1@@Z 0040a921 f   Config.obj
 0001:0000993a       ?Val@ConfigMgr@@QAEHW4Flag@1@@Z 0040a93a f   Config.obj
 0001:00009953       ?GetNTokens@ConfigMgr@@QAEHPAD@Z 0040a953 f   Config.obj
 0001:0000998c       ?GetNTokens@ConfigMgr@@QAEHW4MemType@@@Z 0040a98c f   Config.obj
 0001:000099c5       ?AddTokenToFront@ConfigMgr@@QAEXPAD0@Z 0040a9c5 f   Config.obj
 0001:00009ac7       ?GetEntry@ConfigMgr@@IAEPAVConfigEntry@@PAD@Z 0040aac7 f   Config.obj
 0001:00009b1d       ?Claimed@ConfigMgr@@QAEHPAD@Z 0040ab1d f   Config.obj
 0001:00009b43       ?GetEntry@ConfigMgr@@IAEPAVConfigEntry@@W4MemType@@@Z 0040ab43 f   Config.obj
 0001:00009b8c       ?GetLine@ConfigMgr@@QAEPADPAD@Z 0040ab8c f   Config.obj
 0001:00009c54       ?KGetConfig@@YAXPAF@Z      0040ac54 f   Config.obj
 0001:00009cde       ??0FlagEntry@@QAE@DPAD@Z   0040acde f   Config.obj
 0001:00009d13       ?Usage@FlagEntry@@QAEXPAD@Z 0040ad13 f   Config.obj
 0001:00009d40       ??0ConfigEntry@@QAE@PADW4MemType@@0@Z 0040ad40 f   Config.obj
 0001:00009d88       ??1ConfigEntry@@QAE@XZ     0040ad88 f   Config.obj
 0001:00009daa       ?Claim@ConfigEntry@@QAEHPADHH@Z 0040adaa f   Config.obj
 0001:00009e37       ?Get@ConfigEntry@@QAEPADH@Z 0040ae37 f   Config.obj
 0001:00009ea0       ?GetFileName@ConfigMgr@@QBEPBDXZ 0040aea0 f i Config.obj
 0001:00009eb0       ?StrGetData@@YA?AVTextID@@VMemID@@@Z 0040aeb0 f i Config.obj
 0001:00009f10       ??0ObjectID@@QAE@ABV0@@Z   0040af10 f i Config.obj
 0001:00009f30       ??0CursorWin@@QAE@XZ       0040af30 f   Cursorw.obj
 0001:00009fd4       ??1CursorWin@@UAE@XZ       0040afd4 f   Cursorw.obj
 0001:00009ff8       ?Set@CursorWin@@UAEXHHH@Z  0040aff8 f   Cursorw.obj
 0001:0000a005       ?ForcePos@CursorWin@@UAEXVSOL_Point@@@Z 0040b005 f   Cursorw.obj
 0001:0000a021       ?DeviceMovedTo@CursorWin@@UAEXABVSOL_Point@@@Z 0040b021 f   Cursorw.obj
 0001:0000a02e       ?Hide@CursorWin@@UAEXXZ    0040b02e f   Cursorw.obj
 0001:0000a039       ?UnHide@CursorWin@@UAEXXZ  0040b039 f   Cursorw.obj
 0001:0000a044       ?Show@CursorWin@@UAEXXZ    0040b044 f   Cursorw.obj
 0001:0000a04f       ?SetRestrictRect@CursorWin@@UAEXABVSOL_Rect@@@Z 0040b04f f   Cursorw.obj
 0001:0000a05c       ?ClearRestrictRect@CursorWin@@UAEXXZ 0040b05c f   Cursorw.obj
 0001:0000a067       ??0CursorWinClr@@QAE@ABVBufferWin@@@Z 0040b067 f   Cursorw.obj
 0001:0000a2cc       ??1CursorWinClr@@UAE@XZ    0040b2cc f   Cursorw.obj
 0001:0000a2f0       ?Set@CursorWinClr@@UAEXHHH@Z 0040b2f0 f   Cursorw.obj
 0001:0000a5b4       ?SetDevice@CursorWinClr@@UAEXAAVPointerDevice@@@Z 0040b5b4 f   Cursorw.obj
 0001:0000a61c       ?ForcePos@CursorWinClr@@UAEXVSOL_Point@@@Z 0040b61c f   Cursorw.obj
 0001:0000a67d       ?GonnaPaint@CursorWinClr@@UAEXVSOL_Rect@@@Z 0040b67d f   Cursorw.obj
 0001:0000a6e6       ?PaintStarting@CursorWinClr@@UAEXXZ 0040b6e6 f   Cursorw.obj
 0001:0000a751       ?DonePainting@CursorWinClr@@UAEXXZ 0040b751 f   Cursorw.obj
 0001:0000a7f3       ?DeviceMovedTo@CursorWinClr@@UAEXABVSOL_Point@@@Z 0040b7f3 f   Cursorw.obj
 0001:0000a82e       ?Hide@CursorWinClr@@UAEXXZ 0040b82e f   Cursorw.obj
 0001:0000a86f       ?UnHide@CursorWinClr@@UAEXXZ 0040b86f f   Cursorw.obj
 0001:0000a8ce       ?Show@CursorWinClr@@UAEXXZ 0040b8ce f   Cursorw.obj
 0001:0000a91f       ?RevealCursor@CursorWinClr@@IAEXXZ 0040b91f f   Cursorw.obj
 0001:0000a9e0       ?Move@CursorWinClr@@IAEXXZ 0040b9e0 f   Cursorw.obj
 0001:0000ac34       ?Paint@CursorWinClr@@IAEXABUInfo@1@0@Z 0040bc34 f   Cursorw.obj
 0001:0000aded       ?Copy@CursorWinClr@@IAEXABUInfo@1@0@Z 0040bded f   Cursorw.obj
 0001:0000afbc       ?DrawToHardware@CursorWinClr@@IAEXABUInfo@1@@Z 0040bfbc f   Cursorw.obj
 0001:0000b220       ?ReadVideo@CursorWinClr@@IAEXABUInfo@1@@Z 0040c220 f   Cursorw.obj
 0001:0000b239       ?ReadVideoFromVMAP@CursorWinClr@@IAEXABUInfo@1@@Z 0040c239 f   Cursorw.obj
 0001:0000b25b       ?SetRestrictRect@CursorWinClr@@UAEXABVSOL_Rect@@@Z 0040c25b f   Cursorw.obj
 0001:0000b2d3       ?ClearRestrictRect@CursorWinClr@@UAEXXZ 0040c2d3 f   Cursorw.obj
 0001:0000b310       ??_ECursorWin@@UAEPAXI@Z   0040c310 f i Cursorw.obj
 0001:0000b310       ??_GCursorWin@@UAEPAXI@Z   0040c310 f i Cursorw.obj
 0001:0000b340       ??0SOL_Cursor@@QAE@XZ      0040c340 f i Cursorw.obj
 0001:0000b360       ??_GCursorWinClr@@UAEPAXI@Z 0040c360 f i Cursorw.obj
 0001:0000b360       ??_ECursorWinClr@@UAEPAXI@Z 0040c360 f i Cursorw.obj
 0001:0000b390       ?SetView@Bitmap@@QAEXH@Z   0040c390 f i Cursorw.obj
 0001:0000b3b0       ?GetQuantity@CPurchaseItem@@QAEHXZ 0040c3b0 f i Cursorw.obj
 0001:0000b3b0       ?PicResNum@SOL_Plane@@QBEHXZ 0040c3b0 f i Cursorw.obj
 0001:0000b3b0       ?Width@CelObj@@QBEHXZ      0040c3b0 f i Cursorw.obj
 0001:0000b3b0       ?GetCurrent@CSkinAttribute@@QAEHXZ 0040c3b0 f i Cursorw.obj
 0001:0000b3d0       ?getChat_Busy@CToonSettings@@QAEHXZ 0040c3d0 f i Cursorw.obj
 0001:0000b3d0       ?Height@CelObj@@QBEHXZ     0040c3d0 f i Cursorw.obj
 0001:0000b3d0       ?Priority@SOL_Plane@@QBEHXZ 0040c3d0 f i Cursorw.obj
 0001:0000b3f0       ?getChat_Profanity@CToonSettings@@QAEHXZ 0040c3f0 f i Cursorw.obj
 0001:0000b3f0       ?XOrg@CelObj@@QBEHXZ       0040c3f0 f i Cursorw.obj
 0001:0000b410       ?getChat_TextColor@CToonSettings@@QAEHXZ 0040c410 f i Cursorw.obj
 0001:0000b410       ?YOrg@CelObj@@QBEHXZ       0040c410 f i Cursorw.obj
 0001:0000b430       ??1SOL_Cursor@@UAE@XZ      0040c430 f i Cursorw.obj
 0001:0000b450       ??_GSOL_Cursor@@UAEPAXI@Z  0040c450 f i Cursorw.obj
 0001:0000b450       ??_ESOL_Cursor@@UAEPAXI@Z  0040c450 f i Cursorw.obj
 0001:0000b480       ?Set@SOL_Rect@@QAEXHHHH@Z  0040c480 f i Cursorw.obj
 0001:0000b4b0       ?IsEmpty@SOL_Rect@@QBEHXZ  0040c4b0 f i Cursorw.obj
 0001:0000b4e0       ?MakeEmpty@SOL_Rect@@QAEXXZ 0040c4e0 f i Cursorw.obj
 0001:0000b520       ?Intersect@SOL_Rect@@QBEHABV1@@Z 0040c520 f i Cursorw.obj
 0001:0000b580       ?Clip@SOL_Rect@@QAEXABV1@@Z 0040c580 f i Cursorw.obj
 0001:0000b610       ?Both@SOL_Rect@@QAEXABV1@@Z 0040c610 f i Cursorw.obj
 0001:0000b690       ?MoveTo@SOL_Rect@@QAEXHH@Z 0040c690 f i Cursorw.obj
 0001:0000b6e0       ?GetExtension@SOL_ResType@@UBEPBDXZ 0040c6e0 f i Cursorw.obj
 0001:0000b6e0       ?OnScreen@DrawItem@@QAEAAVSOL_Rect@@XZ 0040c6e0 f i Cursorw.obj
 0001:0000b6e0       ?Get@CursorWin@@UAEAAVBitmap@@XZ 0040c6e0 f i Cursorw.obj
 0001:0000b700       ?GonnaPaint@CursorWin@@UAEXVSOL_Rect@@@Z 0040c700 f i Cursorw.obj
 0001:0000b710       ?Get@CursorWinClr@@UAEAAVBitmap@@XZ 0040c710 f i Cursorw.obj
 0001:0000b730       ??0Info@CursorWinClr@@QAE@H@Z 0040c730 f i Cursorw.obj
 0001:0000b79f       ?KCreateTextBitmap@@YAXPAF@Z 0040c79f f   Dialog.obj
 0001:0000b9e9       ??0EditClass@@QAE@F@Z      0040c9e9 f   Dialog.obj
 0001:0000c133       ??0EditClass@@QAE@VTextID@@0HH@Z 0040d133 f   Dialog.obj
 0001:0000c685       ??1EditClass@@UAE@XZ       0040d685 f   Dialog.obj
 0001:0000c740       ?Show@EditClass@@QAEXH@Z   0040d740 f   Dialog.obj
 0001:0000c8e9       ?Hide@EditClass@@QAEXH@Z   0040d8e9 f   Dialog.obj
 0001:0000c981       ?GetLineIndices@EditClass@@UAEXXZ 0040d981 f   Dialog.obj
 0001:0000cbdf       ?HandleEvent@EditClass@@QAEHXZ 0040dbdf f   Dialog.obj
 0001:0000cd09       ?EditText@EditClass@@QAEHAAVSOL_Event@@@Z 0040dd09 f   Dialog.obj
 0001:0000d53d       ?UpdateFontMgr@EditClass@@QAEXXZ 0040e53d f   Dialog.obj
 0001:0000d57f       ?DrawCursor@EditClass@@QAEXXZ 0040e57f f   Dialog.obj
 0001:0000d771       ?EraseCursor@EditClass@@QAEXXZ 0040e771 f   Dialog.obj
 0001:0000d7e1       ?FlashCursor@EditClass@@QAEXXZ 0040e7e1 f   Dialog.obj
 0001:0000d868       ?SetFlash@EditClass@@QAEXXZ 0040e868 f   Dialog.obj
 0001:0000d88c       ?InvertRect@EditClass@@QAEXAAVSOL_Rect@@HDD@Z 0040e88c f   Dialog.obj
 0001:0000d944       ?SetCursor@EditClass@@QAEXH@Z 0040e944 f   Dialog.obj
 0001:0000d9eb       ?Highlight@EditClass@@QAEXH@Z 0040e9eb f   Dialog.obj
 0001:0000db72       ?KEdit@@YAXPAF@Z           0040eb72 f   Dialog.obj
 0001:0000e12d       ?GetInput@@YAHPAD0H@Z      0040f12d f   Dialog.obj
 0001:0000e24f       ?MsgBox@@YAHPAD0ZZ         0040f24f f   Dialog.obj
 0001:0000e317       ?KDialog@@YAXPAF@Z         0040f317 f   Dialog.obj
 0001:00012070       ??0SOL_List@@QAE@XZ        00413070 f i Dialog.obj
 0001:000120d0       ??1SOL_List@@QAE@XZ        004130d0 f i Dialog.obj
 0001:000120f0       ??7MemID@@QBEHXZ           004130f0 f i Dialog.obj
 0001:00012110       ?RespondsTo@ObjectID@@QBEHG@Z 00413110 f i Dialog.obj
 0001:00012140       ?Offset@SOL_Rect@@QAEXHH@Z 00413140 f i Dialog.obj
 0001:00012190       ??0FontMgr@@QAE@G@Z        00413190 f i Dialog.obj
 0001:00012200       ?PointSize@FontMgr@@QAEHH@Z 00413200 f i Dialog.obj
 0001:00012240       ?GetXRes@FontMgr@@QBEHXZ   00413240 f i Dialog.obj
 0001:00012250       ?GetYRes@FontMgr@@QBEHXZ   00413250 f i Dialog.obj
 0001:00012260       ??_EEditClass@@UAEPAXI@Z   00413260 f i Dialog.obj
 0001:00012260       ??_GEditClass@@UAEPAXI@Z   00413260 f i Dialog.obj
 0001:00012290       ??0ScaleInfo@@QAE@XZ       00413290 f i Dialog.obj
 0001:000122d0       ?Id@SOL_Plane@@QBEJXZ      004132d0 f i Dialog.obj
 0001:000122e0       ?SetPicNum@SOL_Plane@@QAEXH@Z 004132e0 f i Dialog.obj
 0001:00012310       ?SetPriority@SOL_Plane@@QAEXH@Z 00413310 f i Dialog.obj
 0001:00012330       ?TopSCIPlane@GraphicsMgr@@QBEHXZ 00413330 f i Dialog.obj
 0001:00012350       ?TopSCIPlane@Screen@@QBEHXZ 00413350 f i Dialog.obj
 0001:00012370       ?AddPlane@GraphicsMgr@@QAEXPAVSOL_Plane@@@Z 00413370 f i Dialog.obj
 0001:00012390       ?AddScreenItem@GraphicsMgr@@QAEXPAVScreenItem@@@Z 00413390 f i Dialog.obj
 0001:000123b0       ?Intersect@SOL_Rect@@QBEHVSOL_Point@@@Z 004133b0 f i Dialog.obj
 0001:00012400       ?SetBM@FontMgr@@QAEXVMemID@@@Z 00413400 f i Dialog.obj
 0001:00012420       ?Inset@SOL_Rect@@QAEXHH@Z  00413420 f i Dialog.obj
 0001:00012470       ??0SOL_Line@@QAE@HHHH@Z    00413470 f i Dialog.obj
 0001:000124f0       ??2@YAPAXIG@Z              004134f0 f i Dialog.obj
 0001:00012510       ?Data@ArrayID@@QAEPAXXZ    00413510 f i Dialog.obj
 0001:00012530       ??0CSCI_Object@@QAE@G@Z    00413530 f i Dialog.obj
 0001:00012530       ??0EventObjectID@@QAE@G@Z  00413530 f i Dialog.obj
 0001:00012550       ??0EventObjectID@@QAE@ABV0@@Z 00413550 f i Dialog.obj
 0001:00012570       ?TopPlane@GraphicsMgr@@QBEHXZ 00413570 f i Dialog.obj
 0001:00012590       ?TopPlane@Screen@@QBEHXZ   00413590 f i Dialog.obj
 0001:000125b0       ??3CObject@@SGXPAX@Z       004135b0 f i Dialog.obj
 0001:000125d0       ??2CObject@@SGPAXI@Z       004135d0 f i Dialog.obj
 0001:000125f0       ?AfxGetApp@@YGPAVCWinApp@@XZ 004135f0 f i Dialog.obj
 0001:00012600       ??0CPoint@@QAE@HH@Z        00413600 f i Dialog.obj
 0001:00012630       ?BringWindowToTop@CWnd@@QAEXXZ 00413630 f i Dialog.obj
 0001:00012650       ?UpdateWindow@CWnd@@QAEXXZ 00413650 f i Dialog.obj
 0001:00012670       ?IsWindowVisible@CWnd@@QBEHXZ 00413670 f i Dialog.obj
 0001:00012690       ??DStringID@@QAEPADXZ      00413690 f i Dialog.obj
 0001:00012700       ?set_scratch@CSCI_Object@@QAEXF@Z 00413700 f i Dialog.obj
 0001:00012720       ?SetProperty@ObjectID@@QBEXGF@Z 00413720 f i Dialog.obj
 0001:00012750       ?SetProperty@Object@@QAEXGF@Z 00413750 f i Dialog.obj
 0001:000127a0       ?SetGraphicsUpdate@Object@@QAEXXZ 004137a0 f i Dialog.obj
 0001:000127c0       ?get_lowWord@CSCI_LongInt@@QAEFXZ 004137c0 f i Dialog.obj
 0001:000127e0       ?get_nValue@CSCI_LongInt@@QAEHXZ 004137e0 f i Dialog.obj
 0001:00012810       ?get_hiWord@CSCI_LongInt@@QAEFXZ 00413810 f i Dialog.obj
 0001:00012830       ?set_nValue@CSCI_LongInt@@QAEXH@Z 00413830 f i Dialog.obj
 0001:00012860       ?set_lowWord@CSCI_LongInt@@QAEXF@Z 00413860 f i Dialog.obj
 0001:00012880       ?set_hiWord@CSCI_LongInt@@QAEXF@Z 00413880 f i Dialog.obj
 0001:000128a0       ?get_pInfo@CSCI_NetMsg@@QAE?AVCSCI_LongInt@@XZ 004138a0 f i Dialog.obj
 0001:000128d0       ??0CSCI_WorldObject@@QAE@G@Z 004138d0 f i Dialog.obj
 0001:000128f0       ??0CSCI_Actor@@QAE@G@Z     004138f0 f i Dialog.obj
 0001:00012910       ??0CSCI_Prop@@QAE@G@Z      00413910 f i Dialog.obj
 0001:00012930       ??0CSCI_WorldObject@@QAE@ABVObjectID@@@Z 00413930 f i Dialog.obj
 0001:00012930       ??0CSCI_WorldObject@@QAE@ABVMemID@@@Z 00413930 f i Dialog.obj
 0001:00012950       ??0CSCI_Actor@@QAE@ABVMemID@@@Z 00413950 f i Dialog.obj
 0001:00012970       ??0CSCI_Prop@@QAE@ABVMemID@@@Z 00413970 f i Dialog.obj
 0001:00012990       ??0CSCI_VerbList@@QAE@ABVObjectID@@@Z 00413990 f i Dialog.obj
 0001:00012990       ??0CSCI_View@@QAE@ABVMemID@@@Z 00413990 f i Dialog.obj
 0001:000129b0       ??0CSCI_Spell@@QAE@ABVObjectID@@@Z 004139b0 f i Dialog.obj
 0001:000129b0       ??0CSCI_Feature@@QAE@ABVMemID@@@Z 004139b0 f i Dialog.obj
 0001:000129b0       ??0CSCI_Set@@QAE@ABVMemID@@@Z 004139b0 f i Dialog.obj
 0001:000129d0       ??0CSCI_BitMap@@QAE@ABVMemID@@@Z 004139d0 f i Dialog.obj
 0001:000129d0       ??0CSCI_List@@QAE@ABVMemID@@@Z 004139d0 f i Dialog.obj
 0001:000129f0       ??0CSCI_Collection@@QAE@ABVMemID@@@Z 004139f0 f i Dialog.obj
 0001:000129f0       ??0CSCI_LongInt@@QAE@ABVObjectID@@@Z 004139f0 f i Dialog.obj
 0001:000129f0       ??0CSCI_Rectangle@@QAE@ABVMemID@@@Z 004139f0 f i Dialog.obj
 0001:00012a10       ?get_pServerName@CSCI_ServerInfo@@QAE?AVStringID@@XZ 00413a10 f i Dialog.obj
 0001:00012a50       ?set_pServerName@CSCI_ServerInfo@@QAEXF@Z 00413a50 f i Dialog.obj
 0001:00012a70       ?get_pStatus@CSCI_ServerInfo@@QAE?AVStringID@@XZ 00413a70 f i Dialog.obj
 0001:00012ab0       ?set_pStatus@CSCI_ServerInfo@@QAEXF@Z 00413ab0 f i Dialog.obj
 0001:00012ad0       ?get_pNumberOfUsers@CSCI_ServerInfo@@QAEFXZ 00413ad0 f i Dialog.obj
 0001:00012af0       ?set_pNumberOfUsers@CSCI_ServerInfo@@QAEXF@Z 00413af0 f i Dialog.obj
 0001:00012b10       ?get_pIP@CSCI_ServerInfo@@QAE?AVStringID@@XZ 00413b10 f i Dialog.obj
 0001:00012b50       ?set_pIP@CSCI_ServerInfo@@QAEXF@Z 00413b50 f i Dialog.obj
 0001:00012b70       ?get_pPort@CSCI_ServerInfo@@QAE?AVStringID@@XZ 00413b70 f i Dialog.obj
 0001:00012bb0       ?set_pPort@CSCI_ServerInfo@@QAEXF@Z 00413bb0 f i Dialog.obj
 0001:00012bd0       ?SetEventProcessing@CSkinWnd@@QAEX_N@Z 00413bd0 f i Dialog.obj
 0001:00012bf0       ?SetProcessEvents@CSkinWnd@@IAEX_N@Z 00413bf0 f i Dialog.obj
 0001:00012c20       ?SetTransientState@CSkinWnd@@QAEX_N@Z 00413c20 f i Dialog.obj
 0001:00012c40       ?SetTransient@CSkinWnd@@IAEX_N@Z 00413c40 f i Dialog.obj
 0001:00012c70       ?SetCharInfo@CLookAt@@SAXVCSCI_CharInfo@@@Z 00413c70 f i Dialog.obj
 0001:00012c80       ??0CSCI_WorldObject@@QAE@ABV0@@Z 00413c80 f i Dialog.obj
 0001:00012ca0       ??0CSCI_Actor@@QAE@ABV0@@Z 00413ca0 f i Dialog.obj
 0001:00012cc0       ??0CSCI_Prop@@QAE@ABV0@@Z  00413cc0 f i Dialog.obj
 0001:00012ce0       ??0CSCI_Object@@QAE@ABV0@@Z 00413ce0 f i Dialog.obj
 0001:00012d00       ?Match@CMakeItemDlg@@QAEHVCSCI_WorldObject@@@Z 00413d00 f i Dialog.obj
 0001:00012d20       ??0CSCI_View@@QAE@ABV0@@Z  00413d20 f i Dialog.obj
 0001:00012d20       ??0CSCI_NetMsg@@QAE@ABV0@@Z 00413d20 f i Dialog.obj
 0001:00012d20       ??0CSCI_VerbList@@QAE@ABV0@@Z 00413d20 f i Dialog.obj
 0001:00012d20       ??0CSCI_GroupList@@QAE@ABV0@@Z 00413d20 f i Dialog.obj
 0001:00012d40       ??0ServerInfo@@QAE@XZ      00413d40 f i Dialog.obj
 0001:00012d90       ??A?$bitset@$05@std@@QAE?AVreference@01@I@Z 00413d90 f i Dialog.obj
 0001:00012dc0       ??4reference@?$bitset@$05@std@@QAEAAV012@_N@Z 00413dc0 f i Dialog.obj
 0001:00012df0       ?set@?$bitset@$05@std@@QAEAAV12@I_N@Z 00413df0 f i Dialog.obj
 0001:00012e80       ??0reference@?$bitset@$05@std@@AAE@AAV12@I@Z 00413e80 f i Dialog.obj
 0001:00012eb0       ?_Xran@?$bitset@$05@std@@ABEXXZ 00413eb0 f i Dialog.obj
 0001:00012f10       ?KFileIO@@YAXPAF@Z         00413f10 f   Dos.obj
 0001:000135ca       ?KDeviceInfo@@YAXPAF@Z     004145ca f   Dos.obj
 0001:000136fb       ?AddSlash@@YAPADPAD@Z      004146fb f   Dos.obj
 0001:00013755       ?FullPath@@YAPADPADPBD@Z   00414755 f   Dos.obj
 0001:000137c3       ?Creat@@YAHPBDI@Z          004147c3 f   Dos.obj
 0001:000137e4       ?Open@@YAHPBDI@Z           004147e4 f   Dos.obj
 0001:00013805       ?ReadMemID@@YAHHVMemID@@H@Z 00414805 f   Dos.obj
 0001:00013851       ?Read@@YAHHPAXH@Z          00414851 f   Dos.obj
 0001:0001386b       ?Write@@YAHHPAXH@Z         0041486b f   Dos.obj
 0001:00013885       ?Close@@YAHH@Z             00414885 f   Dos.obj
 0001:000138a2       ?Rename@@YAHPBD0@Z         004148a2 f   Dos.obj
 0001:000138b8       ?ReadString@@YAPADPADHH@Z  004148b8 f   Dos.obj
 0001:0001393a       ?Unlink@@YAHPBD@Z          0041493a f   Dos.obj
 0001:00013956       ?FileLength@@YAKH@Z        00414956 f   Dos.obj
 0001:0001399b       ?LSeek@@YAJHJH@Z           0041499b f   Dos.obj
 0001:000139b5       ?GetCWD@@YAPADPAD@Z        004149b5 f   Dos.obj
 0001:000139cc       ?FirstFile@@YAHPBDIPAU_WIN32_FIND_DATAA@@@Z 004149cc f   Dos.obj
 0001:00013a12       ?NextFile@@YAHPAU_WIN32_FIND_DATAA@@@Z 00414a12 f   Dos.obj
 0001:00013a28       ?ExistsDriveAB@@YAHH@Z     00414a28 f   Dos.obj
 0001:00013a47       ?ExistDrive@@YAHD@Z        00414a47 f   Dos.obj
 0001:00013aaf       ?ResetDisk@@YAXXZ          00414aaf f   Dos.obj
 0001:00013aba       ?RGetFreeSpace@@YAKD@Z     00414aba f   Dos.obj
 0001:00013b18       ?Exists@@YAHPBD@Z          00414b18 f   Dos.obj
 0001:00013b87       ?IsDriveAOrB@@YAHPBD@Z     00414b87 f   Dos.obj
 0001:00013bde       ?OpenFileInPath@@YAHPADI0@Z 00414bde f   Dos.obj
 0001:00013ce8       ?RemoveTrailingSlash@@YAPADPAD@Z 00414ce8 f   Dos.obj
 0001:00013f60       ??0DrawList@@QAE@XZ        00414f60 f   Drawlist.obj
 0001:00013f77       ??1DrawList@@QAE@XZ        00414f77 f   Drawlist.obj
 0001:00013fbb       ?Add@DrawList@@QAEHPAVScreenItem@@AAVSOL_Rect@@@Z 00414fbb f   Drawlist.obj
 0001:0001407a       ?Pack@DrawList@@QAEXXZ     0041507a f   Drawlist.obj
 0001:000140f3       ?Delete@DrawList@@QAEXH@Z  004150f3 f   Drawlist.obj
 0001:00014160       ?Sort@DrawList@@QAEXXZ     00415160 f   Drawlist.obj
 0001:00014310       ??0DrawItem@@QAE@PAVScreenItem@@AAVSOL_Rect@@@Z 00415310 f i Drawlist.obj
 0001:00014340       ??0SOL_Rect@@QAE@AAVSOL_Point@@0@Z 00415340 f i Drawlist.obj
 0001:00014380       ??0EventMgr@@QAE@XZ        00415380 f   Event.obj
 0001:000143c6       ??1EventMgr@@UAE@XZ        004153c6 f   Event.obj
 0001:000143da       ?Bump@EventMgr@@IBEXAAH@Z  004153da f   Event.obj
 0001:00014405       ?Flush@EventMgr@@UAEXG@Z   00415405 f   Event.obj
 0001:00014451       ?FlushKeyboard@EventMgr@@MAEXXZ 00415451 f   Event.obj
 0001:0001445c       ?Get@EventMgr@@UAEHPAVSOL_Event@@G@Z 0041545c f   Event.obj
 0001:0001451d       ?Handle@EventMgr@@UAEXPAVSOL_Event@@@Z 0041551d f   Event.obj
 0001:0001452a       ?IsAvail@EventMgr@@UBEHPAVSOL_Event@@G@Z 0041552a f   Event.obj
 0001:000145c1       ?Post@EventMgr@@UAEXPAVSOL_Event@@@Z 004155c1 f   Event.obj
 0001:00014637       ?PostCommand@EventMgr@@UAEXH@Z 00415637 f   Event.obj
 0001:00014669       ?PostWinCommand@EventMgr@@UAEXHH@Z 00415669 f   Event.obj
 0001:000146a3       ?StillDown@EventMgr@@UBEHXZ 004156a3 f   Event.obj
 0001:000146c2       ?Wait@EventMgr@@UAE?AVSOL_Event@@G@Z 004156c2 f   Event.obj
 0001:00014707       ??4EventObjectID@@QAEAAV0@ABVSOL_Event@@@Z 00415707 f   Event.obj
 0001:000147d6       ??0SOL_Event@@QAE@XZ       004157d6 f   Event.obj
 0001:00014817       ??0SOL_Event@@QAE@ABV0@@Z  00415817 f   Event.obj
 0001:0001483e       ??0SOL_Event@@QAE@VEventObjectID@@@Z 0041583e f   Event.obj
 0001:000148f5       ??4SOL_Event@@QAEAAV0@ABV0@@Z 004158f5 f   Event.obj
 0001:00014979       ?MakeNull@SOL_Event@@QAEXXZ 00415979 f   Event.obj
 0001:00014a0e       ?MapKeyToDir@SOL_Event@@QAEPAV1@XZ 00415a0e f   Event.obj
 0001:00014a31       ?KGetEvent@@YAXPAF@Z       00415a31 f   Event.obj
 0001:00014aaf       ?KMapKeyToDir@@YAXPAF@Z    00415aaf f   Event.obj
 0001:00014b20       ??_GEventMgr@@UAEPAXI@Z    00415b20 f i Event.obj
 0001:00014b20       ??_EEventMgr@@UAEPAXI@Z    00415b20 f i Event.obj
 0001:00014b50       ?GetIndexedProperty@ObjectID@@QBEFH@Z 00415b50 f i Event.obj
 0001:00014b80       ?GetIndexedProperty@Object@@QAEFH@Z 00415b80 f i Event.obj
 0001:00014ba0       ?GetIndexedPropAddr@Object@@QAEPBFH@Z 00415ba0 f i Event.obj
 0001:00014bc0       ?SetIndexedProperty@ObjectID@@QBEXHF@Z 00415bc0 f i Event.obj
 0001:00014bf0       ?SetIndexedProperty@Object@@QAEXHF@Z 00415bf0 f i Event.obj
 0001:00014c20       ?SetPropAtOffset@Object@@QAEAAFI@Z 00415c20 f i Event.obj
 0001:00014c50       ?GetPropAtOffset@Object@@QAEAAFI@Z 00415c50 f i Event.obj
 0001:00014c70       ??0EventMgrWin@@QAE@XZ     00415c70 f   Eventw.obj
 0001:00014cfc       ?Get@EventMgrWin@@UAEHPAVSOL_Event@@G@Z 00415cfc f   Eventw.obj
 0001:00014d22       ?GetModifiers@EventMgrWin@@MAEGXZ 00415d22 f   Eventw.obj
 0001:00014d7d       ?Handle@EventMgrWin@@MAEXPAVSOL_Event@@@Z 00415d7d f   Eventw.obj
 0001:00014e40       ??0KbdMgrWin@@QAE@XZ       00415e40 f i Eventw.obj
 0001:00014ea0       ??_GKbdMgrWin@@UAEPAXI@Z   00415ea0 f i Eventw.obj
 0001:00014ea0       ??_EKbdMgrWin@@UAEPAXI@Z   00415ea0 f i Eventw.obj
 0001:00014ed0       ??0KbdMgr@@QAE@XZ          00415ed0 f i Eventw.obj
 0001:00014ef0       ??0KbdWin@@QAE@XZ          00415ef0 f i Eventw.obj
 0001:00014f10       ??1KbdMgrWin@@UAE@XZ       00415f10 f i Eventw.obj
 0001:00014f30       ??0Kbd@@QAE@XZ             00415f30 f i Eventw.obj
 0001:00014f50       ??_GEventMgrWin@@UAEPAXI@Z 00415f50 f i Eventw.obj
 0001:00014f50       ??_EEventMgrWin@@UAEPAXI@Z 00415f50 f i Eventw.obj
 0001:00014f80       ??1EventMgrWin@@UAE@XZ     00415f80 f i Eventw.obj
 0001:00014fa0       ??1KbdMgr@@UAE@XZ          00415fa0 f i Eventw.obj
 0001:00014fc0       ??_EKbdMgr@@UAEPAXI@Z      00415fc0 f i Eventw.obj
 0001:00014fc0       ??_GKbdMgr@@UAEPAXI@Z      00415fc0 f i Eventw.obj
 0001:00014ff0       ?LockStatus@KbdWin@@UAEGXZ 00415ff0 f i Eventw.obj
 0001:00014ff0       ?GetModifiers@EventMgr@@UAEGXZ 00415ff0 f i Eventw.obj
 0001:00015000       ?Get@KbdMgrWin@@UAEHPAVSOL_Event@@@Z 00416000 f i Eventw.obj
 0001:00015020       ?Modifiers@KbdMgrWin@@UAEGXZ 00416020 f i Eventw.obj
 0001:00015040       ?BuildFBM@FontMgr@@QAE?AVMemID@@AAVBitmap@@AAVSOL_Rect@@V2@HHHHHH@Z 00416040 f   Font.obj
 0001:0001573a       ?BuildFBM@FontMgr@@QAE?AVMemID@@HHAAVSOL_Rect@@V2@HHHHHHHH@Z 0041673a f   Font.obj
 0001:0001598e       ?TitledFBM@FontMgr@@QAE?AVMemID@@HHAAVSOL_Rect@@V2@HHHHHH1HHHH@Z 0041698e f   Font.obj
 0001:00015db5       ?DeleteFBM@FontMgr@@QAEXVMemID@@@Z 00416db5 f   Font.obj
 0001:00015dd6       ?ResizeBitMap@FontMgr@@QAEXVSOL_Rect@@H@Z 00416dd6 f   Font.obj
 0001:0001610b       ?SetFont@FontMgr@@QAEXH@Z  0041710b f   Font.obj
 0001:00016124       ?StringWidth@FontMgr@@QAEHVMemID@@@Z 00417124 f   Font.obj
 0001:0001616f       ?TextSize@FontMgr@@QAEXVMemID@@HAAVSOL_Rect@@H@Z 0041716f f   Font.obj
 0001:0001646d       ?TextCount@FontMgr@@QAEHVMemID@@HAAVSOL_Rect@@H@Z 0041746d f   Font.obj
 0001:000164a6       ?TextCount@FontMgr@@QAEHVMemID@@HHAAVSOL_Rect@@H@Z 004174a6 f   Font.obj
 0001:00016574       ?Erase@FontMgr@@QAEXAAVSOL_Rect@@H@Z 00417574 f   Font.obj
 0001:0001668a       ?Frame@FontMgr@@QAEXAAVSOL_Rect@@HEH@Z 0041768a f   Font.obj
 0001:00016878       ?InvertRect@FontMgr@@QAEXVMemID@@HVSOL_Rect@@DDH@Z 00417878 f   Font.obj
 0001:000169f6       ?ClearChar@FontMgr@@IAEXE@Z 004179f6 f   Font.obj
 0001:00016a6c       ?BuildFontTable@FontMgr@@IAEXH@Z 00417a6c f   Font.obj
 0001:00016c03       ?TextDimensions@FontMgr@@IAEXHHAAH0@Z 00417c03 f   Font.obj
 0001:00016e64       ?TextWidth@FontMgr@@QAEHVMemID@@HH@Z 00417e64 f   Font.obj
 0001:00016eb0       ?CharWidth@FontMgr@@QAEEEH@Z 00417eb0 f   Font.obj
 0001:00016efc       ?CharHeight@FontMgr@@QAEEEH@Z 00417efc f   Font.obj
 0001:00016f4e       ?DrawTextBox@FontMgr@@QAEXXZ 00417f4e f   Font.obj
 0001:000170dc       ?DrawTextA@FontMgr@@IAEXHH@Z 004180dc f   Font.obj
 0001:000172fe       ?DownOneLine@FontMgr@@QAEXIIH@Z 004182fe f   Font.obj
 0001:000174fa       ?UpOneLine@FontMgr@@QAEXIIIH@Z 004184fa f   Font.obj
 0001:000176fb       ?DrawChar@FontMgr@@IAEXE@Z 004186fb f   Font.obj
 0001:0001798e       ?GetLongest@FontMgr@@QAEGPAHH@Z 0041898e f   Font.obj
 0001:00017d8d       ?KInvertRect@@YAXPAF@Z     00418d8d f   Font.obj
 0001:00017e00       ?KText@@YAXPAF@Z           00418e00 f   Font.obj
 0001:000180c4       ?KFont@@YAXPAF@Z           004190c4 f   Font.obj
 0001:00018140       ?GetSize@MemoryMgr@@QAEIG@Z 00419140 f i Font.obj
 0001:00018170       ?SetRes@FontMgr@@QAEXHH@Z  00419170 f i Font.obj
 0001:00018190       ?SetText@FontMgr@@QAEXVMemID@@@Z 00419190 f i Font.obj
 0001:000181b0       ?BuildHeader@@YAXVMemID@@HHHHHHHHH@Z 004191b0 f i Font.obj
 0001:000181f0       ?ValidateBitmap@@YAXVMemID@@@Z 004191f0 f   Graph.obj
 0001:0001825e       ?DrawView@@YAXHHHVMemID@@HHHHH@Z 0041925e f   Graph.obj
 0001:000183fe       ?KMorphOn@@YAXPAF@Z        004193fe f   Graph.obj
 0001:0001841d       ?KFrameOut@@YAXPAF@Z       0041941d f   Graph.obj
 0001:000184e7       ?KAddScreenItem@@YAXPAF@Z  004194e7 f   Graph.obj
 0001:000185da       ?KAddLine@@YAXPAF@Z        004195da f   Graph.obj
 0001:0001875a       ?KAddPolygon@@YAXPAF@Z     0041975a f   Graph.obj
 0001:00018951       ?KBitmap@@YAXPAF@Z         00419951 f   Graph.obj
 0001:0001cd37       ?RemapBitmap@@YAXVMemID@@VObjectID@@@Z 0041dd37 f   Graph.obj
 0001:0001cea6       ?KDeleteScreenItem@@YAXPAF@Z 0041dea6 f   Graph.obj
 0001:0001cf76       ?KDeleteLine@@YAXPAF@Z     0041df76 f   Graph.obj
 0001:0001d00c       ?KDeletePolygon@@YAXPAF@Z  0041e00c f   Graph.obj
 0001:0001d080       ?KUpdateScreenItem@@YAXPAF@Z 0041e080 f   Graph.obj
 0001:0001d167       ?KUpdateLine@@YAXPAF@Z     0041e167 f   Graph.obj
 0001:0001d2ef       ?KUpdatePolygon@@YAXPAF@Z  0041e2ef f   Graph.obj
 0001:0001d4a5       ?KAddMagnify@@YAXPAF@Z     0041e4a5 f   Graph.obj
 0001:0001d5f0       ?KDeleteMagnify@@YAXPAF@Z  0041e5f0 f   Graph.obj
 0001:0001d731       ?KAddPlane@@YAXPAF@Z       0041e731 f   Graph.obj
 0001:0001d821       ?KDeletePlane@@YAXPAF@Z    0041e821 f   Graph.obj
 0001:0001d84c       ?KUpdatePlane@@YAXPAF@Z    0041e84c f   Graph.obj
 0001:0001d8c2       ?KAddPicAt@@YAXPAF@Z       0041e8c2 f   Graph.obj
 0001:0001d978       ?KRepaintPlane@@YAXPAF@Z   0041e978 f   Graph.obj
 0001:0001d9fb       ?KGetHighPlanePri@@YAXPAF@Z 0041e9fb f   Graph.obj
 0001:0001da10       ?KGetHighItemPri@@YAXPAF@Z 0041ea10 f   Graph.obj
 0001:0001da2f       ?KCelHigh@@YAXPAF@Z        0041ea2f f   Graph.obj
 0001:0001dabb       ?KCelWide@@YAXPAF@Z        0041eabb f   Graph.obj
 0001:0001db47       ?KNumLoops@@YAXPAF@Z       0041eb47 f   Graph.obj
 0001:0001dba5       ?GetNumLoops@@YAHVMemID@@@Z 0041eba5 f   Graph.obj
 0001:0001dbc7       ?KNumCels@@YAXPAF@Z        0041ebc7 f   Graph.obj
 0001:0001dc39       ?GetNumCels@@YAHVMemID@@H@Z 0041ec39 f   Graph.obj
 0001:0001dcb7       ?KShakeScreen@@YAXPAF@Z    0041ecb7 f   Graph.obj
 0001:0001dcdd       ?KIsOnMe@@YAXPAF@Z         0041ecdd f   Graph.obj
 0001:0001de1a       ?KSetNowSeen@@YAXPAF@Z     0041ee1a f   Graph.obj
 0001:0001dfcc       ?KObjectIntersect@@YAXPAF@Z 0041efcc f   Graph.obj
 0001:0001e07b       ?KPriority@@YAXPAF@Z       0041f07b f   Graph.obj
 0001:0001e08d       ?BuildHeader@@YAXPAEHHHHHHHHH@Z 0041f08d f   Graph.obj
 0001:0001e162       ?BuildLineBitmap@@YA?AVMemID@@HHHHEHHHAAVSOL_Rect@@@Z 0041f162 f   Graph.obj
 0001:0001e37f       ?BuildPolygonBitmap@@YA?AVMemID@@USOL_ListID@@EHHHAAVSOL_Rect@@H@Z 0041f37f f   Graph.obj
 0001:0001e834       ?KMovePlaneItems@@YAXPAF@Z 0041f834 f   Graph.obj
 0001:0001e95a       ?KBaseLineSpan@@YAXPAF@Z   0041f95a f   Graph.obj
 0001:0001ec4b       ?KCelInfo@@YAXPAF@Z        0041fc4b f   Graph.obj
 0001:0001ed3f       ?AddLinkedBitmap@@YAHVObjectID@@0H@Z 0041fd3f f   Graph.obj
 0001:0001f455       ?KCelLink@@YAXPAF@Z        00420455 f   Graph.obj
 0001:0001f5e0       ?SetInSIList@Object@@QAEXXZ 004205e0 f i Graph.obj
 0001:0001f600       ?NextScreen@GraphicsMgr@@QAEPAVScreen@@XZ 00420600 f i Graph.obj
 0001:0001f620       ?SetPriority@ScreenItem@@QAEXH@Z 00420620 f i Graph.obj
 0001:0001f640       ?get_pSex@CSCI_BHead@@QAEFXZ 00420640 f i Graph.obj
 0001:0001f660       ?get_pHeadView@CSCI_BHead@@QAEFXZ 00420660 f i Graph.obj
 0001:0001f680       ?get_pHairView@CSCI_BHead@@QAEFXZ 00420680 f i Graph.obj
 0001:0001f6a0       ?get_pBrowView@CSCI_BHead@@QAEFXZ 004206a0 f i Graph.obj
 0001:0001f6c0       ?get_pEyeView@CSCI_BHead@@QAEFXZ 004206c0 f i Graph.obj
 0001:0001f6e0       ?get_pNoseView@CSCI_BHead@@QAEFXZ 004206e0 f i Graph.obj
 0001:0001f700       ?get_pEarView@CSCI_BHead@@QAEFXZ 00420700 f i Graph.obj
 0001:0001f720       ?get_pMouthView@CSCI_BHead@@QAEFXZ 00420720 f i Graph.obj
 0001:0001f740       ?get_pFaceHairView@CSCI_BHead@@QAEFXZ 00420740 f i Graph.obj
 0001:0001f760       ?ClearInSIList@Object@@QAEXXZ 00420760 f i Graph.obj
 0001:0001f780       ?Length@PlaneList@@QBEHXZ  00420780 f i Graph.obj
 0001:0001f7a0       ?Planes@Screen@@QAEAAVPlaneList@@XZ 004207a0 f i Graph.obj
 0001:0001f7b0       ?_Mynode@const_iterator@?$_Tree@V?$basic_string@DU?$char_traits@D@std@@V?$allocator@D@2@@std@@U?$pair@$$CBV?$basic_string@DU?$char_traits@D@std@@V?$allocator@D@2@@std@@H@2@U_Kfn@?$map@V?$basic_string@DU?$char_traits@D@std@@V?$allocator@D@2@@std@@HU?$less@V?$basic_string@DU?$char_traits@D@std@@V?$allocator@D@2@@std@@@2@V?$allocator@H@2@@2@U?$less@V?$basic_string@DU?$char_traits@D@std@@V?$allocator@D@2@@std@@@2@V?$allocator@H@2@@std@@QBEPAU_Node@23@XZ 004207b0 f i Graph.obj
 0001:0001f7b0       ?Data@OCArray@@QAEPAEXZ    004207b0 f i Graph.obj
 0001:0001f7b0       ?_Mynode@const_iterator@?$_Tree@VCSkinObj@@U?$pair@$$CBVCSkinObj@@PAVCFastScrollCtrl@@@std@@U_Kfn@?$map@VCSkinObj@@PAVCFastScrollCtrl@@U?$less@VCSkinObj@@@std@@V?$allocator@PAVCFastScrollCtrl@@@4@@3@U?$less@VCSkinObj@@@3@V?$allocator@PAVCFastScrollCtrl@@@3@@std@@QBEPAU_Node@23@XZ 004207b0 f i Graph.obj
 0001:0001f7b0       ?_Mynode@const_iterator@?$_Tree@HU?$pair@$$CBHPAVCMailMsgWnd@@@std@@U_Kfn@?$map@HPAVCMailMsgWnd@@U?$less@H@std@@V?$allocator@PAVCMailMsgWnd@@@3@@2@U?$less@H@2@V?$allocator@PAVCMailMsgWnd@@@2@@std@@QBEPAU_Node@23@XZ 004207b0 f i Graph.obj
 0001:0001f7b0       ??B?$_com_ptr_t@V?$_com_IIID@UISkinObjectDisp@@$1?_GUID_6cfc9ba1_fe87_11d2_9dcf_ed29fafe371d@@3U__s_GUID@@A@@@@QBEPAUISkinObjectDisp@@XZ 004207b0 f i Graph.obj
 0001:0001f7b0       ?_Mynode@const_iterator@?$_Tree@HU?$pair@$$CBHVCSCI_WorldObject@@@std@@U_Kfn@?$map@HVCSCI_WorldObject@@U?$less@H@std@@V?$allocator@VCSCI_WorldObject@@@3@@2@U?$less@H@2@V?$allocator@VCSCI_WorldObject@@@2@@std@@QBEPAU_Node@23@XZ 004207b0 f i Graph.obj
 0001:0001f7b0       ?_Mynode@const_iterator@?$list@PAVCVerbRequest@@V?$allocator@PAVCVerbRequest@@@std@@@std@@QBEPAU_Node@23@XZ 004207b0 f i Graph.obj
 0001:0001f7b0       ?_Mynode@const_iterator@?$_Tree@VCString@@U?$pair@$$CBVCString@@VCPerson@@@std@@U_Kfn@?$map@VCString@@VCPerson@@U?$less@VCString@@@std@@V?$allocator@VCPerson@@@4@@3@U?$less@VCString@@@3@V?$allocator@VCPerson@@@3@@std@@QBEPAU_Node@23@XZ 004207b0 f i Graph.obj
 0001:0001f7b0       ?_Mynode@const_iterator@?$list@PAVCInventoryDlg@@V?$allocator@PAVCInventoryDlg@@@std@@@std@@QBEPAU_Node@23@XZ 004207b0 f i Graph.obj
 0001:0001f7b0       ?_Mynode@const_iterator@?$_Tree@VCSCI_Object@@U?$pair@$$CBVCSCI_Object@@PAVCNoButtonDlg@@@std@@U_Kfn@?$map@VCSCI_Object@@PAVCNoButtonDlg@@U?$less@VCSCI_Object@@@std@@V?$allocator@PAVCNoButtonDlg@@@4@@3@U?$less@VCSCI_Object@@@3@V?$allocator@PAVCNoButtonDlg@@@3@@std@@QBEPAU_Node@23@XZ 004207b0 f i Graph.obj
 0001:0001f7b0       ?_Mynode@const_iterator@?$_Tree@HU?$pair@$$CBHPAVCVerb@@@std@@U_Kfn@?$map@HPAVCVerb@@U?$less@H@std@@V?$allocator@PAVCVerb@@@3@@2@U?$less@H@2@V?$allocator@PAVCVerb@@@2@@std@@QBEPAU_Node@23@XZ 004207b0 f i Graph.obj
 0001:0001f7b0       ?_Mynode@const_iterator@?$_Tree@PAVCSkinCtrl@@PAV1@U_Kfn@?$set@PAVCSkinCtrl@@U?$less@PAVCSkinCtrl@@@std@@V?$allocator@PAVCSkinCtrl@@@3@@std@@U?$less@PAVCSkinCtrl@@@4@V?$allocator@PAVCSkinCtrl@@@4@@std@@QBEPAU_Node@23@XZ 004207b0 f i Graph.obj
 0001:0001f7b0       ?_Mynode@const_iterator@?$_Tree@VCSkinObj@@U?$pair@$$CBVCSkinObj@@PAVCSkinCtrl@@@std@@U_Kfn@?$map@VCSkinObj@@PAVCSkinCtrl@@U?$less@VCSkinObj@@@std@@V?$allocator@PAVCSkinCtrl@@@4@@3@U?$less@VCSkinObj@@@3@V?$allocator@PAVCSkinCtrl@@@3@@std@@QBEPAU_Node@23@XZ 004207b0 f i Graph.obj
 0001:0001f7b0       ?_Mynode@const_iterator@?$list@PAVCSkinWnd@@V?$allocator@PAVCSkinWnd@@@std@@@std@@QBEPAU_Node@23@XZ 004207b0 f i Graph.obj
 0001:0001f7b0       ?_Mynode@const_iterator@?$_Tree@V?$basic_string@DU?$char_traits@D@std@@V?$allocator@D@2@@std@@U?$pair@$$CBV?$basic_string@DU?$char_traits@D@std@@V?$allocator@D@2@@std@@PAVCPrivateTell@@@2@U_Kfn@?$map@V?$basic_string@DU?$char_traits@D@std@@V?$allocator@D@2@@std@@PAVCPrivateTell@@U?$less@V?$basic_string@DU?$char_traits@D@std@@V?$allocator@D@2@@std@@@2@V?$allocator@PAVCPrivateTell@@@2@@2@U?$less@V?$basic_string@DU?$char_traits@D@std@@V?$allocator@D@2@@std@@@2@V?$allocator@PAVCPrivateTell@@@2@@std@@QBEPAU_Node@23@XZ 004207b0 f i Graph.obj
 0001:0001f7b0       ?_Mynode@const_iterator@?$_Tree@PAUHWND__@@U?$pair@QAUHWND__@@PAVCMouseWheelable@@@std@@U_Kfn@?$map@PAUHWND__@@PAVCMouseWheelable@@U?$less@PAUHWND__@@@std@@V?$allocator@PAVCMouseWheelable@@@4@@3@U?$less@PAUHWND__@@@3@V?$allocator@PAVCMouseWheelable@@@3@@std@@QBEPAU_Node@23@XZ 004207b0 f i Graph.obj
 0001:0001f7b0       ?_Mynode@const_iterator@?$list@PAVCLookAtItem@@V?$allocator@PAVCLookAtItem@@@std@@@std@@QBEPAU_Node@23@XZ 004207b0 f i Graph.obj
 0001:0001f7b0       ?_Mynode@const_iterator@?$_Tree@HU?$pair@$$CBHPAVCVerbBtn@@@std@@U_Kfn@?$map@HPAVCVerbBtn@@U?$less@H@std@@V?$allocator@PAVCVerbBtn@@@3@@2@U?$less@H@2@V?$allocator@PAVCVerbBtn@@@2@@std@@QBEPAU_Node@23@XZ 004207b0 f i Graph.obj
 0001:0001f7b0       ?_Mynode@const_iterator@?$list@PAVCSkinCtrl@@V?$allocator@PAVCSkinCtrl@@@std@@@std@@QBEPAU_Node@23@XZ 004207b0 f i Graph.obj
 0001:0001f7b0       ?_Mynode@const_iterator@?$_Tree@PAUHWND__@@U?$pair@QAUHWND__@@PAVCDropTarget@@@std@@U_Kfn@?$map@PAUHWND__@@PAVCDropTarget@@U?$less@PAUHWND__@@@std@@V?$allocator@PAVCDropTarget@@@4@@3@U?$less@PAUHWND__@@@3@V?$allocator@PAVCDropTarget@@@3@@std@@QBEPAU_Node@23@XZ 004207b0 f i Graph.obj
 0001:0001f7b0       ?SI@DrawItem@@QAEAAVScreenItem@@XZ 004207b0 f i Graph.obj
 0001:0001f7b0       ?_Mynode@const_iterator@?$_Tree@VCSCI_WorldObject@@U?$pair@$$CBVCSCI_WorldObject@@PAVCInventoryDlg@@@std@@U_Kfn@?$map@VCSCI_WorldObject@@PAVCInventoryDlg@@U?$less@VCSCI_WorldObject@@@std@@V?$allocator@PAVCInventoryDlg@@@4@@3@U?$less@VCSCI_WorldObject@@@3@V?$allocator@PAVCInventoryDlg@@@3@@std@@QBEPAU_Node@23@XZ 004207b0 f i Graph.obj
 0001:0001f7b0       ?_Mynode@const_iterator@?$_Tree@PAVCSkinWnd@@PAV1@U_Kfn@?$set@PAVCSkinWnd@@U?$less@PAVCSkinWnd@@@std@@V?$allocator@PAVCSkinWnd@@@3@@std@@U?$less@PAVCSkinWnd@@@4@V?$allocator@PAVCSkinWnd@@@4@@std@@QBEPAU_Node@23@XZ 004207b0 f i Graph.obj
 0001:0001f7b0       ?Type@Bitmap@@QBEHXZ       004207b0 f i Graph.obj
 0001:0001f7b0       ?_Mynode@const_iterator@?$list@PAVCListData@@V?$allocator@PAVCListData@@@std@@@std@@QBEPAU_Node@23@XZ 004207b0 f i Graph.obj
 0001:0001f7b0       ??BCComBSTR@ATL@@QBEPAGXZ  004207b0 f i Graph.obj
 0001:0001f7b0       ?Length@DrawList@@QBEHXZ   004207b0 f i Graph.obj
 0001:0001f7b0       ?_Mynode@const_iterator@?$list@PAVCMailMsg@@V?$allocator@PAVCMailMsg@@@std@@@std@@QBEPAU_Node@23@XZ 004207b0 f i Graph.obj
 0001:0001f7b0       ?_Mynode@const_iterator@?$_Tree@PAUHWND__@@U?$pair@QAUHWND__@@PAVCSkinWnd@@@std@@U_Kfn@?$map@PAUHWND__@@PAVCSkinWnd@@U?$less@PAUHWND__@@@std@@V?$allocator@PAVCSkinWnd@@@4@@3@U?$less@PAUHWND__@@@3@V?$allocator@PAVCSkinWnd@@@3@@std@@QBEPAU_Node@23@XZ 004207b0 f i Graph.obj
 0001:0001f7b0       ??BCString@@QBEPBDXZ       004207b0 f i Graph.obj
 0001:0001f7b0       ?GetName@CPrivateTell@@QAEPADXZ 004207b0 f i Graph.obj
 0001:0001f7b0       ?getFriend@CListData@@QAEHXZ 004207b0 f i Graph.obj
 0001:0001f7b0       ?_Mynode@const_iterator@?$_Tree@HU?$pair@$$CBHPAVCMailMsg@@@std@@U_Kfn@?$map@HPAVCMailMsg@@U?$less@H@std@@V?$allocator@PAVCMailMsg@@@3@@2@U?$less@H@2@V?$allocator@PAVCMailMsg@@@2@@std@@QBEPAU_Node@23@XZ 004207b0 f i Graph.obj
 0001:0001f7b0       ?_Mynode@const_iterator@?$list@PADV?$allocator@PAD@std@@@std@@QBEPAU_Node@23@XZ 004207b0 f i Graph.obj
 0001:0001f7b0       ?_Mynode@const_iterator@?$_Tree@V?$basic_string@DU?$char_traits@D@std@@V?$allocator@D@2@@std@@U?$pair@$$CBV?$basic_string@DU?$char_traits@D@std@@V?$allocator@D@2@@std@@VCPoint@@@2@U_Kfn@?$map@V?$basic_string@DU?$char_traits@D@std@@V?$allocator@D@2@@std@@VCPoint@@U?$less@V?$basic_string@DU?$char_traits@D@std@@V?$allocator@D@2@@std@@@2@V?$allocator@VCPoint@@@2@@2@U?$less@V?$basic_string@DU?$char_traits@D@std@@V?$allocator@D@2@@std@@@2@V?$allocator@VCPoint@@@2@@std@@QBEPAU_Node@23@XZ 004207b0 f i Graph.obj
 0001:0001f7c0       ??9MemID@@QBEHABV0@@Z      004207c0 f i Graph.obj
 0001:0001f7e0       ?SetHandle@Bitmap@@QAEXVMemID@@@Z 004207e0 f i Graph.obj
 0001:0001f810       ??_GMagnifyView@@QAEPAXI@Z 00420810 f i Graph.obj
 0001:0001f840       ?GetPlaneNext@GraphicsMgr@@QAEPAVSOL_Plane@@H@Z 00420840 f i Graph.obj
 0001:0001f860       ?OnScreen@SOL_Plane@@QBEABVSOL_Rect@@XZ 00420860 f i Graph.obj
 0001:0001f860       ?OnScreen@SOL_Plane@@QAEAAVSOL_Rect@@XZ 00420860 f i Graph.obj
 0001:0001f880       ?VisiblePlane@GraphicsMgr@@QAEPAVSOL_Plane@@H@Z 00420880 f i Graph.obj
 0001:0001f8b0       ?TopScreenItem@GraphicsMgr@@QBEHH@Z 004208b0 f i Graph.obj
 0001:0001f8d0       ??D@YAHHABVRatio@@@Z       004208d0 f i Graph.obj
 0001:0001f920       ?Area@SOL_Rect@@QBEJXZ     00420920 f i Graph.obj
 0001:0001f950       ?Length@ScreenItemList@@QBEHXZ 00420950 f i Graph.obj
 0001:0001f970       ?SIList@SOL_Plane@@QAEAAVScreenItemList@@XZ 00420970 f i Graph.obj
 0001:0001f990       ?ScrollScreenItems@GraphicsMgr@@QAEXJHHH@Z 00420990 f i Graph.obj
 0001:0001f9c0       ?GetCel@ScreenItem@@QAEPAVCelObj@@XZ 004209c0 f i Graph.obj
 0001:0001f9e0       ?Max@@YAHHH@Z              004209e0 f i Graph.obj
 0001:0001fa10       ??1GraphicsMgr@@UAE@XZ     00420a10 f   Graphmgr.obj
 0001:0001fa6a       ??0GraphicsMgr@@QAE@HH@Z   00420a6a f   Graphmgr.obj
 0001:0001fb15       ?UpdateScreenItem@GraphicsMgr@@QAEXPAVScreenItem@@@Z 00420b15 f   Graphmgr.obj
 0001:0001fb9e       ?DeleteScreenItem@GraphicsMgr@@QAEXPAVScreenItem@@H@Z 00420b9e f   Graphmgr.obj
 0001:0001fc0c       ?DeleteScreenItem@GraphicsMgr@@QAEXPAVScreenItem@@@Z 00420c0c f   Graphmgr.obj
 0001:0001fc5c       ?UpdatePlane@GraphicsMgr@@QAEXPAVSOL_Plane@@@Z 00420c5c f   Graphmgr.obj
 0001:0001fcc9       ?DeletePlane@GraphicsMgr@@QAEXH@Z 00420cc9 f   Graphmgr.obj
 0001:0001fcfb       ?DeletePlane@GraphicsMgr@@QAEXPAVSOL_Plane@@@Z 00420cfb f   Graphmgr.obj
 0001:0001fd65       ?PalMorphFrameOut@GraphicsMgr@@UAEXPADPAVPlaneShowStyle@@@Z 00420d65 f   Graphmgr.obj
 0001:00020852       ?FrameOut@GraphicsMgr@@UAEXHVSOL_Rect@@@Z 00421852 f   Graphmgr.obj
 0001:00020b65       ?DrawEraseList@GraphicsMgr@@IAEXABVRectList@@ABVSOL_Plane@@@Z 00421b65 f   Graphmgr.obj
 0001:00020c91       ?DrawScreenItemList@GraphicsMgr@@IAEXAAVDrawList@@@Z 00421c91 f   Graphmgr.obj
 0001:00020d74       ?NewScreenDim@GraphicsMgr@@QAEXHH@Z 00421d74 f   Graphmgr.obj
 0001:00020dac       ?IsOnMe@GraphicsMgr@@QAEHAAVScreenItem@@ABVSOL_Plane@@ABVSOL_Point@@H@Z 00421dac f   Graphmgr.obj
 0001:00020fc5       ?MergeToShowList@GraphicsMgr@@IAEXABVSOL_Rect@@AAVRectList@@H@Z 00421fc5 f   Graphmgr.obj
 0001:000210fd       ?MovieFrameOut@GraphicsMgr@@UAEXVSOL_Rect@@@Z 004220fd f   Graphmgr.obj
 0001:0002113d       ?NowSeen@GraphicsMgr@@QAEHHHAAVSOL_Rect@@@Z 0042213d f   Graphmgr.obj
 0001:000211a0       ??_EGraphicsMgr@@UAEPAXI@Z 004221a0 f i Graphmgr.obj
 0001:000211a0       ??_GGraphicsMgr@@UAEPAXI@Z 004221a0 f i Graphmgr.obj
 0001:000211d0       ??1Screen@@QAE@XZ          004221d0 f i Graphmgr.obj
 0001:00021220       ??_GRectList@@QAEPAXI@Z    00422220 f i Graphmgr.obj
 0001:00021250       ??_GDrawList@@QAEPAXI@Z    00422250 f i Graphmgr.obj
 0001:00021280       ?Min@@YAHHH@Z              00422280 f i Graphmgr.obj
 0001:000212b0       ??K@YAHHABVRatio@@@Z       004222b0 f i Graphmgr.obj
 0001:000212e0       ?ClearDeleteCount@ScreenItem@@QAEXXZ 004222e0 f i Graphmgr.obj
 0001:00021300       ?GetSkip@ScreenItem@@QAEEXZ 00422300 f i Graphmgr.obj
 0001:00021320       ?OnScreen@ScreenItem@@QAEAAVSOL_Rect@@XZ 00422320 f i Graphmgr.obj
 0001:00021340       ?ReadPix@ScreenItem@@QAEEHH@Z 00422340 f i Graphmgr.obj
 0001:00021390       ?SetCel@ScreenItem@@QAEXPAVCelObj@@@Z 00422390 f i Graphmgr.obj
 0001:000213e0       ?SetUpdateCount@ScreenItem@@QAEXH@Z 004223e0 f i Graphmgr.obj
 0001:00021400       ?SetAddCount@ScreenItem@@QAEXH@Z 00422400 f i Graphmgr.obj
 0001:00021420       ?SetDeleteCount@ScreenItem@@QAEXH@Z 00422420 f i Graphmgr.obj
 0001:00021440       ?SubmitPalette@ScreenItem@@QAEXXZ 00422440 f i Graphmgr.obj
 0001:00021460       ?Draw@DrawItem@@QAEXAAVBuffer@@@Z 00422460 f i Graphmgr.obj
 0001:00021490       ?Draw@ScreenItem@@QAEXABVBuffer@@ABVSOL_Rect@@@Z 00422490 f i Graphmgr.obj
 0001:000214d0       ??ADrawList@@QAEAAVDrawItem@@H@Z 004224d0 f i Graphmgr.obj
 0001:000214f0       ?AddCount@SOL_Plane@@QBEHXZ 004224f0 f i Graphmgr.obj
 0001:000214f0       ?ResX@CelObj@@QBEHXZ       004224f0 f i Graphmgr.obj
 0001:00021510       ?getUpdate@CListData@@QAE_NXZ 00422510 f i Graphmgr.obj
 0001:00021510       ?Color@SOL_Plane@@QBEEXZ   00422510 f i Graphmgr.obj
 0001:00021530       ?DefRect@SOL_Plane@@QBEABVSOL_Rect@@XZ 00422530 f i Graphmgr.obj
 0001:00021550       ?PackSiArray@SOL_Plane@@QAEXXZ 00422550 f i Graphmgr.obj
 0001:00021570       ?SetAddCount@SOL_Plane@@QAEXH@Z 00422570 f i Graphmgr.obj
 0001:00021590       ?SetLogOff@CToonSettings@@QAEXH@Z 00422590 f i Graphmgr.obj
 0001:00021590       ?SetDeleteCount@SOL_Plane@@QAEXH@Z 00422590 f i Graphmgr.obj
 0001:000215b0       ?SetUpdateCount@SOL_Plane@@QAEXH@Z 004225b0 f i Graphmgr.obj
 0001:000215d0       ?Length@RectList@@QBEHXZ   004225d0 f i Graphmgr.obj
 0001:000215f0       ?ScreenRect@Screen@@QBEABVSOL_Rect@@XZ 004225f0 f i Graphmgr.obj
 0001:00021610       ?Xdim@Screen@@QBEHXZ       00422610 f i Graphmgr.obj
 0001:00021630       ?Ydim@Screen@@QBEHXZ       00422630 f i Graphmgr.obj
 0001:00021650       ?ShowList@Screen@@QAEAAVRectList@@XZ 00422650 f i Graphmgr.obj
 0001:00021670       ?SortPlanes@Screen@@QAEXXZ 00422670 f i Graphmgr.obj
 0001:00021690       ??0Screen@@QAE@HH@Z        00422690 f i Graphmgr.obj
 0001:00021740       ?Xdim@GraphicsMgr@@QBEHXZ  00422740 f i Graphmgr.obj
 0001:00021760       ?Ydim@GraphicsMgr@@QBEHXZ  00422760 f i Graphmgr.obj
 0001:00021780       ?RemapMarkRedraw@GraphicsMgr@@QAEXXZ 00422780 f i Graphmgr.obj
 0001:000217a0       ??0GraphicsMgrWin@@QAE@HH@Z 004227a0 f   Graphmw.obj
 0001:00021ad3       ??1GraphicsMgrWin@@UAE@XZ  00422ad3 f   Graphmw.obj
 0001:00021bce       ?AlterVMAP@GraphicsMgrWin@@UAEXPBVSOLPalette@@0HPAD@Z 00422bce f   Graphmw.obj
 0001:00022098       ?ShowBits@GraphicsMgrWin@@MAEXXZ 00423098 f   Graphmw.obj
 0001:00022255       ?ShowRect@GraphicsMgrWin@@IAEXPBVSOL_Rect@@PAE@Z 00423255 f   Graphmw.obj
 0001:00022355       ?PlayMovie@GraphicsMgrWin@@UAEXPADHHH@Z 00423355 f   Graphmw.obj
 0001:00022370       ?SetVideoForMovies@GraphicsMgrWin@@UAEXXZ 00423370 f   Graphmw.obj
 0001:0002237b       ?SetVideoForSpeed@GraphicsMgrWin@@UAEXXZ 0042337b f   Graphmw.obj
 0001:00022386       ?TimingTest@GraphicsMgrWin@@QAEXXZ 00423386 f   Graphmw.obj
 0001:00022574       ?Repaint@GraphicsMgrWin@@UAEXABVSOL_Rect@@@Z 00423574 f   Graphmw.obj
 0001:000225a2       ?ResizeVmap@GraphicsMgrWin@@MAEXHH@Z 004235a2 f   Graphmw.obj
 0001:000225bd       ?KIsHiRes@@YAXPAF@Z        004235bd f   Graphmw.obj
 0001:00022601       ?SCursorClr@GraphicsMgrWin@@QAEXXZ 00423601 f   Graphmw.obj
 0001:00022712       ?SCursorWin@GraphicsMgrWin@@QAEXXZ 00423712 f   Graphmw.obj
 0001:000227fa       ?PutMovieRect@@YAXPAE0HPAVSOL_Rect@@PAVSOL_Point@@@Z 004237fa f   Graphmw.obj
 0001:000228a3       ?PutMovieRectBlack@@YAXPAE0HPAVSOL_Rect@@PAVSOL_Point@@@Z 004238a3 f   Graphmw.obj
 0001:00022961       ?PutMovieRectDbl@@YAXPAE0HPAVSOL_Rect@@PAVSOL_Point@@@Z 00423961 f   Graphmw.obj
 0001:00022a0a       ?PutMovieRectDblBlack@@YAXPAE0HPAVSOL_Rect@@PAVSOL_Point@@@Z 00423a0a f   Graphmw.obj
 0001:00022ad0       ??_GGraphicsMgrWin@@UAEPAXI@Z 00423ad0 f i Graphmw.obj
 0001:00022ad0       ??_EGraphicsMgrWin@@UAEPAXI@Z 00423ad0 f i Graphmw.obj
 0001:00022b00       ?Get@MemID@@QAEXW4MemType@@IW4ReservedHandle@@I@Z 00423b00 f i Graphmw.obj
 0001:00022b40       ??ASOLPalette@@QAEAAVRgb24F@@H@Z 00423b40 f i Graphmw.obj
 0001:00022b40       ??ASOLPalette@@QBEABVRgb24F@@H@Z 00423b40 f i Graphmw.obj
 0001:00022b60       ??0PaletteMgrIWin@@QAE@XZ  00423b60 f i Graphmw.obj
 0001:00022bc0       ?Current@PaletteMgrIndex@@UBEABVSOLPalette@@XZ 00423bc0 f i Graphmw.obj
 0001:00022be0       ?Source@PaletteMgrIndex@@UBEABVSOLPalette@@XZ 00423be0 f i Graphmw.obj
 0001:00022c00       ?Next@PaletteMgrIndex@@UBEABVSOLPalette@@XZ 00423c00 f i Graphmw.obj
 0001:00022c20       ?CycleMap@PaletteMgrIndex@@UBEPBEXZ 00423c20 f i Graphmw.obj
 0001:00022c40       ?VaryPercent@PaletteMgrIndex@@UBEHXZ 00423c40 f i Graphmw.obj
 0001:00022c70       ?VaryPause@PaletteMgrIndex@@UAEXXZ 00423c70 f i Graphmw.obj
 0001:00022ca0       ??_GPaletteMgrIWin@@UAEPAXI@Z 00423ca0 f i Graphmw.obj
 0001:00022ca0       ??_EPaletteMgrIWin@@UAEPAXI@Z 00423ca0 f i Graphmw.obj
 0001:00022cd0       ??1PaletteMgrIWin@@UAE@XZ  00423cd0 f i Graphmw.obj
 0001:00022d20       ??0PaletteMgrTWin@@QAE@XZ  00423d20 f i Graphmw.obj
 0001:00022d80       ??0PaletteMgrTrue@@QAE@XZ  00423d80 f i Graphmw.obj
 0001:00022da0       ??_GPaletteMgrTrue@@UAEPAXI@Z 00423da0 f i Graphmw.obj
 0001:00022da0       ??_EPaletteMgrTrue@@UAEPAXI@Z 00423da0 f i Graphmw.obj
 0001:00022dd0       ??1PaletteMgrTrue@@UAE@XZ  00423dd0 f i Graphmw.obj
 0001:00022df0       ?UpdateHardware@PaletteMgrTWin@@UAEHXZ 00423df0 f i Graphmw.obj
 0001:00022df0       ?UpdateHardware@PaletteMgrIWin@@UAEHXZ 00423df0 f i Graphmw.obj
 0001:00022e20       ??_EPaletteMgrTWin@@UAEPAXI@Z 00423e20 f i Graphmw.obj
 0001:00022e20       ??_GPaletteMgrTWin@@UAEPAXI@Z 00423e20 f i Graphmw.obj
 0001:00022e50       ??1PaletteMgrTWin@@UAE@XZ  00423e50 f i Graphmw.obj
 0001:00022ea0       ?ScreenCount@GraphicsMgrWin@@UBEHXZ 00423ea0 f i Graphmw.obj
 0001:00022eb0       ?VisibleScreen@GraphicsMgrWin@@UAEAAVScreen@@XZ 00423eb0 f i Graphmw.obj
 0001:00022ed0       ?ShakeScreen@GraphicsMgrWin@@UAEXHH@Z 00423ed0 f i Graphmw.obj
 0001:00022ee0       ?GPalette@GraphicsMgrWin@@UAEAAVPaletteMgr@@XZ 00423ee0 f i Graphmw.obj
 0001:00022f00       ?GCursor@GraphicsMgrWin@@UAEAAVSOL_Cursor@@XZ 00423f00 f i Graphmw.obj
 0001:00022f20       ?PriMap@GraphicsMgrWin@@UAEAAVBuffer@@XZ 00423f20 f i Graphmw.obj
 0001:00022f40       ?CalcLists@GraphicsMgrWin@@MAEXPAPAVDrawList@@PAPAVRectList@@AAVSOL_Rect@@@Z 00423f40 f i Graphmw.obj
 0001:00022f70       ?CurrBuffer@GraphicsMgrWin@@MAEPAVBuffer@@XZ 00423f70 f i Graphmw.obj
 0001:00022f90       ?TrueColor@GraphicsMgrWin@@MBEHXZ 00423f90 f i Graphmw.obj
 0001:00022fa0       ?UpdateScreen@GraphicsMgrWin@@UAEXXZ 00423fa0 f i Graphmw.obj
 0001:00022fc0       ??4Screen@@QAEAAV0@ABV0@@Z 00423fc0 f i Graphmw.obj
 0001:00023000       ?HotkeyRequest@@YAXXZ      00424000 f   Hotkey.obj
 0001:00023005       ?Hotkey@@YAXXZ             00424005 f   Hotkey.obj
 0001:00023010       ?MapToDir@KbdMgr@@UBEXPAVSOL_Event@@@Z 00424010 f   Kbdmgr.obj
 0001:000230b0       ?HandleKey@KbdMgrWin@@QAEHIGJ@Z 004240b0 f   Kbdmgrw.obj
 0001:00023274       ?KeyEvent@KbdMgrWin@@AAEXG@Z 00424274 f   Kbdmgrw.obj
 0001:000232c0       ?Get@KbdWin@@UAEGXZ        004242c0 f   Kbdw.obj
 0001:000232ce       ?Modifiers@KbdWin@@UAEGXZ  004242ce f   Kbdw.obj
 0001:00023329       ?Reset@KbdWin@@UAEXXZ      00424329 f   Kbdw.obj
 0001:00023340       ?KDummy@@YAXPAF@Z          00424340 f   Kernel.obj
 0001:00023350       ?InitLanguage@@YAXXZ       00424350 f   Language.obj
 0001:00023430       ?DrawThin@SOL_Line@@QAEXEHHVMemID@@H@Z 00424430 f   Line.obj
 0001:000239a8       ?DrawThick@SOL_Line@@QAEXEHHHVMemID@@H@Z 004249a8 f   Line.obj
 0001:000241e0       ?at@SOL_List@@QAEGH@Z      004251e0 f   List.obj
 0001:00024213       ?addAfter@SOL_List@@QAEHGG@Z 00425213 f   List.obj
 0001:0002427a       ?addBefore@SOL_List@@QAEHGG@Z 0042527a f   List.obj
 0001:000242de       ?addToFront@SOL_List@@QAEXG@Z 004252de f   List.obj
 0001:00024320       ?addToEnd@SOL_List@@QAEXG@Z 00425320 f   List.obj
 0001:0002436b       ?moveToFront@SOL_List@@QAEHG@Z 0042536b f   List.obj
 0001:000243a7       ?moveToEnd@SOL_List@@QAEHG@Z 004253a7 f   List.obj
 0001:000243e3       ?del@SOL_List@@QAEHG@Z     004253e3 f   List.obj
 0001:0002443d       ?sortByValue@SOL_List@@QAEXH@Z 0042543d f   List.obj
 0001:00024553       ?sortByProperty@SOL_List@@QAEXHH@Z 00425553 f   List.obj
 0001:0002468e       ?indexOf@SOL_List@@QAEHG@Z 0042568e f   List.obj
 0001:000246fb       ?lock@SOL_List@@QAEXXZ     004256fb f   List.obj
 0001:0002472c       ?unlock@SOL_List@@QAEXXZ   0042572c f   List.obj
 0001:0002475d       ?KList@@YAXPAF@Z           0042575d f   List.obj
 0001:00025720       ?createElements@SOL_List@@QAEXXZ 00426720 f i List.obj
 0001:00025770       ?unlock@Array@@QAEXXZ      00426770 f i List.obj
 0001:00025790       ??CScriptID@@QBEPAUScript@@XZ 00426790 f i List.obj
 0001:00025790       ??CFakeClassTblID@@QBEPAUClassTbl@@XZ 00426790 f i List.obj
 0001:00025790       ??DScriptHunkID@@QBEPAUScriptHunk@@XZ 00426790 f i List.obj
 0001:00025790       ??CFakeObjectID@@QBEPAUObject@@XZ 00426790 f i List.obj
 0001:00025790       ??CViewHeaderID@@QBEPAUViewHeader@@XZ 00426790 f i List.obj
 0001:00025790       ??DFakeObjectID@@QBEPAUObject@@XZ 00426790 f i List.obj
 0001:00025790       ??DFakeScriptEntryID@@QBEPAUScriptEntry@@XZ 00426790 f i List.obj
 0001:00025790       ??DFakeDispatchTblID@@QBEPAUDispatchTbl@@XZ 00426790 f i List.obj
 0001:00025790       ??CFakeScrollWindowID@@QBEPAVSCIScrollWindow@@XZ 00426790 f i List.obj
 0001:00025790       ??CFakeSOL_ListID@@QBEPAVSOL_List@@XZ 00426790 f i List.obj
 0001:00025790       ??CScriptHeapID@@QBEPAUScriptHeap@@XZ 00426790 f i List.obj
 0001:00025790       ??DFakeArrayID@@QBEPAUArrayHeader@@XZ 00426790 f i List.obj
 0001:00025790       ??DFakeResTagID@@QBEPAUResTag@@XZ 00426790 f i List.obj
 0001:00025790       ??CFakeArrayID@@QBEPAUArrayHeader@@XZ 00426790 f i List.obj
 0001:00025790       ??CFakeDispatchTblID@@QBEPAUDispatchTbl@@XZ 00426790 f i List.obj
 0001:00025790       ??DMsgStackID@@QBEPAUMsgStack@@XZ 00426790 f i List.obj
 0001:00025790       ??DFakeScrollWindowID@@QBEPAVSCIScrollWindow@@XZ 00426790 f i List.obj
 0001:00025790       ??DFakeSOL_ListID@@QBEPAVSOL_List@@XZ 00426790 f i List.obj
 0001:00025790       ??CScriptHunkID@@QBEPAUScriptHunk@@XZ 00426790 f i List.obj
 0001:00025790       ??DScriptID@@QBEPAUScript@@XZ 00426790 f i List.obj
 0001:000257b0       ?Get@SOL_ListID@@QAEXXZ    004267b0 f i List.obj
 0001:00025810       ?KLongInt@@YAXPAF@Z        00426810 f   Longint.obj
 0001:00025c70       ??0LZSS@@QAE@XZ            00426c70 f   Lzss.obj
 0001:00025d2e       ??1LZSS@@QAE@XZ            00426d2e f   Lzss.obj
 0001:00025d8f       ?InitTree@LZSS@@AAEXXZ     00426d8f f   Lzss.obj
 0001:00025df4       ?InsertNode@LZSS@@AAEXF@Z  00426df4 f   Lzss.obj
 0001:00026081       ?DeleteNode@LZSS@@AAEXF@Z  00427081 f   Lzss.obj
 0001:0002629a       ?Encode@LZSS@@QAEJPADJ0@Z  0042729a f   Lzss.obj
 0001:0002666d       ?Decode@LZSS@@QAEJPADJ0J@Z 0042766d f   Lzss.obj
 0001:000268d0       ??0MagnifyView@@QAE@VObjectID@@PAV0@@Z 004278d0 f   Magnify.obj
 0001:00027143       ??1MagnifyView@@QAE@XZ     00428143 f   Magnify.obj
 0001:0002716f       ?FillData@MagnifyView@@QAEXVSOL_Point@@@Z 0042816f f   Magnify.obj
 0001:00027380       ?Update@MagnifyView@@QAEXXZ 00428380 f   Magnify.obj
 0001:00027820       ?SetInsetRect@ScreenItem@@QAEXABVSOL_Rect@@@Z 00428820 f i Magnify.obj
 0001:00027850       ?sqrt@@YAIK@Z              00428850 f   Math.obj
 0001:000278cd       ?LCGRandom@@YAKXZ          004288cd f   Math.obj
 0001:00027905       ?LCGRandomA@@YAKXZ         00428905 f   Math.obj
 0001:00027924       ?LCGRandomB@@YAKXZ         00428924 f   Math.obj
 0001:00027943       ?KAbs@@YAXPAF@Z            00428943 f   Math.obj
 0001:00027976       ?KSqrt@@YAXPAF@Z           00428976 f   Math.obj
 0001:000279b2       ?KMulDiv@@YAXPAF@Z         004289b2 f   Math.obj
 0001:00027aa4       ?KGetAngle@@YAXPAF@Z       00428aa4 f   Math.obj
 0001:00027afb       ?KGetDistance@@YAXPAF@Z    00428afb f   Math.obj
 0001:00027bcd       ?KSinMult@@YAXPAF@Z        00428bcd f   Math.obj
 0001:00027bef       ?KCosMult@@YAXPAF@Z        00428bef f   Math.obj
 0001:00027c11       ?KSinDiv@@YAXPAF@Z         00428c11 f   Math.obj
 0001:00027c33       ?KCosDiv@@YAXPAF@Z         00428c33 f   Math.obj
 0001:00027c55       ?KATan@@YAXPAF@Z           00428c55 f   Math.obj
 0001:00027c87       ?KRandom@@YAXPAF@Z         00428c87 f   Math.obj
 0001:00027d49       ?KRandomA@@YAXPAF@Z        00428d49 f   Math.obj
 0001:00027e1d       ?KReadNumber@@YAXPAF@Z     00428e1d f   Math.obj
 0001:00027e38       ?RPtToAngle@@YAHPAVSOL_Point@@0@Z 00428e38 f   Math.obj
 0001:00027e5f       ?ScaledSin@@YAJH@Z         00428e5f f   Math.obj
 0001:00027f43       ?ScaledCos@@YAJH@Z         00428f43 f   Math.obj
 0001:00027fe7       ?ATan@@YAHHHHH@Z           00428fe7 f   Math.obj
 0001:000281b0       ?CosDiv@@YAHHJ@Z           004291b0 f i Math.obj
 0001:000281e0       ?SinMult@@YAHHJ@Z          004291e0 f i Math.obj
 0001:00028200       ?CosMult@@YAHHJ@Z          00429200 f i Math.obj
 0001:00028220       ?SinDiv@@YAHHJ@Z           00429220 f i Math.obj
 0001:00028250       ?Attrs@MemID@@QBEIXZ       00429250 f   Memid.obj
 0001:0002826f       ?GetMemType@MemID@@QBE?AW4MemType@@XZ 0042926f f   Memid.obj
 0001:0002828e       ?GetMemTypeStr@MemID@@QBEPBDXZ 0042928e f   Memid.obj
 0001:000282ad       ?Clear@MemID@@QBEXXZ       004292ad f   Memid.obj
 0001:000282c2       ?Critical@MemID@@QBEXH@Z   004292c2 f   Memid.obj
 0001:000282e5       ?Fill@MemID@@QBEXE@Z       004292e5 f   Memid.obj
 0001:00028321       ?Lock@MemID@@QBEPAXXZ      00429321 f   Memid.obj
 0001:00028340       ?Unlock@MemID@@QBEPAXXZ    00429340 f   Memid.obj
 0001:0002835f       ?SetDiscardable@MemID@@QBEXXZ 0042935f f   Memid.obj
 0001:0002837e       ?SetNotDiscardable@MemID@@QBEXXZ 0042937e f   Memid.obj
 0001:0002839d       ?Realloc@MemID@@QBEPAXI@Z  0042939d f   Memid.obj
 0001:000283ca       ?Read@MemID@@QBEHH@Z       004293ca f   Memid.obj
 0001:000283fa       ?Read@MemID@@QBEHHII@Z     004293fa f   Memid.obj
 0001:00028424       ?Load@MemID@@QAEHW4MemType@@PADIW4ReservedHandle@@@Z 00429424 f   Memid.obj
 0001:000284ad       ?Size@MemID@@QBEIXZ        004294ad f   Memid.obj
 0001:000284f0       ?Critical@MemoryMgr@@QAEXGH@Z 004294f0 f i Memid.obj
 0001:00028540       ?SetDiscardable@MemoryMgr@@QAEXG@Z 00429540 f i Memid.obj
 0001:000285c0       ?SetNotDiscardable@MemoryMgr@@QAEXG@Z 004295c0 f i Memid.obj
 0001:00028640       ?GetMemType@MemoryMgr@@QAE?AW4MemType@@G@Z 00429640 f i Memid.obj
 0001:00028670       ?GetMemAttrs@MemoryMgr@@QAEIG@Z 00429670 f i Memid.obj
 0001:000286a0       ??AMemID@@QBEAADI@Z        004296a0 f i Memid.obj
 0001:00028723       ?CheckHeap@@YAXPADH@Z      00429723 f   Memmgr.obj
 0001:0002875e       ?_ValidateMemID@@YAXVMemID@@PADH@Z 0042975e f   Memmgr.obj
 0001:000288e7       ?DescribePrevMemID@@YAXVMemID@@@Z 004298e7 f   Memmgr.obj
 0001:0002894b       ??0MemoryMgr@@QAE@XZ       0042994b f   Memmgr.obj
 0001:0002897c       ?Init@MemoryMgr@@QAEXI@Z   0042997c f   Memmgr.obj
 0001:00028c16       ?GetNewDescriptor@MemoryMgr@@QAEGW4ReservedHandle@@@Z 00429c16 f   Memmgr.obj
 0001:00028d59       ?GetMoreDescriptors@MemoryMgr@@QAEXI@Z 00429d59 f   Memmgr.obj
 0001:00028d79       ?FreeDescriptor@MemoryMgr@@QAEXG@Z 00429d79 f   Memmgr.obj
 0001:00028dfa       ?Alloc@MemoryMgr@@QAEGIIIPAUMemClient@@DW4ReservedHandle@@@Z 00429dfa f   Memmgr.obj
 0001:000290ed       ?Free@MemoryMgr@@QAEXG@Z   0042a0ed f   Memmgr.obj
 0001:0002938a       ?FreeMemory@MemoryMgr@@QAEIXZ 0042a38a f   Memmgr.obj
 0001:000293a0       ?TotalMemory@MemoryMgr@@QAEIXZ 0042a3a0 f   Memmgr.obj
 0001:00029408       ?Purge@MemoryMgr@@QAEGI@Z  0042a408 f   Memmgr.obj
 0001:00029418       ?Pack@MemoryMgr@@QAEII@Z   0042a418 f   Memmgr.obj
 0001:00029428       ?Lock@MemoryMgr@@QAEPAXG@Z 0042a428 f   Memmgr.obj
 0001:000294ea       ?Unlock@MemoryMgr@@QAEPAXG@Z 0042a4ea f   Memmgr.obj
 0001:00029592       ?Realloc@MemoryMgr@@QAEXGI@Z 0042a592 f   Memmgr.obj
 0001:00029723       ?Split@MemoryMgr@@QAEGGHIIPAUMemClient@@@Z 0042a723 f   Memmgr.obj
 0001:00029733       ??4Descriptor@@QAEAAV0@ABVSaveDescriptor@@@Z 0042a733 f   Memmgr.obj
 0001:00029771       ?KPurge@@YAXPAF@Z          0042a771 f   Memmgr.obj
 0001:00029796       ?KMemoryInfo@@YAXPAF@Z     0042a796 f   Memmgr.obj
 0001:00029883       ?GetHandle@MemoryMgr@@QAEGPAX@Z 0042a883 f   Memmgr.obj
 0001:00029893       ?NotValid@MemoryMgr@@QAEXG@Z 0042a893 f   Memmgr.obj
 0001:00029960       ??_EMemoryMgr@@UAEPAXI@Z   0042a960 f i Memmgr.obj
 0001:00029960       ??_GMemoryMgr@@UAEPAXI@Z   0042a960 f i Memmgr.obj
 0001:00029990       ??1MemoryMgr@@UAE@XZ       0042a990 f i Memmgr.obj
 0001:000299b0       ??0Descriptor@@QAE@XZ      0042a9b0 f i Memmgr.obj
 0001:000299e0       ??0MemInfo@@QAE@XZ         0042a9e0 f i Memmgr.obj
 0001:00029a00       ??2Descriptor@@SAPAXIPAX@Z 0042aa00 f i Memmgr.obj
 0001:00029a10       ?GetSysMemAvail@MemoryMgrWin@@UAEIXZ 0042aa10 f   Memmgrw.obj
 0001:00029a20       ?GetSysMem@MemoryMgrWin@@UAEPADI@Z 0042aa20 f   Memmgrw.obj
 0001:00029a78       ??1MemoryMgrWin@@UAE@XZ    0042aa78 f   Memmgrw.obj
 0001:00029af0       ?GetConvMemAvail@MemoryMgrWin@@UAEIXZ 0042aaf0 f   Memmgrw.obj
 0001:00029afd       ?GetConvMem@MemoryMgrWin@@UAEPADI@Z 0042aafd f   Memmgrw.obj
 0001:00029b14       ?FreeConvMem@MemoryMgrWin@@UAEXPAD@Z 0042ab14 f   Memmgrw.obj
 0001:00029b29       ?GetWindowsMemory@@YAXXZ   0042ab29 f   Memmgrw.obj
 0001:00029b42       ?AllocWinMem@@YAPAXHH@Z    0042ab42 f   Memmgrw.obj
 0001:00029b49       ?FreeWinMem@@YAXPAXH@Z     0042ab49 f   Memmgrw.obj
 0001:00029b4e       ?BaseMem@@YAHXZ            0042ab4e f   Memmgrw.obj
 0001:00029b55       ?ExtendedMem@@YAHXZ        0042ab55 f   Memmgrw.obj
 0001:00029b60       ??_GMemoryMgrWin@@UAEPAXI@Z 0042ab60 f i Memmgrw.obj
 0001:00029b60       ??_EMemoryMgrWin@@UAEPAXI@Z 0042ab60 f i Memmgrw.obj
 0001:00029b90       ?GetMemTypeFromStr@@YA?AW4MemType@@PBD@Z 0042ab90 f   Memtype.obj
 0001:00029ba3       ?GetSCITypeFromStr@@YA?AW4MemType@@PBD@Z 0042aba3 f   Memtype.obj
 0001:00029bb6       ?GetMemTypeStr@@YAPBDW4MemType@@@Z 0042abb6 f   Memtype.obj
 0001:00029bc9       ?GetSCIMemTypeStr@@YAPBDW4MemType@@@Z 0042abc9 f   Memtype.obj
 0001:00029bdc       ?AddStat@MemTypes@@QAEXW4MemType@@IHHHH@Z 0042abdc f   Memtype.obj
 0001:00029c52       ?ClearStats@MemTypes@@QAEXXZ 0042ac52 f   Memtype.obj
 0001:00029c9d       ?FindMemTypeDesc@MemTypes@@QAEPAVMemTypeDesc@@W4MemType@@@Z 0042ac9d f   Memtype.obj
 0001:00029ce6       ?GetTypeFromStr@MemTypes@@QAE?AW4MemType@@PBD@Z 0042ace6 f   Memtype.obj
 0001:00029d3d       ?GetSCITypeFromStr@MemTypes@@QAE?AW4MemType@@PBD@Z 0042ad3d f   Memtype.obj
 0001:00029d94       ?GetMemTypeStr@MemTypes@@QAEPBDW4MemType@@@Z 0042ad94 f   Memtype.obj
 0001:00029ddc       ?GetSCIMemTypeStr@MemTypes@@QAEPBDW4MemType@@@Z 0042addc f   Memtype.obj
 0001:00029e24       ?Compare@MemTypes@@CAHPBX0@Z 0042ae24 f   Memtype.obj
 0001:00029e48       ?MakeStatsStr@MemTypes@@QAE?AVTextID@@XZ 0042ae48 f   Memtype.obj
 0001:00029f05       ?GetMemTypeStr@MemoryMgr@@QAEPBDG@Z 0042af05 f   Memtype.obj
 0001:00029f2a       ?MakeMemTypeDspStr@MemoryMgr@@QAE?AVTextID@@XZ 0042af2a f   Memtype.obj
 0001:0002a01f       ?TotalType@MemoryMgr@@QAEHW4MemType@@@Z 0042b01f f   Memtype.obj
 0001:0002a091       ?MakeMemIDListStr@MemoryMgr@@QAE?AVTextID@@HPAHH@Z 0042b091 f   Memtype.obj
 0001:0002a160       ?Update@MemTypeStat@@QAEXIHHHH@Z 0042b160 f i Memtype.obj
 0001:0002a220       ?Clear@MemTypeStat@@QAEXXZ 0042b220 f i Memtype.obj
 0001:0002a290       ?MakeStr@MemTypeStat@@QAEPADXZ 0042b290 f i Memtype.obj
 0001:0002a4c9       ?KMessage@@YAXPAF@Z        0042b4c9 f   Message.obj
 0001:0002ae64       ?Init@MsgStack@@QAEXGEEEE@Z 0042be64 f   Message.obj
 0001:0002ae9d       ?Push@MsgStack@@QAEXEEEE@Z 0042be9d f   Message.obj
 0001:0002af21       ?Top@MsgStack@@QAE?AUMsgEntry@@XZ 0042bf21 f   Message.obj
 0001:0002af7b       ?Pop@MsgStack@@QAEHXZ      0042bf7b f   Message.obj
 0001:0002afa3       ?IncSeq@MsgStack@@QAEXXZ   0042bfa3 f   Message.obj
 0001:0002afca       ??0MsgStackStack@@QAE@XZ   0042bfca f   Message.obj
 0001:0002aff4       ?Push@MsgStackStack@@QAEXAAUMsgStack@@@Z 0042bff4 f   Message.obj
 0001:0002b06c       ?Pop@MsgStackStack@@QAE?AUMsgStack@@XZ 0042c06c f   Message.obj
 0001:0002b100       ?Get@MsgStackID@@QAEXXZ    0042c100 f i Message.obj
 0001:0002b140       ??0StringID@@QAE@ABV0@@Z   0042c140 f i Message.obj
 0001:0002b140       ??0FakeArrayID@@QAE@ABVMemID@@@Z 0042c140 f i Message.obj
 0001:0002b140       ??0FakeObjectID@@QAE@ABVMemID@@@Z 0042c140 f i Message.obj
 0001:0002b140       ??0FakeResTagID@@QAE@ABU0@@Z 0042c140 f i Message.obj
 0001:0002b140       ??0ScriptID@@QAE@ABVMemID@@@Z 0042c140 f i Message.obj
 0001:0002b140       ??0FakeScrollEntryID@@QAE@ABVMemID@@@Z 0042c140 f i Message.obj
 0001:0002b140       ??0StringID@@QAE@ABVMemID@@@Z 0042c140 f i Message.obj
 0001:0002b140       ??0MsgStackID@@QAE@ABU0@@Z 0042c140 f i Message.obj
 0001:0002b140       ??0FakeDispatchTblID@@QAE@ABVMemID@@@Z 0042c140 f i Message.obj
 0001:0002b140       ??0TextID@@QAE@ABV0@@Z     0042c140 f i Message.obj
 0001:0002b140       ??0FakeSOL_ListID@@QAE@ABU0@@Z 0042c140 f i Message.obj
 0001:0002b140       ??0FakeVariableID@@QAE@ABVMemID@@@Z 0042c140 f i Message.obj
 0001:0002b140       ??0ViewHeaderID@@QAE@ABVMemID@@@Z 0042c140 f i Message.obj
 0001:0002b140       ??0ScriptHunkID@@QAE@ABVMemID@@@Z 0042c140 f i Message.obj
 0001:0002b160       ?KBaseSetter@@YAXPAF@Z     0042c160 f   Motion.obj
 0001:0002b425       ?KCelRect@@YAXPAF@Z        0042c425 f   Motion.obj
 0001:0002b662       ?KDirLoop@@YAXPAF@Z        0042c662 f   Motion.obj
 0001:0002b68a       ?KInitBresen@@YAXPAF@Z     0042c68a f   Motion.obj
 0001:0002b9dd       ?KDoBresen@@YAXPAF@Z       0042c9dd f   Motion.obj
 0001:0002bcd1       ?KSetJump@@YAXPAF@Z        0042ccd1 f   Motion.obj
 0001:0002be84       ?KCantBeHere@@YAXPAF@Z     0042ce84 f   Motion.obj
 0001:0002c0f0       ?GetIndexedPropAddr@ObjectID@@QBEPBFH@Z 0042d0f0 f i Motion.obj
 0001:0002c139       ?KHaveMouse@@YAXPAF@Z      0042d139 f   Mouse.obj
 0001:0002c168       ?KSetCursor@@YAXPAF@Z      0042d168 f   Mouse.obj
 0001:0002c2f8       ?KVibrateMouse@@YAXPAF@Z   0042d2f8 f   Mouse.obj
 0001:0002c34f       ?KSetHotRectangles@@YAXPAF@Z 0042d34f f   Mouse.obj
 0001:0002c3df       ?SetupHotRectangles@SOL_Mouse@@UAEXHVMemID@@@Z 0042d3df f   Mouse.obj
 0001:0002c416       ?CheckHotRectangles@SOL_Mouse@@UAEXAAVSOL_Point@@@Z 0042d416 f   Mouse.obj
 0001:0002c58b       ??0MouseWin@@QAE@XZ        0042d58b f   Mousew.obj
 0001:0002c612       ??1MouseWin@@UAE@XZ        0042d612 f   Mousew.obj
 0001:0002c62e       ?GlobalPos@MouseWin@@UBEHPAVSOL_Point@@@Z 0042d62e f   Mousew.obj
 0001:0002c64d       ?GlobalPosSci@MouseWin@@UBEHPAVSOL_Point@@@Z 0042d64d f   Mousew.obj
 0001:0002c68e       ?Exists@MouseWin@@UBEHXZ   0042d68e f   Mousew.obj
 0001:0002c69e       ?SetPos@MouseWin@@UAEXABVSOL_Point@@@Z 0042d69e f   Mousew.obj
 0001:0002c6b9       ?SetRestrictRect@MouseWin@@UAEXABVSOL_Rect@@@Z 0042d6b9 f   Mousew.obj
 0001:0002c6e8       ?ClearRestrictRect@MouseWin@@UAEXXZ 0042d6e8 f   Mousew.obj
 0001:0002c71e       ?WinMouseButton@MouseWin@@QAEXIABVSOL_Point@@@Z 0042d71e f   Mousew.obj
 0001:0002c865       ??0MouseWinClr@@QAE@XZ     0042d865 f   Mousew.obj
 0001:0002c917       ??1MouseWinClr@@UAE@XZ     0042d917 f   Mousew.obj
 0001:0002c980       ?GlobalPos@MouseWinClr@@UBEHPAVSOL_Point@@@Z 0042d980 f   Mousew.obj
 0001:0002c9a8       ?GlobalPosSci@MouseWinClr@@UBEHPAVSOL_Point@@@Z 0042d9a8 f   Mousew.obj
 0001:0002ca18       ?GetSwiftInfo@MouseWinClr@@UBEHPAH000@Z 0042da18 f   Mousew.obj
 0001:0002ca5a       ?Exists@MouseWinClr@@UBEHXZ 0042da5a f   Mousew.obj
 0001:0002ca6a       ?SetRestrictRect@MouseWinClr@@UAEXABVSOL_Rect@@@Z 0042da6a f   Mousew.obj
 0001:0002cb66       ?ClearRestrictRect@MouseWinClr@@UAEXXZ 0042db66 f   Mousew.obj
 0001:0002cba8       ?Setup@MouseWinClr@@UAEXAAVSOL_Cursor@@@Z 0042dba8 f   Mousew.obj
 0001:0002cbbd       ?SetPos@MouseWinClr@@UAEXABVSOL_Point@@@Z 0042dbbd f   Mousew.obj
 0001:0002cd69       ?IsSwift@MouseWinClr@@UBEHXZ 0042dd69 f   Mousew.obj
 0001:0002cd79       ?WinMouseButton@MouseWinClr@@QAEXIABVSOL_Point@@@Z 0042dd79 f   Mousew.obj
 0001:0002ce60       ??1SOL_Mouse@@UAE@XZ       0042de60 f i Mousew.obj
 0001:0002ce80       ??1PointerDevice@@UAE@XZ   0042de80 f i Mousew.obj
 0001:0002cea0       ??_GPointerDevice@@UAEPAXI@Z 0042dea0 f i Mousew.obj
 0001:0002cea0       ??_EPointerDevice@@UAEPAXI@Z 0042dea0 f i Mousew.obj
 0001:0002ced0       ?GetSwiftInfo@SOL_Mouse@@UBEHPAH000@Z 0042ded0 f i Mousew.obj
 0001:0002cee0       ?IsSwift@SOL_Mouse@@UBEHXZ 0042dee0 f i Mousew.obj
 0001:0002cef0       ?Vibrate@SOL_Mouse@@UBEXHHH@Z 0042def0 f i Mousew.obj
 0001:0002cf00       ?SetHotRectangleStatus@SOL_Mouse@@UAEXH@Z 0042df00 f i Mousew.obj
 0001:0002cf20       ??_GSOL_Mouse@@UAEPAXI@Z   0042df20 f i Mousew.obj
 0001:0002cf20       ??_ESOL_Mouse@@UAEPAXI@Z   0042df20 f i Mousew.obj
 0001:0002cf50       ??_GMouseWin@@UAEPAXI@Z    0042df50 f i Mousew.obj
 0001:0002cf50       ??_EMouseWin@@UAEPAXI@Z    0042df50 f i Mousew.obj
 0001:0002cf80       ??0SOL_Mouse@@QAE@XZ       0042df80 f i Mousew.obj
 0001:0002cfa0       ??0PointerDevice@@QAE@XZ   0042dfa0 f i Mousew.obj
 0001:0002cfc0       ??_EMouseWinClr@@UAEPAXI@Z 0042dfc0 f i Mousew.obj
 0001:0002cfc0       ??_GMouseWinClr@@UAEPAXI@Z 0042dfc0 f i Mousew.obj
 0001:0002cff0       ?KSetVideoMode@@YAXPAF@Z   0042dff0 f   Moview.obj
 0001:0002d003       ?KShowMovie@@YAXPAF@Z      0042e003 f   Moview.obj
 0001:0002d362       _AviOpen                   0042e362 f   Moview.obj
 0001:0002d4e3       _AviSetPalette             0042e4e3 f   Moview.obj
 0001:0002d5a4       _AviClose                  0042e5a4 f   Moview.obj
 0001:0002d62e       _AviPut                    0042e62e f   Moview.obj
 0001:0002da14       _AviPutDouble              0042ea14 f   Moview.obj
 0001:0002dd46       _AviPlay                   0042ed46 f   Moview.obj
 0001:0002df16       _AviWaitEvent              0042ef16 f   Moview.obj
 0001:0002e016       _AviStop                   0042f016 f   Moview.obj
 0001:0002e076       _AviPause                  0042f076 f   Moview.obj
 0001:0002e0da       _AviCue                    0042f0da f   Moview.obj
 0001:0002e12e       _AviSeek                   0042f12e f   Moview.obj
 0001:0002e196       _AviNotify                 0042f196 f   Moview.obj
 0001:0002e1ab       _AviResume                 0042f1ab f   Moview.obj
 0001:0002e20f       ?InitMovie@@YAXXZ          0042f20f f   Moview.obj
 0001:0002e214       ?TermMovie@@YAXXZ          0042f214 f   Moview.obj
 0001:0002e219       _AviGetLength              0042f219 f   Moview.obj
 0001:0002e27f       _AviGetPosition            0042f27f f   Moview.obj
 0001:0002e2ca       _AviGetFramesSkipped       0042f2ca f   Moview.obj
 0001:0002e315       _AviGetStatus              0042f315 f   Moview.obj
 0001:0002e330       ??0MsgMgr@@QAE@XZ          0042f330 f   Msg.obj
 0001:0002e372       ?Init@MsgMgr@@UAEXXZ       0042f372 f   Msg.obj
 0001:0002e41c       ?AddFatalStr@MsgMgr@@QAEXPAD@Z 0042f41c f   Msg.obj
 0001:0002e4be       ?AddPMIP@MsgMgr@@QAEXPAD@Z 0042f4be f   Msg.obj
 0001:0002e513       ?AddSrcLoc@MsgMgr@@IAEXPAD0H@Z 0042f513 f   Msg.obj
 0001:0002e548       ?Alert@MsgMgr@@QAAHHZZ     0042f548 f   Msg.obj
 0001:0002e581       ?Alert@MsgMgr@@QAAHPADZZ   0042f581 f   Msg.obj
 0001:0002e5ba       ?Alert@MsgMgr@@QAAHDPADHHZZ 0042f5ba f   Msg.obj
 0001:0002e5fb       ?Alert@MsgMgr@@QAAHDPADH0ZZ 0042f5fb f   Msg.obj
 0001:0002e63c       ?AlertOutput@MsgMgr@@MAEHPAD@Z 0042f63c f   Msg.obj
 0001:0002e65f       ?Dump@MsgMgr@@QAAXPADZZ    0042f65f f   Msg.obj
 0001:0002e6ce       ?Fatal@MsgMgr@@QAAXHZZ     0042f6ce f   Msg.obj
 0001:0002e707       ?Fatal@MsgMgr@@QAAXPADZZ   0042f707 f   Msg.obj
 0001:0002e740       ?Fatal@MsgMgr@@QAAXDPADHHZZ 0042f740 f   Msg.obj
 0001:0002e781       ?Fatal@MsgMgr@@QAAXDPADH0ZZ 0042f781 f   Msg.obj
 0001:0002e7c2       ?print@@YAXHPADZZ          0042f7c2 f   Msg.obj
 0001:0002e818       ?FatalOutput@MsgMgr@@MAEXPAD@Z 0042f818 f   Msg.obj
 0001:0002eb30       ?Get@MsgMgr@@UAEPADHPAD@Z  0042fb30 f   Msg.obj
 0001:0002ebf1       ?Make@MsgMgr@@IAEPADPADHH0@Z 0042fbf1 f   Msg.obj
 0001:0002ec99       ?Make@MsgMgr@@IAEPADHPAD@Z 0042fc99 f   Msg.obj
 0001:0002ed24       ?Make@MsgMgr@@IAEPADPADH00@Z 0042fd24 f   Msg.obj
 0001:0002ed66       ?Make@MsgMgr@@IAEPADPAD0@Z 0042fd66 f   Msg.obj
 0001:0002ed91       ?Mono@MsgMgr@@QAAXPADZZ    0042fd91 f   Msg.obj
 0001:0002edaf       ?MonoArgs@MsgMgr@@QAEXPAD0@Z 0042fdaf f   Msg.obj
 0001:0002ede6       ?MonoPause@MsgMgr@@QAAXPADZZ 0042fde6 f   Msg.obj
 0001:0002ee3d       ?MonoStr@MsgMgr@@QAEXPAD@Z 0042fe3d f   Msg.obj
 0001:0002ee59       ?OpenFile@MsgMgr@@IAEHXZ   0042fe59 f   Msg.obj
 0001:0002ee84       ?Read@MsgMgr@@IAEPADHPADH@Z 0042fe84 f   Msg.obj
 0001:0002f148       ?SetQuitStr@MsgMgr@@QAEXPAD@Z 00430148 f   Msg.obj
 0001:0002f16b       ?SetSCIFatalStr@MsgMgr@@QAEXPAD@Z 0043016b f   Msg.obj
 0001:0002f18e       ?AssertFail@@YAHPADH0@Z    0043018e f   Msg.obj
 0001:0002f1df       ?KSetQuitStr@@YAXPAF@Z     004301df f   Msg.obj
 0001:0002f20a       ?KSetFatalStr@@YAXPAF@Z    0043020a f   Msg.obj
 0001:0002f27e       ?KMonoOut@@YAXPAF@Z        0043027e f   Msg.obj
 0001:0002f2cf       ?Printf@@YAHPADZZ          004302cf f   Msg.obj
 0001:0002f330       ?Name@ObjectID@@QBEPBDXZ   00430330 f i Msg.obj
 0001:0002f360       ??1MsgMgrWin@@QAE@XZ       00430360 f   Msgw.obj
 0001:0002f3be       ?MonoOutput@MsgMgrWin@@UAEXPAD@Z 004303be f   Msgw.obj
 0001:0002f3f7       ?MonoPosition@MsgMgrWin@@UAEXHH@Z 004303f7 f   Msgw.obj
 0001:0002f48e       ?KNetwork@@YAXPAF@Z        0043048e f   Networkw.obj
 0001:0002f8e6       ?KSID@@YAXPAF@Z            004308e6 f   Networkw.obj
 0001:0002f92d       ?NetConnect@@YAHPADH@Z     0043092d f   Networkw.obj
 0001:0002fd0c       ?NetConnectIP@@YAHHHHHH@Z  00430d0c f   Networkw.obj
 0001:0002fe16       ?NetDisconnect@@YAHXZ      00430e16 f   Networkw.obj
 0001:0002fe51       ?NetSend@@YAHPAFH@Z        00430e51 f   Networkw.obj
 0001:00030392       ?CNetSend@@YAHPADZZ        00431392 f   Networkw.obj
 0001:0003077b       ?CNetFastSend@@YIHHPAE@Z   0043177b f   Networkw.obj
 0001:0003080b       ?PollSocket@@YAHXZ         0043180b f   Networkw.obj
 0001:00030ba2       ?NetTerminate@@YAXXZ       00431ba2 f   Networkw.obj
 0001:00030be4       ?FlushSocket@@YAXXZ        00431be4 f   Networkw.obj
 0001:00030ce0       ??0Array@@QAE@HW4ArrayType@@@Z 00431ce0 f i Networkw.obj
 0001:00030d20       ??0CSCI_Object@@QAE@XZ     00431d20 f i Networkw.obj
 0001:00030d40       ??0CSCI_WorldObject@@QAE@XZ 00431d40 f i Networkw.obj
 0001:00030d60       ??0CSCI_Actor@@QAE@XZ      00431d60 f i Networkw.obj
 0001:00030d80       ??0CSCI_Prop@@QAE@XZ       00431d80 f i Networkw.obj
 0001:00030da0       ??0CSCI_View@@QAE@XZ       00431da0 f i Networkw.obj
 0001:00030dc0       ?get_nServID@CSCI_WorldObject@@QAEHXZ 00431dc0 f i Networkw.obj
 0001:00030df0       ?get_pServIDLo@CSCI_WorldObject@@QAEFXZ 00431df0 f i Networkw.obj
 0001:00030e10       ?get_pServIDHi@CSCI_WorldObject@@QAEFXZ 00431e10 f i Networkw.obj
 0001:00030e30       ?Size@CPackedData@@QAEHXZ  00431e30 f i Networkw.obj
 0001:00030e69       ?NewRoom@RmResList@@QAEXG@Z 00431e69 f   Newroom.obj
 0001:00030ec1       ?KNewRoom@@YAXPAF@Z        00431ec1 f   Newroom.obj
 0001:00030ee0       ??0Object@@QAE@VMemID@@0II@Z 00431ee0 f   Object.obj
 0001:0003105f       ??0Object@@QAE@VMemID@@0@Z 0043205f f   Object.obj
 0001:00031213       ??1Object@@QAE@XZ          00432213 f   Object.obj
 0001:000312fe       ?AddToObjects@Object@@QAEXXZ 004322fe f   Object.obj
 0001:0003136d       ?DeleteFromObjects@Object@@QAEXXZ 0043236d f   Object.obj
 0001:000313ff       ?Name@Object@@QAEPBDXZ     004323ff f   Object.obj
 0001:00031470       ?RespondsTo@Object@@QAEHG@Z 00432470 f   Object.obj
 0001:0003149f       ?Get@ObjectID@@QAEXVMemID@@II@Z 0043249f f   Object.obj
 0001:00031515       ?Get@ObjectID@@QAEXV1@@Z   00432515 f   Object.obj
 0001:0003158e       ?Free@ObjectID@@QAEXXZ     0043258e f   Object.obj
 0001:000315e7       ?Clone@ObjectID@@QAE?AV1@XZ 004325e7 f   Object.obj
 0001:00031621       ??0SelectorDict@@QAE@XZ    00432621 f   Object.obj
 0001:00031656       ??1SelectorDict@@QAE@XZ    00432656 f   Object.obj
 0001:00031713       ?add@SelectorDict@@QAEXGII@Z 00432713 f   Object.obj
 0001:000318c3       ?get@SelectorDict@@QAEHG@Z 004328c3 f   Object.obj
 0001:00031961       ?copy@SelectorDict@@QAEXPAV1@@Z 00432961 f   Object.obj
 0001:00031a75       ?GetClass@@YA?AVObjectID@@PBD@Z 00432a75 f   Object.obj
 0001:00031ae1       ?GetSelector@@YAGPBD@Z     00432ae1 f   Object.obj
 0001:00031b35       ?GetSelectorName@@YAPBDGPAD@Z 00432b35 f   Object.obj
 0001:00031b78       _LoadPropOffsets           00432b78 f   Object.obj
 0001:00031bdd       ?KIsObject@@YAXPAF@Z       00432bdd f   Object.obj
 0001:00031c01       ?KRespondsTo@@YAXPAF@Z     00432c01 f   Object.obj
 0001:00031c2d       ?KClone@@YAXPAF@Z          00432c2d f   Object.obj
 0001:00031cce       ?KDisposeClone@@YAXPAF@Z   00432cce f   Object.obj
 0001:00031d10       ?KFindSelector@@YAXPAF@Z   00432d10 f   Object.obj
 0001:00031d50       ?KFindClass@@YAXPAF@Z      00432d50 f   Object.obj
 0001:00031d9b       ?KIsKindOf@@YAXPAF@Z       00432d9b f   Object.obj
 0001:00031e60       ??_GSelectorDict@@QAEPAXI@Z 00432e60 f i Object.obj
 0001:00031e90       ?Get@FakeObjectID@@QAEXIIIPAUMemClient@@DW4ReservedHandle@@@Z 00432e90 f i Object.obj
 0001:00031ec0       ??_GObject@@QAEPAXI@Z      00432ec0 f i Object.obj
 0001:00031ef0       ?selectorsSize@SelectorDict@@QAEHXZ 00432ef0 f i Object.obj
 0001:00031f10       ?offsetsSize@SelectorDict@@QAEHXZ 00432f10 f i Object.obj
 0001:00031f10       ?scriptsSize@SelectorDict@@QAEHXZ 00432f10 f i Object.obj
 0001:00031f30       ?Info@Object@@QAEFXZ       00432f30 f i Object.obj
 0001:00031f50       ?KPackData@@YAXPAF@Z       00432f50 f   Packdata.obj
 0001:000324a2       ??0PackedData@@QAE@VObjectID@@@Z 004334a2 f   Packdata.obj
 0001:00032555       ??1PackedData@@UAE@XZ      00433555 f   Packdata.obj
 0001:00032574       ?getBits@PackedData@@QAEHH@Z 00433574 f   Packdata.obj
 0001:00032657       ?putBits@PackedData@@QAEXHH@Z 00433657 f   Packdata.obj
 0001:00032786       ?getByte@PackedData@@QAEEXZ 00433786 f   Packdata.obj
 0001:000327f9       ?putByte@PackedData@@QAEXE@Z 004337f9 f   Packdata.obj
 0001:00032880       ?getWord@PackedData@@QAEFXZ 00433880 f   Packdata.obj
 0001:000328b2       ?putWord@PackedData@@QAEXF@Z 004338b2 f   Packdata.obj
 0001:000328e7       ?getLong@PackedData@@QAEHXZ 004338e7 f   Packdata.obj
 0001:0003293a       ?putLong@PackedData@@QAEXH@Z 0043393a f   Packdata.obj
 0001:00032996       ?getString@PackedData@@QAE?AVTextID@@H@Z 00433996 f   Packdata.obj
 0001:00032aa9       ?getCharString@PackedData@@QAEPADH@Z 00433aa9 f   Packdata.obj
 0001:00032ba7       ?putString@PackedData@@QAEXPADH@Z 00433ba7 f   Packdata.obj
 0001:00032bf2       ?putArray@PackedData@@QAEXPAXH@Z 00433bf2 f   Packdata.obj
 0001:00032c0f       ?getArray@PackedData@@QAEXPADH@Z 00433c0f f   Packdata.obj
 0001:00032ce0       ??_EPackedData@@UAEPAXI@Z  00433ce0 f i Packdata.obj
 0001:00032ce0       ??_GPackedData@@UAEPAXI@Z  00433ce0 f i Packdata.obj
 0001:00032d10       ??0SOLPalette@@QAE@ABVHunkPalette@@@Z 00433d10 f   Palette.obj
 0001:00032d41       ??0SOLPalette@@QAE@ABV0@@Z 00433d41 f   Palette.obj
 0001:00032d97       ??0SOLPalette@@QAE@XZ      00433d97 f   Palette.obj
 0001:00032df5       ??4SOLPalette@@QAEAAV0@ABVHunkPalette@@@Z 00433df5 f   Palette.obj
 0001:00032f82       ??4SOLPalette@@QAEAAV0@ABV0@@Z 00433f82 f   Palette.obj
 0001:00032fc3       ??8SOLPalette@@QBEHABV0@@Z 00433fc3 f   Palette.obj
 0001:0003301f       ?Match@SOLPalette@@QBEHABVRgb24@@@Z 0043401f f   Palette.obj
 0001:00033101       ?Match@SOLPalette@@QBEHABVRgb24@@HPAHPBE@Z 00434101 f   Palette.obj
 0001:000331ff       ?Compare@SOLPalette@@QBEHABV1@PAE@Z 004341ff f   Palette.obj
 0001:00033278       ?Merge@SOLPalette@@QAEXABV1@@Z 00434278 f   Palette.obj
 0001:000332c6       ?Init@HunkPalette@@QAEXPAX@Z 004342c6 f   Palette.obj
 0001:0003331d       ?SetVersion@HunkPalette@@QAEXH@Z 0043431d f   Palette.obj
 0001:000333aa       ?KPalVary@@YAXPAF@Z        004343aa f   Palette.obj
 0001:00033a47       ?KPalette@@YAXPAF@Z        00434a47 f   Palette.obj
 0001:00033bd3       ?KPalCycle@@YAXPAF@Z       00434bd3 f   Palette.obj
 0001:00033e10       ??0Rgb24F@@QAE@EEEE@Z      00434e10 f i Palette.obj
 0001:00033e40       ??0Rgb24@@QAE@EEE@Z        00434e40 f i Palette.obj
 0001:00033e70       ?PalAddr@HunkPalette@@QBEPAUCompPal@1@XZ 00434e70 f i Palette.obj
 0001:00033e90       ??9Rgb24F@@QBEHABV0@@Z     00434e90 f i Palette.obj
 0001:00033eb0       ??8Rgb24F@@QBEHABV0@@Z     00434eb0 f i Palette.obj
 0001:00033f20       ?sqr@@YAHH@Z               00434f20 f i Palette.obj
 0001:00033f30       ??0PaletteMgrIndex@@QAE@XZ 00434f30 f   Palmgri.obj
 0001:000340e1       ??1PaletteMgrIndex@@UAE@XZ 004350e1 f   Palmgri.obj
 0001:0003419c       ?Submit@PaletteMgrIndex@@UAEXAAVHunkPalette@@@Z 0043519c f   Palmgri.obj
 0001:00034268       ?Submit@PaletteMgrIndex@@UAEXABVSOLPalette@@@Z 00435268 f   Palmgri.obj
 0001:000342f8       ?ApplyAll@PaletteMgrIndex@@IAEXXZ 004352f8 f   Palmgri.obj
 0001:0003431b       ?SetCycle@PaletteMgrIndex@@UAEXHHHH@Z 0043531b f   Palmgri.obj
 0001:000345cf       ?DoCycle@PaletteMgrIndex@@MAEXHH@Z 004355cf f   Palmgri.obj
 0001:000346c8       ?ApplyCycles@PaletteMgrIndex@@IAEXXZ 004356c8 f   Palmgri.obj
 0001:00034984       ?ApplyAllCycles@PaletteMgrIndex@@IAEXXZ 00435984 f   Palmgri.obj
 0001:00034b4a       ?CycleOn@PaletteMgrIndex@@UAEXH@Z 00435b4a f   Palmgri.obj
 0001:00034bf5       ?CycleAllOn@PaletteMgrIndex@@UAEXXZ 00435bf5 f   Palmgri.obj
 0001:00034c72       ?CycleAllPause@PaletteMgrIndex@@UAEXXZ 00435c72 f   Palmgri.obj
 0001:00034cfd       ?CyclePause@PaletteMgrIndex@@UAEXH@Z 00435cfd f   Palmgri.obj
 0001:00034d75       ?CycleOff@PaletteMgrIndex@@UAEXH@Z 00435d75 f   Palmgri.obj
 0001:00034e3d       ?CycleAllOff@PaletteMgrIndex@@UAEXXZ 00435e3d f   Palmgri.obj
 0001:00034ebb       ?SetTarget@PaletteMgrIndex@@UAEXABVSOLPalette@@@Z 00435ebb f   Palmgri.obj
 0001:00034f4f       ?MergeTarget@PaletteMgrIndex@@UAEXABVSOLPalette@@@Z 00435f4f f   Palmgri.obj
 0001:00034feb       ?SetStart@PaletteMgrIndex@@UAEXABVSOLPalette@@@Z 00435feb f   Palmgri.obj
 0001:0003507f       ?MergeStart@PaletteMgrIndex@@UAEXABVSOLPalette@@@Z 0043607f f   Palmgri.obj
 0001:0003511b       ?SetVary@PaletteMgrIndex@@UAEXABVSOLPalette@@HHHH@Z 0043611b f   Palmgri.obj
 0001:00035288       ?SetVaryPercent@PaletteMgrIndex@@UAEXHHHH@Z 00436288 f   Palmgri.obj
 0001:0003537e       ?SetVaryTime@PaletteMgrIndex@@UAEXH@Z 0043637e f   Palmgri.obj
 0001:00035447       ?ApplyVary@PaletteMgrIndex@@IAEXXZ 00436447 f   Palmgri.obj
 0001:00035726       ?VaryOn@PaletteMgrIndex@@UAEXXZ 00436726 f   Palmgri.obj
 0001:000357a3       ?VaryOff@PaletteMgrIndex@@UAEXXZ 004367a3 f   Palmgri.obj
 0001:00035836       ?SetFade@PaletteMgrIndex@@UAEXHHH@Z 00436836 f   Palmgri.obj
 0001:0003586d       ?ApplyFade@PaletteMgrIndex@@IAEXXZ 0043686d f   Palmgri.obj
 0001:000359cd       ?FadeOff@PaletteMgrIndex@@UAEXXZ 004369cd f   Palmgri.obj
 0001:00035a05       ?UpdateFFrame@PaletteMgrIndex@@UAEHXZ 00436a05 f   Palmgri.obj
 0001:00035a94       ?UpdateForFrame@PaletteMgrIndex@@UAEHXZ 00436a94 f   Palmgri.obj
 0001:00035ae4       ?SetGamma@PaletteMgrIndex@@UAEXH@Z 00436ae4 f   Palmgri.obj
 0001:00035afd       ?GammaOff@PaletteMgrIndex@@UAEXXZ 00436afd f   Palmgri.obj
 0001:00035b20       ??1PaletteMgr@@UAE@XZ      00436b20 f i Palmgri.obj
 0001:00035b40       ??_GPaletteMgr@@UAEPAXI@Z  00436b40 f i Palmgri.obj
 0001:00035b40       ??_EPaletteMgr@@UAEPAXI@Z  00436b40 f i Palmgri.obj
 0001:00035b70       ??_GPaletteMgrIndex@@UAEPAXI@Z 00436b70 f i Palmgri.obj
 0001:00035b70       ??_EPaletteMgrIndex@@UAEPAXI@Z 00436b70 f i Palmgri.obj
 0001:00035ba0       ??0PaletteMgr@@QAE@XZ      00436ba0 f i Palmgri.obj
 0001:00035bc0       ??9SOLPalette@@QBEHABV0@@Z 00436bc0 f i Palmgri.obj
 0001:00035be0       ?GRemapper@GraphicsMgr@@QAEAAVRemap@@XZ 00436be0 f i Palmgri.obj
 0001:00035c00       ?UpdateForFrame@PaletteMgrTrue@@UAEHXZ 00436c00 f   Palmgrt.obj
 0001:00035c50       ?ApplyAll@PaletteMgrTrue@@IAEXXZ 00436c50 f   Palmgrt.obj
 0001:00035c73       ?ApplyCycles@PaletteMgrTrue@@IAEXXZ 00436c73 f   Palmgrt.obj
 0001:00035de1       ?ApplyVary@PaletteMgrTrue@@IAEXXZ 00436de1 f   Palmgrt.obj
 0001:00035ea3       ?ApplyFade@PaletteMgrTrue@@IAEXXZ 00436ea3 f   Palmgrt.obj
 0001:00035eb0       ?InitPalette@@YAXXZ        00436eb0 f   Palmgrw.obj
 0001:00035fca       ?TermPalette@@YAXXZ        00436fca f   Palmgrw.obj
 0001:00035ffc       ?UpdatePalette@@YAHAAVSOLPalette@@ABV1@H@Z 00436ffc f   Palmgrw.obj
 0001:0003626b       ?ClearSystemPalette@@YAXXZ 0043726b f   Palmgrw.obj
 0001:00036390       ?KPicNotValid@@YAXPAF@Z    00437390 f   Picture.obj
 0001:00036395       ?KShow@@YAXPAF@Z           00437395 f   Picture.obj
 0001:0003639a       ?KDrawPic@@YAXPAF@Z        0043739a f   Picture.obj
 0001:000363a0       ??0SOL_Plane@@QAE@VObjectID@@@Z 004373a0 f   Plane.obj
 0001:000365bf       ??0SOL_Plane@@QAE@ABV0@@Z  004375bf f   Plane.obj
 0001:000366da       ??0SOL_Plane@@QAE@ABVSOL_Rect@@@Z 004376da f   Plane.obj
 0001:0003684f       ??4SOL_Plane@@QAEAAV0@AAVObjectID@@@Z 0043784f f   Plane.obj
 0001:00036963       ??4SOL_Plane@@QAEAAV0@ABV0@@Z 00437963 f   Plane.obj
 0001:00036a4e       ?UpdateRedrawAllCount@SOL_Plane@@QAEXXZ 00437a4e f   Plane.obj
 0001:00036a6f       ?UpdatePlane@SOL_Plane@@QAEXPAV1@@Z 00437a6f f   Plane.obj
 0001:00036c45       ?NewScreenDim@SOL_Plane@@QAEXVSOL_Rect@@@Z 00437c45 f   Plane.obj
 0001:00036c99       ?SetType@SOL_Plane@@QAEXXZ 00437c99 f   Plane.obj
 0001:00036d24       ?ChangePic@SOL_Plane@@IAEXXZ 00437d24 f   Plane.obj
 0001:00036ef2       ?AddPic@SOL_Plane@@QAEHHABVSOL_Point@@HH@Z 00437ef2 f   Plane.obj
 0001:00037095       ?DeleteAllPics@SOL_Plane@@IAEXXZ 00438095 f   Plane.obj
 0001:000371a1       ?DeletePic@SOL_Plane@@QAEXHH@Z 004381a1 f   Plane.obj
 0001:000371c3       ?DeletePic@SOL_Plane@@QAEXH@Z 004381c3 f   Plane.obj
 0001:00037289       ?ScrollScreenItems@SOL_Plane@@QAEXHHH@Z 00438289 f   Plane.obj
 0001:00037370       ?GetPicResolution@SOL_Plane@@IAEXXZ 00438370 f   Plane.obj
 0001:0003738f       ?SetOnScreen@SOL_Plane@@QAEXABVSOL_Rect@@@Z 0043838f f   Plane.obj
 0001:000373ab       ?Move@SOL_Plane@@QAEXABVSOL_Point@@@Z 004383ab f   Plane.obj
 0001:000373e2       ?MoveDelta@SOL_Plane@@QAEXHH@Z 004383e2 f   Plane.obj
 0001:00037437       ?MoveTo@SOL_Plane@@QAEXVSOL_Point@@@Z 00438437 f   Plane.obj
 0001:000374e6       ?ConvGameRectToPlaneRect@SOL_Plane@@QAEXXZ 004384e6 f   Plane.obj
 0001:000375a7       ?ResizePlane@SOL_Plane@@QAEXHH@Z 004385a7 f   Plane.obj
 0001:00037687       ?AddScreenItem@SOL_Plane@@QAEXPAVScreenItem@@@Z 00438687 f   Plane.obj
 0001:000376a3       ?AbortScreenItem@SOL_Plane@@QAEXPBVScreenItem@@@Z 004386a3 f   Plane.obj
 0001:000376bf       ?TopScreenItem@SOL_Plane@@QBEHXZ 004386bf f   Plane.obj
 0001:0003777c       ?NowSeen@SOL_Plane@@QAEHVMemID@@AAVSOL_Rect@@@Z 0043877c f   Plane.obj
 0001:000377d4       ?CalcLists@SOL_Plane@@QAEXPAV1@AAVPlaneList@@AAVDrawList@@AAVRectList@@@Z 004387d4 f   Plane.obj
 0001:00038186       ?RedrawAll@SOL_Plane@@QAEXPAV1@AAVPlaneList@@AAVDrawList@@AAVRectList@@@Z 00439186 f   Plane.obj
 0001:000382fa       ?RemapMarkRedraw@SOL_Plane@@QAEXXZ 004392fa f   Plane.obj
 0001:000383c1       ?BreakDrawListByPlanes@SOL_Plane@@IAEXAAVDrawList@@AAVPlaneList@@@Z 004393c1 f   Plane.obj
 0001:0003850b       ?BreakEraseListByPlanes@SOL_Plane@@IAEXAAVRectList@@AAVPlaneList@@@Z 0043950b f   Plane.obj
 0001:00038632       ?DecSIArrayCounts@SOL_Plane@@IAEXPAV1@H@Z 00439632 f   Plane.obj
 0001:00038861       ?KGlobalToLocal@@YAXPAF@Z  00439861 f   Plane.obj
 0001:000388d8       ?GlobalToLocalGame@@YAHHAAVSOL_Point@@@Z 004398d8 f   Plane.obj
 0001:000389d8       ?KLocalToGlobal@@YAXPAF@Z  004399d8 f   Plane.obj
 0001:00038a4f       ?LocalGameToGlobal@@YAHHAAVSOL_Point@@@Z 00439a4f f   Plane.obj
 0001:00038b4f       ?FilterUpEraseRects@SOL_Plane@@QAEXAAVDrawList@@AAVRectList@@@Z 00439b4f f   Plane.obj
 0001:00038c15       ?FilterDownEraseRects@SOL_Plane@@QAEXAAVDrawList@@AAVRectList@@1@Z 00439c15 f   Plane.obj
 0001:00038e09       ?FilterUpDrawRects@SOL_Plane@@QAEXAAVDrawList@@0@Z 00439e09 f   Plane.obj
 0001:00038ed6       ?MergeToDrawList@SOL_Plane@@IAEXHAAVSOL_Rect@@AAVDrawList@@@Z 00439ed6 f   Plane.obj
 0001:000391ba       ?UpdateTheirEraseList@SOL_Plane@@IAEXAAVSOL_Rect@@HAAVRectList@@@Z 0043a1ba f   Plane.obj
 0001:00039234       ?CheckIntegrity@SOL_Plane@@QAEXXZ 0043a234 f   Plane.obj
 0001:000392d1       ?MergeToRectList@@YAXABVSOL_Rect@@AAVRectList@@@Z 0043a2d1 f   Plane.obj
 0001:00039530       ?TranslateMacColor@@YAXAAE@Z 0043a530 f i Plane.obj
 0001:00039540       ??9SOL_Point@@QBEHABV0@@Z  0043a540 f i Plane.obj
 0001:00039580       ??9SOL_Rect@@QBEHABV0@@Z   0043a580 f i Plane.obj
 0001:000395a0       ??8SOL_Rect@@QBEHABV0@@Z   0043a5a0 f i Plane.obj
 0001:000395f0       ?Type@SingleRemap@Remap@@QBE?AW4RemapType@@XZ 0043a5f0 f i Plane.obj
 0001:000395f0       ?PicMirror@SOL_Plane@@QBEHXZ 0043a5f0 f i Plane.obj
 0001:00039610       ?Pos@CelObjPic@@QBE?AVSOL_Point@@XZ 0043a610 f i Plane.obj
 0001:00039630       ?SetPicResNum@ScreenItem@@QAEXH@Z 0043a630 f i Plane.obj
 0001:00039650       ?SetUserMirror@ScreenItem@@QAEXH@Z 0043a650 f i Plane.obj
 0001:00039670       ?Exists@ScreenItemList@@QBEHH@Z 0043a670 f i Plane.obj
 0001:000396b0       ??AScreenItemList@@QBEABVScreenItem@@H@Z 0043a6b0 f i Plane.obj
 0001:000396d0       ?UpdateCount@ScreenItem@@QBEHXZ 0043a6d0 f i Plane.obj
 0001:000396f0       ?DoUpdate@ScreenItem@@QAEXABVSOL_Plane@@@Z 0043a6f0 f i Plane.obj
 0001:00039720       ?Exists@DrawList@@QBEHH@Z  0043a720 f i Plane.obj
 0001:00039760       ?RemapState@ScreenItem@@QAEHXZ 0043a760 f i Plane.obj
 0001:00039780       ?RemapState@CelObj@@QBEHXZ 0043a780 f i Plane.obj
 0001:000397a0       ?IsTransparent@SOL_Plane@@QBEHXZ 0043a7a0 f i Plane.obj
 0001:000397c0       ?IsPictureSkip@SOL_Plane@@QBEHXZ 0043a7c0 f i Plane.obj
 0001:000397e0       ?DecEraseCount@SOL_Plane@@QAEXXZ 0043a7e0 f i Plane.obj
 0001:000397e0       ?DecUpdateCount@ScreenItem@@QAEXXZ 0043a7e0 f i Plane.obj
 0001:00039800       ?DecAddCount@ScreenItem@@QAEXXZ 0043a800 f i Plane.obj
 0001:00039820       ?DecDeleteCount@ScreenItem@@QAEXXZ 0043a820 f i Plane.obj
 0001:00039840       ?GameRect@SOL_Plane@@QBEABVSOL_Rect@@XZ 0043a840 f i Plane.obj
 0001:00039860       ?Includes@SOL_Rect@@QAEHABV1@@Z 0043a860 f i Plane.obj
 0001:000398c0       ?KPlatform@@YAXPAF@Z       0043a8c0 f   Platfrmw.obj
 0001:000399f1       ?KGetSierraProfileInt@@YAXPAF@Z 0043a9f1 f   Platfrmw.obj
 0001:00039a43       ?KGetSierraProfileString@@YAXPAF@Z 0043aa43 f   Platfrmw.obj
 0001:00039ac5       ?KSetWindowsOption@@YAXPAF@Z 0043aac5 f   Platfrmw.obj
 0001:00039b36       ?KGetWindowsOption@@YAXPAF@Z 0043ab36 f   Platfrmw.obj
 0001:00039b70       ??0PlaneList@@QAE@XZ       0043ab70 f   Plist.obj
 0001:00039b8b       ??1PlaneList@@QAE@XZ       0043ab8b f   Plist.obj
 0001:00039be8       ??0PlaneList@@QAE@ABV0@@Z  0043abe8 f   Plist.obj
 0001:00039ca1       ??4PlaneList@@QAEABV0@ABV0@@Z 0043aca1 f   Plist.obj
 0001:00039d62       ?Add@PlaneList@@QAEHPAVSOL_Plane@@@Z 0043ad62 f   Plist.obj
 0001:00039e36       ?Delete@PlaneList@@QAEXH@Z 0043ae36 f   Plist.obj
 0001:00039efe       ?Search@PlaneList@@QBEHI@Z 0043aefe f   Plist.obj
 0001:00039f4a       ?Clear@PlaneList@@QAEXXZ   0043af4a f   Plist.obj
 0001:00039fb4       ?Sort@PlaneList@@QAEXXZ    0043afb4 f   Plist.obj
 0001:0003a0ba       ?TopPlane@PlaneList@@QBEHXZ 0043b0ba f   Plist.obj
 0001:0003a0ea       ?TopSCIPlane@PlaneList@@QBEHXZ 0043b0ea f   Plist.obj
 0001:0003a160       ??_GSOL_Plane@@QAEPAXI@Z   0043b160 f i Plist.obj
 0001:0003a190       ??1SOL_Plane@@QAE@XZ       0043b190 f i Plist.obj
 0001:0003a1c9       ?pmStackClear@@YAXXZ       0043b1c9 f   PMachine.obj
 0001:0003a208       ?pmTossMemID@@YAXXZ        0043b208 f   PMachine.obj
 0001:0003a2e0       ?pmQuickMessage_asm@@YAXXZ 0043b2e0 f   PMachine.obj
 0001:0003a5be       ?pmQuickMessage@@YAXIIPAX@Z 0043b5be f   PMachine.obj
 0001:0003a5dc       ?invokeMethod@@YAJIIIPAX@Z 0043b5dc f   PMachine.obj
 0001:0003a64a       ?pmRun@@YAXXZ              0043b64a f   PMachine.obj
 0001:0003a758       ?pmEnd@@YAXXZ              0043b758 f   PMachine.obj
 0001:0003a766       ?pmCheckIntegrity@@YA_NPAD@Z 0043b766 f   PMachine.obj
 0001:0003a7bb       ?pmPushMany@@YAXGIPAF@Z    0043b7bb f   PMachine.obj
 0001:0003a7f3       ?pmCall@@YAXXZ             0043b7f3 f   PMachine.obj
 0001:0003a849       ?pmDispatch@@YAXXZ         0043b849 f   PMachine.obj
 0001:0003a92d       ?OP_bnot@@YAXXZ            0043b92d f   PMachine.obj
 0001:0003a939       ?OP_add@@YAXXZ             0043b939 f   PMachine.obj
 0001:0003a949       ?OP_sub@@YAXXZ             0043b949 f   PMachine.obj
 0001:0003a95f       ?OP_mul@@YAXXZ             0043b95f f   PMachine.obj
 0001:0003a96f       ?OP_div@@YAXXZ             0043b96f f   PMachine.obj
 0001:0003a9a5       ?OP_mod@@YAXXZ             0043b9a5 f   PMachine.obj
 0001:0003a9e1       ?OP_shr@@YAXXZ             0043b9e1 f   PMachine.obj
 0001:0003a9f5       ?OP_shl@@YAXXZ             0043b9f5 f   PMachine.obj
 0001:0003aa09       ?OP_xor@@YAXXZ             0043ba09 f   PMachine.obj
 0001:0003aa19       ?OP_and@@YAXXZ             0043ba19 f   PMachine.obj
 0001:0003aa29       ?OP_or@@YAXXZ              0043ba29 f   PMachine.obj
 0001:0003aa39       ?OP_neg@@YAXXZ             0043ba39 f   PMachine.obj
 0001:0003aa45       ?OP_not@@YAXXZ             0043ba45 f   PMachine.obj
 0001:0003aa58       ?OP_eq@@YAXXZ              0043ba58 f   PMachine.obj
 0001:0003aa76       ?OP_ne@@YAXXZ              0043ba76 f   PMachine.obj
 0001:0003aa94       ?OP_gt@@YAXXZ              0043ba94 f   PMachine.obj
 0001:0003aab2       ?OP_ge@@YAXXZ              0043bab2 f   PMachine.obj
 0001:0003aad0       ?OP_lt@@YAXXZ              0043bad0 f   PMachine.obj
 0001:0003aaee       ?OP_le@@YAXXZ              0043baee f   PMachine.obj
 0001:0003ab0c       ?OP_ugt@@YAXXZ             0043bb0c f   PMachine.obj
 0001:0003ab2a       ?OP_uge@@YAXXZ             0043bb2a f   PMachine.obj
 0001:0003ab48       ?OP_ult@@YAXXZ             0043bb48 f   PMachine.obj
 0001:0003ab66       ?OP_ule@@YAXXZ             0043bb66 f   PMachine.obj
 0001:0003ab84       ?OP_bt_byte@@YAXXZ         0043bb84 f   PMachine.obj
 0001:0003ab9d       ?OP_bt_word@@YAXXZ         0043bb9d f   PMachine.obj
 0001:0003abb6       ?OP_bnt_byte@@YAXXZ        0043bbb6 f   PMachine.obj
 0001:0003abcf       ?OP_bnt_word@@YAXXZ        0043bbcf f   PMachine.obj
 0001:0003abe8       ?OP_jmp_byte@@YAXXZ        0043bbe8 f   PMachine.obj
 0001:0003abfb       ?OP_jmp_word@@YAXXZ        0043bbfb f   PMachine.obj
 0001:0003ac0e       ?OP_loadi_byte@@YAXXZ      0043bc0e f   PMachine.obj
 0001:0003ac1e       ?OP_loadi_word@@YAXXZ      0043bc1e f   PMachine.obj
 0001:0003ac2e       ?OP_push@@YAXXZ            0043bc2e f   PMachine.obj
 0001:0003ac3e       ?OP_pushi_byte@@YAXXZ      0043bc3e f   PMachine.obj
 0001:0003ac55       ?OP_pushi_word@@YAXXZ      0043bc55 f   PMachine.obj
 0001:0003ac6b       ?OP_toss@@YAXXZ            0043bc6b f   PMachine.obj
 0001:0003ac7e       ?OP_dup@@YAXXZ             0043bc7e f   PMachine.obj
 0001:0003ac91       ?OP_link_byte@@YAXXZ       0043bc91 f   PMachine.obj
 0001:0003acb1       ?OP_link_word@@YAXXZ       0043bcb1 f   PMachine.obj
 0001:0003acd1       ?OP_call_byte@@YAXXZ       0043bcd1 f   PMachine.obj
 0001:0003ad49       ?OP_call_word@@YAXXZ       0043bd49 f   PMachine.obj
 0001:0003adc1       ?OP_callk_byte@@YAXXZ      0043bdc1 f   PMachine.obj
 0001:0003aeb7       ?OP_callk_word@@YAXXZ      0043beb7 f   PMachine.obj
 0001:0003afad       ?OP_callb_byte@@YAXXZ      0043bfad f   PMachine.obj
 0001:0003afd8       ?OP_callb_word@@YAXXZ      0043bfd8 f   PMachine.obj
 0001:0003b003       ?OP_calle_byte@@YAXXZ      0043c003 f   PMachine.obj
 0001:0003b02d       ?OP_calle_word@@YAXXZ      0043c02d f   PMachine.obj
 0001:0003b057       ?OP_ret@@YAXXZ             0043c057 f   PMachine.obj
 0001:0003b058       ?OP_send_byte@@YAXXZ       0043c058 f   PMachine.obj
 0001:0003b0a0       ?OP_class_byte@@YAXXZ      0043c0a0 f   PMachine.obj
 0001:0003b0cd       ?OP_class_word@@YAXXZ      0043c0cd f   PMachine.obj
 0001:0003b0fa       ?OP_self@@YAXXZ            0043c0fa f   PMachine.obj
 0001:0003b124       ?OP_super_byte@@YAXXZ      0043c124 f   PMachine.obj
 0001:0003b165       ?OP_super_word@@YAXXZ      0043c165 f   PMachine.obj
 0001:0003b1a5       ?OP_rest_byte@@YAXXZ       0043c1a5 f   PMachine.obj
 0001:0003b1e6       ?OP_lea_byte@@YAXXZ        0043c1e6 f   PMachine.obj
 0001:0003b209       ?OP_lea_word@@YAXXZ        0043c209 f   PMachine.obj
 0001:0003b22c       ?OP_selfID@@YAXXZ          0043c22c f   PMachine.obj
 0001:0003b23d       ?OP_pprev@@YAXXZ           0043c23d f   PMachine.obj
 0001:0003b253       ?OP_pToa_byte@@YAXXZ       0043c253 f   PMachine.obj
 0001:0003b282       ?OP_pToa_word@@YAXXZ       0043c282 f   PMachine.obj
 0001:0003b2b1       ?OP_aTop_byte@@YAXXZ       0043c2b1 f   PMachine.obj
 0001:0003b2f1       ?OP_aTop_word@@YAXXZ       0043c2f1 f   PMachine.obj
 0001:0003b331       ?OP_pTos_byte@@YAXXZ       0043c331 f   PMachine.obj
 0001:0003b366       ?OP_pTos_word@@YAXXZ       0043c366 f   PMachine.obj
 0001:0003b39b       ?OP_sTop_byte@@YAXXZ       0043c39b f   PMachine.obj
 0001:0003b3e1       ?OP_sTop_word@@YAXXZ       0043c3e1 f   PMachine.obj
 0001:0003b427       ?OP_ipToa_byte@@YAXXZ      0043c427 f   PMachine.obj
 0001:0003b46a       ?OP_ipToa_word@@YAXXZ      0043c46a f   PMachine.obj
 0001:0003b4ad       ?OP_dpToa_byte@@YAXXZ      0043c4ad f   PMachine.obj
 0001:0003b4f0       ?OP_dpToa_word@@YAXXZ      0043c4f0 f   PMachine.obj
 0001:0003b533       ?OP_ipTos_byte@@YAXXZ      0043c533 f   PMachine.obj
 0001:0003b57c       ?OP_ipTos_word@@YAXXZ      0043c57c f   PMachine.obj
 0001:0003b5c5       ?OP_dpTos_byte@@YAXXZ      0043c5c5 f   PMachine.obj
 0001:0003b60e       ?OP_dpTos_word@@YAXXZ      0043c60e f   PMachine.obj
 0001:0003b657       ?OP_lofsa@@YAXXZ           0043c657 f   PMachine.obj
 0001:0003b667       ?OP_lofss@@YAXXZ           0043c667 f   PMachine.obj
 0001:0003b67d       ?OP_push0@@YAXXZ           0043c67d f   PMachine.obj
 0001:0003b68f       ?OP_push1@@YAXXZ           0043c68f f   PMachine.obj
 0001:0003b6a1       ?OP_push2@@YAXXZ           0043c6a1 f   PMachine.obj
 0001:0003b6b3       ?OP_pushSelf@@YAXXZ        0043c6b3 f   PMachine.obj
 0001:0003b6ca       ?OP_lag_byte@@YAXXZ        0043c6ca f   PMachine.obj
 0001:0003b6e5       ?OP_lag_word@@YAXXZ        0043c6e5 f   PMachine.obj
 0001:0003b700       ?OP_lal_byte@@YAXXZ        0043c700 f   PMachine.obj
 0001:0003b731       ?OP_lal_word@@YAXXZ        0043c731 f   PMachine.obj
 0001:0003b762       ?OP_lat_byte@@YAXXZ        0043c762 f   PMachine.obj
 0001:0003b77e       ?OP_lat_word@@YAXXZ        0043c77e f   PMachine.obj
 0001:0003b79a       ?OP_lap_byte@@YAXXZ        0043c79a f   PMachine.obj
 0001:0003b7b6       ?OP_lap_word@@YAXXZ        0043c7b6 f   PMachine.obj
 0001:0003b7d2       ?OP_lsg_byte@@YAXXZ        0043c7d2 f   PMachine.obj
 0001:0003b7f3       ?OP_lsg_word@@YAXXZ        0043c7f3 f   PMachine.obj
 0001:0003b814       ?OP_lsl_byte@@YAXXZ        0043c814 f   PMachine.obj
 0001:0003b84b       ?OP_lsl_word@@YAXXZ        0043c84b f   PMachine.obj
 0001:0003b882       ?OP_lst_byte@@YAXXZ        0043c882 f   PMachine.obj
 0001:0003b8a4       ?OP_lst_word@@YAXXZ        0043c8a4 f   PMachine.obj
 0001:0003b8c6       ?OP_lsp_byte@@YAXXZ        0043c8c6 f   PMachine.obj
 0001:0003b8e8       ?OP_lsp_word@@YAXXZ        0043c8e8 f   PMachine.obj
 0001:0003b90a       ?OP_lagi_byte@@YAXXZ       0043c90a f   PMachine.obj
 0001:0003b927       ?OP_lagi_word@@YAXXZ       0043c927 f   PMachine.obj
 0001:0003b944       ?OP_lali_byte@@YAXXZ       0043c944 f   PMachine.obj
 0001:0003b971       ?OP_lali_word@@YAXXZ       0043c971 f   PMachine.obj
 0001:0003b99e       ?OP_lati_byte@@YAXXZ       0043c99e f   PMachine.obj
 0001:0003b9bc       ?OP_lati_word@@YAXXZ       0043c9bc f   PMachine.obj
 0001:0003b9da       ?OP_lapi_byte@@YAXXZ       0043c9da f   PMachine.obj
 0001:0003b9f8       ?OP_lapi_word@@YAXXZ       0043c9f8 f   PMachine.obj
 0001:0003ba16       ?OP_lsgi_byte@@YAXXZ       0043ca16 f   PMachine.obj
 0001:0003ba39       ?OP_lsgi_word@@YAXXZ       0043ca39 f   PMachine.obj
 0001:0003ba5c       ?OP_lsli_byte@@YAXXZ       0043ca5c f   PMachine.obj
 0001:0003ba8f       ?OP_lsli_word@@YAXXZ       0043ca8f f   PMachine.obj
 0001:0003bac2       ?OP_lsti_byte@@YAXXZ       0043cac2 f   PMachine.obj
 0001:0003bae6       ?OP_lsti_word@@YAXXZ       0043cae6 f   PMachine.obj
 0001:0003bb0a       ?OP_lspi_byte@@YAXXZ       0043cb0a f   PMachine.obj
 0001:0003bb2e       ?OP_lspi_word@@YAXXZ       0043cb2e f   PMachine.obj
 0001:0003bb52       ?OP_sag_byte@@YAXXZ        0043cb52 f   PMachine.obj
 0001:0003bb6d       ?OP_sag_word@@YAXXZ        0043cb6d f   PMachine.obj
 0001:0003bb88       ?OP_sal_byte@@YAXXZ        0043cb88 f   PMachine.obj
 0001:0003bbb3       ?OP_sal_word@@YAXXZ        0043cbb3 f   PMachine.obj
 0001:0003bbde       ?OP_sat_byte@@YAXXZ        0043cbde f   PMachine.obj
 0001:0003bbfa       ?OP_sat_word@@YAXXZ        0043cbfa f   PMachine.obj
 0001:0003bc16       ?OP_sap_byte@@YAXXZ        0043cc16 f   PMachine.obj
 0001:0003bc32       ?OP_sap_word@@YAXXZ        0043cc32 f   PMachine.obj
 0001:0003bc4e       ?OP_ssg_byte@@YAXXZ        0043cc4e f   PMachine.obj
 0001:0003bc6f       ?OP_ssg_word@@YAXXZ        0043cc6f f   PMachine.obj
 0001:0003bc90       ?OP_ssl_byte@@YAXXZ        0043cc90 f   PMachine.obj
 0001:0003bcc1       ?OP_ssl_word@@YAXXZ        0043ccc1 f   PMachine.obj
 0001:0003bcf2       ?OP_sst_byte@@YAXXZ        0043ccf2 f   PMachine.obj
 0001:0003bd14       ?OP_sst_word@@YAXXZ        0043cd14 f   PMachine.obj
 0001:0003bd36       ?OP_ssp_byte@@YAXXZ        0043cd36 f   PMachine.obj
 0001:0003bd58       ?OP_ssp_word@@YAXXZ        0043cd58 f   PMachine.obj
 0001:0003bd7a       ?OP_sagi_byte@@YAXXZ       0043cd7a f   PMachine.obj
 0001:0003bd9d       ?OP_sagi_word@@YAXXZ       0043cd9d f   PMachine.obj
 0001:0003bdc0       ?OP_sali_byte@@YAXXZ       0043cdc0 f   PMachine.obj
 0001:0003bdf3       ?OP_sali_word@@YAXXZ       0043cdf3 f   PMachine.obj
 0001:0003be26       ?OP_sati_byte@@YAXXZ       0043ce26 f   PMachine.obj
 0001:0003be4a       ?OP_sati_word@@YAXXZ       0043ce4a f   PMachine.obj
 0001:0003be6e       ?OP_sapi_byte@@YAXXZ       0043ce6e f   PMachine.obj
 0001:0003be92       ?OP_sapi_word@@YAXXZ       0043ce92 f   PMachine.obj
 0001:0003beb6       ?OP_ssgi_byte@@YAXXZ       0043ceb6 f   PMachine.obj
 0001:0003bed9       ?OP_ssgi_word@@YAXXZ       0043ced9 f   PMachine.obj
 0001:0003befc       ?OP_ssli_byte@@YAXXZ       0043cefc f   PMachine.obj
 0001:0003bf2f       ?OP_ssli_word@@YAXXZ       0043cf2f f   PMachine.obj
 0001:0003bf62       ?OP_ssti_byte@@YAXXZ       0043cf62 f   PMachine.obj
 0001:0003bf86       ?OP_ssti_word@@YAXXZ       0043cf86 f   PMachine.obj
 0001:0003bfaa       ?OP_sspi_byte@@YAXXZ       0043cfaa f   PMachine.obj
 0001:0003bfce       ?OP_sspi_word@@YAXXZ       0043cfce f   PMachine.obj
 0001:0003bff2       ?OP_iag_byte@@YAXXZ        0043cff2 f   PMachine.obj
 0001:0003c010       ?OP_iag_word@@YAXXZ        0043d010 f   PMachine.obj
 0001:0003c02e       ?OP_ial_byte@@YAXXZ        0043d02e f   PMachine.obj
 0001:0003c05c       ?OP_ial_word@@YAXXZ        0043d05c f   PMachine.obj
 0001:0003c08a       ?OP_iat_byte@@YAXXZ        0043d08a f   PMachine.obj
 0001:0003c0a9       ?OP_iat_word@@YAXXZ        0043d0a9 f   PMachine.obj
 0001:0003c0c8       ?OP_iap_byte@@YAXXZ        0043d0c8 f   PMachine.obj
 0001:0003c0e7       ?OP_iap_word@@YAXXZ        0043d0e7 f   PMachine.obj
 0001:0003c106       ?OP_isg_byte@@YAXXZ        0043d106 f   PMachine.obj
 0001:0003c12a       ?OP_isg_word@@YAXXZ        0043d12a f   PMachine.obj
 0001:0003c14e       ?OP_isl_byte@@YAXXZ        0043d14e f   PMachine.obj
 0001:0003c182       ?OP_isl_word@@YAXXZ        0043d182 f   PMachine.obj
 0001:0003c1b6       ?OP_ist_byte@@YAXXZ        0043d1b6 f   PMachine.obj
 0001:0003c1db       ?OP_ist_word@@YAXXZ        0043d1db f   PMachine.obj
 0001:0003c200       ?OP_isp_byte@@YAXXZ        0043d200 f   PMachine.obj
 0001:0003c225       ?OP_isp_word@@YAXXZ        0043d225 f   PMachine.obj
 0001:0003c24a       ?OP_iagi_byte@@YAXXZ       0043d24a f   PMachine.obj
 0001:0003c26a       ?OP_iagi_word@@YAXXZ       0043d26a f   PMachine.obj
 0001:0003c28a       ?OP_iali_byte@@YAXXZ       0043d28a f   PMachine.obj
 0001:0003c2ba       ?OP_iali_word@@YAXXZ       0043d2ba f   PMachine.obj
 0001:0003c2ea       ?OP_iati_byte@@YAXXZ       0043d2ea f   PMachine.obj
 0001:0003c30b       ?OP_iati_word@@YAXXZ       0043d30b f   PMachine.obj
 0001:0003c32c       ?OP_iapi_byte@@YAXXZ       0043d32c f   PMachine.obj
 0001:0003c34d       ?OP_iapi_word@@YAXXZ       0043d34d f   PMachine.obj
 0001:0003c36e       ?OP_isgi_byte@@YAXXZ       0043d36e f   PMachine.obj
 0001:0003c394       ?OP_isgi_word@@YAXXZ       0043d394 f   PMachine.obj
 0001:0003c3ba       ?OP_isli_byte@@YAXXZ       0043d3ba f   PMachine.obj
 0001:0003c3f0       ?OP_isli_word@@YAXXZ       0043d3f0 f   PMachine.obj
 0001:0003c426       ?OP_isti_byte@@YAXXZ       0043d426 f   PMachine.obj
 0001:0003c44d       ?OP_isti_word@@YAXXZ       0043d44d f   PMachine.obj
 0001:0003c474       ?OP_ispi_byte@@YAXXZ       0043d474 f   PMachine.obj
 0001:0003c49b       ?OP_ispi_word@@YAXXZ       0043d49b f   PMachine.obj
 0001:0003c4c2       ?OP_dag_byte@@YAXXZ        0043d4c2 f   PMachine.obj
 0001:0003c4e0       ?OP_dag_word@@YAXXZ        0043d4e0 f   PMachine.obj
 0001:0003c4fe       ?OP_dal_byte@@YAXXZ        0043d4fe f   PMachine.obj
 0001:0003c52c       ?OP_dal_word@@YAXXZ        0043d52c f   PMachine.obj
 0001:0003c55a       ?OP_dat_byte@@YAXXZ        0043d55a f   PMachine.obj
 0001:0003c579       ?OP_dat_word@@YAXXZ        0043d579 f   PMachine.obj
 0001:0003c598       ?OP_dap_byte@@YAXXZ        0043d598 f   PMachine.obj
 0001:0003c5b7       ?OP_dap_word@@YAXXZ        0043d5b7 f   PMachine.obj
 0001:0003c5d6       ?OP_dsg_byte@@YAXXZ        0043d5d6 f   PMachine.obj
 0001:0003c5fa       ?OP_dsg_word@@YAXXZ        0043d5fa f   PMachine.obj
 0001:0003c61e       ?OP_dsl_byte@@YAXXZ        0043d61e f   PMachine.obj
 0001:0003c652       ?OP_dsl_word@@YAXXZ        0043d652 f   PMachine.obj
 0001:0003c686       ?OP_dst_byte@@YAXXZ        0043d686 f   PMachine.obj
 0001:0003c6ab       ?OP_dst_word@@YAXXZ        0043d6ab f   PMachine.obj
 0001:0003c6d0       ?OP_dsp_byte@@YAXXZ        0043d6d0 f   PMachine.obj
 0001:0003c6f5       ?OP_dsp_word@@YAXXZ        0043d6f5 f   PMachine.obj
 0001:0003c71a       ?OP_dagi_byte@@YAXXZ       0043d71a f   PMachine.obj
 0001:0003c73a       ?OP_dagi_word@@YAXXZ       0043d73a f   PMachine.obj
 0001:0003c75a       ?OP_dali_byte@@YAXXZ       0043d75a f   PMachine.obj
 0001:0003c78a       ?OP_dali_word@@YAXXZ       0043d78a f   PMachine.obj
 0001:0003c7ba       ?OP_dati_byte@@YAXXZ       0043d7ba f   PMachine.obj
 0001:0003c7db       ?OP_dati_word@@YAXXZ       0043d7db f   PMachine.obj
 0001:0003c7fc       ?OP_dapi_byte@@YAXXZ       0043d7fc f   PMachine.obj
 0001:0003c81d       ?OP_dapi_word@@YAXXZ       0043d81d f   PMachine.obj
 0001:0003c83e       ?OP_dsgi_byte@@YAXXZ       0043d83e f   PMachine.obj
 0001:0003c864       ?OP_dsgi_word@@YAXXZ       0043d864 f   PMachine.obj
 0001:0003c88a       ?OP_dsli_byte@@YAXXZ       0043d88a f   PMachine.obj
 0001:0003c8c0       ?OP_dsli_word@@YAXXZ       0043d8c0 f   PMachine.obj
 0001:0003c8f6       ?OP_dsti_byte@@YAXXZ       0043d8f6 f   PMachine.obj
 0001:0003c91d       ?OP_dsti_word@@YAXXZ       0043d91d f   PMachine.obj
 0001:0003c944       ?OP_dspi_byte@@YAXXZ       0043d944 f   PMachine.obj
 0001:0003c96b       ?OP_dspi_word@@YAXXZ       0043d96b f   PMachine.obj
 0001:0003c992       ?OP_filename@@YAXXZ        0043d992 f   PMachine.obj
 0001:0003c9bc       ?OP_linenum@@YAXXZ         0043d9bc f   PMachine.obj
 0001:0003c9d4       ?BadOp@@YAXXZ              0043d9d4 f   PMachine.obj
 0001:0003ca00       ??0PMachine@@QAE@XZ        0043da00 f i PMachine.obj
 0001:0003ca30       ?Lock@FakeVariableID@@QBEPAUVariable@@XZ 0043da30 f i PMachine.obj
 0001:0003ca30       ?lock@Array@@QAEXXZ        0043da30 f i PMachine.obj
 0001:0003ca50       ?MergePolygonsF@@YA?AVMemID@@PAUSCI_Point@@HPAVSOL_PolygonF@@@Z 0043da50 f   Polyfuse.obj
 0001:0003cefc       ?MergePolygonF@@YAHPAVFPoint@@AAHAAVSOL_PolygonF@@@Z 0043defc f   Polyfuse.obj
 0001:0003e0bf       ?PatchNodeF@@YAHAAVPolyPatchF@@HPAVFPoint@@@Z 0043f0bf f   Polyfuse.obj
 0001:0003e17b       ?DominatesF@@YAHAAVPolyPatchF@@0PAVFPoint@@@Z 0043f17b f   Polyfuse.obj
 0001:0003e5b0       ??0FPoint@@QAE@XZ          0043f5b0 f i Polyfuse.obj
 0001:0003e5e0       ??4SCI_Point@@QAEAAU0@ABVFPoint@@@Z 0043f5e0 f i Polyfuse.obj
 0001:0003e6f0       ??4FPoint@@QAEAAV0@ABV0@@Z 0043f6f0 f i Polyfuse.obj
 0001:0003e6f0       ??0FPoint@@QAE@ABV0@@Z     0043f6f0 f i Polyfuse.obj
 0001:0003e730       ??4FPoint@@QAEAAV0@ABUSCI_Point@@@Z 0043f730 f i Polyfuse.obj
 0001:0003e770       ??GFPoint@@QBE?AV0@ABV0@@Z 0043f770 f i Polyfuse.obj
 0001:0003e7c0       ??0FPoint@@QAE@NN@Z        0043f7c0 f i Polyfuse.obj
 0001:0003e7f0       ??DFPoint@@QBENABV0@@Z     0043f7f0 f i Polyfuse.obj
 0001:0003e820       ??TFPoint@@QBEHABV0@@Z     0043f820 f i Polyfuse.obj
 0001:0003e880       ??8FPoint@@QBEHABV0@@Z     0043f880 f i Polyfuse.obj
 0001:0003e8d0       ??9FPoint@@QBEHABV0@@Z     0043f8d0 f i Polyfuse.obj
 0001:0003e920       ??0PolyPatchF@@QAE@XZ      0043f920 f i Polyfuse.obj
 0001:0003e950       ?DistanceSquaredF@@YANAAVFPoint@@0@Z 0043f950 f i Polyfuse.obj
 0001:0003e9b2       ?PointInterior@@YAHAAUSCI_Point@@PAU1@H@Z 0043f9b2 f   Polygon.obj
 0001:0003ecb3       ?GetPath@@YA?AVMemID@@AAUSCI_Point@@0PAVSOL_Polygon@@H0@Z 0043fcb3 f   Polygon.obj
 0001:0003f6ed       ?StartPath@@YAXAAUSCI_Point@@PAU1@@Z 004406ed f   Polygon.obj
 0001:0003f789       ?EndPath@@YAXAAUSCI_Point@@PAU1@@Z 00440789 f   Polygon.obj
 0001:0003f7e1       ?CopyPath@@YA?AVMemID@@PAUSCI_Point@@@Z 004407e1 f   Polygon.obj
 0001:0003f882       ?InvertPolygon@@YAXPAUSCI_Point@@H@Z 00440882 f   Polygon.obj
 0001:0003f900       ?NearPoint@@YAHAAUSCI_Point@@PAU1@H1H@Z 00440900 f   Polygon.obj
 0001:0003fbd6       ?TestClockwise@@YAHPAUSCI_Point@@H@Z 00440bd6 f   Polygon.obj
 0001:0003fd63       ?AvoidPath@@YAXAAUSCI_Point@@0PAVSOL_Polygon@@HPAU1@@Z 00440d63 f   Polygon.obj
 0001:00040067       ?FreeNodePath@@YAXPAVPolyNode@@@Z 00441067 f   Polygon.obj
 0001:0004009f       ?AvoidPolygons@@YAPAVPolyNode@@AAUSCI_Point@@0PAVSOL_Polygon@@@Z 0044109f f   Polygon.obj
 0001:00040313       ?ReducePolygonList@@YAXPAVSOL_Polygon@@PAVPolyNode@@@Z 00441313 f   Polygon.obj
 0001:000403e4       ?RemoveNode@@YAXPAVSOL_Polygon@@H@Z 004413e4 f   Polygon.obj
 0001:0004042b       ?GetPolyDirections@@YAHPAVPolyNode@@@Z 0044142b f   Polygon.obj
 0001:00040494       ?GetPolyDistance@@YAHPAUSCI_Point@@@Z 00441494 f   Polygon.obj
 0001:0004050b       ?SetPolyDirections@@YAXPAVPolyNode@@HH@Z 0044150b f   Polygon.obj
 0001:0004060d       ?OptimizePath@@YAXAAUSCI_Point@@0PAU1@PAVPolyNode@@PAVSOL_Polygon@@H@Z 0044160d f   Polygon.obj
 0001:0004098c       ?PolygonPath@@YAHAAUSCI_Point@@0PAU1@H11PAH2@Z 0044198c f   Polygon.obj
 0001:00040ad7       ?NodeDistance@@YAHHHHPAUSCI_Point@@HAAU1@1PAH@Z 00441ad7 f   Polygon.obj
 0001:00040c0b       ?IntersectPolygon@@YAHAAUSCI_Point@@0PAU1@H11PAH2@Z 00441c0b f   Polygon.obj
 0001:0004142d       ?NodeTest@@YAHAAUSCI_Point@@000@Z 0044242d f   Polygon.obj
 0001:000414e8       ?BuildPolygonList@@YA?AVMemID@@USOL_ListID@@H@Z 004424e8 f   Polygon.obj
 0001:000416e1       ?DeletePolygon@@YAXPAVSOL_Polygon@@H@Z 004426e1 f   Polygon.obj
 0001:0004172c       ?AddPolygon@@YAXVMemID@@PAUSCI_Point@@HE@Z 0044272c f   Polygon.obj
 0001:000417f4       ?IntersectSegments@@YAHAAUSCI_Point@@000PAU1@@Z 004427f4 f   Polygon.obj
 0001:00041e81       ?RemoveColinearLines@@YAXPAUSCI_Point@@PAH@Z 00442e81 f   Polygon.obj
 0001:00041fe0       ?DistanceEstimate@@YAHAAUSCI_Point@@0PAH@Z 00442fe0 f   Polygon.obj
 0001:0004207d       ?LineOnPlaneEdge@@YAHAAUSCI_Point@@0@Z 0044307d f   Polygon.obj
 0001:0004212c       ?RemoveDuplicatePoints@@YAXPAUSCI_Point@@PAH@Z 0044312c f   Polygon.obj
 0001:000421cd       ?BuildPolygonListF@@YA?AVMemID@@USOL_ListID@@H@Z 004431cd f   Polygon.obj
 0001:000424d1       ?RemoveDuplicatePointsF@@YAXPAVFPoint@@PAH@Z 004434d1 f   Polygon.obj
 0001:000426db       ?IntersectSegmentsF@@YAHAAVFPoint@@000PAV1@H@Z 004436db f   Polygon.obj
 0001:00042f05       ?RemoveColinearLinesF@@YAXPAVFPoint@@PAH@Z 00443f05 f   Polygon.obj
 0001:00043085       ?PolyIsInPolyF@@YAHPAVFPoint@@H0H@Z 00444085 f   Polygon.obj
 0001:00043269       ?PointInteriorF@@YAHAAVFPoint@@PAV1@H@Z 00444269 f   Polygon.obj
 0001:000435a3       ?KMergePoly@@YAXPAF@Z      004445a3 f   Polygon.obj
 0001:00043865       ?KInPolygon@@YAXPAF@Z      00444865 f   Polygon.obj
 0001:00043956       ?KAvoidPath@@YAXPAF@Z      00444956 f   Polygon.obj
 0001:00043b5b       ?KTestPoly@@YAXPAF@Z       00444b5b f   Polygon.obj
 0001:00043c50       ??0SCI_Point@@QAE@XZ       00444c50 f i Polygon.obj
 0001:00043c70       ??4SCI_Point@@QAEAAU0@ABU0@@Z 00444c70 f i Polygon.obj
 0001:00043c70       ??0SCI_Point@@QAE@ABU0@@Z  00444c70 f i Polygon.obj
 0001:00043ca0       ??GSCI_Point@@QBE?AU0@ABU0@@Z 00444ca0 f i Polygon.obj
 0001:00043cf0       ??0SCI_Point@@QAE@HH@Z     00444cf0 f i Polygon.obj
 0001:00043d20       ??GSCI_Point@@QBE?AU0@XZ   00444d20 f i Polygon.obj
 0001:00043d60       ??TSCI_Point@@QBEHABU0@@Z  00444d60 f i Polygon.obj
 0001:00043db0       ??8SCI_Point@@QBEHABU0@@Z  00444db0 f i Polygon.obj
 0001:00043e00       ??DSCI_Point@@QBEHABU0@@Z  00444e00 f i Polygon.obj
 0001:00043e30       ??9SCI_Point@@QBEHABU0@@Z  00444e30 f i Polygon.obj
 0001:00043e80       ??0PolyNode@@QAE@USCI_Point@@0HHHPAU1@H@Z 00444e80 f i Polygon.obj
 0001:00043f10       ??HSCI_Point@@QBE?AU0@ABU0@@Z 00444f10 f i Polygon.obj
 0001:00043f60       ??ZSCI_Point@@QAEAAU0@ABU0@@Z 00444f60 f i Polygon.obj
 0001:00043fa0       ??HFPoint@@QBE?AV0@ABV0@@Z 00444fa0 f i Polygon.obj
 0001:00043ff0       ??GFPoint@@QBE?AV0@XZ      00444ff0 f i Polygon.obj
 0001:00044030       ??0Ratio@@QAE@ABV0@@Z      00445030 f   Ratio.obj
 0001:00044056       ?Normalize@Ratio@@QAEXXZ   00445056 f   Ratio.obj
 0001:00044151       ??8Ratio@@QBEHABV0@@Z      00445151 f   Ratio.obj
 0001:0004417f       ??9Ratio@@QBEHABV0@@Z      0044517f f   Ratio.obj
 0001:0004419d       ??ORatio@@QBEHABV0@@Z      0044519d f   Ratio.obj
 0001:000441f0       ?Intersect@SOL_Rect@@QBEHABV1@PAV1@@Z 004451f0 f   Rect.obj
 0001:000442ac       ?Split@SOL_Rect@@QAEHAAV1@PAV1@@Z 004452ac f   Rect.obj
 0001:00044472       ?IsWithin@SOL_Rect@@QBEHHH@Z 00445472 f   Rect.obj
 0001:000444d0       ?IsValid@SOL_Rect@@QBEHXZ  004454d0 f i Rect.obj
 0001:00044500       ??0RectList@@QAE@XZ        00445500 f   Rectlist.obj
 0001:0004451b       ??1RectList@@QAE@XZ        0044551b f   Rectlist.obj
 0001:00044562       ??0RectList@@QAE@ABV0@@Z   00445562 f   Rectlist.obj
 0001:00044636       ??4RectList@@QAEABV0@ABV0@@Z 00445636 f   Rectlist.obj
 0001:00044744       ?Add@RectList@@QAEXABVSOL_Rect@@@Z 00445744 f   Rectlist.obj
 0001:00044801       ?Delete@RectList@@QAEXH@Z  00445801 f   Rectlist.obj
 0001:00044835       ?Pack@RectList@@QAEHXZ     00445835 f   Rectlist.obj
 0001:000448c4       ?Clear@RectList@@QAEXXZ    004458c4 f   Rectlist.obj
 0001:00044930       ??0Remap@@QAE@XZ           00445930 f   Remap.obj
 0001:00044a2c       ??1Remap@@UAE@XZ           00445a2c f   Remap.obj
 0001:00044a8b       ?RemapOff@Remap@@QAEXH@Z   00445a8b f   Remap.obj
 0001:00044c33       ?RemapByRange@Remap@@QAEXHHHHH@Z 00445c33 f   Remap.obj
 0001:00044dca       ?RemapByPercent@Remap@@QAEXHHH@Z 00445dca f   Remap.obj
 0001:00044f25       ?RemapToGray@Remap@@QAEXHHH@Z 00445f25 f   Remap.obj
 0001:00045087       ?RemapToPercentGray@Remap@@QAEXHHHH@Z 00446087 f   Remap.obj
 0001:000451db       ?RemapAllTables@Remap@@QAEHH@Z 004461db f   Remap.obj
 0001:00045240       ?DontMapToRange@Remap@@QAEXHH@Z 00446240 f   Remap.obj
 0001:0004526e       ?KRemapColors@@YAXPAF@Z    0044626e f   Remap.obj
 0001:000454bb       ??0SingleRemap@Remap@@QAE@PAE@Z 004464bb f   Remap.obj
 0001:0004562e       ?ByRange@SingleRemap@Remap@@QAEHXZ 0044662e f   Remap.obj
 0001:000456c8       ?ByPercent@SingleRemap@Remap@@QAEHXZ 004466c8 f   Remap.obj
 0001:00045974       ?ToGray@SingleRemap@Remap@@QAEHXZ 00446974 f   Remap.obj
 0001:00045c2c       ?ToPercentGray@SingleRemap@Remap@@QAEHXZ 00446c2c f   Remap.obj
 0001:00045f74       ?Apply@SingleRemap@Remap@@IAEHPAE@Z 00446f74 f   Remap.obj
 0001:000465a6       ?Update@SingleRemap@Remap@@QAEHH@Z 004475a6 f   Remap.obj
 0001:00046648       ?Match@SingleRemap@Remap@@QAEHPAVRgb24@@HABV3@HAAH@Z 00447648 f   Remap.obj
 0001:00046740       ??_GRemap@@UAEPAXI@Z       00447740 f i Remap.obj
 0001:00046740       ??_ERemap@@UAEPAXI@Z       00447740 f i Remap.obj
 0001:00046770       ??_GSingleRemap@Remap@@QAEPAXI@Z 00447770 f i Remap.obj
 0001:000467a0       ??1SingleRemap@Remap@@QAE@XZ 004477a0 f i Remap.obj
 0001:000467b0       ?InRange@Remap@@IAEHH@Z    004477b0 f i Remap.obj
 0001:000467f0       ??9Rgb24@@QBEHABV0@@Z      004477f0 f i Remap.obj
 0001:00046850       ?Lum@Rgb24@@QBEEXZ         00447850 f i Remap.obj
 0001:00046890       ?Dist@Rgb24@@QBEHABV1@@Z   00447890 f i Remap.obj
 0001:00047459       ??0ResourceMgr@@QAE@XZ     00448459 f   Resource.obj
 0001:000474c6       ??1ResourceMgr@@UAE@XZ     004484c6 f   Resource.obj
 0001:0004751c       ?Open@ResourceMgr@@UAEHW4MemType@@GPAD@Z 0044851c f   Resource.obj
 0001:0004754f       ?Close@ResourceMgr@@UAEHH@Z 0044854f f   Resource.obj
 0001:00047586       ?Get@ResourceMgr@@UAE?AVMemID@@W4MemType@@GH@Z 00448586 f   Resource.obj
 0001:0004778c       ?GetExtType@ResourceMgr@@QAE?AW4MemType@@PAD@Z 0044878c f   Resource.obj
 0001:000477f0       ?Check@ResourceMgr@@UAEHW4MemType@@G@Z 004487f0 f   Resource.obj
 0001:0004786b       ?Lock@ResourceMgr@@UAEXW4MemType@@G@Z 0044886b f   Resource.obj
 0001:000478b4       ?SetNotDiscardable@ResourceMgr@@UAEXW4MemType@@G@Z 004488b4 f   Resource.obj
 0001:000478fd       ?SetDiscardable@ResourceMgr@@UAEXW4MemType@@G@Z 004488fd f   Resource.obj
 0001:00047946       ?MakeDebugDisplayStr@ResourceMgr@@UAE?AVTextID@@XZ 00448946 f   Resource.obj
 0001:000479d7       ?Unlock@ResourceMgr@@UAEXW4MemType@@G@Z 004489d7 f   Resource.obj
 0001:00047a20       ?Release@ResourceMgr@@UAEXW4MemType@@G@Z 00448a20 f   Resource.obj
 0001:00047a69       ?Find@ResourceMgr@@UAE?AVMemID@@W4MemType@@G@Z 00448a69 f   Resource.obj
 0001:00047c05       ?FindType@ResourceMgr@@UAEGW4MemType@@@Z 00448c05 f   Resource.obj
 0001:00047c4f       ?MakeName@ResourceMgr@@UAEPADW4MemType@@G@Z 00448c4f f   Resource.obj
 0001:00047c8a       ?Free@ResourceMgr@@UAEXW4MemType@@G@Z 00448c8a f   Resource.obj
 0001:00047d8d       ?GetIndex@ResourceMgr@@MAEHW4MemType@@G@Z 00448d8d f   Resource.obj
 0001:00047e17       ?AddIndex@ResourceMgr@@MAEHW4MemType@@G@Z 00448e17 f   Resource.obj
 0001:00047f26       ?DeleteIndex@ResourceMgr@@MAEXW4MemType@@G@Z 00448f26 f   Resource.obj
 0001:0004801d       ?InitResourceMgr@ResourceMgr@@MAEXXZ 0044901d f   Resource.obj
 0001:00048046       ?LoadResSums@ResourceMgr@@QAEXXZ 00449046 f   Resource.obj
 0001:000481f1       ?LoadResMaps@ResourceMgr@@UAEXXZ 004491f1 f   Resource.obj
 0001:0004860c       ?OpenVolume@ResourceMgr@@UAEHH@Z 0044960c f   Resource.obj
 0001:00048810       ?VolumeOpen@ResourceMgr@@UAEHH@Z 00449810 f   Resource.obj
 0001:00048865       ?GetResMapID@ResourceMgr@@UAE?AVMemID@@H@Z 00449865 f   Resource.obj
 0001:0004888c       ?BuildPatchTables@ResourceMgr@@UAEXXZ 0044988c f   Resource.obj
 0001:00048dc5       ?DecompBuffer@ResourceMgr@@QAE?AVMemID@@H@Z 00449dc5 f   Resource.obj
 0001:00048ddf       ?SetLanguage@ResourceMgr@@QAEXPAD@Z 00449ddf f   Resource.obj
 0001:00048f90       ?KSetLanguage@@YAXPAF@Z    00449f90 f   Resource.obj
 0001:00048fd8       ?KLoad@@YAXPAF@Z           00449fd8 f   Resource.obj
 0001:0004903b       ?KUnload@@YAXPAF@Z         0044a03b f   Resource.obj
 0001:00049080       ?KFlushResources@@YAXPAF@Z 0044a080 f   Resource.obj
 0001:00049085       ?KLock@@YAXPAF@Z           0044a085 f   Resource.obj
 0001:00049115       ?KResCheck@@YAXPAF@Z       0044a115 f   Resource.obj
 0001:000491c0       ??0ResView@@QAE@XZ         0044a1c0 f i Resource.obj
 0001:000491f0       ?IsSupported@SOL_ResType@@UBEHXZ 0044a1f0 f i Resource.obj
 0001:00049210       ?GetAttrs@SOL_ResType@@UBEIXZ 0044a210 f i Resource.obj
 0001:00049220       ?GetFileType@SOL_ResType@@MBE?AW4MemType@@XZ 0044a220 f i Resource.obj
 0001:00049240       ?GetType@ResView@@UBE?AW4MemType@@XZ 0044a240 f i Resource.obj
 0001:00049250       ??0ResPic@@QAE@XZ          0044a250 f i Resource.obj
 0001:00049280       ?GetType@ResPic@@UBE?AW4MemType@@XZ 0044a280 f i Resource.obj
 0001:00049290       ??0ResChunk@@QAE@XZ        0044a290 f i Resource.obj
 0001:000492c0       ?GetType@ResChunk@@UBE?AW4MemType@@XZ 0044a2c0 f i Resource.obj
 0001:000492d0       ??0ResScript@@QAE@XZ       0044a2d0 f i Resource.obj
 0001:00049300       ?GetType@ResScript@@UBE?AW4MemType@@XZ 0044a300 f i Resource.obj
 0001:00049310       ??0ResSound@@QAE@XZ        0044a310 f i Resource.obj
 0001:00049340       ?GetType@ResSound@@UBE?AW4MemType@@XZ 0044a340 f i Resource.obj
 0001:00049350       ??0ResVocab@@QAE@XZ        0044a350 f i Resource.obj
 0001:00049380       ?GetType@ResVocab@@UBE?AW4MemType@@XZ 0044a380 f i Resource.obj
 0001:00049390       ??0ResPatch@@QAE@XZ        0044a390 f i Resource.obj
 0001:000493c0       ?GetType@ResPatch@@UBE?AW4MemType@@XZ 0044a3c0 f i Resource.obj
 0001:000493d0       ??0ResFont@@QAE@XZ         0044a3d0 f i Resource.obj
 0001:00049400       ?GetType@ResFont@@UBE?AW4MemType@@XZ 0044a400 f i Resource.obj
 0001:00049410       ??0ResPal@@QAE@XZ          0044a410 f i Resource.obj
 0001:00049440       ?GetType@ResPal@@UBE?AW4MemType@@XZ 0044a440 f i Resource.obj
 0001:00049450       ??0ResHeap@@QAE@XZ         0044a450 f i Resource.obj
 0001:00049480       ?GetType@ResHeap@@UBE?AW4MemType@@XZ 0044a480 f i Resource.obj
 0001:00049490       ??0ResMsg@@QAE@XZ          0044a490 f i Resource.obj
 0001:000494c0       ?GetType@ResMsg@@UBE?AW4MemType@@XZ 0044a4c0 f i Resource.obj
 0001:000494d0       ??0ResAudio@@QAE@XZ        0044a4d0 f i Resource.obj
 0001:00049500       ?GetType@ResAudio@@UBE?AW4MemType@@XZ 0044a500 f i Resource.obj
 0001:00049510       ??0ResWave@@QAE@XZ         0044a510 f i Resource.obj
 0001:00049540       ?GetType@ResWave@@UBE?AW4MemType@@XZ 0044a540 f i Resource.obj
 0001:00049550       ??0ResAudio36@@QAE@XZ      0044a550 f i Resource.obj
 0001:00049580       ?GetType@ResAudio36@@UBE?AW4MemType@@XZ 0044a580 f i Resource.obj
 0001:00049590       ??0ResSync@@QAE@XZ         0044a590 f i Resource.obj
 0001:000495c0       ?GetType@ResSync@@UBE?AW4MemType@@XZ 0044a5c0 f i Resource.obj
 0001:000495d0       ??0ResSync36@@QAE@XZ       0044a5d0 f i Resource.obj
 0001:00049600       ?GetType@ResSync36@@UBE?AW4MemType@@XZ 0044a600 f i Resource.obj
 0001:00049610       ??0ResMap@@QAE@XZ          0044a610 f i Resource.obj
 0001:00049640       ?GetType@ResMap@@UBE?AW4MemType@@XZ 0044a640 f i Resource.obj
 0001:00049650       ??0ResMsgTranslation@@QAE@XZ 0044a650 f i Resource.obj
 0001:00049680       ?GetType@ResMsgTranslation@@UBE?AW4MemType@@XZ 0044a680 f i Resource.obj
 0001:00049690       ?GetFileType@ResMsgTranslation@@UBE?AW4MemType@@XZ 0044a690 f i Resource.obj
 0001:000496a0       ??0ResRobot@@QAE@XZ        0044a6a0 f i Resource.obj
 0001:000496d0       ?GetType@ResRobot@@UBE?AW4MemType@@XZ 0044a6d0 f i Resource.obj
 0001:000496e0       ??0ResVMD@@QAE@XZ          0044a6e0 f i Resource.obj
 0001:00049710       ?GetType@ResVMD@@UBE?AW4MemType@@XZ 0044a710 f i Resource.obj
 0001:00049720       ??0ResourceList@@QAE@PAVSOL_ResType@@W4ReservedHandle@@H@Z 0044a720 f i Resource.obj
 0001:00049770       ??0ResourceList@@QAE@ABU0@@Z 0044a770 f i Resource.obj
 0001:000497d0       ?Check@ResourceMgr@@MAEHPAVSOL_ResType@@G@Z 0044a7d0 f i Resource.obj
 0001:000497f0       ?Load@ResourceMgr@@MAEXPAVSOL_ResType@@AAUResTag@@H@Z 0044a7f0 f i Resource.obj
 0001:00049810       ?Get@ResourceList@@QAEXXZ  0044a810 f i Resource.obj
 0001:00049850       ?Get@FakeResTagID@@QAEXIW4ReservedHandle@@I@Z 0044a850 f i Resource.obj
 0001:00049880       ??_EResourceMgr@@UAEPAXI@Z 0044a880 f i Resource.obj
 0001:00049880       ??_GResourceMgr@@UAEPAXI@Z 0044a880 f i Resource.obj
 0001:000498b0       ??0MemClient@@QAE@XZ       0044a8b0 f i Resource.obj
 0001:000498d0       ?Free@ResourceList@@QAEXXZ 0044a8d0 f i Resource.obj
 0001:00049900       ?SCI16ToSCI32ResType@@YAXAAW4MemType@@@Z 0044a900 f i Resource.obj
 0001:00049920       ??0ResTag@@QAE@ABU0@@Z     0044a920 f i Resource.obj
 0001:00049950       ?MakeDebugSummaryStr@ResourceList@@QAEXAAVTextID@@@Z 0044a950 f i Resource.obj
 0001:000499f0       ?MakeDebugDetailStr@ResourceList@@QAEXAAVTextID@@@Z 0044a9f0 f i Resource.obj
 0001:00049b20       ??AResTagID@@QAEAAUResTag@@H@Z 0044ab20 f i Resource.obj
 0001:00049b40       ??0SOL_ResType@@QAE@PAD0@Z 0044ab40 f   Restype.obj
 0001:00049b78       ?Check@SOL_ResType@@UAEHG@Z 0044ab78 f   Restype.obj
 0001:00049bba       ?Load@SOL_ResType@@UAEXAAUResTag@@H@Z 0044abba f   Restype.obj
 0001:00049e7d       ?Decompress@SOL_ResType@@MBEXAAUResTag@@@Z 0044ae7d f   Restype.obj
 0001:0004a135       ?Open@SOL_ResType@@UAEHGPAD@Z 0044b135 f   Restype.obj
 0001:0004a73c       ?CanOpen@SOL_ResType@@QAEHGPAD@Z 0044b73c f   Restype.obj
 0001:0004ab07       ?Close@SOL_ResType@@UBEHH@Z 0044bb07 f   Restype.obj
 0001:0004ab44       ?MakeName@SOL_ResType@@UBEXPAD0G@Z 0044bb44 f   Restype.obj
 0001:0004ab97       ?MakeName@SOL_ResType@@MBEXPAD00@Z 0044bb97 f   Restype.obj
 0001:0004ac9b       ?MakeWildName@SOL_ResType@@UBEXPAD0@Z 0044bc9b f   Restype.obj
 0001:0004acc0       ?GetFileSize@SOL_ResType@@MBEJXZ 0044bcc0 f   Restype.obj
 0001:0004ad0c       ?ConfirmType@SOL_ResType@@MBEXW4MemType@@@Z 0044bd0c f   Restype.obj
 0001:0004adb2       ?Read@SOL_ResType@@MBEHPAXH@Z 0044bdb2 f   Restype.obj
 0001:0004add6       ?SeekToData@SOL_ResType@@MBEHXZ 0044bdd6 f   Restype.obj
 0001:0004ae1c       ?FindDirEntry@SOL_ResType@@UBEHGPAH@Z 0044be1c f   Restype.obj
 0001:0004af88       ?FindPatchEntry@SOL_ResType@@UBEHG@Z 0044bf88 f   Restype.obj
 0001:0004b010       ?FindPatch36Entry@SOL_ResType@@MBEHPAD@Z 0044c010 f   Restype.obj
 0001:0004b094       ?CheckPatches@SOL_ResType@@UBEHG@Z 0044c094 f   Restype.obj
 0001:0004b0bb       ?SeekToData@ResView@@MBEHXZ 0044c0bb f   Restype.obj
 0001:0004b104       ?SeekToData@ResPic@@MBEHXZ 0044c104 f   Restype.obj
 0001:0004b147       ?SeekToData@ResPal@@MBEHXZ 0044c147 f   Restype.obj
 0001:0004b18d       ?SeekToData@ResWave@@MBEHXZ 0044c18d f   Restype.obj
 0001:0004b19a       ?SeekToData@ResAudio@@MBEHXZ 0044c19a f   Restype.obj
 0001:0004b1a7       ?SeekToData@ResAudio36@@MBEHXZ 0044c1a7 f   Restype.obj
 0001:0004b1b4       ?SeekToData@ResVMD@@MBEHXZ 0044c1b4 f   Restype.obj
 0001:0004b1e0       ?GetType@SOL_ResType@@UBE?AW4MemType@@XZ 0044c1e0 f i Restype.obj
 0001:0004b1f0       ?Init@SCI@@MAEXHQAPAD@Z    0044c1f0 f   Sci.obj
 0001:0004b383       ?InitPlane@SCI@@MAEXXZ     0044c383 f   Sci.obj
 0001:0004b423       ?MakeFontMgr@SCI@@MAEPAVFontMgr@@XZ 0044c423 f   Sci.obj
 0001:0004b497       ?MakeResourceMgr@SCI@@MAEPAVResourceMgr@@XZ 0044c497 f   Sci.obj
 0001:0004b504       ?Run@SCI@@UAEXHQAPAD@Z     0044c504 f   Sci.obj
 0001:0004b529       ??1SCI@@UAE@XZ             0044c529 f   Sci.obj
 0001:0004b690       ?Refresh@CTabDlgBtn@@UAEXXZ 0044c690 f i Sci.obj
 0001:0004b690       ?UpdateMe@CScrollable@@UAEXXZ 0044c690 f i Sci.obj
 0001:0004b690       ?Previous@CSkinWnd@@UAEXXZ 0044c690 f i Sci.obj
 0001:0004b690       ?PaintStarting@CursorWin@@UAEXXZ 0044c690 f i Sci.obj
 0001:0004b690       ?Next@CToonMakeWndBase@@UAEXXZ 0044c690 f i Sci.obj
 0001:0004b690       ?Next@CSkinWnd@@UAEXXZ     0044c690 f i Sci.obj
 0001:0004b690       ?Previous@CToonMakeWndBase@@UAEXXZ 0044c690 f i Sci.obj
 0001:0004b690       ?DonePainting@CursorWin@@UAEXXZ 0044c690 f i Sci.obj
 0001:0004b690       ?ClearLastScreen@GraphicsMgrWin@@UAEXXZ 0044c690 f i Sci.obj
 0001:0004b690       ??1Array@@QAE@XZ           0044c690 f i Sci.obj
 0001:0004b690       ?UpdateStats@CToonMakeWndBase@@UAEXXZ 0044c690 f i Sci.obj
 0001:0004b690       ?InitExceptions@SCI@@MAEXXZ 0044c690 f i Sci.obj
 0001:0004b690       ?FlushKeyboard@EventMgrWin@@MAEXXZ 0044c690 f i Sci.obj
 0001:0004b690       ?UpdateText@CToonMakeWndBase@@UAEXXZ 0044c690 f i Sci.obj
 0001:0004b690       ?UpdateBitmaps@CToonMakeWndBase@@UAEXXZ 0044c690 f i Sci.obj
 0001:0004b6a0       ??_GSCI@@UAEPAXI@Z         0044c6a0 f i Sci.obj
 0001:0004b6a0       ??_ESCI@@UAEPAXI@Z         0044c6a0 f i Sci.obj
 0001:0004b70f       ?InitAudio@SCIWin@@UAEXXZ  0044c70f f   Sciw.obj
 0001:0004b71a       ?InitInterrupts@SCIWin@@UAEXXZ 0044c71a f   Sciw.obj
 0001:0004b725       ?InitPalette@SCIWin@@UAEXXZ 0044c725 f   Sciw.obj
 0001:0004b834       ?InitSound@SCIWin@@UAEXXZ  0044c834 f   Sciw.obj
 0001:0004b83f       ?MakeConfigMgr@SCIWin@@UAEPAVConfigMgr@@HQAPAD@Z 0044c83f f   Sciw.obj
 0001:0004b8d3       ?MakeEventMgr@SCIWin@@UAEPAUEventMgr@@XZ 0044c8d3 f   Sciw.obj
 0001:0004b940       ?MakeGraphicsMgr@SCIWin@@UAEPAVGraphicsMgr@@XZ 0044c940 f   Sciw.obj
 0001:0004b9ce       ?MakeMemoryMgr@SCIWin@@UAEPAVMemoryMgr@@XZ 0044c9ce f   Sciw.obj
 0001:0004ba38       ?MakeMouse@SCIWin@@UAEPAVSOL_Mouse@@XZ 0044ca38 f   Sciw.obj
 0001:0004bb2a       ?MakeMsgMgr@SCIWin@@UAEPAVMsgMgr@@XZ 0044cb2a f   Sciw.obj
 0001:0004bb97       ?MakeTimeMgr@SCIWin@@UAEPAVTimeMgr@@XZ 0044cb97 f   Sciw.obj
 0001:0004bc01       ?scimain@@YAHHQAPAD@Z      0044cc01 f   Sciw.obj
 0001:0004bc30       ??1SCIWin@@UAE@XZ          0044cc30 f i Sciw.obj
 0001:0004bc50       ??0SCIWin@@QAE@XZ          0044cc50 f i Sciw.obj
 0001:0004bc70       ??_ESCIWin@@UAEPAXI@Z      0044cc70 f i Sciw.obj
 0001:0004bc70       ??_GSCIWin@@UAEPAXI@Z      0044cc70 f i Sciw.obj
 0001:0004bca0       ??0SCI@@QAE@XZ             0044cca0 f i Sciw.obj
 0001:0004bcc0       ??0MemoryMgrWin@@QAE@XZ    0044ccc0 f i Sciw.obj
 0001:0004bcf0       ??0MsgMgrWin@@QAE@XZ       0044ccf0 f i Sciw.obj
 0001:0004bd10       ?crashHandler@@YGJPAU_EXCEPTION_POINTERS@@@Z 0044cd10 f   Sciwin.obj
 0001:0004c184       ?AsyncEventCheck@@YAXXZ    0044d184 f   Sciwin.obj
 0001:0004c210       ?ReadCommandLine@@YAXPAD@Z 0044d210 f   Sciwin.obj
 0001:0004c36b       ?GetProfileInfo@@YAXXZ     0044d36b f   Sciwin.obj
 0001:0004c370       ?GetTFOption@@YAHPADH@Z    0044d370 f   Sciwin.obj
 0001:0004c3cb       ?GetIntOption@@YAHPADH@Z   0044d3cb f   Sciwin.obj
 0001:0004c4bc       ?GetNumToken@@YAHPADHH@Z   0044d4bc f   Sciwin.obj
 0001:0004c55c       ?GetStrToken@@YAHPADH0@Z   0044d55c f   Sciwin.obj
 0001:0004c5f2       ?GetScreenInfo@@YAXXZ      0044d5f2 f   Sciwin.obj
 0001:0004c962       ?CheckConfig@@YAXXZ        0044d962 f   Sciwin.obj
 0001:0004c9dc       ?MBox@@YAXPAD0@Z           0044d9dc f   Sciwin.obj
 0001:0004ca14       ?MBox2@@YAHPAD0@Z          0044da14 f   Sciwin.obj
 0001:0004ca56       ?SciDisplay@@YAXPADHHHHH@Z 0044da56 f   Sciwin.obj
 0001:0004cab7       ?WndProc@@YGJPAUHWND__@@IGJ@Z 0044dab7 f   Sciwin.obj
 0001:0004d241       ?doDialog@@YAHH@Z          0044e241 f   Sciwin.obj
 0001:0004d27a       ?testDlgProc@@YGHPAUHWND__@@IIJ@Z 0044e27a f   Sciwin.obj
 0001:0004d2f3       ?genericDialogHandler@@YGHPAUHWND__@@IIJ@Z 0044e2f3 f   Sciwin.obj
 0001:0004d3b0       ?SetPaintFlag@MouseWinClr@@QAEXXZ 0044e3b0 f i Sciwin.obj
 0001:0004d3d0       ?AbortPlane@Screen@@QAEXPBVSOL_Plane@@@Z 0044e3d0 f   Screen.obj
 0001:0004d418       ?AddPlane@Screen@@QAEXPAVSOL_Plane@@@Z 0044e418 f   Screen.obj
 0001:0004d49f       ?AddPic@Screen@@QAEHJHABVSOL_Point@@H@Z 0044e49f f   Screen.obj
 0001:0004d502       ?DeletePic@Screen@@QAEXJHH@Z 0044e502 f   Screen.obj
 0001:0004d55f       ?ScrollScreenItems@Screen@@QAEXJHHH@Z 0044e55f f   Screen.obj
 0001:0004d5c0       ?CheckIntegrity@Screen@@QAEXXZ 0044e5c0 f   Screen.obj
 0001:0004d601       ?AddScreenItem@Screen@@QAEXPAVScreenItem@@@Z 0044e601 f   Screen.obj
 0001:0004d663       ?NewScreenDim@Screen@@QAEXHH@Z 0044e663 f   Screen.obj
 0001:0004d706       ?Clear@Screen@@QAEXXZ      0044e706 f   Screen.obj
 0001:0004d727       ?PlaneRect@Screen@@QBEXHAAVSOL_Rect@@@Z 0044e727 f   Screen.obj
 0001:0004d788       ?TopScreenItem@Screen@@QBEHH@Z 0044e788 f   Screen.obj
 0001:0004d7e0       ?CalcLists@Screen@@QAEXAAV1@QAPAVDrawList@@QAPAVRectList@@ABVSOL_Rect@@@Z 0044e7e0 f   Screen.obj
 0001:0004e940       ?RemapMarkRedraw@Screen@@QAEXXZ 0044f940 f   Screen.obj
 0001:0004e987       ?GetScreenItem@Screen@@QAEPAVScreenItem@@HJ@Z 0044f987 f   Screen.obj
 0001:0004e9ea       ?GetPlane@Screen@@QAEPAVSOL_Plane@@H@Z 0044f9ea f   Screen.obj
 0001:0004ea20       ??APlaneList@@QBEABVSOL_Plane@@H@Z 0044fa20 f i Screen.obj
 0001:0004ea40       ?FixedPri@ScreenItem@@QBEHXZ 0044fa40 f i Screen.obj
 0001:0004ea40       ?DeleteCount@SOL_Plane@@QBEHXZ 0044fa40 f i Screen.obj
 0001:0004ea60       ?PriorityCount@SOL_Plane@@QAEHXZ 0044fa60 f i Screen.obj
 0001:0004ea80       ?RedrawAllCount@SOL_Plane@@QBEHXZ 0044fa80 f i Screen.obj
 0001:0004eaa0       ?UpdateCount@SOL_Plane@@QBEHXZ 0044faa0 f i Screen.obj
 0001:0004eac0       ?DecAddCount@SOL_Plane@@QAEXXZ 0044fac0 f i Screen.obj
 0001:0004eae0       ?DecDeleteCount@SOL_Plane@@QAEXXZ 0044fae0 f i Screen.obj
 0001:0004eb00       ?DecPriorityCount@SOL_Plane@@QAEXXZ 0044fb00 f i Screen.obj
 0001:0004eb20       ?DecUpdateCount@SOL_Plane@@QAEXXZ 0044fb20 f i Screen.obj
 0001:0004eb40       ??ARectList@@QAEAAVSOL_Rect@@H@Z 0044fb40 f i Screen.obj
 0001:0004eb40       ??APlaneList@@QAEAAVSOL_Plane@@H@Z 0044fb40 f i Screen.obj
 0001:0004eb40       ??AScreenItemList@@QAEAAVScreenItem@@H@Z 0044fb40 f i Screen.obj
 0001:0004eb40       ?Pointer@PlaneList@@QAEPAVSOL_Plane@@H@Z 0044fb40 f i Screen.obj
 0001:0004eb40       ??ARectList@@QBEABVSOL_Rect@@H@Z 0044fb40 f i Screen.obj
 0001:0004ec04       ??0Entrys@@QAE@XZ          0044fc04 f   Script.obj
 0001:0004ec39       ??1Entrys@@QAE@XZ          0044fc39 f   Script.obj
 0001:0004ec94       ?Add@Entrys@@QAE?AVMemID@@PAVEntry@@@Z 0044fc94 f   Script.obj
 0001:0004ed47       ?Find@Entrys@@QAEPAVEntry@@I@Z 0044fd47 f   Script.obj
 0001:0004edc0       ?Fixup@Entrys@@QAEXI@Z     0044fdc0 f   Script.obj
 0001:0004ee61       ?GetFirst@Entrys@@QAEPAVEntry@@XZ 0044fe61 f   Script.obj
 0001:0004ee7e       ?GetNext@Entrys@@QAEPAVEntry@@XZ 0044fe7e f   Script.obj
 0001:0004eeb8       ?GetFirstObject@Entrys@@QAE?AVObjectID@@XZ 0044feb8 f   Script.obj
 0001:0004eee9       ?GetNextObject@Entrys@@QAE?AVObjectID@@XZ 0044fee9 f   Script.obj
 0001:0004ef7a       _GetDispatchEntry          0044ff7a f   Script.obj
 0001:0004f002       ?LoadScript@@YA?AUScriptID@@I@Z 00450002 f   Script.obj
 0001:0004fcde       ?ReloadScript@@YAXUScriptID@@@Z 00450cde f   Script.obj
 0001:0004fded       ?ScriptPtr@@YA?AUScriptID@@I@Z 00450ded f   Script.obj
 0001:0004fec5       _GetClass                  00450ec5 f   Script.obj
 0001:0004ff75       ?GetClassByName@@YAGPAD@Z  00450f75 f   Script.obj
 0001:00050016       _LoadClassTbl              00451016 f   Script.obj
 0001:000500f1       ?DisposeAllScripts@@YAXXZ  004510f1 f   Script.obj
 0001:00050339       ?KScriptID@@YAXPAF@Z       00451339 f   Script.obj
 0001:0005038c       ?KDisposeScript@@YAXPAF@Z  0045138c f   Script.obj
 0001:00050400       ??1?$map@V?$basic_string@DU?$char_traits@D@std@@V?$allocator@D@2@@std@@HU?$less@V?$basic_string@DU?$char_traits@D@std@@V?$allocator@D@2@@std@@@2@V?$allocator@H@2@@std@@QAE@XZ 00451400 f i Script.obj
 0001:00050420       ?Contains@Entry@@QAEHI@Z   00451420 f i Script.obj
 0001:00050460       ??ADispatchTblID@@QAEAATDispatchEntry@@H@Z 00451460 f i Script.obj
 0001:00050480       ??0ScriptID@@QAE@ABU0@@Z   00451480 f i Script.obj
 0001:000504a0       ??0ScriptHeapID@@QAE@ABVMemID@@@Z 004514a0 f i Script.obj
 0001:000504c0       ?Unlock@ScriptHunkID@@QBEPAUScriptHunk@@XZ 004514c0 f i Script.obj
 0001:000504c0       ?Unlock@ScriptHeapID@@QBEPAUScriptHeap@@XZ 004514c0 f i Script.obj
 0001:000504e0       ?Get@FakeScriptEntryID@@QAEXIIIPAUMemClient@@DW4ReservedHandle@@@Z 004514e0 f i Script.obj
 0001:00050510       ??0SOL_ListID@@QAE@ABU0@@Z 00451510 f i Script.obj
 0001:00050510       ??0ArrayID@@QAE@AAVMemID@@@Z 00451510 f i Script.obj
 0001:00050510       ??0ResTagID@@QAE@ABU0@@Z   00451510 f i Script.obj
 0001:00050510       ??0ScrollEntryID@@QAE@ABV0@@Z 00451510 f i Script.obj
 0001:00050510       ??0VariableID@@QAE@ABVMemID@@@Z 00451510 f i Script.obj
 0001:00050510       ??0DispatchTblID@@QAE@ABVMemID@@@Z 00451510 f i Script.obj
 0001:00050510       ??0ObjectID@@QAE@ABVMemID@@@Z 00451510 f i Script.obj
 0001:00050530       ??0FakeObjectID@@QAE@XZ    00451530 f i Script.obj
 0001:00050530       ??0FakeClassTblID@@QAE@XZ  00451530 f i Script.obj
 0001:00050530       ??0FakeResTagID@@QAE@XZ    00451530 f i Script.obj
 0001:00050530       ??0ResMaps@@QAE@XZ         00451530 f i Script.obj
 0001:00050530       ??0FakeScriptEntryID@@QAE@XZ 00451530 f i Script.obj
 0001:00050530       ??0MsgStackID@@QAE@XZ      00451530 f i Script.obj
 0001:00050530       ??0FakeArrayID@@QAE@XZ     00451530 f i Script.obj
 0001:00050530       ??0ScriptID@@QAE@XZ        00451530 f i Script.obj
 0001:00050530       ??0FakeDispatchTblID@@QAE@XZ 00451530 f i Script.obj
 0001:00050530       ??0FakeVariableID@@QAE@XZ  00451530 f i Script.obj
 0001:00050530       ??0FakeScrollEntryID@@QAE@XZ 00451530 f i Script.obj
 0001:00050530       ??0FakeSOL_ListID@@QAE@XZ  00451530 f i Script.obj
 0001:00050530       ??0FakeScrollWindowID@@QAE@XZ 00451530 f i Script.obj
 0001:00050550       ?Get@ScriptID@@QAEXXZ      00451550 f i Script.obj
 0001:000505b0       ??0Script@@QAE@XZ          004515b0 f i Script.obj
 0001:00050620       ??AClassTblID@@QAEAAUClassTblEntry@@H@Z 00451620 f i Script.obj
 0001:00050640       ??DFakeClassTblID@@QBEPAUClassTbl@@XZ 00451640 f i Script.obj
 0001:00050660       ??0CSCI_Object@@QAE@ABVObjectID@@@Z 00451660 f i Script.obj
 0001:00050660       ??0CSCI_Object@@QAE@ABVMemID@@@Z 00451660 f i Script.obj
 0001:00050680       ?get_name@CSCI_Object@@QAE?AVStringID@@XZ 00451680 f i Script.obj
 0001:000506c0       ??0ObjectIDEntry@@QAE@VMemID@@AAI@Z 004516c0 f i Script.obj
 0001:00050740       ?Size@Object@@QAEFXZ       00451740 f i Script.obj
 0001:00050760       ??0Entry@@QAE@IIW4MemType@@W4Type@ScriptEntry@@@Z 00451760 f i Script.obj
 0001:000507b0       ?Fixup@Entry@@UAE?AVMemID@@PAVEntrys@@I@Z 004517b0 f i Script.obj
 0001:00050810       ??0StringIDEntry@@QAE@VMemID@@AAI@Z 00451810 f i Script.obj
 0001:00050870       ??0Entry@@QAE@VMemID@@AAIIW4MemType@@W4Type@ScriptEntry@@I@Z 00451870 f i Script.obj
 0001:00050900       ?Get@MemID@@QAEXW4MemType@@V1@III@Z 00451900 f i Script.obj
 0001:00050950       ??0VariablesIDEntry@@QAE@VMemID@@AAII@Z 00451950 f i Script.obj
 0001:000509a0       ??0CodeIDEntry@@QAE@VMemID@@AAII@Z 004519a0 f i Script.obj
 0001:00050a00       ?Fixup@CodeIDEntry@@UAE?AVMemID@@PAVEntrys@@I@Z 00451a00 f i Script.obj
 0001:00050a60       ?AddFixup@CodeIDEntry@@QAEXVMemID@@I@Z 00451a60 f i Script.obj
 0001:00050b10       ??0DispatchesIDEntry@@QAE@VMemID@@AAI@Z 00451b10 f i Script.obj
 0001:00050b70       ?Get@FakeClassTblID@@QAEXIIIPAUMemClient@@DW4ReservedHandle@@@Z 00451b70 f i Script.obj
 0001:00050ba0       ??AScriptEntryID@@QAEAAUScriptEntry@@H@Z 00451ba0 f i Script.obj
 0001:00050bc0       ??0?$map@V?$basic_string@DU?$char_traits@D@std@@V?$allocator@D@2@@std@@HU?$less@V?$basic_string@DU?$char_traits@D@std@@V?$allocator@D@2@@std@@@2@V?$allocator@H@2@@std@@QAE@ABU?$less@V?$basic_string@DU?$char_traits@D@std@@V?$allocator@D@2@@std@@@1@ABV?$allocator@H@1@@Z 00451bc0 f i Script.obj
 0001:00050bf0       ??A?$map@V?$basic_string@DU?$char_traits@D@std@@V?$allocator@D@2@@std@@HU?$less@V?$basic_string@DU?$char_traits@D@std@@V?$allocator@D@2@@std@@@2@V?$allocator@H@2@@std@@QAEAAHABV?$basic_string@DU?$char_traits@D@std@@V?$allocator@D@2@@1@@Z 00451bf0 f i Script.obj
 0001:00050c80       ?find@?$map@V?$basic_string@DU?$char_traits@D@std@@V?$allocator@D@2@@std@@HU?$less@V?$basic_string@DU?$char_traits@D@std@@V?$allocator@D@2@@std@@@2@V?$allocator@H@2@@std@@QAE?AViterator@?$_Tree@V?$basic_string@DU?$char_traits@D@std@@V?$allocator@D@2@@std@@U?$pair@$$CBV?$basic_string@DU?$char_traits@D@std@@V?$allocator@D@2@@std@@H@2@U_Kfn@?$map@V?$basic_string@DU?$char_traits@D@std@@V?$allocator@D@2@@std@@HU?$less@V?$basic_string@DU?$char_traits@D@std@@V?$allocator@D@2@@std@@@2@V?$allocator@H@2@@2@U?$less@V?$basic_string@DU?$char_traits@D@std@@V?$allocator@D@2@@std@@@2@V?$allocator@H@2@@2@ABV?$basic_string@DU?$char_traits@D@std@@V?$allocator@D@2@@2@@Z 00451c80 f i Script.obj
 0001:00050cb0       ??1?$_Tree@V?$basic_string@DU?$char_traits@D@std@@V?$allocator@D@2@@std@@U?$pair@$$CBV?$basic_string@DU?$char_traits@D@std@@V?$allocator@D@2@@std@@H@2@U_Kfn@?$map@V?$basic_string@DU?$char_traits@D@std@@V?$allocator@D@2@@std@@HU?$less@V?$basic_string@DU?$char_traits@D@std@@V?$allocator@D@2@@std@@@2@V?$allocator@H@2@@2@U?$less@V?$basic_string@DU?$char_traits@D@std@@V?$allocator@D@2@@std@@@2@V?$allocator@H@2@@std@@QAE@XZ 00451cb0 f i Script.obj
 0001:00050d80       ??9iterator@?$_Tree@V?$basic_string@DU?$char_traits@D@std@@V?$allocator@D@2@@std@@U?$pair@$$CBV?$basic_string@DU?$char_traits@D@std@@V?$allocator@D@2@@std@@PAVCPrivateTell@@@2@U_Kfn@?$map@V?$basic_string@DU?$char_traits@D@std@@V?$allocator@D@2@@std@@PAVCPrivateTell@@U?$less@V?$basic_string@DU?$char_traits@D@std@@V?$allocator@D@2@@std@@@2@V?$allocator@PAVCPrivateTell@@@2@@2@U?$less@V?$basic_string@DU?$char_traits@D@std@@V?$allocator@D@2@@std@@@2@V?$allocator@PAVCPrivateTell@@@2@@std@@QBE_NABV012@@Z 00451d80 f i Script.obj
 0001:00050d80       ??9iterator@?$_Tree@V?$basic_string@DU?$char_traits@D@std@@V?$allocator@D@2@@std@@U?$pair@$$CBV?$basic_string@DU?$char_traits@D@std@@V?$allocator@D@2@@std@@H@2@U_Kfn@?$map@V?$basic_string@DU?$char_traits@D@std@@V?$allocator@D@2@@std@@HU?$less@V?$basic_string@DU?$char_traits@D@std@@V?$allocator@D@2@@std@@@2@V?$allocator@H@2@@2@U?$less@V?$basic_string@DU?$char_traits@D@std@@V?$allocator@D@2@@std@@@2@V?$allocator@H@2@@std@@QBE_NABV012@@Z 00451d80 f i Script.obj
 0001:00050db0       ?insert@?$map@V?$basic_string@DU?$char_traits@D@std@@V?$allocator@D@2@@std@@HU?$less@V?$basic_string@DU?$char_traits@D@std@@V?$allocator@D@2@@std@@@2@V?$allocator@H@2@@std@@QAE?AU?$pair@Viterator@?$_Tree@V?$basic_string@DU?$char_traits@D@std@@V?$allocator@D@2@@std@@U?$pair@$$CBV?$basic_string@DU?$char_traits@D@std@@V?$allocator@D@2@@std@@H@2@U_Kfn@?$map@V?$basic_string@DU?$char_traits@D@std@@V?$allocator@D@2@@std@@HU?$less@V?$basic_string@DU?$char_traits@D@std@@V?$allocator@D@2@@std@@@2@V?$allocator@H@2@@2@U?$less@V?$basic_string@DU?$char_traits@D@std@@V?$allocator@D@2@@std@@@2@V?$allocator@H@2@@std@@_N@2@ABU?$pair@$$CBV?$basic_string@DU?$char_traits@D@std@@V?$allocator@D@2@@std@@H@2@@Z 00451db0 f i Script.obj
 0001:00050e00       ?_Value@?$_Tree@PAUHWND__@@U?$pair@QAUHWND__@@PAVCDropTarget@@@std@@U_Kfn@?$map@PAUHWND__@@PAVCDropTarget@@U?$less@PAUHWND__@@@std@@V?$allocator@PAVCDropTarget@@@4@@3@U?$less@PAUHWND__@@@3@V?$allocator@PAVCDropTarget@@@3@@std@@KAAAU?$pair@QAUHWND__@@PAVCDropTarget@@@2@PAU_Node@12@@Z 00451e00 f i Script.obj
 0001:00050e00       ?_Value@?$_Tree@V?$basic_string@DU?$char_traits@D@std@@V?$allocator@D@2@@std@@U?$pair@$$CBV?$basic_string@DU?$char_traits@D@std@@V?$allocator@D@2@@std@@VCPoint@@@2@U_Kfn@?$map@V?$basic_string@DU?$char_traits@D@std@@V?$allocator@D@2@@std@@VCPoint@@U?$less@V?$basic_string@DU?$char_traits@D@std@@V?$allocator@D@2@@std@@@2@V?$allocator@VCPoint@@@2@@2@U?$less@V?$basic_string@DU?$char_traits@D@std@@V?$allocator@D@2@@std@@@2@V?$allocator@VCPoint@@@2@@std@@KAAAU?$pair@$$CBV?$basic_string@DU?$char_traits@D@std@@V?$allocator@D@2@@std@@VCPoint@@@2@PAU_Node@12@@Z 00451e00 f i Script.obj
 0001:00050e00       ?_Value@?$_Tree@PAUHWND__@@U?$pair@QAUHWND__@@PAVCSkinWnd@@@std@@U_Kfn@?$map@PAUHWND__@@PAVCSkinWnd@@U?$less@PAUHWND__@@@std@@V?$allocator@PAVCSkinWnd@@@4@@3@U?$less@PAUHWND__@@@3@V?$allocator@PAVCSkinWnd@@@3@@std@@KAAAU?$pair@QAUHWND__@@PAVCSkinWnd@@@2@PAU_Node@12@@Z 00451e00 f i Script.obj
 0001:00050e00       ?_Value@?$_Tree@V?$basic_string@DU?$char_traits@D@std@@V?$allocator@D@2@@std@@U?$pair@$$CBV?$basic_string@DU?$char_traits@D@std@@V?$allocator@D@2@@std@@PAVCPrivateTell@@@2@U_Kfn@?$map@V?$basic_string@DU?$char_traits@D@std@@V?$allocator@D@2@@std@@PAVCPrivateTell@@U?$less@V?$basic_string@DU?$char_traits@D@std@@V?$allocator@D@2@@std@@@2@V?$allocator@PAVCPrivateTell@@@2@@2@U?$less@V?$basic_string@DU?$char_traits@D@std@@V?$allocator@D@2@@std@@@2@V?$allocator@PAVCPrivateTell@@@2@@std@@KAAAU?$pair@$$CBV?$basic_string@DU?$char_traits@D@std@@V?$allocator@D@2@@std@@PAVCPrivateTell@@@2@PAU_Node@12@@Z 00451e00 f i Script.obj
 0001:00050e00       ?_Value@?$_Tree@VCSCI_WorldObject@@U?$pair@$$CBVCSCI_WorldObject@@PAVCInventoryDlg@@@std@@U_Kfn@?$map@VCSCI_WorldObject@@PAVCInventoryDlg@@U?$less@VCSCI_WorldObject@@@std@@V?$allocator@PAVCInventoryDlg@@@4@@3@U?$less@VCSCI_WorldObject@@@3@V?$allocator@PAVCInventoryDlg@@@3@@std@@KAAAU?$pair@$$CBVCSCI_WorldObject@@PAVCInventoryDlg@@@2@PAU_Node@12@@Z 00451e00 f i Script.obj
 0001:00050e00       ?_Value@?$_Tree@VCSkinObj@@U?$pair@$$CBVCSkinObj@@PAVCFastScrollCtrl@@@std@@U_Kfn@?$map@VCSkinObj@@PAVCFastScrollCtrl@@U?$less@VCSkinObj@@@std@@V?$allocator@PAVCFastScrollCtrl@@@4@@3@U?$less@VCSkinObj@@@3@V?$allocator@PAVCFastScrollCtrl@@@3@@std@@KAAAU?$pair@$$CBVCSkinObj@@PAVCFastScrollCtrl@@@2@PAU_Node@12@@Z 00451e00 f i Script.obj
 0001:00050e00       ?_Value@?$_Tree@VCSkinObj@@U?$pair@$$CBVCSkinObj@@PAVCSkinCtrl@@@std@@U_Kfn@?$map@VCSkinObj@@PAVCSkinCtrl@@U?$less@VCSkinObj@@@std@@V?$allocator@PAVCSkinCtrl@@@4@@3@U?$less@VCSkinObj@@@3@V?$allocator@PAVCSkinCtrl@@@3@@std@@KAAAU?$pair@$$CBVCSkinObj@@PAVCSkinCtrl@@@2@PAU_Node@12@@Z 00451e00 f i Script.obj
 0001:00050e00       ?_Value@?$_Tree@HU?$pair@$$CBHPAVCVerbBtn@@@std@@U_Kfn@?$map@HPAVCVerbBtn@@U?$less@H@std@@V?$allocator@PAVCVerbBtn@@@3@@2@U?$less@H@2@V?$allocator@PAVCVerbBtn@@@2@@std@@KAAAU?$pair@$$CBHPAVCVerbBtn@@@2@PAU_Node@12@@Z 00451e00 f i Script.obj
 0001:00050e00       ?_Value@?$_Tree@HU?$pair@$$CBHVCSCI_WorldObject@@@std@@U_Kfn@?$map@HVCSCI_WorldObject@@U?$less@H@std@@V?$allocator@VCSCI_WorldObject@@@3@@2@U?$less@H@2@V?$allocator@VCSCI_WorldObject@@@2@@std@@KAAAU?$pair@$$CBHVCSCI_WorldObject@@@2@PAU_Node@12@@Z 00451e00 f i Script.obj
 0001:00050e00       ?_Value@?$_Tree@VCString@@U?$pair@$$CBVCString@@VCPerson@@@std@@U_Kfn@?$map@VCString@@VCPerson@@U?$less@VCString@@@std@@V?$allocator@VCPerson@@@4@@3@U?$less@VCString@@@3@V?$allocator@VCPerson@@@3@@std@@KAAAU?$pair@$$CBVCString@@VCPerson@@@2@PAU_Node@12@@Z 00451e00 f i Script.obj
 0001:00050e00       ?_Value@?$_Tree@HU?$pair@$$CBHPAVCVerb@@@std@@U_Kfn@?$map@HPAVCVerb@@U?$less@H@std@@V?$allocator@PAVCVerb@@@3@@2@U?$less@H@2@V?$allocator@PAVCVerb@@@2@@std@@KAAAU?$pair@$$CBHPAVCVerb@@@2@PAU_Node@12@@Z 00451e00 f i Script.obj
 0001:00050e00       ?_Value@?$_Tree@PAUHWND__@@U?$pair@QAUHWND__@@PAVCMouseWheelable@@@std@@U_Kfn@?$map@PAUHWND__@@PAVCMouseWheelable@@U?$less@PAUHWND__@@@std@@V?$allocator@PAVCMouseWheelable@@@4@@3@U?$less@PAUHWND__@@@3@V?$allocator@PAVCMouseWheelable@@@3@@std@@KAAAU?$pair@QAUHWND__@@PAVCMouseWheelable@@@2@PAU_Node@12@@Z 00451e00 f i Script.obj
 0001:00050e00       ?_Value@?$_Tree@PAVCSkinWnd@@PAV1@U_Kfn@?$set@PAVCSkinWnd@@U?$less@PAVCSkinWnd@@@std@@V?$allocator@PAVCSkinWnd@@@3@@std@@U?$less@PAVCSkinWnd@@@4@V?$allocator@PAVCSkinWnd@@@4@@std@@KAAAPAVCSkinWnd@@PAU_Node@12@@Z 00451e00 f i Script.obj
 0001:00050e00       ?_Value@?$_Tree@PAVCSkinCtrl@@PAV1@U_Kfn@?$set@PAVCSkinCtrl@@U?$less@PAVCSkinCtrl@@@std@@V?$allocator@PAVCSkinCtrl@@@3@@std@@U?$less@PAVCSkinCtrl@@@4@V?$allocator@PAVCSkinCtrl@@@4@@std@@KAAAPAVCSkinCtrl@@PAU_Node@12@@Z 00451e00 f i Script.obj
 0001:00050e00       ?_Value@?$_Tree@HU?$pair@$$CBHPAVCMailMsg@@@std@@U_Kfn@?$map@HPAVCMailMsg@@U?$less@H@std@@V?$allocator@PAVCMailMsg@@@3@@2@U?$less@H@2@V?$allocator@PAVCMailMsg@@@2@@std@@KAAAU?$pair@$$CBHPAVCMailMsg@@@2@PAU_Node@12@@Z 00451e00 f i Script.obj
 0001:00050e00       ?_Value@?$_Tree@HU?$pair@$$CBHPAVCMailMsgWnd@@@std@@U_Kfn@?$map@HPAVCMailMsgWnd@@U?$less@H@std@@V?$allocator@PAVCMailMsgWnd@@@3@@2@U?$less@H@2@V?$allocator@PAVCMailMsgWnd@@@2@@std@@KAAAU?$pair@$$CBHPAVCMailMsgWnd@@@2@PAU_Node@12@@Z 00451e00 f i Script.obj
 0001:00050e00       ?_Value@?$_Tree@VCSCI_Object@@U?$pair@$$CBVCSCI_Object@@PAVCNoButtonDlg@@@std@@U_Kfn@?$map@VCSCI_Object@@PAVCNoButtonDlg@@U?$less@VCSCI_Object@@@std@@V?$allocator@PAVCNoButtonDlg@@@4@@3@U?$less@VCSCI_Object@@@3@V?$allocator@PAVCNoButtonDlg@@@3@@std@@KAAAU?$pair@$$CBVCSCI_Object@@PAVCNoButtonDlg@@@2@PAU_Node@12@@Z 00451e00 f i Script.obj
 0001:00050e00       ?_Value@?$_Tree@V?$basic_string@DU?$char_traits@D@std@@V?$allocator@D@2@@std@@U?$pair@$$CBV?$basic_string@DU?$char_traits@D@std@@V?$allocator@D@2@@std@@H@2@U_Kfn@?$map@V?$basic_string@DU?$char_traits@D@std@@V?$allocator@D@2@@std@@HU?$less@V?$basic_string@DU?$char_traits@D@std@@V?$allocator@D@2@@std@@@2@V?$allocator@H@2@@2@U?$less@V?$basic_string@DU?$char_traits@D@std@@V?$allocator@D@2@@std@@@2@V?$allocator@H@2@@std@@KAAAU?$pair@$$CBV?$basic_string@DU?$char_traits@D@std@@V?$allocator@D@2@@std@@H@2@PAU_Node@12@@Z 00451e00 f i Script.obj
 0001:00050e10       ??0?$_Tree@V?$basic_string@DU?$char_traits@D@std@@V?$allocator@D@2@@std@@U?$pair@$$CBV?$basic_string@DU?$char_traits@D@std@@V?$allocator@D@2@@std@@H@2@U_Kfn@?$map@V?$basic_string@DU?$char_traits@D@std@@V?$allocator@D@2@@std@@HU?$less@V?$basic_string@DU?$char_traits@D@std@@V?$allocator@D@2@@std@@@2@V?$allocator@H@2@@2@U?$less@V?$basic_string@DU?$char_traits@D@std@@V?$allocator@D@2@@std@@@2@V?$allocator@H@2@@std@@QAE@ABU?$less@V?$basic_string@DU?$char_traits@D@std@@V?$allocator@D@2@@std@@@1@_NABV?$allocator@H@1@@Z 00451e10 f i Script.obj
 0001:00050e50       ?erase@?$_Tree@V?$basic_string@DU?$char_traits@D@std@@V?$allocator@D@2@@std@@U?$pair@$$CBV?$basic_string@DU?$char_traits@D@std@@V?$allocator@D@2@@std@@H@2@U_Kfn@?$map@V?$basic_string@DU?$char_traits@D@std@@V?$allocator@D@2@@std@@HU?$less@V?$basic_string@DU?$char_traits@D@std@@V?$allocator@D@2@@std@@@2@V?$allocator@H@2@@2@U?$less@V?$basic_string@DU?$char_traits@D@std@@V?$allocator@D@2@@std@@@2@V?$allocator@H@2@@std@@QAE?AViterator@12@V312@0@Z 00451e50 f i Script.obj
 0001:00050f90       ?find@?$_Tree@V?$basic_string@DU?$char_traits@D@std@@V?$allocator@D@2@@std@@U?$pair@$$CBV?$basic_string@DU?$char_traits@D@std@@V?$allocator@D@2@@std@@H@2@U_Kfn@?$map@V?$basic_string@DU?$char_traits@D@std@@V?$allocator@D@2@@std@@HU?$less@V?$basic_string@DU?$char_traits@D@std@@V?$allocator@D@2@@std@@@2@V?$allocator@H@2@@2@U?$less@V?$basic_string@DU?$char_traits@D@std@@V?$allocator@D@2@@std@@@2@V?$allocator@H@2@@std@@QAE?AViterator@12@ABV?$basic_string@DU?$char_traits@D@std@@V?$allocator@D@2@@2@@Z 00451f90 f i Script.obj
 0001:00051030       ??R?$less@V?$basic_string@DU?$char_traits@D@std@@V?$allocator@D@2@@std@@@std@@QBE_NABV?$basic_string@DU?$char_traits@D@std@@V?$allocator@D@2@@1@0@Z 00452030 f i Script.obj
 0001:00051050       ?insert@?$_Tree@V?$basic_string@DU?$char_traits@D@std@@V?$allocator@D@2@@std@@U?$pair@$$CBV?$basic_string@DU?$char_traits@D@std@@V?$allocator@D@2@@std@@H@2@U_Kfn@?$map@V?$basic_string@DU?$char_traits@D@std@@V?$allocator@D@2@@std@@HU?$less@V?$basic_string@DU?$char_traits@D@std@@V?$allocator@D@2@@std@@@2@V?$allocator@H@2@@2@U?$less@V?$basic_string@DU?$char_traits@D@std@@V?$allocator@D@2@@std@@@2@V?$allocator@H@2@@std@@QAE?AU?$pair@Viterator@?$_Tree@V?$basic_string@DU?$char_traits@D@std@@V?$allocator@D@2@@std@@U?$pair@$$CBV?$basic_string@DU?$char_traits@D@std@@V?$allocator@D@2@@std@@H@2@U_Kfn@?$map@V?$basic_string@DU?$char_traits@D@std@@V?$allocator@D@2@@std@@HU?$less@V?$basic_string@DU?$char_traits@D@std@@V?$allocator@D@2@@std@@@2@V?$allocator@H@2@@2@U?$less@V?$basic_string@DU?$char_traits@D@std@@V?$allocator@D@2@@std@@@2@V?$allocator@H@2@@std@@_N@2@ABU?$pair@$$CBV?$basic_string@DU?$char_traits@D@std@@V?$allocator@D@2@@std@@H@2@@Z 00452050 f i Script.obj
 0001:00051290       ?erase@?$_Tree@V?$basic_string@DU?$char_traits@D@std@@V?$allocator@D@2@@std@@U?$pair@$$CBV?$basic_string@DU?$char_traits@D@std@@V?$allocator@D@2@@std@@H@2@U_Kfn@?$map@V?$basic_string@DU?$char_traits@D@std@@V?$allocator@D@2@@std@@HU?$less@V?$basic_string@DU?$char_traits@D@std@@V?$allocator@D@2@@std@@@2@V?$allocator@H@2@@2@U?$less@V?$basic_string@DU?$char_traits@D@std@@V?$allocator@D@2@@std@@@2@V?$allocator@H@2@@std@@QAE?AViterator@12@V312@@Z 00452290 f i Script.obj
 0001:00051ae0       ?lower_bound@?$_Tree@V?$basic_string@DU?$char_traits@D@std@@V?$allocator@D@2@@std@@U?$pair@$$CBV?$basic_string@DU?$char_traits@D@std@@V?$allocator@D@2@@std@@H@2@U_Kfn@?$map@V?$basic_string@DU?$char_traits@D@std@@V?$allocator@D@2@@std@@HU?$less@V?$basic_string@DU?$char_traits@D@std@@V?$allocator@D@2@@std@@@2@V?$allocator@H@2@@2@U?$less@V?$basic_string@DU?$char_traits@D@std@@V?$allocator@D@2@@std@@@2@V?$allocator@H@2@@std@@QAE?AViterator@12@ABV?$basic_string@DU?$char_traits@D@std@@V?$allocator@D@2@@2@@Z 00452ae0 f i Script.obj
 0001:00051b10       ?_Erase@?$_Tree@V?$basic_string@DU?$char_traits@D@std@@V?$allocator@D@2@@std@@U?$pair@$$CBV?$basic_string@DU?$char_traits@D@std@@V?$allocator@D@2@@std@@H@2@U_Kfn@?$map@V?$basic_string@DU?$char_traits@D@std@@V?$allocator@D@2@@std@@HU?$less@V?$basic_string@DU?$char_traits@D@std@@V?$allocator@D@2@@std@@@2@V?$allocator@H@2@@2@U?$less@V?$basic_string@DU?$char_traits@D@std@@V?$allocator@D@2@@std@@@2@V?$allocator@H@2@@std@@IAEXPAU_Node@12@@Z 00452b10 f i Script.obj
 0001:00051bd0       ?_Init@?$_Tree@V?$basic_string@DU?$char_traits@D@std@@V?$allocator@D@2@@std@@U?$pair@$$CBV?$basic_string@DU?$char_traits@D@std@@V?$allocator@D@2@@std@@H@2@U_Kfn@?$map@V?$basic_string@DU?$char_traits@D@std@@V?$allocator@D@2@@std@@HU?$less@V?$basic_string@DU?$char_traits@D@std@@V?$allocator@D@2@@std@@@2@V?$allocator@H@2@@2@U?$less@V?$basic_string@DU?$char_traits@D@std@@V?$allocator@D@2@@std@@@2@V?$allocator@H@2@@std@@IAEXXZ 00452bd0 f i Script.obj
 0001:00051cb0       ??Eiterator@?$_Tree@V?$basic_string@DU?$char_traits@D@std@@V?$allocator@D@2@@std@@U?$pair@$$CBV?$basic_string@DU?$char_traits@D@std@@V?$allocator@D@2@@std@@H@2@U_Kfn@?$map@V?$basic_string@DU?$char_traits@D@std@@V?$allocator@D@2@@std@@HU?$less@V?$basic_string@DU?$char_traits@D@std@@V?$allocator@D@2@@std@@@2@V?$allocator@H@2@@2@U?$less@V?$basic_string@DU?$char_traits@D@std@@V?$allocator@D@2@@std@@@2@V?$allocator@H@2@@std@@QAE?AV012@H@Z 00452cb0 f i Script.obj
 0001:00051ce0       ?_Insert@?$_Tree@V?$basic_string@DU?$char_traits@D@std@@V?$allocator@D@2@@std@@U?$pair@$$CBV?$basic_string@DU?$char_traits@D@std@@V?$allocator@D@2@@std@@H@2@U_Kfn@?$map@V?$basic_string@DU?$char_traits@D@std@@V?$allocator@D@2@@std@@HU?$less@V?$basic_string@DU?$char_traits@D@std@@V?$allocator@D@2@@std@@@2@V?$allocator@H@2@@2@U?$less@V?$basic_string@DU?$char_traits@D@std@@V?$allocator@D@2@@std@@@2@V?$allocator@H@2@@std@@IAE?AViterator@12@PAU_Node@12@0ABU?$pair@$$CBV?$basic_string@DU?$char_traits@D@std@@V?$allocator@D@2@@std@@H@2@@Z 00452ce0 f i Script.obj
 0001:000521b0       ?_Lbound@?$_Tree@V?$basic_string@DU?$char_traits@D@std@@V?$allocator@D@2@@std@@U?$pair@$$CBV?$basic_string@DU?$char_traits@D@std@@V?$allocator@D@2@@std@@H@2@U_Kfn@?$map@V?$basic_string@DU?$char_traits@D@std@@V?$allocator@D@2@@std@@HU?$less@V?$basic_string@DU?$char_traits@D@std@@V?$allocator@D@2@@std@@@2@V?$allocator@H@2@@2@U?$less@V?$basic_string@DU?$char_traits@D@std@@V?$allocator@D@2@@std@@@2@V?$allocator@H@2@@std@@IBEPAU_Node@12@ABV?$basic_string@DU?$char_traits@D@std@@V?$allocator@D@2@@2@@Z 004531b0 f i Script.obj
 0001:00052280       ?_Lrotate@?$_Tree@V?$basic_string@DU?$char_traits@D@std@@V?$allocator@D@2@@std@@U?$pair@$$CBV?$basic_string@DU?$char_traits@D@std@@V?$allocator@D@2@@std@@H@2@U_Kfn@?$map@V?$basic_string@DU?$char_traits@D@std@@V?$allocator@D@2@@std@@HU?$less@V?$basic_string@DU?$char_traits@D@std@@V?$allocator@D@2@@std@@@2@V?$allocator@H@2@@2@U?$less@V?$basic_string@DU?$char_traits@D@std@@V?$allocator@D@2@@std@@@2@V?$allocator@H@2@@std@@IAEXPAU_Node@12@@Z 00453280 f i Script.obj
 0001:000523f0       ?_Max@?$_Tree@V?$basic_string@DU?$char_traits@D@std@@V?$allocator@D@2@@std@@U?$pair@$$CBV?$basic_string@DU?$char_traits@D@std@@V?$allocator@D@2@@std@@H@2@U_Kfn@?$map@V?$basic_string@DU?$char_traits@D@std@@V?$allocator@D@2@@std@@HU?$less@V?$basic_string@DU?$char_traits@D@std@@V?$allocator@D@2@@std@@@2@V?$allocator@H@2@@2@U?$less@V?$basic_string@DU?$char_traits@D@std@@V?$allocator@D@2@@std@@@2@V?$allocator@H@2@@std@@KAPAU_Node@12@PAU312@@Z 004533f0 f i Script.obj
 0001:00052470       ?_Min@?$_Tree@V?$basic_string@DU?$char_traits@D@std@@V?$allocator@D@2@@std@@U?$pair@$$CBV?$basic_string@DU?$char_traits@D@std@@V?$allocator@D@2@@std@@H@2@U_Kfn@?$map@V?$basic_string@DU?$char_traits@D@std@@V?$allocator@D@2@@std@@HU?$less@V?$basic_string@DU?$char_traits@D@std@@V?$allocator@D@2@@std@@@2@V?$allocator@H@2@@2@U?$less@V?$basic_string@DU?$char_traits@D@std@@V?$allocator@D@2@@std@@@2@V?$allocator@H@2@@std@@KAPAU_Node@12@PAU312@@Z 00453470 f i Script.obj
 0001:000524f0       ?_Rrotate@?$_Tree@V?$basic_string@DU?$char_traits@D@std@@V?$allocator@D@2@@std@@U?$pair@$$CBV?$basic_string@DU?$char_traits@D@std@@V?$allocator@D@2@@std@@H@2@U_Kfn@?$map@V?$basic_string@DU?$char_traits@D@std@@V?$allocator@D@2@@std@@HU?$less@V?$basic_string@DU?$char_traits@D@std@@V?$allocator@D@2@@std@@@2@V?$allocator@H@2@@2@U?$less@V?$basic_string@DU?$char_traits@D@std@@V?$allocator@D@2@@std@@@2@V?$allocator@H@2@@std@@IAEXPAU_Node@12@@Z 004534f0 f i Script.obj
 0001:00052660       ??Eiterator@?$_Tree@V?$basic_string@DU?$char_traits@D@std@@V?$allocator@D@2@@std@@U?$pair@$$CBV?$basic_string@DU?$char_traits@D@std@@V?$allocator@D@2@@std@@H@2@U_Kfn@?$map@V?$basic_string@DU?$char_traits@D@std@@V?$allocator@D@2@@std@@HU?$less@V?$basic_string@DU?$char_traits@D@std@@V?$allocator@D@2@@std@@@2@V?$allocator@H@2@@2@U?$less@V?$basic_string@DU?$char_traits@D@std@@V?$allocator@D@2@@std@@@2@V?$allocator@H@2@@std@@QAEAAV012@XZ 00453660 f i Script.obj
 0001:00052680       ??Fiterator@?$_Tree@V?$basic_string@DU?$char_traits@D@std@@V?$allocator@D@2@@std@@U?$pair@$$CBV?$basic_string@DU?$char_traits@D@std@@V?$allocator@D@2@@std@@H@2@U_Kfn@?$map@V?$basic_string@DU?$char_traits@D@std@@V?$allocator@D@2@@std@@HU?$less@V?$basic_string@DU?$char_traits@D@std@@V?$allocator@D@2@@std@@@2@V?$allocator@H@2@@2@U?$less@V?$basic_string@DU?$char_traits@D@std@@V?$allocator@D@2@@std@@@2@V?$allocator@H@2@@std@@QAEAAV012@XZ 00453680 f i Script.obj
 0001:000526a0       ?_Consval@?$_Tree@V?$basic_string@DU?$char_traits@D@std@@V?$allocator@D@2@@std@@U?$pair@$$CBV?$basic_string@DU?$char_traits@D@std@@V?$allocator@D@2@@std@@H@2@U_Kfn@?$map@V?$basic_string@DU?$char_traits@D@std@@V?$allocator@D@2@@std@@HU?$less@V?$basic_string@DU?$char_traits@D@std@@V?$allocator@D@2@@std@@@2@V?$allocator@H@2@@2@U?$less@V?$basic_string@DU?$char_traits@D@std@@V?$allocator@D@2@@std@@@2@V?$allocator@H@2@@std@@IAEXPAU?$pair@$$CBV?$basic_string@DU?$char_traits@D@std@@V?$allocator@D@2@@std@@H@2@ABU32@@Z 004536a0 f i Script.obj
 0001:000526c0       ?_Dec@const_iterator@?$_Tree@V?$basic_string@DU?$char_traits@D@std@@V?$allocator@D@2@@std@@U?$pair@$$CBV?$basic_string@DU?$char_traits@D@std@@V?$allocator@D@2@@std@@H@2@U_Kfn@?$map@V?$basic_string@DU?$char_traits@D@std@@V?$allocator@D@2@@std@@HU?$less@V?$basic_string@DU?$char_traits@D@std@@V?$allocator@D@2@@std@@@2@V?$allocator@H@2@@2@U?$less@V?$basic_string@DU?$char_traits@D@std@@V?$allocator@D@2@@std@@@2@V?$allocator@H@2@@std@@QAEXXZ 004536c0 f i Script.obj
 0001:000527d0       ?_Inc@const_iterator@?$_Tree@V?$basic_string@DU?$char_traits@D@std@@V?$allocator@D@2@@std@@U?$pair@$$CBV?$basic_string@DU?$char_traits@D@std@@V?$allocator@D@2@@std@@H@2@U_Kfn@?$map@V?$basic_string@DU?$char_traits@D@std@@V?$allocator@D@2@@std@@HU?$less@V?$basic_string@DU?$char_traits@D@std@@V?$allocator@D@2@@std@@@2@V?$allocator@H@2@@2@U?$less@V?$basic_string@DU?$char_traits@D@std@@V?$allocator@D@2@@std@@@2@V?$allocator@H@2@@std@@QAEXXZ 004537d0 f i Script.obj
 0001:000528b0       ?_Allocate@std@@YAPADHPAD@Z 004538b0 f i Script.obj
 0001:000528d0       ?_Construct@std@@YAXPAU?$pair@$$CBV?$basic_string@DU?$char_traits@D@std@@V?$allocator@D@2@@std@@H@1@ABU21@@Z 004538d0 f i Script.obj
 0001:00052940       ??2@YAPAXIPAX@Z            00453940 f i Script.obj
 0001:00052950       ?AddPalShift@@YAHH@Z       00453950 f   Shiftpal.obj
 0001:00052972       ?ShiftPaletteView@@YAXPAE@Z 00453972 f   Shiftpal.obj
 0001:00052a1b       ?ShiftPalettePic@@YAXPAE@Z 00453a1b f   Shiftpal.obj
 0001:00052a83       ?ShiftPaletteCel@@YAXPAEJ@Z 00453a83 f   Shiftpal.obj
 0001:00052cd0       ?KSetShowStyle@@YAXPAF@Z   00453cd0 f   Shwstyle.obj
 0001:000530fc       ?ProcessEffects@@YAXPAVPlaneShowStyle@@@Z 004540fc f   Shwstyle.obj
 0001:00053206       ?Bitwidth@@YAHH@Z          00454206 f   Shwstyle.obj
 0001:00053231       ?PixelDissolveEffect@@YAXPAVPlaneShowStyle@@@Z 00454231 f   Shwstyle.obj
 0001:0005368b       ?IrisOutEffect@@YAXPAVPlaneShowStyle@@@Z 0045468b f   Shwstyle.obj
 0001:00053ba4       ?IrisInEffect@@YAXPAVPlaneShowStyle@@@Z 00454ba4 f   Shwstyle.obj
 0001:000541bc       ?WipeRightEffect@@YAXPAVPlaneShowStyle@@@Z 004551bc f   Shwstyle.obj
 0001:000545d7       ?WipeLeftEffect@@YAXPAVPlaneShowStyle@@@Z 004555d7 f   Shwstyle.obj
 0001:000549eb       ?WipeDownEffect@@YAXPAVPlaneShowStyle@@@Z 004559eb f   Shwstyle.obj
 0001:00054e02       ?WipeUpEffect@@YAXPAVPlaneShowStyle@@@Z 00455e02 f   Shwstyle.obj
 0001:00055211       ?HShutterOutEffect@@YAXPAVPlaneShowStyle@@@Z 00456211 f   Shwstyle.obj
 0001:00055784       ?HShutterInEffect@@YAXPAVPlaneShowStyle@@@Z 00456784 f   Shwstyle.obj
 0001:00055cfa       ?VShutterInEffect@@YAXPAVPlaneShowStyle@@@Z 00456cfa f   Shwstyle.obj
 0001:0005629c       ?VShutterOutEffect@@YAXPAVPlaneShowStyle@@@Z 0045729c f   Shwstyle.obj
 0001:00056838       ?KShowStylePercent@@YAXPAF@Z 00457838 f   Shwstyle.obj
 0001:0005689e       ?ProcessShowStyles@@YAXXZ  0045789e f   Shwstyle.obj
 0001:00056985       ?ProcessShowStyle@@YAHPAVPlaneShowStyle@@I@Z 00457985 f   Shwstyle.obj
 0001:00056a9b       ?PalMorph@@YAHPAVPlaneShowStyle@@@Z 00457a9b f   Shwstyle.obj
 0001:00056ac9       ?KSetPalStyleRange@@YAXPAF@Z 00457ac9 f   Shwstyle.obj
 0001:00056b0c       ?KSetScroll@@YAXPAF@Z      00457b0c f   Shwstyle.obj
 0001:00056e71       ?ProcessScrolls@@YAXXZ     00457e71 f   Shwstyle.obj
 0001:00056f15       ?ProcessScroll@@YAHPAVPlaneScroll@@@Z 00457f15 f   Shwstyle.obj
 0001:0005700f       ?ShutDownStyle@@YAPAVPlaneShowStyle@@PAV1@@Z 0045800f f   Shwstyle.obj
 0001:000570dd       ?KillStyle@@YAXPAVPlaneShowStyle@@@Z 004580dd f   Shwstyle.obj
 0001:000571a8       ?Plain@@YAHPAVPlaneShowStyle@@@Z 004581a8 f   Shwstyle.obj
 0001:0005721b       ?Fade@@YAHHPAVPlaneShowStyle@@@Z 0045821b f   Shwstyle.obj
 0001:00057370       ??0PlaneShowStyle@@QAE@XZ  00458370 f i Shwstyle.obj
 0001:00057390       ??0PlaneScroll@@QAE@XZ     00458390 f i Shwstyle.obj
 0001:000573b0       ?AddPic@GraphicsMgr@@QAEHJHAAVSOL_Point@@H@Z 004583b0 f i Shwstyle.obj
 0001:000573e0       ?DeletePic@GraphicsMgr@@QAEXJHH@Z 004583e0 f i Shwstyle.obj
 0001:00057410       ??1ScreenItem@@QAE@XZ      00458410 f   Si.obj
 0001:00057425       ??0ScreenItem@@QAE@PBV0@@Z 00458425 f   Si.obj
 0001:00057542       ??0ScreenItem@@QAE@JABVBitmap@@@Z 00458542 f   Si.obj
 0001:00057654       ??0ScreenItem@@QAE@JABVBitmap@@ABVSOL_Rect@@@Z 00458654 f   Si.obj
 0001:0005778a       ??0ScreenItem@@QAE@JABVBitmap@@VSOL_Point@@UScaleInfo@@@Z 0045878a f   Si.obj
 0001:000578b2       ??0ScreenItem@@QAE@JABVBitmap@@VSOL_Point@@UScaleInfo@@H@Z 004588b2 f   Si.obj
 0001:000579c7       ??0ScreenItem@@QAE@ABVObjectID@@@Z 004589c7 f   Si.obj
 0001:00057dac       ??4ScreenItem@@QAEAAV0@ABVObjectID@@@Z 00458dac f   Si.obj
 0001:00058151       ??4ScreenItem@@QAEAAV0@ABV0@@Z 00459151 f   Si.obj
 0001:000581fd       ?Update@ScreenItem@@IAEXABVSOL_Plane@@@Z 004591fd f   Si.obj
 0001:000586af       ?NowSeen@ScreenItem@@QAEXABVSOL_Plane@@AAVSOL_Rect@@@Z 004596af f   Si.obj
 0001:0005896b       ?GetCelObj@ScreenItem@@QAEXXZ 0045996b f   Si.obj
 0001:00058b40       ?IsColor@Bitmap@@QBEHXZ    00459b40 f i Si.obj
 0001:00058b60       ?SetMemID@Bitmap@@QAEXABVMemID@@@Z 00459b60 f i Si.obj
 0001:00058b80       ?ClearGraphicsUpdate@Object@@QAEXXZ 00459b80 f i Si.obj
 0001:00058ba0       ?IsLargerThanOne@Ratio@@QBEHXZ 00459ba0 f i Si.obj
 0001:00058bc0       ??T@YAHHABVRatio@@@Z       00459bc0 f i Si.obj
 0001:00058be0       ?GetVanish@SOL_Plane@@QBE?AVSOL_Point@@XZ 00459be0 f i Si.obj
 0001:00058c00       ??0ScreenItemList@@QAE@XZ  00459c00 f   Silist.obj
 0001:00058c1b       ??1ScreenItemList@@QAE@XZ  00459c1b f   Silist.obj
 0001:00058c78       ??4ScreenItemList@@QAEABV0@ABV0@@Z 00459c78 f   Silist.obj
 0001:00058dac       ?Add@ScreenItemList@@QAEHPAVScreenItem@@@Z 00459dac f   Silist.obj
 0001:00058e12       ?Clear@ScreenItemList@@QAEXXZ 00459e12 f   Silist.obj
 0001:00058e89       ?Pack@ScreenItemList@@QAEXXZ 00459e89 f   Silist.obj
 0001:00058f04       ?Search@ScreenItemList@@QBEHPBVScreenItem@@@Z 00459f04 f   Silist.obj
 0001:00058f67       ?Search@ScreenItemList@@QBEHJ@Z 00459f67 f   Silist.obj
 0001:00058fbf       ?Delete@ScreenItemList@@QAEXPBVScreenItem@@@Z 00459fbf f   Silist.obj
 0001:00059020       ?Delete@ScreenItemList@@QAEXH@Z 0045a020 f   Silist.obj
 0001:000590a7       ?Sort@ScreenItemList@@QAEXXZ 0045a0a7 f   Silist.obj
 0001:000592a1       ?Unsort@ScreenItemList@@QAEXXZ 0045a2a1 f   Silist.obj
 0001:00059380       ??_GScreenItem@@QAEPAXI@Z  0045a380 f i Silist.obj
 0001:000593b0       ?sampleDoneCallback@@YGXPAU_SAMPLE@@@Z 0045a3b0 f   Sound.obj
 0001:0005945d       ?sequenceDoneCallback@@YGXPAU_SEQUENCE@@@Z 0045a45d f   Sound.obj
 0001:0005950d       ??0SoundMgr@@QAE@XZ        0045a50d f   Sound.obj
 0001:00059a7f       ??1SoundMgr@@UAE@XZ        0045aa7f f   Sound.obj
 0001:00059aa7       ?allocateSndID@SoundMgr@@QAEHXZ 0045aaa7 f   Sound.obj
 0001:00059b19       ?freeSndID@SoundMgr@@QAEXH@Z 0045ab19 f   Sound.obj
 0001:00059b33       ?play@SoundMgr@@QAEHPADH@Z 0045ab33 f   Sound.obj
 0001:00059d61       ?findSfxByID@SoundMgr@@QAEPAXH@Z 0045ad61 f   Sound.obj
 0001:00059db3       ?findMIDIByID@SoundMgr@@QAEPAXH@Z 0045adb3 f   Sound.obj
 0001:00059e08       ?stop@SoundMgr@@QAEHH@Z    0045ae08 f   Sound.obj
 0001:00059e78       ?setPan@SoundMgr@@QAEHHH@Z 0045ae78 f   Sound.obj
 0001:00059eb4       ?setVolume@SoundMgr@@QAEHHH@Z 0045aeb4 f   Sound.obj
 0001:00059f1c       ?getSfxMasterVolume@SoundMgr@@QAEHXZ 0045af1c f   Sound.obj
 0001:00059f42       ?setSfxMasterVolume@SoundMgr@@QAEHH@Z 0045af42 f   Sound.obj
 0001:00059f6e       ?getMidiMasterVolume@SoundMgr@@QAEHXZ 0045af6e f   Sound.obj
 0001:00059f94       ?setMidiMasterVolume@SoundMgr@@QAEHH@Z 0045af94 f   Sound.obj
 0001:00059fc0       ?setLoopCount@SoundMgr@@QAEHHH@Z 0045afc0 f   Sound.obj
 0001:0005a026       ??0SoundResMgr@@QAE@XZ     0045b026 f   Sound.obj
 0001:0005a05d       ??1SoundResMgr@@UAE@XZ     0045b05d f   Sound.obj
 0001:0005a071       ?load@SoundResMgr@@QAEPAXPAD@Z 0045b071 f   Sound.obj
 0001:0005a2ad       ?unload@SoundResMgr@@QAEXPAX@Z 0045b2ad f   Sound.obj
 0001:0005a30a       ?KSound@@YAXPAF@Z          0045b30a f   Sound.obj
 0001:0005a5d0       ??_ESoundMgr@@UAEPAXI@Z    0045b5d0 f i Sound.obj
 0001:0005a5d0       ??_GSoundMgr@@UAEPAXI@Z    0045b5d0 f i Sound.obj
 0001:0005a600       ??_GSoundResMgr@@UAEPAXI@Z 0045b600 f i Sound.obj
 0001:0005a600       ??_ESoundResMgr@@UAEPAXI@Z 0045b600 f i Sound.obj
 0001:0005a630       ?StrReplace@@YAHPAD0D0@Z   0045b630 f   String.obj
 0001:0005a6c1       ?KString@@YAXPAF@Z         0045b6c1 f   String.obj
 0001:0005ad63       ?FilterString@@YAXPAD@Z    0045bd63 f   String.obj
 0001:0005aeaa       ?StrTrim@@YAPADPADHD@Z     0045beaa f   String.obj
 0001:0005b11a       ?StrTrn@@YAHPAD000@Z       0045c11a f   String.obj
 0001:0005b1e4       ?StrTrnExclude@@YAHPAD000@Z 0045c1e4 f   String.obj
 0001:0005b28d       ?StrResize@@YAXVTextID@@I@Z 0045c28d f   String.obj
 0001:0005b2bc       ?Reverse@@YAPADPAD@Z       0045c2bc f   String.obj
 0001:0005b31b       ?IsPrintable@@YAHPAD@Z     0045c31b f   String.obj
 0001:0005b36c       ?ToLower@@YAEE@Z           0045c36c f   String.obj
 0001:0005b3ba       ?MakeVprintfArgs@@YAPAPADPADPAF@Z 0045c3ba f   String.obj
 0001:0005b600       ?ValidateString@@YAXVMemID@@PADH@Z 0045c600 f i String.obj
 0001:0005b650       ?euroToLower@@YAEE@Z       0045c650 f i String.obj
 0001:0005b670       ?iseuro@@YAHE@Z            0045c670 f i String.obj
 0001:0005b719       ?Add@CServIDTable@@SAXHVCSCI_WorldObject@@@Z 0045c719 f   Table.obj
 0001:0005b733       ?Remove@CServIDTable@@SAXH@Z 0045c733 f   Table.obj
 0001:0005b746       ?LookUp@CServIDTable@@SA?AVCSCI_WorldObject@@H@Z 0045c746 f   Table.obj
 0001:0005b7ad       ?Size@CServIDTable@@SAHXZ  0045c7ad f   Table.obj
 0001:0005b7bc       ?KTable@@YAXPAF@Z          0045c7bc f   Table.obj
 0001:0005bac0       ??1?$map@HVCSCI_WorldObject@@U?$less@H@std@@V?$allocator@VCSCI_WorldObject@@@3@@std@@QAE@XZ 0045cac0 f i Table.obj
 0001:0005bae0       ??0?$map@HVCSCI_WorldObject@@U?$less@H@std@@V?$allocator@VCSCI_WorldObject@@@3@@std@@QAE@ABU?$less@H@1@ABV?$allocator@VCSCI_WorldObject@@@1@@Z 0045cae0 f i Table.obj
 0001:0005bb10       ??A?$map@HVCSCI_WorldObject@@U?$less@H@std@@V?$allocator@VCSCI_WorldObject@@@3@@std@@QAEAAVCSCI_WorldObject@@ABH@Z 0045cb10 f i Table.obj
 0001:0005bb60       ?erase@?$map@HVCSCI_WorldObject@@U?$less@H@std@@V?$allocator@VCSCI_WorldObject@@@3@@std@@QAEIABH@Z 0045cb60 f i Table.obj
 0001:0005bb80       ?find@?$map@HVCSCI_WorldObject@@U?$less@H@std@@V?$allocator@VCSCI_WorldObject@@@3@@std@@QAE?AViterator@?$_Tree@HU?$pair@$$CBHVCSCI_WorldObject@@@std@@U_Kfn@?$map@HVCSCI_WorldObject@@U?$less@H@std@@V?$allocator@VCSCI_WorldObject@@@3@@2@U?$less@H@2@V?$allocator@VCSCI_WorldObject@@@2@@2@ABH@Z 0045cb80 f i Table.obj
 0001:0005bbb0       ??1?$_Tree@HU?$pair@$$CBHVCSCI_WorldObject@@@std@@U_Kfn@?$map@HVCSCI_WorldObject@@U?$less@H@std@@V?$allocator@VCSCI_WorldObject@@@3@@2@U?$less@H@2@V?$allocator@VCSCI_WorldObject@@@2@@std@@QAE@XZ 0045cbb0 f i Table.obj
 0001:0005bc80       ?insert@?$map@HVCSCI_WorldObject@@U?$less@H@std@@V?$allocator@VCSCI_WorldObject@@@3@@std@@QAE?AU?$pair@Viterator@?$_Tree@HU?$pair@$$CBHVCSCI_WorldObject@@@std@@U_Kfn@?$map@HVCSCI_WorldObject@@U?$less@H@std@@V?$allocator@VCSCI_WorldObject@@@3@@2@U?$less@H@2@V?$allocator@VCSCI_WorldObject@@@2@@std@@_N@2@ABU?$pair@$$CBHVCSCI_WorldObject@@@2@@Z 0045cc80 f i Table.obj
 0001:0005bcd0       ??0?$_Tree@HU?$pair@$$CBHVCSCI_WorldObject@@@std@@U_Kfn@?$map@HVCSCI_WorldObject@@U?$less@H@std@@V?$allocator@VCSCI_WorldObject@@@3@@2@U?$less@H@2@V?$allocator@VCSCI_WorldObject@@@2@@std@@QAE@ABU?$less@H@1@_NABV?$allocator@VCSCI_WorldObject@@@1@@Z 0045ccd0 f i Table.obj
 0001:0005bd10       ?erase@?$_Tree@HU?$pair@$$CBHVCSCI_WorldObject@@@std@@U_Kfn@?$map@HVCSCI_WorldObject@@U?$less@H@std@@V?$allocator@VCSCI_WorldObject@@@3@@2@U?$less@H@2@V?$allocator@VCSCI_WorldObject@@@2@@std@@QAE?AViterator@12@V312@0@Z 0045cd10 f i Table.obj
 0001:0005be50       ?erase@?$_Tree@HU?$pair@$$CBHVCSCI_WorldObject@@@std@@U_Kfn@?$map@HVCSCI_WorldObject@@U?$less@H@std@@V?$allocator@VCSCI_WorldObject@@@3@@2@U?$less@H@2@V?$allocator@VCSCI_WorldObject@@@2@@std@@QAEIABH@Z 0045ce50 f i Table.obj
 0001:0005beb0       ?find@?$_Tree@HU?$pair@$$CBHVCSCI_WorldObject@@@std@@U_Kfn@?$map@HVCSCI_WorldObject@@U?$less@H@std@@V?$allocator@VCSCI_WorldObject@@@3@@2@U?$less@H@2@V?$allocator@VCSCI_WorldObject@@@2@@std@@QAE?AViterator@12@ABH@Z 0045ceb0 f i Table.obj
 0001:0005bf50       ??0?$pair@$$CBHVCSCI_WorldObject@@@std@@QAE@ABHABVCSCI_WorldObject@@@Z 0045cf50 f i Table.obj
 0001:0005bf80       ??R?$less@H@std@@QBE_NABH0@Z 0045cf80 f i Table.obj
 0001:0005bfa0       ?insert@?$_Tree@HU?$pair@$$CBHVCSCI_WorldObject@@@std@@U_Kfn@?$map@HVCSCI_WorldObject@@U?$less@H@std@@V?$allocator@VCSCI_WorldObject@@@3@@2@U?$less@H@2@V?$allocator@VCSCI_WorldObject@@@2@@std@@QAE?AU?$pair@Viterator@?$_Tree@HU?$pair@$$CBHVCSCI_WorldObject@@@std@@U_Kfn@?$map@HVCSCI_WorldObject@@U?$less@H@std@@V?$allocator@VCSCI_WorldObject@@@3@@2@U?$less@H@2@V?$allocator@VCSCI_WorldObject@@@2@@std@@_N@2@ABU?$pair@$$CBHVCSCI_WorldObject@@@2@@Z 0045cfa0 f i Table.obj
 0001:0005c1e0       ?erase@?$_Tree@HU?$pair@$$CBHVCSCI_WorldObject@@@std@@U_Kfn@?$map@HVCSCI_WorldObject@@U?$less@H@std@@V?$allocator@VCSCI_WorldObject@@@3@@2@U?$less@H@2@V?$allocator@VCSCI_WorldObject@@@2@@std@@QAE?AViterator@12@V312@@Z 0045d1e0 f i Table.obj
 0001:0005ca30       ?lower_bound@?$_Tree@HU?$pair@$$CBHVCSCI_WorldObject@@@std@@U_Kfn@?$map@HVCSCI_WorldObject@@U?$less@H@std@@V?$allocator@VCSCI_WorldObject@@@3@@2@U?$less@H@2@V?$allocator@VCSCI_WorldObject@@@2@@std@@QAE?AViterator@12@ABH@Z 0045da30 f i Table.obj
 0001:0005ca60       ?equal_range@?$_Tree@HU?$pair@$$CBHVCSCI_WorldObject@@@std@@U_Kfn@?$map@HVCSCI_WorldObject@@U?$less@H@std@@V?$allocator@VCSCI_WorldObject@@@3@@2@U?$less@H@2@V?$allocator@VCSCI_WorldObject@@@2@@std@@QAE?AU?$pair@Viterator@?$_Tree@HU?$pair@$$CBHVCSCI_WorldObject@@@std@@U_Kfn@?$map@HVCSCI_WorldObject@@U?$less@H@std@@V?$allocator@VCSCI_WorldObject@@@3@@2@U?$less@H@2@V?$allocator@VCSCI_WorldObject@@@2@@std@@V123@@2@ABH@Z 0045da60 f i Table.obj
 0001:0005cab0       ?_Erase@?$_Tree@HU?$pair@$$CBHVCSCI_WorldObject@@@std@@U_Kfn@?$map@HVCSCI_WorldObject@@U?$less@H@std@@V?$allocator@VCSCI_WorldObject@@@3@@2@U?$less@H@2@V?$allocator@VCSCI_WorldObject@@@2@@std@@IAEXPAU_Node@12@@Z 0045dab0 f i Table.obj
 0001:0005cb70       ?_Init@?$_Tree@HU?$pair@$$CBHVCSCI_WorldObject@@@std@@U_Kfn@?$map@HVCSCI_WorldObject@@U?$less@H@std@@V?$allocator@VCSCI_WorldObject@@@3@@2@U?$less@H@2@V?$allocator@VCSCI_WorldObject@@@2@@std@@IAEXXZ 0045db70 f i Table.obj
 0001:0005cc50       ??0iterator@?$_Tree@PAUHWND__@@U?$pair@QAUHWND__@@PAVCSkinWnd@@@std@@U_Kfn@?$map@PAUHWND__@@PAVCSkinWnd@@U?$less@PAUHWND__@@@std@@V?$allocator@PAVCSkinWnd@@@4@@3@U?$less@PAUHWND__@@@3@V?$allocator@PAVCSkinWnd@@@3@@std@@QAE@PAU_Node@12@@Z 0045dc50 f i Table.obj
 0001:0005cc50       ??0iterator@?$_Tree@HU?$pair@$$CBHPAVCVerbBtn@@@std@@U_Kfn@?$map@HPAVCVerbBtn@@U?$less@H@std@@V?$allocator@PAVCVerbBtn@@@3@@2@U?$less@H@2@V?$allocator@PAVCVerbBtn@@@2@@std@@QAE@PAU_Node@12@@Z 0045dc50 f i Table.obj
 0001:0005cc50       ??0iterator@?$_Tree@HU?$pair@$$CBHPAVCMailMsgWnd@@@std@@U_Kfn@?$map@HPAVCMailMsgWnd@@U?$less@H@std@@V?$allocator@PAVCMailMsgWnd@@@3@@2@U?$less@H@2@V?$allocator@PAVCMailMsgWnd@@@2@@std@@QAE@PAU_Node@12@@Z 0045dc50 f i Table.obj
 0001:0005cc50       ??0iterator@?$_Tree@VCString@@U?$pair@$$CBVCString@@VCPerson@@@std@@U_Kfn@?$map@VCString@@VCPerson@@U?$less@VCString@@@std@@V?$allocator@VCPerson@@@4@@3@U?$less@VCString@@@3@V?$allocator@VCPerson@@@3@@std@@QAE@PAU_Node@12@@Z 0045dc50 f i Table.obj
 0001:0005cc50       ??0iterator@?$list@PAVCSkinWnd@@V?$allocator@PAVCSkinWnd@@@std@@@std@@QAE@PAU_Node@12@@Z 0045dc50 f i Table.obj
 0001:0005cc50       ??0iterator@?$list@PAVCLookAtItem@@V?$allocator@PAVCLookAtItem@@@std@@@std@@QAE@PAU_Node@12@@Z 0045dc50 f i Table.obj
 0001:0005cc50       ??0iterator@?$list@PAVCMailMsg@@V?$allocator@PAVCMailMsg@@@std@@@std@@QAE@PAU_Node@12@@Z 0045dc50 f i Table.obj
 0001:0005cc50       ??0iterator@?$list@PAVCVerbRequest@@V?$allocator@PAVCVerbRequest@@@std@@@std@@QAE@PAU_Node@12@@Z 0045dc50 f i Table.obj
 0001:0005cc50       ??0iterator@?$list@PAVCInventoryDlg@@V?$allocator@PAVCInventoryDlg@@@std@@@std@@QAE@PAU_Node@12@@Z 0045dc50 f i Table.obj
 0001:0005cc50       ??0iterator@?$_Tree@PAUHWND__@@U?$pair@QAUHWND__@@PAVCMouseWheelable@@@std@@U_Kfn@?$map@PAUHWND__@@PAVCMouseWheelable@@U?$less@PAUHWND__@@@std@@V?$allocator@PAVCMouseWheelable@@@4@@3@U?$less@PAUHWND__@@@3@V?$allocator@PAVCMouseWheelable@@@3@@std@@QAE@PAU_Node@12@@Z 0045dc50 f i Table.obj
 0001:0005cc50       ??0iterator@?$_Tree@HU?$pair@$$CBHVCSCI_WorldObject@@@std@@U_Kfn@?$map@HVCSCI_WorldObject@@U?$less@H@std@@V?$allocator@VCSCI_WorldObject@@@3@@2@U?$less@H@2@V?$allocator@VCSCI_WorldObject@@@2@@std@@QAE@PAU_Node@12@@Z 0045dc50 f i Table.obj
 0001:0005cc50       ??0iterator@?$list@PAVCSkinCtrl@@V?$allocator@PAVCSkinCtrl@@@std@@@std@@QAE@PAU_Node@12@@Z 0045dc50 f i Table.obj
 0001:0005cc50       ??0iterator@?$_Tree@V?$basic_string@DU?$char_traits@D@std@@V?$allocator@D@2@@std@@U?$pair@$$CBV?$basic_string@DU?$char_traits@D@std@@V?$allocator@D@2@@std@@VCPoint@@@2@U_Kfn@?$map@V?$basic_string@DU?$char_traits@D@std@@V?$allocator@D@2@@std@@VCPoint@@U?$less@V?$basic_string@DU?$char_traits@D@std@@V?$allocator@D@2@@std@@@2@V?$allocator@VCPoint@@@2@@2@U?$less@V?$basic_string@DU?$char_traits@D@std@@V?$allocator@D@2@@std@@@2@V?$allocator@VCPoint@@@2@@std@@QAE@PAU_Node@12@@Z 0045dc50 f i Table.obj
 0001:0005cc50       ??0iterator@?$list@PADV?$allocator@PAD@std@@@std@@QAE@PAU_Node@12@@Z 0045dc50 f i Table.obj
 0001:0005cc50       ??0iterator@?$_Tree@VCSCI_Object@@U?$pair@$$CBVCSCI_Object@@PAVCNoButtonDlg@@@std@@U_Kfn@?$map@VCSCI_Object@@PAVCNoButtonDlg@@U?$less@VCSCI_Object@@@std@@V?$allocator@PAVCNoButtonDlg@@@4@@3@U?$less@VCSCI_Object@@@3@V?$allocator@PAVCNoButtonDlg@@@3@@std@@QAE@PAU_Node@12@@Z 0045dc50 f i Table.obj
 0001:0005cc50       ??0iterator@?$_Tree@HU?$pair@$$CBHPAVCMailMsg@@@std@@U_Kfn@?$map@HPAVCMailMsg@@U?$less@H@std@@V?$allocator@PAVCMailMsg@@@3@@2@U?$less@H@2@V?$allocator@PAVCMailMsg@@@2@@std@@QAE@PAU_Node@12@@Z 0045dc50 f i Table.obj
 0001:0005cc50       ??0iterator@?$_Tree@V?$basic_string@DU?$char_traits@D@std@@V?$allocator@D@2@@std@@U?$pair@$$CBV?$basic_string@DU?$char_traits@D@std@@V?$allocator@D@2@@std@@PAVCPrivateTell@@@2@U_Kfn@?$map@V?$basic_string@DU?$char_traits@D@std@@V?$allocator@D@2@@std@@PAVCPrivateTell@@U?$less@V?$basic_string@DU?$char_traits@D@std@@V?$allocator@D@2@@std@@@2@V?$allocator@PAVCPrivateTell@@@2@@2@U?$less@V?$basic_string@DU?$char_traits@D@std@@V?$allocator@D@2@@std@@@2@V?$allocator@PAVCPrivateTell@@@2@@std@@QAE@PAU_Node@12@@Z 0045dc50 f i Table.obj
 0001:0005cc50       ??0iterator@?$_Tree@PAVCSkinWnd@@PAV1@U_Kfn@?$set@PAVCSkinWnd@@U?$less@PAVCSkinWnd@@@std@@V?$allocator@PAVCSkinWnd@@@3@@std@@U?$less@PAVCSkinWnd@@@4@V?$allocator@PAVCSkinWnd@@@4@@std@@QAE@PAU_Node@12@@Z 0045dc50 f i Table.obj
 0001:0005cc50       ??0iterator@?$_Tree@PAVCSkinCtrl@@PAV1@U_Kfn@?$set@PAVCSkinCtrl@@U?$less@PAVCSkinCtrl@@@std@@V?$allocator@PAVCSkinCtrl@@@3@@std@@U?$less@PAVCSkinCtrl@@@4@V?$allocator@PAVCSkinCtrl@@@4@@std@@QAE@PAU_Node@12@@Z 0045dc50 f i Table.obj
 0001:0005cc50       ??0iterator@?$_Tree@VCSkinObj@@U?$pair@$$CBVCSkinObj@@PAVCSkinCtrl@@@std@@U_Kfn@?$map@VCSkinObj@@PAVCSkinCtrl@@U?$less@VCSkinObj@@@std@@V?$allocator@PAVCSkinCtrl@@@4@@3@U?$less@VCSkinObj@@@3@V?$allocator@PAVCSkinCtrl@@@3@@std@@QAE@PAU_Node@12@@Z 0045dc50 f i Table.obj
 0001:0005cc50       ??0iterator@?$_Tree@HU?$pair@$$CBHPAVCVerb@@@std@@U_Kfn@?$map@HPAVCVerb@@U?$less@H@std@@V?$allocator@PAVCVerb@@@3@@2@U?$less@H@2@V?$allocator@PAVCVerb@@@2@@std@@QAE@PAU_Node@12@@Z 0045dc50 f i Table.obj
 0001:0005cc50       ??0iterator@?$_Tree@VCSCI_WorldObject@@U?$pair@$$CBVCSCI_WorldObject@@PAVCInventoryDlg@@@std@@U_Kfn@?$map@VCSCI_WorldObject@@PAVCInventoryDlg@@U?$less@VCSCI_WorldObject@@@std@@V?$allocator@PAVCInventoryDlg@@@4@@3@U?$less@VCSCI_WorldObject@@@3@V?$allocator@PAVCInventoryDlg@@@3@@std@@QAE@PAU_Node@12@@Z 0045dc50 f i Table.obj
 0001:0005cc50       ??0iterator@?$_Tree@VCSkinObj@@U?$pair@$$CBVCSkinObj@@PAVCFastScrollCtrl@@@std@@U_Kfn@?$map@VCSkinObj@@PAVCFastScrollCtrl@@U?$less@VCSkinObj@@@std@@V?$allocator@PAVCFastScrollCtrl@@@4@@3@U?$less@VCSkinObj@@@3@V?$allocator@PAVCFastScrollCtrl@@@3@@std@@QAE@PAU_Node@12@@Z 0045dc50 f i Table.obj
 0001:0005cc50       ??0iterator@?$_Tree@V?$basic_string@DU?$char_traits@D@std@@V?$allocator@D@2@@std@@U?$pair@$$CBV?$basic_string@DU?$char_traits@D@std@@V?$allocator@D@2@@std@@H@2@U_Kfn@?$map@V?$basic_string@DU?$char_traits@D@std@@V?$allocator@D@2@@std@@HU?$less@V?$basic_string@DU?$char_traits@D@std@@V?$allocator@D@2@@std@@@2@V?$allocator@H@2@@2@U?$less@V?$basic_string@DU?$char_traits@D@std@@V?$allocator@D@2@@std@@@2@V?$allocator@H@2@@std@@QAE@PAU_Node@12@@Z 0045dc50 f i Table.obj
 0001:0005cc50       ??0iterator@?$_Tree@PAUHWND__@@U?$pair@QAUHWND__@@PAVCDropTarget@@@std@@U_Kfn@?$map@PAUHWND__@@PAVCDropTarget@@U?$less@PAUHWND__@@@std@@V?$allocator@PAVCDropTarget@@@4@@3@U?$less@PAUHWND__@@@3@V?$allocator@PAVCDropTarget@@@3@@std@@QAE@PAU_Node@12@@Z 0045dc50 f i Table.obj
 0001:0005cc70       ??Eiterator@?$_Tree@HU?$pair@$$CBHVCSCI_WorldObject@@@std@@U_Kfn@?$map@HVCSCI_WorldObject@@U?$less@H@std@@V?$allocator@VCSCI_WorldObject@@@3@@2@U?$less@H@2@V?$allocator@VCSCI_WorldObject@@@2@@std@@QAE?AV012@H@Z 0045dc70 f i Table.obj
 0001:0005cca0       ?upper_bound@?$_Tree@HU?$pair@$$CBHVCSCI_WorldObject@@@std@@U_Kfn@?$map@HVCSCI_WorldObject@@U?$less@H@std@@V?$allocator@VCSCI_WorldObject@@@3@@2@U?$less@H@2@V?$allocator@VCSCI_WorldObject@@@2@@std@@QAE?AViterator@12@ABH@Z 0045dca0 f i Table.obj
 0001:0005ccd0       ?_Insert@?$_Tree@HU?$pair@$$CBHVCSCI_WorldObject@@@std@@U_Kfn@?$map@HVCSCI_WorldObject@@U?$less@H@std@@V?$allocator@VCSCI_WorldObject@@@3@@2@U?$less@H@2@V?$allocator@VCSCI_WorldObject@@@2@@std@@IAE?AViterator@12@PAU_Node@12@0ABU?$pair@$$CBHVCSCI_WorldObject@@@2@@Z 0045dcd0 f i Table.obj
 0001:0005d1a0       ?_Lbound@?$_Tree@HU?$pair@$$CBHVCSCI_WorldObject@@@std@@U_Kfn@?$map@HVCSCI_WorldObject@@U?$less@H@std@@V?$allocator@VCSCI_WorldObject@@@3@@2@U?$less@H@2@V?$allocator@VCSCI_WorldObject@@@2@@std@@IBEPAU_Node@12@ABH@Z 0045e1a0 f i Table.obj
 0001:0005d270       ?_Lrotate@?$_Tree@HU?$pair@$$CBHVCSCI_WorldObject@@@std@@U_Kfn@?$map@HVCSCI_WorldObject@@U?$less@H@std@@V?$allocator@VCSCI_WorldObject@@@3@@2@U?$less@H@2@V?$allocator@VCSCI_WorldObject@@@2@@std@@IAEXPAU_Node@12@@Z 0045e270 f i Table.obj
 0001:0005d3e0       ?_Max@?$_Tree@HU?$pair@$$CBHVCSCI_WorldObject@@@std@@U_Kfn@?$map@HVCSCI_WorldObject@@U?$less@H@std@@V?$allocator@VCSCI_WorldObject@@@3@@2@U?$less@H@2@V?$allocator@VCSCI_WorldObject@@@2@@std@@KAPAU_Node@12@PAU312@@Z 0045e3e0 f i Table.obj
 0001:0005d460       ?_Min@?$_Tree@HU?$pair@$$CBHVCSCI_WorldObject@@@std@@U_Kfn@?$map@HVCSCI_WorldObject@@U?$less@H@std@@V?$allocator@VCSCI_WorldObject@@@3@@2@U?$less@H@2@V?$allocator@VCSCI_WorldObject@@@2@@std@@KAPAU_Node@12@PAU312@@Z 0045e460 f i Table.obj
 0001:0005d4e0       ?_Rrotate@?$_Tree@HU?$pair@$$CBHVCSCI_WorldObject@@@std@@U_Kfn@?$map@HVCSCI_WorldObject@@U?$less@H@std@@V?$allocator@VCSCI_WorldObject@@@3@@2@U?$less@H@2@V?$allocator@VCSCI_WorldObject@@@2@@std@@IAEXPAU_Node@12@@Z 0045e4e0 f i Table.obj
 0001:0005d650       ?_Destval@?$_Tree@PAUHWND__@@U?$pair@QAUHWND__@@PAVCDropTarget@@@std@@U_Kfn@?$map@PAUHWND__@@PAVCDropTarget@@U?$less@PAUHWND__@@@std@@V?$allocator@PAVCDropTarget@@@4@@3@U?$less@PAUHWND__@@@3@V?$allocator@PAVCDropTarget@@@3@@std@@IAEXPAU?$pair@QAUHWND__@@PAVCDropTarget@@@2@@Z 0045e650 f i Table.obj
 0001:0005d650       ?_Destval@?$_Tree@PAUHWND__@@U?$pair@QAUHWND__@@PAVCMouseWheelable@@@std@@U_Kfn@?$map@PAUHWND__@@PAVCMouseWheelable@@U?$less@PAUHWND__@@@std@@V?$allocator@PAVCMouseWheelable@@@4@@3@U?$less@PAUHWND__@@@3@V?$allocator@PAVCMouseWheelable@@@3@@std@@IAEXPAU?$pair@QAUHWND__@@PAVCMouseWheelable@@@2@@Z 0045e650 f i Table.obj
 0001:0005d650       ?_Destval@?$_Tree@HU?$pair@$$CBHVCSCI_WorldObject@@@std@@U_Kfn@?$map@HVCSCI_WorldObject@@U?$less@H@std@@V?$allocator@VCSCI_WorldObject@@@3@@2@U?$less@H@2@V?$allocator@VCSCI_WorldObject@@@2@@std@@IAEXPAU?$pair@$$CBHVCSCI_WorldObject@@@2@@Z 0045e650 f i Table.obj
 0001:0005d670       ??Eiterator@?$_Tree@HU?$pair@$$CBHVCSCI_WorldObject@@@std@@U_Kfn@?$map@HVCSCI_WorldObject@@U?$less@H@std@@V?$allocator@VCSCI_WorldObject@@@3@@2@U?$less@H@2@V?$allocator@VCSCI_WorldObject@@@2@@std@@QAEAAV012@XZ 0045e670 f i Table.obj
 0001:0005d690       ??Fiterator@?$_Tree@HU?$pair@$$CBHVCSCI_WorldObject@@@std@@U_Kfn@?$map@HVCSCI_WorldObject@@U?$less@H@std@@V?$allocator@VCSCI_WorldObject@@@3@@2@U?$less@H@2@V?$allocator@VCSCI_WorldObject@@@2@@std@@QAEAAV012@XZ 0045e690 f i Table.obj
 0001:0005d6b0       ?_Ubound@?$_Tree@HU?$pair@$$CBHVCSCI_WorldObject@@@std@@U_Kfn@?$map@HVCSCI_WorldObject@@U?$less@H@std@@V?$allocator@VCSCI_WorldObject@@@3@@2@U?$less@H@2@V?$allocator@VCSCI_WorldObject@@@2@@std@@IBEPAU_Node@12@ABH@Z 0045e6b0 f i Table.obj
 0001:0005d780       ?_Consval@?$_Tree@HU?$pair@$$CBHVCSCI_WorldObject@@@std@@U_Kfn@?$map@HVCSCI_WorldObject@@U?$less@H@std@@V?$allocator@VCSCI_WorldObject@@@3@@2@U?$less@H@2@V?$allocator@VCSCI_WorldObject@@@2@@std@@IAEXPAU?$pair@$$CBHVCSCI_WorldObject@@@2@ABU32@@Z 0045e780 f i Table.obj
 0001:0005d7a0       ?_Dec@const_iterator@?$_Tree@HU?$pair@$$CBHVCSCI_WorldObject@@@std@@U_Kfn@?$map@HVCSCI_WorldObject@@U?$less@H@std@@V?$allocator@VCSCI_WorldObject@@@3@@2@U?$less@H@2@V?$allocator@VCSCI_WorldObject@@@2@@std@@QAEXXZ 0045e7a0 f i Table.obj
 0001:0005d8b0       ?_Inc@const_iterator@?$_Tree@HU?$pair@$$CBHVCSCI_WorldObject@@@std@@U_Kfn@?$map@HVCSCI_WorldObject@@U?$less@H@std@@V?$allocator@VCSCI_WorldObject@@@3@@2@U?$less@H@2@V?$allocator@VCSCI_WorldObject@@@2@@std@@QAEXXZ 0045e8b0 f i Table.obj
 0001:0005d990       ?_Distance@std@@YAXViterator@?$_Tree@HU?$pair@$$CBHVCSCI_WorldObject@@@std@@U_Kfn@?$map@HVCSCI_WorldObject@@U?$less@H@std@@V?$allocator@VCSCI_WorldObject@@@3@@2@U?$less@H@2@V?$allocator@VCSCI_WorldObject@@@2@@1@0AAI@Z 0045e990 f i Table.obj
 0001:0005d9c0       ?_Construct@std@@YAXPAU?$pair@$$CBHVCSCI_WorldObject@@@1@ABU21@@Z 0045e9c0 f i Table.obj
 0001:0005da30       ??0?$pair@$$CBHVCSCI_WorldObject@@@std@@QAE@ABU01@@Z 0045ea30 f i Table.obj
 0001:0005da60       ?_Distance@std@@YAXViterator@?$_Tree@HU?$pair@$$CBHVCSCI_WorldObject@@@std@@U_Kfn@?$map@HVCSCI_WorldObject@@U?$less@H@std@@V?$allocator@VCSCI_WorldObject@@@3@@2@U?$less@H@2@V?$allocator@VCSCI_WorldObject@@@2@@1@0AAIUbidirectional_iterator_tag@1@@Z 0045ea60 f i Table.obj
 0001:0005daa0       ??0TextID@@QAE@XZ          0045eaa0 f   Textid.obj
 0001:0005dab6       ??0TextID@@QAE@ABVMemID@@@Z 0045eab6 f   Textid.obj
 0001:0005dad2       ??0TextID@@QAE@G@Z         0045ead2 f   Textid.obj
 0001:0005daef       ??4TextID@@QAEAAV0@PBD@Z   0045eaef f   Textid.obj
 0001:0005db53       ?Add@TextID@@QAEXD@Z       0045eb53 f   Textid.obj
 0001:0005db78       ?Add@TextID@@QAEXPBD@Z     0045eb78 f   Textid.obj
 0001:0005dbaf       ?Add@TextID@@QAEXV1@@Z     0045ebaf f   Textid.obj
 0001:0005dbf0       ?AddF@TextID@@QAAXPBDZZ    0045ebf0 f   Textid.obj
 0001:0005dc31       ?AddSize@TextID@@IAEXI@Z   0045ec31 f   Textid.obj
 0001:0005dc8c       ?Lock@TextID@@QAEPADXZ     0045ec8c f   Textid.obj
 0001:0005dc9f       ?Snug@TextID@@QAEXXZ       0045ec9f f   Textid.obj
 0001:0005dcd3       ??4StringID@@QAEAAV0@PBD@Z 0045ecd3 f   Textid.obj
 0001:0005dd60       ?SysTime@TimeMgr@@QAEIH@Z  0045ed60 f   Time.obj
 0001:0005de3a       ?KGetTime@@YAXPAF@Z        0045ee3a f   Time.obj
 0001:0005de7a       ?KWait@@YAXPAF@Z           0045ee7a f   Time.obj
 0001:0005def0       ??0TimeMgrWin@@QAE@XZ      0045eef0 f   Timew.obj
 0001:0005df1a       ??1TimeMgrWin@@UAE@XZ      0045ef1a f   Timew.obj
 0001:0005df36       ?GetTickCount@TimeMgrWin@@UAEKXZ 0045ef36 f   Timew.obj
 0001:0005df59       ?SetTickCount@TimeMgrWin@@UAEXK@Z 0045ef59 f   Timew.obj
 0001:0005df7a       ?GetMilliSec@TimeMgrWin@@UAEKXZ 0045ef7a f   Timew.obj
 0001:0005df8b       ?EnableTimer@TimeMgrWin@@QAEXXZ 0045ef8b f   Timew.obj
 0001:0005dfe9       ?DisableTimer@TimeMgrWin@@QAEXXZ 0045efe9 f   Timew.obj
 0001:0005e02a       ?SetCheckTime@TimeMgrWin@@QAEXHPAH@Z 0045f02a f   Timew.obj
 0001:0005e040       ?Reset@TimeMgr@@UAEXXZ     0045f040 f i Timew.obj
 0001:0005e050       ??_ETimeMgrWin@@UAEPAXI@Z  0045f050 f i Timew.obj
 0001:0005e050       ??_GTimeMgrWin@@UAEPAXI@Z  0045f050 f i Timew.obj
 0001:0005e080       ??0TimeMgr@@QAE@XZ         0045f080 f i Timew.obj
 0001:0005e0a0       ??_GTimeMgr@@UAEPAXI@Z     0045f0a0 f i Timew.obj
 0001:0005e0a0       ??_ETimeMgr@@UAEPAXI@Z     0045f0a0 f i Timew.obj
 0001:0005e0d0       ??1TimeMgr@@UAE@XZ         0045f0d0 f i Timew.obj
 0001:0005e0f0       ?GetVocabStr@@YAHHHPAD@Z   0045f0f0 f   Vocab.obj
 0001:0005e1b0       ?KWinDLL@@YAXPAF@Z         0045f1b0 f   Windll.obj
 0001:0005e1c0       ?Get@ScrollWindowID@@QAEXAAVSOL_Rect@@VSOL_Point@@HGGGFFH@Z 0045f1c0 f   Window.obj
 0001:0005e24d       ?Free@ScrollWindowID@@QAEXXZ 0045f24d f   Window.obj
 0001:0005e285       ??0SOL_Window@@QAE@AAVSOL_Rect@@VSOL_Point@@HPADGGGFF2GGGH@Z 0045f285 f   Window.obj
 0001:0005e74d       ??0SOL_Window@@QAE@AAVSOL_Rect@@VSOL_Point@@HPADGGGFFH@Z 0045f74d f   Window.obj
 0001:0005eb4d       ??1SOL_Window@@UAE@XZ      0045fb4d f   Window.obj
 0001:0005ec2d       ?Show@SOL_Window@@UAEXXZ   0045fc2d f   Window.obj
 0001:0005ed68       ?PageUp@SOL_Window@@UAEXXZ 0045fd68 f   Window.obj
 0001:0005ee09       ?PageDown@SOL_Window@@UAEXXZ 0045fe09 f   Window.obj
 0001:0005ee98       ?Home@SOL_Window@@UAEXXZ   0045fe98 f   Window.obj
 0001:0005ef0f       ?End@SOL_Window@@UAEXXZ    0045ff0f f   Window.obj
 0001:0005ef97       ?UpArrow@SOL_Window@@UAEXXZ 0045ff97 f   Window.obj
 0001:0005f167       ?DownArrow@SOL_Window@@UAEXXZ 00460167 f   Window.obj
 0001:0005f37a       ?BackAWord@SOL_Window@@IAEHXZ 0046037a f   Window.obj
 0001:0005f45c       ?ForwardAWord@SOL_Window@@IAEHXZ 0046045c f   Window.obj
 0001:0005f517       ?ReDrawText@SOL_Window@@UAEXXZ 00460517 f   Window.obj
 0001:0005f629       ?Hide@SOL_Window@@UAEXXZ   00460629 f   Window.obj
 0001:0005f6a1       ?Move@SOL_Window@@UAEXVSOL_Point@@@Z 004606a1 f   Window.obj
 0001:0005f706       ?ResizeWindow@SOL_Window@@UAEXAAVSOL_Rect@@@Z 00460706 f   Window.obj
 0001:0005f9c9       ?SetText@SOL_Window@@UAEXPADHH@Z 004609c9 f   Window.obj
 0001:0005fca1       ?GetLineIndices@SOL_Window@@MAEXXZ 00460ca1 f   Window.obj
 0001:00060257       ??1EventWindow@@UAE@XZ     00461257 f   Window.obj
 0001:000602bb       ?HandleEvent@EventWindow@@QAEHAAVSOL_Event@@@Z 004612bb f   Window.obj
 0001:00060713       ?Hide@EventWindow@@UAEXXZ  00461713 f   Window.obj
 0001:00060788       ?Move@EventWindow@@UAEXVSOL_Point@@@Z 00461788 f   Window.obj
 0001:00060825       ?ResizeWindow@EventWindow@@UAEXAAVSOL_Rect@@@Z 00461825 f   Window.obj
 0001:00060867       ?Show@EventWindow@@UAEXXZ  00461867 f   Window.obj
 0001:0006094f       ??0SCIScrollWindow@@QAE@AAVSOL_Rect@@VSOL_Point@@HGGGFFH@Z 0046194f f   Window.obj
 0001:00060acc       ??1SCIScrollWindow@@UAE@XZ 00461acc f   Window.obj
 0001:00060b60       ?Add@SCIScrollWindow@@QAE?AVTextID@@V2@HHHH@Z 00461b60 f   Window.obj
 0001:00060e1b       ?Delete@SCIScrollWindow@@QAEXVTextID@@@Z 00461e1b f   Window.obj
 0001:00061115       ?Clear@SCIScrollWindow@@QAEXXZ 00462115 f   Window.obj
 0001:0006117e       ?CopyEntries@SCIScrollWindow@@QAE?AVScrollEntryID@@XZ 0046217e f   Window.obj
 0001:0006131e       ?Reconstruct@SCIScrollWindow@@QAEXVScrollEntryID@@@Z 0046231e f   Window.obj
 0001:0006140f       ?Go@SCIScrollWindow@@QAEXHH@Z 0046240f f   Window.obj
 0001:000614d5       ?Where@SCIScrollWindow@@QAEHH@Z 004624d5 f   Window.obj
 0001:00061503       ?Insert@SCIScrollWindow@@QAE?AVTextID@@V2@0HHH@Z 00462503 f   Window.obj
 0001:00061958       ?Modify@SCIScrollWindow@@QAE?AVTextID@@V2@0HHHH@Z 00462958 f   Window.obj
 0001:00061bd7       ?Get@SCIScrollWindow@@QAE?AVTextID@@H@Z 00462bd7 f   Window.obj
 0001:00061c2a       ?Which@SCIScrollWindow@@QAEHVTextID@@@Z 00462c2a f   Window.obj
 0001:00061c82       ?WaitOnUser@@YAHPAVEventWindow@@@Z 00462c82 f   Window.obj
 0001:00061d23       ?KSCIScrollWindow@@YAXPAF@Z 00462d23 f   Window.obj
 0001:00062680       ?Get@FakeScrollWindowID@@QAEXIIIPAUMemClient@@DW4ReservedHandle@@@Z 00463680 f i Window.obj
 0001:000626b0       ??_ESOL_Window@@UAEPAXI@Z  004636b0 f i Window.obj
 0001:000626b0       ??_GSOL_Window@@UAEPAXI@Z  004636b0 f i Window.obj
 0001:000626e0       ?SetColor@FontMgr@@QAEXH@Z 004636e0 f i Window.obj
 0001:00062700       ?SetMode@FontMgr@@QAEXH@Z  00463700 f i Window.obj
 0001:00062720       ?GetFont@FontMgr@@QBEHXZ   00463720 f i Window.obj
 0001:00062740       ??_EEventWindow@@UAEPAXI@Z 00463740 f i Window.obj
 0001:00062740       ??_GEventWindow@@UAEPAXI@Z 00463740 f i Window.obj
 0001:00062770       ?Get@ScrollEntryID@@QAEXIIIPAUMemClient@@DW4ReservedHandle@@@Z 00463770 f i Window.obj
 0001:000627a0       ?Get@FakeScrollEntryID@@QAEXIIIPAUMemClient@@DW4ReservedHandle@@@Z 004637a0 f i Window.obj
 0001:000627d0       ??AScrollEntryID@@QBEAAUScrollEntry@@I@Z 004637d0 f i Window.obj
 0001:000627f0       ??_ESCIScrollWindow@@UAEPAXI@Z 004637f0 f i Window.obj
 0001:000627f0       ??_GSCIScrollWindow@@UAEPAXI@Z 004637f0 f i Window.obj
 0001:00062820       ?KWinHelp@@YAXPAF@Z        00463820 f   Winfuncs.obj
 0001:0006291a       ?KMessageBox@@YAXPAF@Z     0046391a f   Winfuncs.obj
 0001:00062970       ?InitThunk@@YAXXZ          00463970 f   Winthunk.obj
 0001:00062978       ?EndThunk@@YAXXZ           00463978 f   Winthunk.obj
 0001:00062980       ??0OCArray@@QAE@H@Z        00463980 f   arrayC.obj
 0001:000629c0       ??0OCArray@@QAE@XZ         004639c0 f   arrayC.obj
 0001:000629ff       ??1OCArray@@QAE@XZ         004639ff f   arrayC.obj
 0001:00062a4a       ?Grow@OCArray@@IAEXH@Z     00463a4a f   arrayC.obj
 0001:00062ad0       ??0CPurchaseItem@@QAE@XZ   00463ad0 f   BuyDlg.obj
 0001:00062b79       ??0CPurchaseItem@@IAE@PAV0@0@Z 00463b79 f   BuyDlg.obj
 0001:00062c22       ??1CPurchaseItem@@UAE@XZ   00463c22 f   BuyDlg.obj
 0001:00062ceb       ?AddSibling@CPurchaseItem@@IAEPAV1@PAV1@@Z 00463ceb f   BuyDlg.obj
 0001:00062d86       ?AddSibling@CPurchaseItem@@IAEPAV1@PAV1@0@Z 00463d86 f   BuyDlg.obj
 0001:00062e21       ?AddChild@CPurchaseItem@@IAEPAV1@PAV1@@Z 00463e21 f   BuyDlg.obj
 0001:00062eb6       ?AddTo@CPurchaseItem@@QAEXPAVCSkinListCtrl@@@Z 00463eb6 f   BuyDlg.obj
 0001:00062f4f       ?AddToPurchase@CPurchaseItem@@QAEHPAVCSkinListCtrl@@H@Z 00463f4f f   BuyDlg.obj
 0001:00063098       ?RemoveFromPurchase@CPurchaseItem@@QAEHPAVCSkinListCtrl@@H@Z 00464098 f   BuyDlg.obj
 0001:000631a7       ?GoBack@CPurchaseItem@@QAEXPAVCSkinListCtrl@@@Z 004641a7 f   BuyDlg.obj
 0001:00063255       ?AddItem@CPurchaseItem@@IAEXXZ 00464255 f   BuyDlg.obj
 0001:00063378       ?ReadData@CPurchaseItem@@SAPAV1@PAVPackedData@@AAH@Z 00464378 f   BuyDlg.obj
 0001:0006348f       ?Click@CPurchaseItem@@QAE_NPAVCSkinListCtrl@@@Z 0046448f f   BuyDlg.obj
 0001:000634ba       ?Purchase@CPurchaseItem@@QAE_NPAVCPackedData@@@Z 004644ba f   BuyDlg.obj
 0001:00063554       ?SetWeight@CPurchaseItem@@QAEXXZ 00464554 f   BuyDlg.obj
 0001:00063599       ?_GetBaseMessageMap@CBuyDlg@@KGPBUAFX_MSGMAP@@XZ 00464599 f   BuyDlg.obj
 0001:000635a3       ?GetMessageMap@CBuyDlg@@MBEPBUAFX_MSGMAP@@XZ 004645a3 f   BuyDlg.obj
 0001:000635b3       ??0CBuyDlg@@QAE@VCSCI_Object@@@Z 004645b3 f   BuyDlg.obj
 0001:0006367f       ?Create@CBuyDlg@@QAEHVCSCI_Object@@@Z 0046467f f   BuyDlg.obj
 0001:00063a34       ?OnSetFocus@CBuyDlg@@QAEXPAVCWnd@@@Z 00464a34 f   BuyDlg.obj
 0001:00063a55       ?MakeSkinCtrl@CBuyDlg@@UAEPAVCSkinCtrl@@VCSkinObj@@@Z 00464a55 f   BuyDlg.obj
 0001:000642ca       ?CloseSelf@CBuyDlg@@UAEX_N@Z 004652ca f   BuyDlg.obj
 0001:0006432f       ?HandleVerb@CBuyDlg@@QAEHHPAVCPurchaseItem@@@Z 0046532f f   BuyDlg.obj
 0001:00064784       ?HandleMsg@CBuyDlg@@SAXVCSCI_NetMsg@@@Z 00465784 f   BuyDlg.obj
 0001:00064b69       ?OnSale@CBuyDlg@@QAEXPAVCPurchaseItem@@_N@Z 00465b69 f   BuyDlg.obj
 0001:00064c49       ?OnPurchase@CBuyDlg@@QAEXPAVCPurchaseItem@@H_N@Z 00465c49 f   BuyDlg.obj
 0001:00064e09       ?PurchaseMass@CBuyDlg@@QAEXPAVCPurchaseItem@@H@Z 00465e09 f   BuyDlg.obj
 0001:00064f7a       ?BuyIT@CBuyDlg@@QAEXXZ     00465f7a f   BuyDlg.obj
 0001:00065019       ?AddToBuy@CBuyDlg@@QAEXPAVCPurchaseItem@@@Z 00466019 f   BuyDlg.obj
 0001:00065398       ??0CBuyVerbs@@QAE@XZ       00466398 f   BuyDlg.obj
 0001:000653c4       ??1CBuyVerbs@@UAE@XZ       004663c4 f   BuyDlg.obj
 0001:000653e0       ?Create@CBuyVerbs@@UAEHPAVCPurchaseItem@@_N@Z 004663e0 f   BuyDlg.obj
 0001:00065491       ?Press@CBuyVerbs@@UAEXH@Z  00466491 f   BuyDlg.obj
 0001:000654ed       ?_GetBaseMessageMap@CBuyLookAtItem@@KGPBUAFX_MSGMAP@@XZ 004664ed f   BuyDlg.obj
 0001:000654f7       ?GetMessageMap@CBuyLookAtItem@@MBEPBUAFX_MSGMAP@@XZ 004664f7 f   BuyDlg.obj
 0001:00065507       ??0CBuyLookAtItem@@QAE@XZ  00466507 f   BuyDlg.obj
 0001:00065588       ?CloseSelf@CBuyLookAtItem@@UAEX_N@Z 00466588 f   BuyDlg.obj
 0001:000655ab       ?Create@CBuyLookAtItem@@QAEHPAVCPurchaseItem@@PAD@Z 004665ab f   BuyDlg.obj
 0001:000658f1       ?MakeSkinCtrl@CBuyLookAtItem@@UAEPAVCSkinCtrl@@VCSkinObj@@@Z 004668f1 f   BuyDlg.obj
 0001:00065a79       ?OnResize@CBuyLookAtItem@@QAEXPAUtagNMHDR@@PAJ@Z 00466a79 f   BuyDlg.obj
 0001:00065b17       ?_GetBaseMessageMap@CBuyQuantityDlg@@KGPBUAFX_MSGMAP@@XZ 00466b17 f   BuyDlg.obj
 0001:00065b21       ?GetMessageMap@CBuyQuantityDlg@@MBEPBUAFX_MSGMAP@@XZ 00466b21 f   BuyDlg.obj
 0001:00065b31       ??0CBuyQuantityDlg@@QAE@XZ 00466b31 f   BuyDlg.obj
 0001:00065b5d       ?CloseSelf@CBuyQuantityDlg@@UAEX_N@Z 00466b5d f   BuyDlg.obj
 0001:00065c93       ?Create@CBuyQuantityDlg@@QAEHPAVCPurchaseItem@@PAVCBuyDlg@@H@Z 00466c93 f   BuyDlg.obj
 0001:00065d77       ?MakeSkinCtrl@CBuyQuantityDlg@@UAEPAVCSkinCtrl@@VCSkinObj@@@Z 00466d77 f   BuyDlg.obj
 0001:00065fa2       ?Max@CBuyQuantityDlg@@QAEXXZ 00466fa2 f   BuyDlg.obj
 0001:00065fdf       ?OnSetFocus@CBuyQuantityDlg@@QAEXPAVCWnd@@@Z 00466fdf f   BuyDlg.obj
 0001:00066012       ??0CMaxBtn@@QAE@VCSkinObj@@PAVCSkinWnd@@@Z 00467012 f   BuyDlg.obj
 0001:00066085       ?OnActivate@CMaxBtn@@UAEXFF@Z 00467085 f   BuyDlg.obj
 0001:000660b0       ??_ECPurchaseItem@@UAEPAXI@Z 004670b0 f i BuyDlg.obj
 0001:000660b0       ??_GCPurchaseItem@@UAEPAXI@Z 004670b0 f i BuyDlg.obj
 0001:000660e0       ??_GCBuyDlg@@UAEPAXI@Z     004670e0 f i BuyDlg.obj
 0001:000660e0       ??_ECBuyDlg@@UAEPAXI@Z     004670e0 f i BuyDlg.obj
 0001:00066110       ??1CBuyDlg@@UAE@XZ         00467110 f i BuyDlg.obj
 0001:00066180       ??0CPurchaseBtn@@QAE@VCSkinObj@@PAVCSkinWnd@@@Z 00467180 f i BuyDlg.obj
 0001:00066200       ?OnActivate@CPurchaseBtn@@UAEXFF@Z 00467200 f i BuyDlg.obj
 0001:00066220       ??_GCPurchaseBtn@@UAEPAXI@Z 00467220 f i BuyDlg.obj
 0001:00066220       ??_ECPurchaseBtn@@UAEPAXI@Z 00467220 f i BuyDlg.obj
 0001:00066250       ??1CPurchaseBtn@@UAE@XZ    00467250 f i BuyDlg.obj
 0001:00066270       ??0CSaleListCtrl@@QAE@XZ   00467270 f i BuyDlg.obj
 0001:000662b0       ?OnItemActivate@CSaleListCtrl@@UAEXH_N@Z 004672b0 f i BuyDlg.obj
 0001:000662e0       ??_GCSaleListCtrl@@UAEPAXI@Z 004672e0 f i BuyDlg.obj
 0001:000662e0       ??_ECSaleListCtrl@@UAEPAXI@Z 004672e0 f i BuyDlg.obj
 0001:00066310       ??1CSaleListCtrl@@UAE@XZ   00467310 f i BuyDlg.obj
 0001:00066350       ??0CPurchaseListCtrl@@QAE@XZ 00467350 f i BuyDlg.obj
 0001:00066390       ?OnItemActivate@CPurchaseListCtrl@@UAEXH_N@Z 00467390 f i BuyDlg.obj
 0001:000663c0       ??_GCPurchaseListCtrl@@UAEPAXI@Z 004673c0 f i BuyDlg.obj
 0001:000663c0       ??_ECPurchaseListCtrl@@UAEPAXI@Z 004673c0 f i BuyDlg.obj
 0001:000663f0       ??1CPurchaseListCtrl@@UAE@XZ 004673f0 f i BuyDlg.obj
 0001:00066430       ??_ECBuyVerbs@@UAEPAXI@Z   00467430 f i BuyDlg.obj
 0001:00066430       ??_GCBuyVerbs@@UAEPAXI@Z   00467430 f i BuyDlg.obj
 0001:00066460       ??1CVerbDialog@@UAE@XZ     00467460 f i BuyDlg.obj
 0001:000664f0       ??1?$map@HPAVCVerb@@U?$less@H@std@@V?$allocator@PAVCVerb@@@3@@std@@QAE@XZ 004674f0 f i BuyDlg.obj
 0001:00066510       ??1?$map@HPAVCVerbBtn@@U?$less@H@std@@V?$allocator@PAVCVerbBtn@@@3@@std@@QAE@XZ 00467510 f i BuyDlg.obj
 0001:00066530       ?AssertValid@CObject@@UBEXXZ 00467530 f i BuyDlg.obj
 0001:00066540       ??_GCBuyQuantityDlg@@UAEPAXI@Z 00467540 f i BuyDlg.obj
 0001:00066540       ??_ECBuyQuantityDlg@@UAEPAXI@Z 00467540 f i BuyDlg.obj
 0001:00066570       ??1CBuyQuantityDlg@@UAE@XZ 00467570 f i BuyDlg.obj
 0001:00066590       ??8@YG_NABVCString@@PBD@Z  00467590 f i BuyDlg.obj
 0001:000665b0       ?Compare@CString@@QBEHPBD@Z 004675b0 f i BuyDlg.obj
 0001:000665d0       __tcscmp                   004675d0 f i BuyDlg.obj
 0001:000665f0       ??8@YG_NPBDABVCString@@@Z  004675f0 f i BuyDlg.obj
 0001:00066610       ??0CRect@@QAE@HHHH@Z       00467610 f i BuyDlg.obj
 0001:00066650       ?Height@CRect@@QBEHXZ      00467650 f i BuyDlg.obj
 0001:00066670       ?CenterPoint@CRect@@QBE?AVCPoint@@XZ 00467670 f i BuyDlg.obj
 0001:000666c0       ??BCRect@@QAEPAUtagRECT@@XZ 004676c0 f i BuyDlg.obj
 0001:000666d0       ?OffsetRect@CRect@@QAEXHH@Z 004676d0 f i BuyDlg.obj
 0001:000666f0       ??1?$_Tree@HU?$pair@$$CBHPAVCVerb@@@std@@U_Kfn@?$map@HPAVCVerb@@U?$less@H@std@@V?$allocator@PAVCVerb@@@3@@2@U?$less@H@2@V?$allocator@PAVCVerb@@@2@@std@@QAE@XZ 004676f0 f i BuyDlg.obj
 0001:000667c0       ??1?$vector@PAVCVerbBtn@@V?$allocator@PAVCVerbBtn@@@std@@@std@@QAE@XZ 004677c0 f i BuyDlg.obj
 0001:00066820       ??1?$_Tree@HU?$pair@$$CBHPAVCVerbBtn@@@std@@U_Kfn@?$map@HPAVCVerbBtn@@U?$less@H@std@@V?$allocator@PAVCVerbBtn@@@3@@2@U?$less@H@2@V?$allocator@PAVCVerbBtn@@@2@@std@@QAE@XZ 00467820 f i BuyDlg.obj
 0001:000668f0       ?MoveWindow@CWnd@@QAEXPBUtagRECT@@H@Z 004678f0 f i BuyDlg.obj
 0001:00066930       ?GetWindowRect@CWnd@@QBEXPAUtagRECT@@@Z 00467930 f i BuyDlg.obj
 0001:00066950       ?erase@?$_Tree@HU?$pair@$$CBHPAVCVerb@@@std@@U_Kfn@?$map@HPAVCVerb@@U?$less@H@std@@V?$allocator@PAVCVerb@@@3@@2@U?$less@H@2@V?$allocator@PAVCVerb@@@2@@std@@QAE?AViterator@12@V312@0@Z 00467950 f i BuyDlg.obj
 0001:00066a90       ?erase@?$_Tree@HU?$pair@$$CBHPAVCVerbBtn@@@std@@U_Kfn@?$map@HPAVCVerbBtn@@U?$less@H@std@@V?$allocator@PAVCVerbBtn@@@3@@2@U?$less@H@2@V?$allocator@PAVCVerbBtn@@@2@@std@@QAE?AViterator@12@V312@0@Z 00467a90 f i BuyDlg.obj
 0001:00066bd0       ?DoDataExchange@CWnd@@MAEXPAVCDataExchange@@@Z 00467bd0 f i BuyDlg.obj
 0001:00066be0       ?BeginModalState@CWnd@@UAEXXZ 00467be0 f i BuyDlg.obj
 0001:00066c00       ?EndModalState@CWnd@@UAEXXZ 00467c00 f i BuyDlg.obj
 0001:00066c20       ?erase@?$_Tree@HU?$pair@$$CBHPAVCVerb@@@std@@U_Kfn@?$map@HPAVCVerb@@U?$less@H@std@@V?$allocator@PAVCVerb@@@3@@2@U?$less@H@2@V?$allocator@PAVCVerb@@@2@@std@@QAE?AViterator@12@V312@@Z 00467c20 f i BuyDlg.obj
 0001:00067470       ?_Erase@?$_Tree@HU?$pair@$$CBHPAVCVerb@@@std@@U_Kfn@?$map@HPAVCVerb@@U?$less@H@std@@V?$allocator@PAVCVerb@@@3@@2@U?$less@H@2@V?$allocator@PAVCVerb@@@2@@std@@IAEXPAU_Node@12@@Z 00468470 f i BuyDlg.obj
 0001:00067530       ??Eiterator@?$_Tree@HU?$pair@$$CBHPAVCVerb@@@std@@U_Kfn@?$map@HPAVCVerb@@U?$less@H@std@@V?$allocator@PAVCVerb@@@3@@2@U?$less@H@2@V?$allocator@PAVCVerb@@@2@@std@@QAE?AV012@H@Z 00468530 f i BuyDlg.obj
 0001:00067560       ?erase@?$_Tree@HU?$pair@$$CBHPAVCVerbBtn@@@std@@U_Kfn@?$map@HPAVCVerbBtn@@U?$less@H@std@@V?$allocator@PAVCVerbBtn@@@3@@2@U?$less@H@2@V?$allocator@PAVCVerbBtn@@@2@@std@@QAE?AViterator@12@V312@@Z 00468560 f i BuyDlg.obj
 0001:00067db0       ?_Erase@?$_Tree@HU?$pair@$$CBHPAVCVerbBtn@@@std@@U_Kfn@?$map@HPAVCVerbBtn@@U?$less@H@std@@V?$allocator@PAVCVerbBtn@@@3@@2@U?$less@H@2@V?$allocator@PAVCVerbBtn@@@2@@std@@IAEXPAU_Node@12@@Z 00468db0 f i BuyDlg.obj
 0001:00067e70       ??Eiterator@?$_Tree@HU?$pair@$$CBHPAVCVerbBtn@@@std@@U_Kfn@?$map@HPAVCVerbBtn@@U?$less@H@std@@V?$allocator@PAVCVerbBtn@@@3@@2@U?$less@H@2@V?$allocator@PAVCVerbBtn@@@2@@std@@QAE?AV012@H@Z 00468e70 f i BuyDlg.obj
 0001:00067ea0       ?_Lrotate@?$_Tree@HU?$pair@$$CBHPAVCVerb@@@std@@U_Kfn@?$map@HPAVCVerb@@U?$less@H@std@@V?$allocator@PAVCVerb@@@3@@2@U?$less@H@2@V?$allocator@PAVCVerb@@@2@@std@@IAEXPAU_Node@12@@Z 00468ea0 f i BuyDlg.obj
 0001:00068010       ?_Max@?$_Tree@HU?$pair@$$CBHPAVCVerb@@@std@@U_Kfn@?$map@HPAVCVerb@@U?$less@H@std@@V?$allocator@PAVCVerb@@@3@@2@U?$less@H@2@V?$allocator@PAVCVerb@@@2@@std@@KAPAU_Node@12@PAU312@@Z 00469010 f i BuyDlg.obj
 0001:00068090       ?_Min@?$_Tree@HU?$pair@$$CBHPAVCVerb@@@std@@U_Kfn@?$map@HPAVCVerb@@U?$less@H@std@@V?$allocator@PAVCVerb@@@3@@2@U?$less@H@2@V?$allocator@PAVCVerb@@@2@@std@@KAPAU_Node@12@PAU312@@Z 00469090 f i BuyDlg.obj
 0001:00068110       ?_Rrotate@?$_Tree@HU?$pair@$$CBHPAVCVerb@@@std@@U_Kfn@?$map@HPAVCVerb@@U?$less@H@std@@V?$allocator@PAVCVerb@@@3@@2@U?$less@H@2@V?$allocator@PAVCVerb@@@2@@std@@IAEXPAU_Node@12@@Z 00469110 f i BuyDlg.obj
 0001:00068280       ??Eiterator@?$_Tree@HU?$pair@$$CBHPAVCVerb@@@std@@U_Kfn@?$map@HPAVCVerb@@U?$less@H@std@@V?$allocator@PAVCVerb@@@3@@2@U?$less@H@2@V?$allocator@PAVCVerb@@@2@@std@@QAEAAV012@XZ 00469280 f i BuyDlg.obj
 0001:000682a0       ??8iterator@?$_Tree@PAUHWND__@@U?$pair@QAUHWND__@@PAVCDropTarget@@@std@@U_Kfn@?$map@PAUHWND__@@PAVCDropTarget@@U?$less@PAUHWND__@@@std@@V?$allocator@PAVCDropTarget@@@4@@3@U?$less@PAUHWND__@@@3@V?$allocator@PAVCDropTarget@@@3@@std@@QBE_NABV012@@Z 004692a0 f i BuyDlg.obj
 0001:000682a0       ??8iterator@?$_Tree@PAVCSkinWnd@@PAV1@U_Kfn@?$set@PAVCSkinWnd@@U?$less@PAVCSkinWnd@@@std@@V?$allocator@PAVCSkinWnd@@@3@@std@@U?$less@PAVCSkinWnd@@@4@V?$allocator@PAVCSkinWnd@@@4@@std@@QBE_NABV012@@Z 004692a0 f i BuyDlg.obj
 0001:000682a0       ??8iterator@?$_Tree@HU?$pair@$$CBHVCSCI_WorldObject@@@std@@U_Kfn@?$map@HVCSCI_WorldObject@@U?$less@H@std@@V?$allocator@VCSCI_WorldObject@@@3@@2@U?$less@H@2@V?$allocator@VCSCI_WorldObject@@@2@@std@@QBE_NABV012@@Z 004692a0 f i BuyDlg.obj
 0001:000682a0       ??8iterator@?$list@PAVCListData@@V?$allocator@PAVCListData@@@std@@@std@@QBE_NABV012@@Z 004692a0 f i BuyDlg.obj
 0001:000682a0       ??8iterator@?$list@PAVCVerbRequest@@V?$allocator@PAVCVerbRequest@@@std@@@std@@QBE_NABV012@@Z 004692a0 f i BuyDlg.obj
 0001:000682a0       ??8iterator@?$list@PAVCInventoryDlg@@V?$allocator@PAVCInventoryDlg@@@std@@@std@@QBE_NABV012@@Z 004692a0 f i BuyDlg.obj
 0001:000682a0       ??8iterator@?$_Tree@HU?$pair@$$CBHPAVCMailMsg@@@std@@U_Kfn@?$map@HPAVCMailMsg@@U?$less@H@std@@V?$allocator@PAVCMailMsg@@@3@@2@U?$less@H@2@V?$allocator@PAVCMailMsg@@@2@@std@@QBE_NABV012@@Z 004692a0 f i BuyDlg.obj
 0001:000682a0       ??8iterator@?$list@PAVCSkinWnd@@V?$allocator@PAVCSkinWnd@@@std@@@std@@QBE_NABV012@@Z 004692a0 f i BuyDlg.obj
 0001:000682a0       ??8iterator@?$_Tree@PAVCSkinCtrl@@PAV1@U_Kfn@?$set@PAVCSkinCtrl@@U?$less@PAVCSkinCtrl@@@std@@V?$allocator@PAVCSkinCtrl@@@3@@std@@U?$less@PAVCSkinCtrl@@@4@V?$allocator@PAVCSkinCtrl@@@4@@std@@QBE_NABV012@@Z 004692a0 f i BuyDlg.obj
 0001:000682a0       ??8iterator@?$_Tree@HU?$pair@$$CBHPAVCVerb@@@std@@U_Kfn@?$map@HPAVCVerb@@U?$less@H@std@@V?$allocator@PAVCVerb@@@3@@2@U?$less@H@2@V?$allocator@PAVCVerb@@@2@@std@@QBE_NABV012@@Z 004692a0 f i BuyDlg.obj
 0001:000682a0       ??8iterator@?$list@PAVCSkinCtrl@@V?$allocator@PAVCSkinCtrl@@@std@@@std@@QBE_NABV012@@Z 004692a0 f i BuyDlg.obj
 0001:000682a0       ??8iterator@?$_Tree@PAUHWND__@@U?$pair@QAUHWND__@@PAVCSkinWnd@@@std@@U_Kfn@?$map@PAUHWND__@@PAVCSkinWnd@@U?$less@PAUHWND__@@@std@@V?$allocator@PAVCSkinWnd@@@4@@3@U?$less@PAUHWND__@@@3@V?$allocator@PAVCSkinWnd@@@3@@std@@QBE_NABV012@@Z 004692a0 f i BuyDlg.obj
 0001:000682a0       ??8iterator@?$list@PAVCMailMsg@@V?$allocator@PAVCMailMsg@@@std@@@std@@QBE_NABV012@@Z 004692a0 f i BuyDlg.obj
 0001:000682a0       ??8iterator@?$list@PAVCLookAtItem@@V?$allocator@PAVCLookAtItem@@@std@@@std@@QBE_NABV012@@Z 004692a0 f i BuyDlg.obj
 0001:000682a0       ??8iterator@?$_Tree@HU?$pair@$$CBHPAVCVerbBtn@@@std@@U_Kfn@?$map@HPAVCVerbBtn@@U?$less@H@std@@V?$allocator@PAVCVerbBtn@@@3@@2@U?$less@H@2@V?$allocator@PAVCVerbBtn@@@2@@std@@QBE_NABV012@@Z 004692a0 f i BuyDlg.obj
 0001:000682a0       ??8iterator@?$_Tree@VCSkinObj@@U?$pair@$$CBVCSkinObj@@PAVCSkinCtrl@@@std@@U_Kfn@?$map@VCSkinObj@@PAVCSkinCtrl@@U?$less@VCSkinObj@@@std@@V?$allocator@PAVCSkinCtrl@@@4@@3@U?$less@VCSkinObj@@@3@V?$allocator@PAVCSkinCtrl@@@3@@std@@QBE_NABV012@@Z 004692a0 f i BuyDlg.obj
 0001:000682a0       ??8iterator@?$_Tree@VCSCI_WorldObject@@U?$pair@$$CBVCSCI_WorldObject@@PAVCInventoryDlg@@@std@@U_Kfn@?$map@VCSCI_WorldObject@@PAVCInventoryDlg@@U?$less@VCSCI_WorldObject@@@std@@V?$allocator@PAVCInventoryDlg@@@4@@3@U?$less@VCSCI_WorldObject@@@3@V?$allocator@PAVCInventoryDlg@@@3@@std@@QBE_NABV012@@Z 004692a0 f i BuyDlg.obj
 0001:000682a0       ??8iterator@?$_Tree@VCSCI_Object@@U?$pair@$$CBVCSCI_Object@@PAVCNoButtonDlg@@@std@@U_Kfn@?$map@VCSCI_Object@@PAVCNoButtonDlg@@U?$less@VCSCI_Object@@@std@@V?$allocator@PAVCNoButtonDlg@@@4@@3@U?$less@VCSCI_Object@@@3@V?$allocator@PAVCNoButtonDlg@@@3@@std@@QBE_NABV012@@Z 004692a0 f i BuyDlg.obj
 0001:000682a0       ??8iterator@?$_Tree@V?$basic_string@DU?$char_traits@D@std@@V?$allocator@D@2@@std@@U?$pair@$$CBV?$basic_string@DU?$char_traits@D@std@@V?$allocator@D@2@@std@@VCPoint@@@2@U_Kfn@?$map@V?$basic_string@DU?$char_traits@D@std@@V?$allocator@D@2@@std@@VCPoint@@U?$less@V?$basic_string@DU?$char_traits@D@std@@V?$allocator@D@2@@std@@@2@V?$allocator@VCPoint@@@2@@2@U?$less@V?$basic_string@DU?$char_traits@D@std@@V?$allocator@D@2@@std@@@2@V?$allocator@VCPoint@@@2@@std@@QBE_NABV012@@Z 004692a0 f i BuyDlg.obj
 0001:000682a0       ??8iterator@?$_Tree@PAUHWND__@@U?$pair@QAUHWND__@@PAVCMouseWheelable@@@std@@U_Kfn@?$map@PAUHWND__@@PAVCMouseWheelable@@U?$less@PAUHWND__@@@std@@V?$allocator@PAVCMouseWheelable@@@4@@3@U?$less@PAUHWND__@@@3@V?$allocator@PAVCMouseWheelable@@@3@@std@@QBE_NABV012@@Z 004692a0 f i BuyDlg.obj
 0001:000682a0       ??8iterator@?$list@PADV?$allocator@PAD@std@@@std@@QBE_NABV012@@Z 004692a0 f i BuyDlg.obj
 0001:000682a0       ??8iterator@?$_Tree@VCSkinObj@@U?$pair@$$CBVCSkinObj@@PAVCFastScrollCtrl@@@std@@U_Kfn@?$map@VCSkinObj@@PAVCFastScrollCtrl@@U?$less@VCSkinObj@@@std@@V?$allocator@PAVCFastScrollCtrl@@@4@@3@U?$less@VCSkinObj@@@3@V?$allocator@PAVCFastScrollCtrl@@@3@@std@@QBE_NABV012@@Z 004692a0 f i BuyDlg.obj
 0001:000682a0       ??8iterator@?$_Tree@VCString@@U?$pair@$$CBVCString@@VCPerson@@@std@@U_Kfn@?$map@VCString@@VCPerson@@U?$less@VCString@@@std@@V?$allocator@VCPerson@@@4@@3@U?$less@VCString@@@3@V?$allocator@VCPerson@@@3@@std@@QBE_NABV012@@Z 004692a0 f i BuyDlg.obj
 0001:000682a0       ??8iterator@?$_Tree@HU?$pair@$$CBHPAVCMailMsgWnd@@@std@@U_Kfn@?$map@HPAVCMailMsgWnd@@U?$less@H@std@@V?$allocator@PAVCMailMsgWnd@@@3@@2@U?$less@H@2@V?$allocator@PAVCMailMsgWnd@@@2@@std@@QBE_NABV012@@Z 004692a0 f i BuyDlg.obj
 0001:000682c0       ?_Lrotate@?$_Tree@HU?$pair@$$CBHPAVCVerbBtn@@@std@@U_Kfn@?$map@HPAVCVerbBtn@@U?$less@H@std@@V?$allocator@PAVCVerbBtn@@@3@@2@U?$less@H@2@V?$allocator@PAVCVerbBtn@@@2@@std@@IAEXPAU_Node@12@@Z 004692c0 f i BuyDlg.obj
 0001:00068430       ?_Max@?$_Tree@HU?$pair@$$CBHPAVCVerbBtn@@@std@@U_Kfn@?$map@HPAVCVerbBtn@@U?$less@H@std@@V?$allocator@PAVCVerbBtn@@@3@@2@U?$less@H@2@V?$allocator@PAVCVerbBtn@@@2@@std@@KAPAU_Node@12@PAU312@@Z 00469430 f i BuyDlg.obj
 0001:000684b0       ?_Min@?$_Tree@HU?$pair@$$CBHPAVCVerbBtn@@@std@@U_Kfn@?$map@HPAVCVerbBtn@@U?$less@H@std@@V?$allocator@PAVCVerbBtn@@@3@@2@U?$less@H@2@V?$allocator@PAVCVerbBtn@@@2@@std@@KAPAU_Node@12@PAU312@@Z 004694b0 f i BuyDlg.obj
 0001:00068530       ?_Rrotate@?$_Tree@HU?$pair@$$CBHPAVCVerbBtn@@@std@@U_Kfn@?$map@HPAVCVerbBtn@@U?$less@H@std@@V?$allocator@PAVCVerbBtn@@@3@@2@U?$less@H@2@V?$allocator@PAVCVerbBtn@@@2@@std@@IAEXPAU_Node@12@@Z 00469530 f i BuyDlg.obj
 0001:000686a0       ??Eiterator@?$_Tree@HU?$pair@$$CBHPAVCVerbBtn@@@std@@U_Kfn@?$map@HPAVCVerbBtn@@U?$less@H@std@@V?$allocator@PAVCVerbBtn@@@3@@2@U?$less@H@2@V?$allocator@PAVCVerbBtn@@@2@@std@@QAEAAV012@XZ 004696a0 f i BuyDlg.obj
 0001:000686c0       ?_Inc@const_iterator@?$_Tree@HU?$pair@$$CBHPAVCVerb@@@std@@U_Kfn@?$map@HPAVCVerb@@U?$less@H@std@@V?$allocator@PAVCVerb@@@3@@2@U?$less@H@2@V?$allocator@PAVCVerb@@@2@@std@@QAEXXZ 004696c0 f i BuyDlg.obj
 0001:000687a0       ?_Inc@const_iterator@?$_Tree@HU?$pair@$$CBHPAVCVerbBtn@@@std@@U_Kfn@?$map@HPAVCVerbBtn@@U?$less@H@std@@V?$allocator@PAVCVerbBtn@@@3@@2@U?$less@H@2@V?$allocator@PAVCVerbBtn@@@2@@std@@QAEXXZ 004697a0 f i BuyDlg.obj
 0001:00068880       ??_ECSaleListCtrl@@WEA@AEPAXI@Z 00469880 f i BuyDlg.obj
 0001:00068890       ??_ECSaleListCtrl@@WHE@AEPAXI@Z 00469890 f i BuyDlg.obj
 0001:000688a0       ??_ECPurchaseListCtrl@@WEA@AEPAXI@Z 004698a0 f i BuyDlg.obj
 0001:000688b0       ??_ECPurchaseListCtrl@@WHE@AEPAXI@Z 004698b0 f i BuyDlg.obj
 0001:000688c0       ??_ECBuyDlg@@WJE@AEPAXI@Z  004698c0 f i BuyDlg.obj
 0001:000688d0       ?SetImageList@CListCtrl@@QAEPAVCImageList@@PAV2@H@Z 004698d0 f i BuyDlg.obj
 0001:00068910       ?GetSafeHandle@CImageList@@QBEPAU_IMAGELIST@@XZ 00469910 f i BuyDlg.obj
 0001:00068940       ?RequestResize@CRichEditCtrl@@QAEXXZ 00469940 f i BuyDlg.obj
 0001:00068970       ?SetEventMask@CRichEditCtrl@@QAEKK@Z 00469970 f i BuyDlg.obj
 0001:000689a0       ?get_pCommand@CSCI_NetMsg@@QAEFXZ 004699a0 f i BuyDlg.obj
 0001:000689c0       ?get_pAckCmd@CSCI_NetMsg@@QAE?AVCSCI_LongInt@@XZ 004699c0 f i BuyDlg.obj
 0001:000689f0       ?get_pNakCmd@CSCI_NetMsg@@QAE?AVCSCI_LongInt@@XZ 004699f0 f i BuyDlg.obj
 0001:00068a20       ?get_pValue@CSCI_WorldObject@@QAE?AVCSCI_LongInt@@XZ 00469a20 f i BuyDlg.obj
 0001:00068a50       ??0CSCI_RoomZero@@QAE@G@Z  00469a50 f i BuyDlg.obj
 0001:00068a50       ??0CSCI_RealmRoom@@QAE@G@Z 00469a50 f i BuyDlg.obj
 0001:00068a50       ??0CSCI_BWearable@@QAE@G@Z 00469a50 f i BuyDlg.obj
 0001:00068a50       ??0CSCI_BCarryable@@QAE@G@Z 00469a50 f i BuyDlg.obj
 0001:00068a50       ??0CSCI_MakeItemDialog@@QAE@G@Z 00469a50 f i BuyDlg.obj
 0001:00068a50       ??0CSCI_BContainer@@QAE@G@Z 00469a50 f i BuyDlg.obj
 0001:00068a50       ??0CSCI_BitMap@@QAE@G@Z    00469a50 f i BuyDlg.obj
 0001:00068a50       ??0CSCI_MusicMgr@@QAE@G@Z  00469a50 f i BuyDlg.obj
 0001:00068a50       ??0CSCI_ByteArray@@QAE@G@Z 00469a50 f i BuyDlg.obj
 0001:00068a50       ??0CSCI_GameServer@@QAE@G@Z 00469a50 f i BuyDlg.obj
 0001:00068a50       ??0CSCI_Plane@@QAE@G@Z     00469a50 f i BuyDlg.obj
 0001:00068a50       ??0CSCI_BCharacter@@QAE@G@Z 00469a50 f i BuyDlg.obj
 0001:00068a50       ??0CSCI_BNPC@@QAE@G@Z      00469a50 f i BuyDlg.obj
 0001:00068a50       ??0CSCI_List@@QAE@G@Z      00469a50 f i BuyDlg.obj
 0001:00068a70       ??0CSCI_GroupMember@@QAE@G@Z 00469a70 f i BuyDlg.obj
 0001:00068a70       ??0CSCI_WinDialogHandler@@QAE@G@Z 00469a70 f i BuyDlg.obj
 0001:00068a70       ??0CSCI_Rectangle@@QAE@G@Z 00469a70 f i BuyDlg.obj
 0001:00068a70       ??0CSCI_ArmorInfo@@QAE@G@Z 00469a70 f i BuyDlg.obj
 0001:00068a70       ??0CSCI_WorldObjectBase@@QAE@G@Z 00469a70 f i BuyDlg.obj
 0001:00068a70       ??0CSCI_Game@@QAE@G@Z      00469a70 f i BuyDlg.obj
 0001:00068a70       ??0CSCI_CVerbRequest@@QAE@G@Z 00469a70 f i BuyDlg.obj
 0001:00068a70       ??0CSCI_Sound@@QAE@G@Z     00469a70 f i BuyDlg.obj
 0001:00068a70       ??0CSCI_LongInt@@QAE@G@Z   00469a70 f i BuyDlg.obj
 0001:00068a70       ??0CSCI_ServerInfo@@QAE@G@Z 00469a70 f i BuyDlg.obj
 0001:00068a70       ??0CSCI_Array@@QAE@G@Z     00469a70 f i BuyDlg.obj
 0001:00068a70       ??0CSCI_ManagedRoom@@QAE@G@Z 00469a70 f i BuyDlg.obj
 0001:00068a70       ??0CSCI_Server@@QAE@G@Z    00469a70 f i BuyDlg.obj
 0001:00068a70       ??0CSCI_Script@@QAE@G@Z    00469a70 f i BuyDlg.obj
 0001:00068a70       ??0CSCI_CharInfo@@QAE@G@Z  00469a70 f i BuyDlg.obj
 0001:00068a70       ??0CSCI_Collection@@QAE@G@Z 00469a70 f i BuyDlg.obj
 0001:00068a90       ?GetGlobal@PMachine@@QAEFH@Z 00469a90 f i BuyDlg.obj
 0001:00068ab0       ?GetItemTextColor@CSkinListCtrl@@MAEKH@Z 00469ab0 f i BuyDlg.obj
 0001:00068ad0       ?GetItemBGColor@CSkinListCtrl@@MAEKH@Z 00469ad0 f i BuyDlg.obj
 0001:00068af0       ?PutWord@CPackedData@@QAEXF@Z 00469af0 f i BuyDlg.obj
 0001:00068b30       ?PutByte@CPackedData@@QAEXE@Z 00469b30 f i BuyDlg.obj
 0001:00068b80       ?CheckBounds@OCArray@@IAEXH@Z 00469b80 f i BuyDlg.obj
 0001:00068bd0       ?PutLong@CPackedData@@QAEXH@Z 00469bd0 f i BuyDlg.obj
 0001:00068c40       ?IsCrystals@CPurchaseItem@@QAE_NXZ 00469c40 f i BuyDlg.obj
 0001:00068c60       ?GetIndex@CPurchaseItem@@QAEHXZ 00469c60 f i BuyDlg.obj
 0001:00068c80       ?GetIcon@CPurchaseItem@@QAEHXZ 00469c80 f i BuyDlg.obj
 0001:00068ca0       ?GetClutStart@CPurchaseItem@@QAEHXZ 00469ca0 f i BuyDlg.obj
 0001:00068cc0       ?GetColor@CPurchaseItem@@QAEHXZ 00469cc0 f i BuyDlg.obj
 0001:00068ce0       ?GetWeight@CPurchaseItem@@QAEHXZ 00469ce0 f i BuyDlg.obj
 0001:00068d00       ?CloseMe@CBuyDlg@@QAEXXZ   00469d00 f i BuyDlg.obj
 0001:00068d20       ??0CSkinObj@@QAE@ABV0@@Z   00469d20 f i BuyDlg.obj
 0001:00068d50       ??1CSkinBtn@@UAE@XZ        00469d50 f i BuyDlg.obj
 0001:00068d50       ??1CReflectToParentCtrl@@UAE@XZ 00469d50 f i BuyDlg.obj
 0001:00068d70       ??_GCSkinObj@@UAEPAXI@Z    00469d70 f i BuyDlg.obj
 0001:00068d70       ??_ECSkinObj@@UAEPAXI@Z    00469d70 f i BuyDlg.obj
 0001:00068da0       ?BringTabToTop@CMainPanelWnd@@QAEXXZ 00469da0 f i BuyDlg.obj
 0001:00068de0       ?perform@CSCI_Object@@QAEXF@Z 00469de0 f   C++SCI.obj
 0001:00068e3b       ?newInstance@CSCI_Object@@QAE?AVObjectID@@XZ 00469e3b f   C++SCI.obj
 0001:00068ea8       ?doit@CSCI_Object@@QAEFXZ  00469ea8 f   C++SCI.obj
 0001:00068f03       ?doit@CSCI_Object@@QAEFF@Z 00469f03 f   C++SCI.obj
 0001:00068f64       ?CallMethod@CSCI_Object@@QAEXF@Z 00469f64 f   C++SCI.obj
 0001:00068fc0       ?CallMethod@CSCI_Object@@QAEXFF@Z 00469fc0 f   C++SCI.obj
 0001:0006901e       ?getAffectedState@CSCI_CharInfo@@QAEFF@Z 0046a01e f   C++SCI.obj
 0001:00069082       ?play@CSCI_Sound@@QAEXF@Z  0046a082 f   C++SCI.obj
 0001:000690dd       ?equal@CSCI_LongInt@@QAEFFF@Z 0046a0dd f   C++SCI.obj
 0001:0006914f       ?equalLong@CSCI_LongInt@@QAEFV1@@Z 0046a14f f   C++SCI.obj
 0001:000691b3       ?set@CSCI_LongInt@@QAEXFF@Z 0046a1b3 f   C++SCI.obj
 0001:0006921f       ?setLong@CSCI_LongInt@@QAEXF@Z 0046a21f f   C++SCI.obj
 0001:0006927d       ?setMessage@CSCI_WorldObject@@QAEXF@Z 0046a27d f   C++SCI.obj
 0001:000692db       ?handleVerb@CSCI_WorldObject@@QAEXF@Z 0046a2db f   C++SCI.obj
 0001:00069339       ?look@CSCI_WorldObject@@QAEXF@Z 0046a339 f   C++SCI.obj
 0001:00069397       ?FindByServID@CSCI_WorldObject@@SA?AV1@H@Z 0046a397 f   C++SCI.obj
 0001:000693bb       ?createDisplay@CSCI_WorldObject@@QAEFF@Z 0046a3bb f   C++SCI.obj
 0001:0006941f       ?fromPacket@CSCI_WorldObject@@QAEFFF@Z 0046a41f f   C++SCI.obj
 0001:00069492       ?fromExtendedPacket@CSCI_WorldObject@@QAEXF@Z 0046a492 f   C++SCI.obj
 0001:000694f0       ?addValue@CSCI_WorldObject@@QAEXF@Z 0046a4f0 f   C++SCI.obj
 0001:0006954e       ?subValue@CSCI_WorldObject@@QAEXF@Z 0046a54e f   C++SCI.obj
 0001:000695ac       ?addManaValue@CSCI_WorldObject@@QAEXF@Z 0046a5ac f   C++SCI.obj
 0001:0006960a       ?subManaValue@CSCI_WorldObject@@QAEXF@Z 0046a60a f   C++SCI.obj
 0001:00069668       ?getAffectedState@CSCI_WorldObject@@QAEFF@Z 0046a668 f   C++SCI.obj
 0001:000696cc       ?servIDEquals@CSCI_WorldObject@@QAEFF@Z 0046a6cc f   C++SCI.obj
 0001:00069730       ?getBaseCharacter@CSCI_WorldObject@@QAE?AVCSCI_BCharacter@@XZ 0046a730 f   C++SCI.obj
 0001:000697b7       ?getBaseCarryable@CSCI_WorldObject@@QAE?AVCSCI_BCarryable@@XZ 0046a7b7 f   C++SCI.obj
 0001:0006983e       ?getBaseWearable@CSCI_WorldObject@@QAE?AVCSCI_BWearable@@XZ 0046a83e f   C++SCI.obj
 0001:000698c5       ?getBaseWeapon@CSCI_WorldObject@@QAE?AVCSCI_BWeapon@@XZ 0046a8c5 f   C++SCI.obj
 0001:0006994c       ?getBaseNPC@CSCI_WorldObject@@QAE?AVCSCI_BNPC@@XZ 0046a94c f   C++SCI.obj
 0001:000699d3       ?getBaseContainer@CSCI_WorldObject@@QAE?AVCSCI_BContainer@@XZ 0046a9d3 f   C++SCI.obj
 0001:00069a5a       ?getBaseHead@CSCI_WorldObject@@QAE?AVCSCI_BHead@@XZ 0046aa5a f   C++SCI.obj
 0001:00069ae1       ?getVerb@CSCI_WorldObject@@QAEXV1@@Z 0046aae1 f   C++SCI.obj
 0001:00069b3f       ?getBitmap@CSCI_WorldObject@@QAE?AVObjectID@@XZ 0046ab3f f   C++SCI.obj
 0001:00069bac       ?getName@CSCI_WorldObject@@QAE?AVStringID@@XZ 0046abac f   C++SCI.obj
 0001:00069c25       ?buildVerbList@CSCI_WorldObject@@QAEXV1@@Z 0046ac25 f   C++SCI.obj
 0001:00069c83       ?setProperName@CSCI_BCharacter@@QAEXF@Z 0046ac83 f   C++SCI.obj
 0001:00069ce1       ?setTitle@CSCI_BCharacter@@QAEXF@Z 0046ace1 f   C++SCI.obj
 0001:00069d3f       ?setBiography@CSCI_BCharacter@@QAEXF@Z 0046ad3f f   C++SCI.obj
 0001:00069d9d       ?deltaFeatureSelect@CSCI_BHead@@QAEXFF@Z 0046ad9d f   C++SCI.obj
 0001:00069e0a       ?nextFeature@CSCI_BHead@@QAEXF@Z 0046ae0a f   C++SCI.obj
 0001:00069e68       ?prevFeature@CSCI_BHead@@QAEXF@Z 0046ae68 f   C++SCI.obj
 0001:00069ec6       ?getHeadBitmap@CSCI_fNBody@@QAE?AVObjectID@@XZ 0046aec6 f   C++SCI.obj
 0001:00069f33       ?getAttackBitmap@CSCI_fNBody@@QAE?AVObjectID@@XZ 0046af33 f   C++SCI.obj
 0001:00069fa0       ?getStanceBitmap@CSCI_fNBody@@QAE?AVObjectID@@F@Z 0046afa0 f   C++SCI.obj
 0001:0006a011       ?setSex@CSCI_WorldActor@@QAEXF@Z 0046b011 f   C++SCI.obj
 0001:0006a06f       ?setRace@CSCI_WorldActor@@QAEXF@Z 0046b06f f   C++SCI.obj
 0001:0006a0cd       ?getSex@CSCI_WorldActor@@QAEFXZ 0046b0cd f   C++SCI.obj
 0001:0006a12b       ?getRace@CSCI_WorldActor@@QAEFXZ 0046b12b f   C++SCI.obj
 0001:0006a189       ?stopAction@CSCI_WorldEgo@@QAEXXZ 0046b189 f   C++SCI.obj
 0001:0006a1e1       ?stopTargetting@CSCI_WorldEgo@@QAEXXZ 0046b1e1 f   C++SCI.obj
 0001:0006a239       ?setPassword@CSCI_WorldEgo@@QAEXXZ 0046b239 f   C++SCI.obj
 0001:0006a291       ?contains@CSCI_Collection@@QAEFF@Z 0046b291 f   C++SCI.obj
 0001:0006a2f5       ?at@CSCI_List@@QAEFF@Z     0046b2f5 f   C++SCI.obj
 0001:0006a356       ?at@CSCI_Array@@QAEFF@Z    0046b356 f   C++SCI.obj
 0001:0006a3b7       ?controlOff@CSCI_Game@@QAEXXZ 0046b3b7 f   C++SCI.obj
 0001:0006a40f       ?controlOn@CSCI_Game@@QAEXXZ 0046b40f f   C++SCI.obj
 0001:0006a467       ?handsOff@CSCI_Game@@QAEXXZ 0046b467 f   C++SCI.obj
 0001:0006a4bf       ?handsOn@CSCI_Game@@QAEXXZ 0046b4bf f   C++SCI.obj
 0001:0006a517       ?getShopItemImage@CSCI_GameServer@@QAEFFFF@Z 0046b517 f   C++SCI.obj
 0001:0006a593       ?updatePingText@CSCI_GameServer@@QAEXXZ 0046b593 f   C++SCI.obj
 0001:0006a5eb       ?leaveGroup@CSCI_GameServer@@QAEXF@Z 0046b5eb f   C++SCI.obj
 0001:0006a649       ?kickGroup@CSCI_GameServer@@QAEXF@Z 0046b649 f   C++SCI.obj
 0001:0006a6a7       ?getQuestList@CSCI_GameServer@@QAEXXZ 0046b6a7 f   C++SCI.obj
 0001:0006a6ff       ?restartGame@CSCI_GameServer@@QAEXXZ 0046b6ff f   C++SCI.obj
 0001:0006a757       ?getMail@CSCI_GameServer@@QAEXXZ 0046b757 f   C++SCI.obj
 0001:0006a7af       ?getMailMessage@CSCI_GameServer@@QAEXF@Z 0046b7af f   C++SCI.obj
 0001:0006a80d       ?eraseMailMessage@CSCI_GameServer@@QAEXF@Z 0046b80d f   C++SCI.obj
 0001:0006a86b       ?sendMail@CSCI_GameServer@@QAEXVTextID@@00@Z 0046b86b f   C++SCI.obj
 0001:0006a8ed       ?cue@CSCI_Script@@QAEXXZ   0046b8ed f   C++SCI.obj
 0001:0006a945       ?dispose@CSCI_Object@@QAEXXZ 0046b945 f   C++SCI.obj
 0001:0006a99d       ?cast@CSCI_Spell@@QAEXXZ   0046b99d f   C++SCI.obj
 0001:0006a9f5       ?canCast@CSCI_Spell@@QAEFXZ 0046b9f5 f   C++SCI.obj
 0001:0006aa53       ?release@CSCI_Collection@@QAEXXZ 0046ba53 f   C++SCI.obj
 0001:0006aaab       ?addToEnd@CSCI_List@@QAEXF@Z 0046baab f   C++SCI.obj
 0001:0006ab10       ??0CChannelMemberList@@QAE@XZ 0046bb10 f   chanlist.obj
 0001:0006ab3f       ??1CChannelMemberList@@QAE@XZ 0046bb3f f   chanlist.obj
 0001:0006ab87       ?findMember@CChannelMemberList@@IAEPADPAD@Z 0046bb87 f   chanlist.obj
 0001:0006ac0a       ?addPlayer@CChannelMemberList@@QAEXPAD_N@Z 0046bc0a f   chanlist.obj
 0001:0006ad16       ?delPlayer@CChannelMemberList@@QAEXPAD@Z 0046bd16 f   chanlist.obj
 0001:0006ad82       ?isMember@CChannelMemberList@@QAE_NPAD@Z 0046bd82 f   chanlist.obj
 0001:0006adb5       ?clearList@CChannelMemberList@@QAEXXZ 0046bdb5 f   chanlist.obj
 0001:0006ae7b       ?fromPacket@CChannelMemberList@@QAEXPAVPackedData@@@Z 0046be7b f   chanlist.obj
 0001:0006af89       ?setListCtrl@CChannelMemberList@@QAEXPAVCSkinListCtrl@@@Z 0046bf89 f   chanlist.obj
 0001:0006af9f       ?Compare@CChannelMemberList@@KGHPAD0H@Z 0046bf9f f   chanlist.obj
 0001:0006afdd       ?Sort@CChannelMemberList@@QAEXXZ 0046bfdd f   chanlist.obj
 0001:0006b015       ?HandleMsg@CChannelMemberList@@QAEXPAD@Z 0046c015 f   chanlist.obj
 0001:0006b112       ??0CChannelBannedList@@QAE@XZ 0046c112 f   chanlist.obj
 0001:0006b141       ??1CChannelBannedList@@QAE@XZ 0046c141 f   chanlist.obj
 0001:0006b189       ?findMember@CChannelBannedList@@IAEPADPAD@Z 0046c189 f   chanlist.obj
 0001:0006b209       ?addPlayer@CChannelBannedList@@QAEXPAD@Z 0046c209 f   chanlist.obj
 0001:0006b26b       ?delPlayer@CChannelBannedList@@QAEXPAD@Z 0046c26b f   chanlist.obj
 0001:0006b2d7       ?isMember@CChannelBannedList@@QAE_NPAD@Z 0046c2d7 f   chanlist.obj
 0001:0006b2fe       ?clearList@CChannelBannedList@@QAEXXZ 0046c2fe f   chanlist.obj
 0001:0006b38f       ?fromPacket@CChannelBannedList@@QAEXPAVPackedData@@@Z 0046c38f f   chanlist.obj
 0001:0006b3ff       ?setListCtrl@CChannelBannedList@@QAEXPAVCSkinListCtrl@@@Z 0046c3ff f   chanlist.obj
 0001:0006b415       ??0CChanListWnd@@QAE@XZ    0046c415 f   chanlist.obj
 0001:0006b496       ?CloseSelf@CChanListWnd@@UAEX_N@Z 0046c496 f   chanlist.obj
 0001:0006b505       ?Create@CChanListWnd@@QAEHPAVPackedData@@@Z 0046c505 f   chanlist.obj
 0001:0006b6d5       ?MakeSkinCtrl@CChanListWnd@@UAEPAVCSkinCtrl@@VCSkinObj@@@Z 0046c6d5 f   chanlist.obj
 0001:0006b90f       ??0CChMemberListWnd@@QAE@XZ 0046c90f f   chanlist.obj
 0001:0006b990       ?CloseSelf@CChMemberListWnd@@UAEX_N@Z 0046c990 f   chanlist.obj
 0001:0006b9c0       ?Create@CChMemberListWnd@@QAEHPAVPackedData@@@Z 0046c9c0 f   chanlist.obj
 0001:0006ba9f       ?MakeSkinCtrl@CChMemberListWnd@@UAEPAVCSkinCtrl@@VCSkinObj@@@Z 0046ca9f f   chanlist.obj
 0001:0006bc36       ??0CChBannedListWnd@@QAE@XZ 0046cc36 f   chanlist.obj
 0001:0006bcb7       ?CloseSelf@CChBannedListWnd@@UAEX_N@Z 0046ccb7 f   chanlist.obj
 0001:0006bce7       ?Create@CChBannedListWnd@@QAEHPAVPackedData@@@Z 0046cce7 f   chanlist.obj
 0001:0006bdc6       ?MakeSkinCtrl@CChBannedListWnd@@UAEPAVCSkinCtrl@@VCSkinObj@@@Z 0046cdc6 f   chanlist.obj
 0001:0006bf5d       ?_GetBaseMessageMap@CGossipWnd@@KGPBUAFX_MSGMAP@@XZ 0046cf5d f   chanlist.obj
 0001:0006bf67       ?GetMessageMap@CGossipWnd@@MBEPBUAFX_MSGMAP@@XZ 0046cf67 f   chanlist.obj
 0001:0006bf77       ??0CGossipWnd@@QAE@XZ      0046cf77 f   chanlist.obj
 0001:0006c0ae       ?ParseText@CGossipWnd@@UAEHPBD@Z 0046d0ae f   chanlist.obj
 0001:0006c14e       ?SetInChannel@CGossipWnd@@QAEX_N@Z 0046d14e f   chanlist.obj
 0001:0006c2fb       ?Create@CGossipWnd@@QAEHXZ 0046d2fb f   chanlist.obj
 0001:0006c4c4       ?MakeSkinCtrl@CGossipWnd@@UAEPAVCSkinCtrl@@VCSkinObj@@@Z 0046d4c4 f   chanlist.obj
 0001:0006ca47       ?CloseSelf@CGossipWnd@@UAEX_N@Z 0046da47 f   chanlist.obj
 0001:0006ca6a       ?Update@CGossipWnd@@QAEXVObjectID@@@Z 0046da6a f   chanlist.obj
 0001:0006cb49       ?Update@CGossipWnd@@QAEXPAD@Z 0046db49 f   chanlist.obj
 0001:0006cc8b       ?SetTitle@CGossipWnd@@QAEXPAD@Z 0046dc8b f   chanlist.obj
 0001:0006ccdf       ?SetTopic@CGossipWnd@@QAEXPAD@Z 0046dcdf f   chanlist.obj
 0001:0006cd7f       ?HandleVerb@CGossipWnd@@UAEHHVCSCI_WorldObject@@@Z 0046dd7f f   chanlist.obj
 0001:0006cef5       ?OnSetFocus@CGossipWnd@@QAEXPAVCWnd@@@Z 0046def5 f   chanlist.obj
 0001:0006cf2b       ??0CGossipLine@@QAE@VCSkinObj@@PAVCSkinWnd@@@Z 0046df2b f   chanlist.obj
 0001:0006cfcc       ?OnReturn@CGossipLine@@UAEXXZ 0046dfcc f   chanlist.obj
 0001:0006d07b       ??0CSettingsBtn@@QAE@VCSkinObj@@PAVCSkinWnd@@@Z 0046e07b f   chanlist.obj
 0001:0006d0ee       ?OnActivate@CSettingsBtn@@UAEXFF@Z 0046e0ee f   chanlist.obj
 0001:0006d16b       ??0CChannelsBtn@@QAE@VCSkinObj@@PAVCSkinWnd@@@Z 0046e16b f   chanlist.obj
 0001:0006d1de       ?OnActivate@CChannelsBtn@@UAEXFF@Z 0046e1de f   chanlist.obj
 0001:0006d1f8       ??0CLeaveGossipBtn@@QAE@VCSkinObj@@PAVCSkinWnd@@@Z 0046e1f8 f   chanlist.obj
 0001:0006d26b       ?OnActivate@CLeaveGossipBtn@@UAEXFF@Z 0046e26b f   chanlist.obj
 0001:0006d2a8       ??0CModifyBtn@@QAE@VCSkinObj@@PAVCSkinWnd@@@Z 0046e2a8 f   chanlist.obj
 0001:0006d31b       ?OnActivate@CModifyBtn@@UAEXFF@Z 0046e31b f   chanlist.obj
 0001:0006d3a4       ??0CGossipPanel@@QAE@XZ    0046e3a4 f   chanlist.obj
 0001:0006d3d0       ?Create@CGossipPanel@@UAEHXZ 0046e3d0 f   chanlist.obj
 0001:0006d480       ??_ECChanListWnd@@UAEPAXI@Z 0046e480 f i chanlist.obj
 0001:0006d480       ??_ECGspSettingsDlg@@UAEPAXI@Z 0046e480 f i chanlist.obj
 0001:0006d480       ??_GCChanListWnd@@UAEPAXI@Z 0046e480 f i chanlist.obj
 0001:0006d480       ??_GCPatchDlg@@UAEPAXI@Z   0046e480 f i chanlist.obj
 0001:0006d480       ??_GCGspSettingsDlg@@UAEPAXI@Z 0046e480 f i chanlist.obj
 0001:0006d480       ??_ECGroupListWnd@@UAEPAXI@Z 0046e480 f i chanlist.obj
 0001:0006d480       ??_GCGroupListWnd@@UAEPAXI@Z 0046e480 f i chanlist.obj
 0001:0006d480       ??_ECPatchDlg@@UAEPAXI@Z   0046e480 f i chanlist.obj
 0001:0006d4b0       ??0CChannelListCtrl@@QAE@XZ 0046e4b0 f i chanlist.obj
 0001:0006d4f0       ?OnItemActivate@CChannelListCtrl@@UAEXH_N@Z 0046e4f0 f i chanlist.obj
 0001:0006d590       ??_ECChannelListCtrl@@UAEPAXI@Z 0046e590 f i chanlist.obj
 0001:0006d590       ??_GCChannelListCtrl@@UAEPAXI@Z 0046e590 f i chanlist.obj
 0001:0006d5c0       ??1CChannelListCtrl@@UAE@XZ 0046e5c0 f i chanlist.obj
 0001:0006d600       ??0CChMemberListCtrl@@QAE@XZ 0046e600 f i chanlist.obj
 0001:0006d640       ?OnItemActivate@CChMemberListCtrl@@UAEXH_N@Z 0046e640 f i chanlist.obj
 0001:0006d7f0       ??_ECChMemberListCtrl@@UAEPAXI@Z 0046e7f0 f i chanlist.obj
 0001:0006d7f0       ??_GCChMemberListCtrl@@UAEPAXI@Z 0046e7f0 f i chanlist.obj
 0001:0006d820       ??1CChMemberListCtrl@@UAE@XZ 0046e820 f i chanlist.obj
 0001:0006d860       ??0CChBannedListCtrl@@QAE@XZ 0046e860 f i chanlist.obj
 0001:0006d8a0       ?OnItemActivate@CChBannedListCtrl@@UAEXH_N@Z 0046e8a0 f i chanlist.obj
 0001:0006d9f0       ??_ECChBannedListCtrl@@UAEPAXI@Z 0046e9f0 f i chanlist.obj
 0001:0006d9f0       ??_GCChBannedListCtrl@@UAEPAXI@Z 0046e9f0 f i chanlist.obj
 0001:0006da20       ??1CChBannedListCtrl@@UAE@XZ 0046ea20 f i chanlist.obj
 0001:0006da60       ??_GCGossipWnd@@UAEPAXI@Z  0046ea60 f i chanlist.obj
 0001:0006da60       ??_ECGossipWnd@@UAEPAXI@Z  0046ea60 f i chanlist.obj
 0001:0006da90       ??1CGossipWnd@@UAE@XZ      0046ea90 f i chanlist.obj
 0001:0006db00       ??1CSkinEdit@@UAE@XZ       0046eb00 f i chanlist.obj
 0001:0006db90       ??_GCChannelsBtn@@UAEPAXI@Z 0046eb90 f i chanlist.obj
 0001:0006db90       ??_ECChannelsBtn@@UAEPAXI@Z 0046eb90 f i chanlist.obj
 0001:0006dbc0       ??1CChannelsBtn@@UAE@XZ    0046ebc0 f i chanlist.obj
 0001:0006dbe0       ??_GCLeaveGossipBtn@@UAEPAXI@Z 0046ebe0 f i chanlist.obj
 0001:0006dbe0       ??_ECLeaveGossipBtn@@UAEPAXI@Z 0046ebe0 f i chanlist.obj
 0001:0006dc10       ??1CLeaveGossipBtn@@UAE@XZ 0046ec10 f i chanlist.obj
 0001:0006dc30       ??_GCGossipPanel@@UAEPAXI@Z 0046ec30 f i chanlist.obj
 0001:0006dc30       ??_ECGossipPanel@@UAEPAXI@Z 0046ec30 f i chanlist.obj
 0001:0006dc60       ??1CGossipPanel@@UAE@XZ    0046ec60 f i chanlist.obj
 0001:0006dc60       ??1CSpellVerbDialog@@UAE@XZ 0046ec60 f i chanlist.obj
 0001:0006dc80       ?IsEmpty@CString@@QBEHXZ   0046ec80 f i chanlist.obj
 0001:0006dca0       ?GetData@CString@@IBEPAUCStringData@@XZ 0046eca0 f i chanlist.obj
 0001:0006dcc0       ??ACString@@QBEDH@Z        0046ecc0 f i chanlist.obj
 0001:0006dcc0       ?GetAt@CString@@QBEDH@Z    0046ecc0 f i chanlist.obj
 0001:0006dce0       ??1?$list@PADV?$allocator@PAD@std@@@std@@QAE@XZ 0046ece0 f i chanlist.obj
 0001:0006dd40       ?push_back@?$list@PADV?$allocator@PAD@std@@@std@@QAEXABQAD@Z 0046ed40 f i chanlist.obj
 0001:0006dd70       ?clear@?$list@PADV?$allocator@PAD@std@@@std@@QAEXXZ 0046ed70 f i chanlist.obj
 0001:0006ddb0       ?remove@?$list@PADV?$allocator@PAD@std@@@std@@QAEXABQAD@Z 0046edb0 f i chanlist.obj
 0001:0006de30       ??9iterator@?$list@PADV?$allocator@PAD@std@@@std@@QBE_NABV012@@Z 0046ee30 f i chanlist.obj
 0001:0006de60       ?insert@?$list@PAVCVerbRequest@@V?$allocator@PAVCVerbRequest@@@std@@@std@@QAE?AViterator@12@V312@ABQAVCVerbRequest@@@Z 0046ee60 f i chanlist.obj
 0001:0006de60       ?insert@?$list@PADV?$allocator@PAD@std@@@std@@QAE?AViterator@12@V312@ABQAD@Z 0046ee60 f i chanlist.obj
 0001:0006de60       ?insert@?$list@PAVCMailMsg@@V?$allocator@PAVCMailMsg@@@std@@@std@@QAE?AViterator@12@V312@ABQAVCMailMsg@@@Z 0046ee60 f i chanlist.obj
 0001:0006de60       ?insert@?$list@PAVCLookAtItem@@V?$allocator@PAVCLookAtItem@@@std@@@std@@QAE?AViterator@12@V312@ABQAVCLookAtItem@@@Z 0046ee60 f i chanlist.obj
 0001:0006de60       ?insert@?$list@PAVCSkinCtrl@@V?$allocator@PAVCSkinCtrl@@@std@@@std@@QAE?AViterator@12@V312@ABQAVCSkinCtrl@@@Z 0046ee60 f i chanlist.obj
 0001:0006de60       ?insert@?$list@PAVCInventoryDlg@@V?$allocator@PAVCInventoryDlg@@@std@@@std@@QAE?AViterator@12@V312@ABQAVCInventoryDlg@@@Z 0046ee60 f i chanlist.obj
 0001:0006de60       ?insert@?$list@PAVCSkinWnd@@V?$allocator@PAVCSkinWnd@@@std@@@std@@QAE?AViterator@12@V312@ABQAVCSkinWnd@@@Z 0046ee60 f i chanlist.obj
 0001:0006df20       ?erase@?$list@PADV?$allocator@PAD@std@@@std@@QAE?AViterator@12@V312@0@Z 0046ef20 f i chanlist.obj
 0001:0006df70       ??Eiterator@?$list@PAVCSkinWnd@@V?$allocator@PAVCSkinWnd@@@std@@@std@@QAEAAV012@XZ 0046ef70 f i chanlist.obj
 0001:0006df70       ??Eiterator@?$list@PAVCLookAtItem@@V?$allocator@PAVCLookAtItem@@@std@@@std@@QAEAAV012@XZ 0046ef70 f i chanlist.obj
 0001:0006df70       ??Eiterator@?$list@PAVCListData@@V?$allocator@PAVCListData@@@std@@@std@@QAEAAV012@XZ 0046ef70 f i chanlist.obj
 0001:0006df70       ??Eiterator@?$list@PAVCInventoryDlg@@V?$allocator@PAVCInventoryDlg@@@std@@@std@@QAEAAV012@XZ 0046ef70 f i chanlist.obj
 0001:0006df70       ??Eiterator@?$list@PAVCVerbRequest@@V?$allocator@PAVCVerbRequest@@@std@@@std@@QAEAAV012@XZ 0046ef70 f i chanlist.obj
 0001:0006df70       ??Eiterator@?$list@PADV?$allocator@PAD@std@@@std@@QAEAAV012@XZ 0046ef70 f i chanlist.obj
 0001:0006df70       ??Eiterator@?$list@PAVCSkinCtrl@@V?$allocator@PAVCSkinCtrl@@@std@@@std@@QAEAAV012@XZ 0046ef70 f i chanlist.obj
 0001:0006df70       ??Eiterator@?$list@PAVCMailMsg@@V?$allocator@PAVCMailMsg@@@std@@@std@@QAEAAV012@XZ 0046ef70 f i chanlist.obj
 0001:0006dfa0       ??_ECChBannedListCtrl@@WEA@AEPAXI@Z 0046efa0 f i chanlist.obj
 0001:0006dfb0       ??_ECChBannedListCtrl@@WHE@AEPAXI@Z 0046efb0 f i chanlist.obj
 0001:0006dfc0       ??_ECChannelListCtrl@@WEA@AEPAXI@Z 0046efc0 f i chanlist.obj
 0001:0006dfd0       ??_ECChannelListCtrl@@WHE@AEPAXI@Z 0046efd0 f i chanlist.obj
 0001:0006dfe0       ??_ECChMemberListCtrl@@WEA@AEPAXI@Z 0046efe0 f i chanlist.obj
 0001:0006dff0       ??_ECChMemberListCtrl@@WHE@AEPAXI@Z 0046eff0 f i chanlist.obj
 0001:0006e000       ??_ECGossipWnd@@WJE@AEPAXI@Z 0046f000 f i chanlist.obj
 0001:0006e010       ?GetItemCount@CListCtrl@@QBEHXZ 0046f010 f i chanlist.obj
 0001:0006e040       ?SortItems@CListCtrl@@QAEHP6GHJJJ@ZK@Z 0046f040 f i chanlist.obj
 0001:0006e070       ?LimitText@CRichEditCtrl@@QAEXJ@Z 0046f070 f i chanlist.obj
 0001:0006e0a0       ?SetSelectionMark@CListCtrl@@QAEHH@Z 0046f0a0 f i chanlist.obj
 0001:0006e0d0       ?SetTabWindow@CMainPanelWnd@@QAEXHPAVCWnd@@@Z 0046f0d0 f i chanlist.obj
 0001:0006e100       ?AlertTab@CMainPanelWnd@@QAEXH@Z 0046f100 f i chanlist.obj
 0001:0006e130       ?GetShowGspTab@CMainPanelWnd@@QAEHXZ 0046f130 f i chanlist.obj
 0001:0006e130       ?GetSelectedTab@CTabDlg@@QAEHXZ 0046f130 f i chanlist.obj
 0001:0006e150       ?Priority@ScreenItem@@QBEHXZ 0046f150 f i chanlist.obj
 0001:0006e150       ?get_TabDisplay@CToonSettings@@QAEHXZ 0046f150 f i chanlist.obj
 0001:0006e170       ?setChannel_AttemptJoin@CToonSettings@@QAEXH@Z 0046f170 f i chanlist.obj
 0001:0006e190       ?getChannel_Title@CToonSettings@@QAE?AVCString@@XZ 0046f190 f i chanlist.obj
 0001:0006e1d0       ?getChannel_Leader@CToonSettings@@QAE_NXZ 0046f1d0 f i chanlist.obj
 0001:0006e373       ?judgeValue@@YA?AVCString@@H@Z 0046f373 f   charmake.obj
 0001:0006e480       ??0CToonMakeWndBase@@QAE@XZ 0046f480 f   charmake.obj
 0001:0006e526       ?CloseSelf@CToonMakeWndBase@@UAEX_N@Z 0046f526 f   charmake.obj
 0001:0006e53f       ?TogglePeace@CToonMakeWndBase@@QAE_NXZ 0046f53f f   charmake.obj
 0001:0006e56c       ?CheckNames@CToonMakeWndBase@@QAE_NXZ 0046f56c f   charmake.obj
 0001:0006e6e8       ?Create@CToonMakeWndBase@@QAEHPBD@Z 0046f6e8 f   charmake.obj
 0001:0006e95f       ?MakeSkinCtrl@CToonMakeWndBase@@UAEPAVCSkinCtrl@@VCSkinObj@@@Z 0046f95f f   charmake.obj
 0001:0006f3f3       ??0CToonMakeWnd@@QAE@XZ    004703f3 f   charmake.obj
 0001:0006f474       ??0CToonMakeWnd@@QAE@VObjectID@@00000@Z 00470474 f   charmake.obj
 0001:0006f5b2       ?Create@CToonMakeWnd@@QAEHXZ 004705b2 f   charmake.obj
 0001:0006f7ec       ?UpdateStats@CToonMakeWnd@@UAEXXZ 004707ec f   charmake.obj
 0001:0006f90c       ?UpdateBitmaps@CToonMakeWnd@@UAEXXZ 0047090c f   charmake.obj
 0001:0006fbcb       ?MakeSkinCtrl@CToonMakeWnd@@UAEPAVCSkinCtrl@@VCSkinObj@@@Z 00470bcb f   charmake.obj
 0001:0006fe01       ?Previous@CToonMakeWnd@@UAEXXZ 00470e01 f   charmake.obj
 0001:0006fe3a       ?Next@CToonMakeWnd@@UAEXXZ 00470e3a f   charmake.obj
 0001:0006feca       ?FeatureUp@CToonMakeWnd@@QAEXH@Z 00470eca f   charmake.obj
 0001:0006ff3a       ?FeatureDown@CToonMakeWnd@@QAEXH@Z 00470f3a f   charmake.obj
 0001:0006ffaa       ?RaceUp@CToonMakeWnd@@QAEXXZ 00470faa f   charmake.obj
 0001:000700d5       ?RaceDown@CToonMakeWnd@@QAEXXZ 004710d5 f   charmake.obj
 0001:00070200       ?Sex@CToonMakeWnd@@QAEXXZ  00471200 f   charmake.obj
 0001:00070234       ?Resize@CToonMakeWnd@@QAEXXZ 00471234 f   charmake.obj
 0001:0007028e       ?Random@CToonMakeWnd@@QAEXXZ 0047128e f   charmake.obj
 0001:000703df       ??0CToonAttributeWnd@@QAE@XZ 004713df f   charmake.obj
 0001:0007040b       ?Create@CToonAttributeWnd@@QAEHXZ 0047140b f   charmake.obj
 0001:000704f4       ?ChangeAvailble@CToonAttributeWnd@@QAEXH@Z 004714f4 f   charmake.obj
 0001:00070684       ?ChangeProfession@CToonAttributeWnd@@QAEXHH@Z 00471684 f   charmake.obj
 0001:0007096e       ?UpdateBitmaps@CToonAttributeWnd@@UAEXXZ 0047196e f   charmake.obj
 0001:00070afe       ?UpdateStats@CToonAttributeWnd@@UAEXXZ 00471afe f   charmake.obj
 0001:00070f55       ?UpdateText@CToonAttributeWnd@@UAEXXZ 00471f55 f   charmake.obj
 0001:00071284       ?Previous@CToonAttributeWnd@@UAEXXZ 00472284 f   charmake.obj
 0001:00071314       ?Next@CToonAttributeWnd@@UAEXXZ 00472314 f   charmake.obj
 0001:00071439       ?MakeSkinCtrl@CToonAttributeWnd@@UAEPAVCSkinCtrl@@VCSkinObj@@@Z 00472439 f   charmake.obj
 0001:00071c13       ??0CToonBioWnd@@QAE@XZ     00472c13 f   charmake.obj
 0001:00071c3b       ?CloseSelf@CToonBioWnd@@UAEX_N@Z 00472c3b f   charmake.obj
 0001:00071c5e       ?Create@CToonBioWnd@@QAEHXZ 00472c5e f   charmake.obj
 0001:00071d4f       ?MakeSkinCtrl@CToonBioWnd@@UAEPAVCSkinCtrl@@VCSkinObj@@@Z 00472d4f f   charmake.obj
 0001:00071ed0       ?UpdateStats@CToonBioWnd@@UAEXXZ 00472ed0 f   charmake.obj
 0001:00071f0a       ?UpdateBitmaps@CToonBioWnd@@UAEXXZ 00472f0a f   charmake.obj
 0001:000721c9       ?Previous@CToonBioWnd@@UAEXXZ 004731c9 f   charmake.obj
 0001:00072294       ?Next@CToonBioWnd@@UAEXXZ  00473294 f   charmake.obj
 0001:00072458       ??0CToonMakeFeatureUpBtn@@QAE@VCSkinObj@@PAVCSkinWnd@@@Z 00473458 f   charmake.obj
 0001:00072526       ?OnActivate@CToonMakeFeatureUpBtn@@UAEXFF@Z 00473526 f   charmake.obj
 0001:0007254e       ??0CToonMakeFeatureDownBtn@@QAE@VCSkinObj@@PAVCSkinWnd@@@Z 0047354e f   charmake.obj
 0001:0007261c       ?OnActivate@CToonMakeFeatureDownBtn@@UAEXFF@Z 0047361c f   charmake.obj
 0001:00072644       ??0CToonMakeRaceUpBtn@@QAE@VCSkinObj@@PAVCSkinWnd@@@Z 00473644 f   charmake.obj
 0001:000726b7       ?OnActivate@CToonMakeRaceUpBtn@@UAEXFF@Z 004736b7 f   charmake.obj
 0001:000726d8       ??0CToonMakeRaceDownBtn@@QAE@VCSkinObj@@PAVCSkinWnd@@@Z 004736d8 f   charmake.obj
 0001:0007274b       ?OnActivate@CToonMakeRaceDownBtn@@UAEXFF@Z 0047374b f   charmake.obj
 0001:0007276c       ??0CToonMakeSexBtn@@QAE@VCSkinObj@@PAVCSkinWnd@@@Z 0047376c f   charmake.obj
 0001:000727df       ?OnActivate@CToonMakeSexBtn@@UAEXFF@Z 004737df f   charmake.obj
 0001:00072800       ??0CToonMakeRandomBtn@@QAE@VCSkinObj@@PAVCSkinWnd@@@Z 00473800 f   charmake.obj
 0001:00072873       ?OnActivate@CToonMakeRandomBtn@@UAEXFF@Z 00473873 f   charmake.obj
 0001:00072894       ??0CSkinSizeAttribute@@QAE@VCSkinObj@@PAVCSkinWnd@@@Z 00473894 f   charmake.obj
 0001:00072907       ?ChangeValue@CSkinSizeAttribute@@UAEXH@Z 00473907 f   charmake.obj
 0001:00072934       ??0CSkinToonAttribute@@QAE@VCSkinObj@@PAVCSkinWnd@@@Z 00473934 f   charmake.obj
 0001:000729a7       ?ChangeValue@CSkinToonAttribute@@UAEXH@Z 004739a7 f   charmake.obj
 0001:00072a2e       ??0CSkinProfAttribute@@QAE@VCSkinObj@@PAVCSkinWnd@@@Z 00473a2e f   charmake.obj
 0001:00072aa1       ?ChangeValue@CSkinProfAttribute@@UAEXH@Z 00473aa1 f   charmake.obj
 0001:00072b07       ??0CSkinAlignAttribute@@QAE@VCSkinObj@@PAVCSkinWnd@@@Z 00473b07 f   charmake.obj
 0001:00072b7a       ?ChangeValue@CSkinAlignAttribute@@UAEXH@Z 00473b7a f   charmake.obj
 0001:00072bee       ??0CSkinCombatAttribute@@QAE@VCSkinObj@@PAVCSkinWnd@@@Z 00473bee f   charmake.obj
 0001:00072c61       ?ChangeValue@CSkinCombatAttribute@@UAEXH@Z 00473c61 f   charmake.obj
 0001:00072cb0       ??_GCToonMakeWndBase@@UAEPAXI@Z 00473cb0 f i charmake.obj
 0001:00072cb0       ??_ECToonMakeWndBase@@UAEPAXI@Z 00473cb0 f i charmake.obj
 0001:00072ce0       ??1CToonMakeWndBase@@UAE@XZ 00473ce0 f i charmake.obj
 0001:00072d40       ??4CSkinObj@@QAEAAV0@ABV0@@Z 00473d40 f i charmake.obj
 0001:00072d60       ??_ECToonMakeWnd@@UAEPAXI@Z 00473d60 f i charmake.obj
 0001:00072d60       ??_GCToonMakeWnd@@UAEPAXI@Z 00473d60 f i charmake.obj
 0001:00072d90       ??1CToonMakeWnd@@UAE@XZ    00473d90 f i charmake.obj
 0001:00072df0       ??0CSCI_fNFace@@QAE@ABV0@@Z 00473df0 f i charmake.obj
 0001:00072e10       ??0CSCI_BWeapon@@QAE@ABV0@@Z 00473e10 f i charmake.obj
 0001:00072e10       ??0CSCI_BHead@@QAE@ABV0@@Z 00473e10 f i charmake.obj
 0001:00072e30       ??0CSCI_ByteArray@@QAE@ABV0@@Z 00473e30 f i charmake.obj
 0001:00072e30       ??0CSCI_BitMap@@QAE@ABV0@@Z 00473e30 f i charmake.obj
 0001:00072e30       ??0CSCI_List@@QAE@ABV0@@Z  00473e30 f i charmake.obj
 0001:00072e30       ??0CSCI_BCarryable@@QAE@ABV0@@Z 00473e30 f i charmake.obj
 0001:00072e30       ??0CSCI_Plane@@QAE@ABV0@@Z 00473e30 f i charmake.obj
 0001:00072e30       ??0CSCI_BWearable@@QAE@ABV0@@Z 00473e30 f i charmake.obj
 0001:00072e50       ??0CSCI_CVerbRequest@@QAE@ABV0@@Z 00473e50 f i charmake.obj
 0001:00072e50       ??0CSCI_Collection@@QAE@ABV0@@Z 00473e50 f i charmake.obj
 0001:00072e50       ??0CSCI_Rectangle@@QAE@ABV0@@Z 00473e50 f i charmake.obj
 0001:00072e50       ??0CSCI_LongInt@@QAE@ABV0@@Z 00473e50 f i charmake.obj
 0001:00072e50       ??0CSCI_GroupMember@@QAE@ABV0@@Z 00473e50 f i charmake.obj
 0001:00072e50       ??0CSCI_Script@@QAE@ABV0@@Z 00473e50 f i charmake.obj
 0001:00072e50       ??0CSCI_Array@@QAE@ABV0@@Z 00473e50 f i charmake.obj
 0001:00072e50       ??0CSCI_WorldObjectBase@@QAE@ABV0@@Z 00473e50 f i charmake.obj
 0001:00072e50       ??0CSCI_Game@@QAE@ABV0@@Z  00473e50 f i charmake.obj
 0001:00072e70       ??_ECToonAttributeWnd@@UAEPAXI@Z 00473e70 f i charmake.obj
 0001:00072e70       ??_GCToonAttributeWnd@@UAEPAXI@Z 00473e70 f i charmake.obj
 0001:00072ea0       ??1CToonAttributeWnd@@UAE@XZ 00473ea0 f i charmake.obj
 0001:00072ec0       ??0CSCI_BCharacter@@QAE@ABV0@@Z 00473ec0 f i charmake.obj
 0001:00072ee0       ?GetLength@CString@@QBEHXZ 00473ee0 f i charmake.obj
 0001:00072f00       ??_ECToonBioWnd@@UAEPAXI@Z 00473f00 f i charmake.obj
 0001:00072f00       ??_GCToonBioWnd@@UAEPAXI@Z 00473f00 f i charmake.obj
 0001:00072f30       ??1CToonBioWnd@@UAE@XZ     00473f30 f i charmake.obj
 0001:00072f50       ??9@YG_NABVCString@@PBD@Z  00473f50 f i charmake.obj
 0001:00072f70       ??1CSkinProfAttribute@@UAE@XZ 00473f70 f i charmake.obj
 0001:00072f70       ??1CSkinAlignAttribute@@UAE@XZ 00473f70 f i charmake.obj
 0001:00072f70       ??1CSkinSizeAttribute@@UAE@XZ 00473f70 f i charmake.obj
 0001:00072f90       ??1CSkinAttribute@@UAE@XZ  00473f90 f i charmake.obj
 0001:00072fb0       ??_GCSkinToonAttribute@@UAEPAXI@Z 00473fb0 f i charmake.obj
 0001:00072fb0       ??_ECSkinToonAttribute@@UAEPAXI@Z 00473fb0 f i charmake.obj
 0001:00072fe0       ??1CSkinToonAttribute@@UAE@XZ 00473fe0 f i charmake.obj
 0001:00073000       ??_GCSkinSizeAttribute@@UAEPAXI@Z 00474000 f i charmake.obj
 0001:00073000       ??_ECSkinSizeAttribute@@UAEPAXI@Z 00474000 f i charmake.obj
 0001:00073000       ??_GCSkinProfAttribute@@UAEPAXI@Z 00474000 f i charmake.obj
 0001:00073000       ??_ECSkinProfAttribute@@UAEPAXI@Z 00474000 f i charmake.obj
 0001:00073000       ??_GCSkinAlignAttribute@@UAEPAXI@Z 00474000 f i charmake.obj
 0001:00073000       ??_ECSkinAlignAttribute@@UAEPAXI@Z 00474000 f i charmake.obj
 0001:00073030       ??_ECSkinCombatAttribute@@UAEPAXI@Z 00474030 f i charmake.obj
 0001:00073030       ??_GCSkinCombatAttribute@@UAEPAXI@Z 00474030 f i charmake.obj
 0001:00073060       ??1CSkinCombatAttribute@@UAE@XZ 00474060 f i charmake.obj
 0001:00073080       ?get_xScaleAdj@CSCI_Feature@@QAEFXZ 00474080 f i charmake.obj
 0001:000730a0       ?set_xScaleAdj@CSCI_Feature@@QAEXF@Z 004740a0 f i charmake.obj
 0001:000730c0       ?get_yScaleAdj@CSCI_Feature@@QAEFXZ 004740c0 f i charmake.obj
 0001:000730e0       ?set_yScaleAdj@CSCI_Feature@@QAEXF@Z 004740e0 f i charmake.obj
 0001:00073100       ?get_pProfession@CSCI_BCharacter@@QAEFXZ 00474100 f i charmake.obj
 0001:00073120       ?set_pProfession@CSCI_BCharacter@@QAEXF@Z 00474120 f i charmake.obj
 0001:00073140       ?get_pRace@CSCI_BCharacter@@QAEFXZ 00474140 f i charmake.obj
 0001:00073140       ?get_pRace@CSCI_BHead@@QAEFXZ 00474140 f i charmake.obj
 0001:00073160       ?set_pPeaceful@CSCI_BCharacter@@QAEXF@Z 00474160 f i charmake.obj
 0001:00073180       ?set_pStrength@CSCI_WorldObject@@QAEXF@Z 00474180 f i charmake.obj
 0001:000731a0       ?set_pDexterity@CSCI_WorldObject@@QAEXF@Z 004741a0 f i charmake.obj
 0001:000731c0       ?set_pIntelligence@CSCI_WorldObject@@QAEXF@Z 004741c0 f i charmake.obj
 0001:000731e0       ?set_pEndurance@CSCI_WorldObject@@QAEXF@Z 004741e0 f i charmake.obj
 0001:00073200       ?set_pAlignment@CSCI_WorldObject@@QAEXF@Z 00474200 f i charmake.obj
 0001:00073220       ?get_pHead@CSCI_WorldActor@@QAEFXZ 00474220 f i charmake.obj
 0001:00073240       ??0CSCI_fNBody@@QAE@ABVObjectID@@@Z 00474240 f i charmake.obj
 0001:00073260       ??0CSCI_WorldEgo@@QAE@ABVMemID@@@Z 00474260 f i charmake.obj
 0001:00073280       ??0CSCI_WorldActor@@QAE@ABVObjectID@@@Z 00474280 f i charmake.obj
 0001:00073280       ??0CSCI_WorldActor@@QAE@ABVMemID@@@Z 00474280 f i charmake.obj
 0001:000732a0       ??0CSCI_fNBody@@QAE@G@Z    004742a0 f i charmake.obj
 0001:000732c0       ??0CSCI_WorldEgo@@QAE@G@Z  004742c0 f i charmake.obj
 0001:000732e0       ??0CSCI_WorldActor@@QAE@G@Z 004742e0 f i charmake.obj
 0001:000732e0       ??0CSCI_fNFace@@QAE@G@Z    004742e0 f i charmake.obj
 0001:00073300       ?SetBase@CSkinAttribute@@QAEXH@Z 00474300 f i charmake.obj
 0001:00073368       ??0CCharSelectWnd@@QAE@XZ  00474368 f   charsel.obj
 0001:00073516       ??1CCharSelectWnd@@UAE@XZ  00474516 f   charsel.obj
 0001:000737a7       ?Create@CCharSelectWnd@@QAEHPAVCWnd@@@Z 004747a7 f   charsel.obj
 0001:00073c0b       ?AddPlayButton@CCharSelectWnd@@QAEHVCSCI_WorldActor@@@Z 00474c0b f   charsel.obj
 0001:0007424c       ?AddCreateButton@CCharSelectWnd@@QAEHXZ 0047524c f   charsel.obj
 0001:0007430f       ?MakeSkinCtrl@CCharSelectWnd@@UAEPAVCSkinCtrl@@VCSkinObj@@@Z 0047530f f   charsel.obj
 0001:00074576       ?MoveHighlight@CCharSelectWnd@@QAEHHPAVCSkinCtrl@@@Z 00475576 f   charsel.obj
 0001:00074825       ?GetHighlightPosn@CCharSelectWnd@@QAEHXZ 00475825 f   charsel.obj
 0001:00074839       ?GetHighlightOwner@CCharSelectWnd@@QAEPAVCSkinCtrl@@XZ 00475839 f   charsel.obj
 0001:0007484d       ?LockHighlight@CCharSelectWnd@@QAEHXZ 0047584d f   charsel.obj
 0001:0007486a       ?UnlockHighlight@CCharSelectWnd@@QAEHXZ 0047586a f   charsel.obj
 0001:00074887       ?GetCharacterName@CCharSelectWnd@@QAE?AVCString@@H@Z 00475887 f   charsel.obj
 0001:000748c6       ?GetCharacter@CCharSelectWnd@@QAE?AVCSCI_WorldActor@@H@Z 004758c6 f   charsel.obj
 0001:000748f1       ?EnterGame@CCharSelectWnd@@QAEXVCSCI_WorldObject@@@Z 004758f1 f   charsel.obj
 0001:00074a04       ?HandleVerb@CCharSelectWnd@@UAEHHVCSCI_WorldObject@@@Z 00475a04 f   charsel.obj
 0001:00074b43       ??0CCharSelPlayBtn@@QAE@VCSkinObj@@PAVCSkinWnd@@@Z 00475b43 f   charsel.obj
 0001:00074c14       ??1CCharSelPlayBtn@@UAE@XZ 00475c14 f   charsel.obj
 0001:00074c30       ?ShowHighlighted@CCharSelPlayBtn@@UAEXXZ 00475c30 f   charsel.obj
 0001:00074c61       ?ShowNormal@CCharSelPlayBtn@@UAEXXZ 00475c61 f   charsel.obj
 0001:00074c98       ?ShowPressed@CCharSelPlayBtn@@UAEXXZ 00475c98 f   charsel.obj
 0001:00074cc9       ?OnActivate@CCharSelPlayBtn@@UAEXFF@Z 00475cc9 f   charsel.obj
 0001:00074d39       ??0CCharSelCreateBtn@@QAE@VCSkinObj@@PAVCSkinWnd@@@Z 00475d39 f   charsel.obj
 0001:00074dac       ??1CCharSelCreateBtn@@UAE@XZ 00475dac f   charsel.obj
 0001:00074dc8       ?OnActivate@CCharSelCreateBtn@@UAEXFF@Z 00475dc8 f   charsel.obj
 0001:00074e33       ??0CCharSelHotSpot@@QAE@VCSkinObj@@PAVCSkinWnd@@@Z 00475e33 f   charsel.obj
 0001:00074f04       ??1CCharSelHotSpot@@UAE@XZ 00475f04 f   charsel.obj
 0001:00074f20       ?ShowHighlighted@CCharSelHotSpot@@UAEXXZ 00475f20 f   charsel.obj
 0001:00074f51       ?ShowNormal@CCharSelHotSpot@@UAEXXZ 00475f51 f   charsel.obj
 0001:00074f88       ?ShowPressed@CCharSelHotSpot@@UAEXXZ 00475f88 f   charsel.obj
 0001:00074fb9       ?OnActivate@CCharSelHotSpot@@UAEXFF@Z 00475fb9 f   charsel.obj
 0001:000750c6       ?_GetBaseMessageMap@CEraseDlg@@KGPBUAFX_MSGMAP@@XZ 004760c6 f   charsel.obj
 0001:000750d0       ?GetMessageMap@CEraseDlg@@MBEPBUAFX_MSGMAP@@XZ 004760d0 f   charsel.obj
 0001:000750e0       ??0CEraseDlg@@QAE@XZ       004760e0 f   charsel.obj
 0001:00075147       ?Create@CEraseDlg@@QAEHVCSCI_WorldObject@@@Z 00476147 f   charsel.obj
 0001:000752e1       ?MakeSkinCtrl@CEraseDlg@@UAEPAVCSkinCtrl@@VCSkinObj@@@Z 004762e1 f   charsel.obj
 0001:000755d5       ?OnResize@CEraseDlg@@QAEXPAUtagNMHDR@@PAJ@Z 004765d5 f   charsel.obj
 0001:00075673       ??0CEraseToonBtn@@QAE@VCSkinObj@@PAVCSkinWnd@@VCSCI_WorldObject@@@Z 00476673 f   charsel.obj
 0001:00075700       ?OnActivate@CEraseToonBtn@@UAEXFF@Z 00476700 f   charsel.obj
 0001:00075750       ??_ECCharSelectWnd@@UAEPAXI@Z 00476750 f i charsel.obj
 0001:00075750       ??_GCCharSelectWnd@@UAEPAXI@Z 00476750 f i charsel.obj
 0001:00075780       ??0CSCI_WorldActor@@QAE@ABV0@@Z 00476780 f i charsel.obj
 0001:000757a0       ??_ECCharSelPlayBtn@@UAEPAXI@Z 004767a0 f i charsel.obj
 0001:000757a0       ??_GCCharSelPlayBtn@@UAEPAXI@Z 004767a0 f i charsel.obj
 0001:000757d0       ??_GCCharSelCreateBtn@@UAEPAXI@Z 004767d0 f i charsel.obj
 0001:000757d0       ??_ECCharSelCreateBtn@@UAEPAXI@Z 004767d0 f i charsel.obj
 0001:00075800       ??_GCCharSelHotSpot@@UAEPAXI@Z 00476800 f i charsel.obj
 0001:00075800       ??_ECCharSelHotSpot@@UAEPAXI@Z 00476800 f i charsel.obj
 0001:00075830       ??_GCEraseDlg@@UAEPAXI@Z   00476830 f i charsel.obj
 0001:00075830       ??_ECEraseDlg@@UAEPAXI@Z   00476830 f i charsel.obj
 0001:00075860       ??1CEraseDlg@@UAE@XZ       00476860 f i charsel.obj
 0001:00075880       ??A?$bitset@$04@std@@QAE?AVreference@01@I@Z 00476880 f i charsel.obj
 0001:000758b0       ??Breference@?$bitset@$04@std@@QBE_NXZ 004768b0 f i charsel.obj
 0001:000758d0       ??0?$vector@VCSkinObj@@V?$allocator@VCSkinObj@@@std@@@std@@QAE@ABV?$allocator@VCSkinObj@@@1@@Z 004768d0 f i charsel.obj
 0001:000758d0       ??0?$vector@PAVCTabBtn@@V?$allocator@PAVCTabBtn@@@std@@@std@@QAE@ABV?$allocator@PAVCTabBtn@@@1@@Z 004768d0 f i charsel.obj
 0001:000758d0       ??0?$vector@PAVCSCIObjectMethodPair@@V?$allocator@PAVCSCIObjectMethodPair@@@std@@@std@@QAE@ABV?$allocator@PAVCSCIObjectMethodPair@@@1@@Z 004768d0 f i charsel.obj
 0001:000758d0       ??0?$vector@PAVCVerbBtn@@V?$allocator@PAVCVerbBtn@@@std@@@std@@QAE@ABV?$allocator@PAVCVerbBtn@@@1@@Z 004768d0 f i charsel.obj
 0001:000758d0       ??0?$vector@PAVCSkinBitmap@@V?$allocator@PAVCSkinBitmap@@@std@@@std@@QAE@ABV?$allocator@PAVCSkinBitmap@@@1@@Z 004768d0 f i charsel.obj
 0001:000758d0       ??0?$vector@PAVCSCIObjectMethod@@V?$allocator@PAVCSCIObjectMethod@@@std@@@std@@QAE@ABV?$allocator@PAVCSCIObjectMethod@@@1@@Z 004768d0 f i charsel.obj
 0001:000758d0       ??0?$vector@VCSCI_WorldActor@@V?$allocator@VCSCI_WorldActor@@@std@@@std@@QAE@ABV?$allocator@VCSCI_WorldActor@@@1@@Z 004768d0 f i charsel.obj
 0001:000758d0       ??0?$vector@PAVCTabEntry@@V?$allocator@PAVCTabEntry@@@std@@@std@@QAE@ABV?$allocator@PAVCTabEntry@@@1@@Z 004768d0 f i charsel.obj
 0001:000758d0       ??0?$vector@PAVCSkinCtrl@@V?$allocator@PAVCSkinCtrl@@@std@@@std@@QAE@ABV?$allocator@PAVCSkinCtrl@@@1@@Z 004768d0 f i charsel.obj
 0001:000758d0       ??0?$vector@PAVCPoint@@V?$allocator@PAVCPoint@@@std@@@std@@QAE@ABV?$allocator@PAVCPoint@@@1@@Z 004768d0 f i charsel.obj
 0001:00075910       ??1?$vector@PAVCSkinCtrl@@V?$allocator@PAVCSkinCtrl@@@std@@@std@@QAE@XZ 00476910 f i charsel.obj
 0001:00075970       ?push_back@?$vector@PAVCSkinCtrl@@V?$allocator@PAVCSkinCtrl@@@std@@@std@@QAEXABQAVCSkinCtrl@@@Z 00476970 f i charsel.obj
 0001:000759a0       ??1?$vector@VCSkinObj@@V?$allocator@VCSkinObj@@@std@@@std@@QAE@XZ 004769a0 f i charsel.obj
 0001:00075a00       ??A?$vector@VCSkinObj@@V?$allocator@VCSkinObj@@@std@@@std@@QAEAAVCSkinObj@@I@Z 00476a00 f i charsel.obj
 0001:00075a20       ?push_back@?$vector@VCSkinObj@@V?$allocator@VCSkinObj@@@std@@@std@@QAEXABVCSkinObj@@@Z 00476a20 f i charsel.obj
 0001:00075a50       ?push_back@?$vector@PAVCSkinBitmap@@V?$allocator@PAVCSkinBitmap@@@std@@@std@@QAEXABQAVCSkinBitmap@@@Z 00476a50 f i charsel.obj
 0001:00075a80       ?push_back@?$vector@PAVCPoint@@V?$allocator@PAVCPoint@@@std@@@std@@QAEXABQAVCPoint@@@Z 00476a80 f i charsel.obj
 0001:00075ab0       ??1?$vector@VCSCI_WorldActor@@V?$allocator@VCSCI_WorldActor@@@std@@@std@@QAE@XZ 00476ab0 f i charsel.obj
 0001:00075b10       ??A?$vector@VCSCI_WorldActor@@V?$allocator@VCSCI_WorldActor@@@std@@@std@@QAEAAVCSCI_WorldActor@@I@Z 00476b10 f i charsel.obj
 0001:00075b30       ?push_back@?$vector@VCSCI_WorldActor@@V?$allocator@VCSCI_WorldActor@@@std@@@std@@QAEXABVCSCI_WorldActor@@@Z 00476b30 f i charsel.obj
 0001:00075b60       ?test@?$bitset@$04@std@@QBE_NI@Z 00476b60 f i charsel.obj
 0001:00075bb0       ??0reference@?$bitset@$04@std@@AAE@AAV12@I@Z 00476bb0 f i charsel.obj
 0001:00075bb0       ??0SOL_Point@@QAE@HH@Z     00476bb0 f i charsel.obj
 0001:00075be0       ?insert@?$vector@PAVCSkinCtrl@@V?$allocator@PAVCSkinCtrl@@@std@@@std@@QAEPAPAVCSkinCtrl@@PAPAV3@ABQAV3@@Z 00476be0 f i charsel.obj
 0001:00075c30       ?_Destroy@?$vector@PAVCSkinCtrl@@V?$allocator@PAVCSkinCtrl@@@std@@@std@@IAEXPAPAVCSkinCtrl@@0@Z 00476c30 f i charsel.obj
 0001:00075c60       ?insert@?$vector@VCSkinObj@@V?$allocator@VCSkinObj@@@std@@@std@@QAEPAVCSkinObj@@PAV3@ABV3@@Z 00476c60 f i charsel.obj
 0001:00075cb0       ?_Destroy@?$vector@VCSkinObj@@V?$allocator@VCSkinObj@@@std@@@std@@IAEXPAVCSkinObj@@0@Z 00476cb0 f i charsel.obj
 0001:00075ce0       ?insert@?$vector@PAVCSkinBitmap@@V?$allocator@PAVCSkinBitmap@@@std@@@std@@QAEPAPAVCSkinBitmap@@PAPAV3@ABQAV3@@Z 00476ce0 f i charsel.obj
 0001:00075d30       ?insert@?$vector@PAVCPoint@@V?$allocator@PAVCPoint@@@std@@@std@@QAEPAPAVCPoint@@PAPAV3@ABQAV3@@Z 00476d30 f i charsel.obj
 0001:00075d80       ?_Destroy@?$vector@PAVCVerbBtn@@V?$allocator@PAVCVerbBtn@@@std@@@std@@IAEXPAPAVCVerbBtn@@0@Z 00476d80 f i charsel.obj
 0001:00075d80       ?_Destroy@?$vector@PAVCSkinBitmap@@V?$allocator@PAVCSkinBitmap@@@std@@@std@@IAEXPAPAVCSkinBitmap@@0@Z 00476d80 f i charsel.obj
 0001:00075d80       ?_Destroy@?$vector@PAVCTabEntry@@V?$allocator@PAVCTabEntry@@@std@@@std@@IAEXPAPAVCTabEntry@@0@Z 00476d80 f i charsel.obj
 0001:00075d80       ?_Destroy@?$vector@PAVCSCIObjectMethod@@V?$allocator@PAVCSCIObjectMethod@@@std@@@std@@IAEXPAPAVCSCIObjectMethod@@0@Z 00476d80 f i charsel.obj
 0001:00075d80       ?_Destroy@?$vector@PAVCSCIObjectMethodPair@@V?$allocator@PAVCSCIObjectMethodPair@@@std@@@std@@IAEXPAPAVCSCIObjectMethodPair@@0@Z 00476d80 f i charsel.obj
 0001:00075d80       ?_Destroy@?$vector@PAVCTabBtn@@V?$allocator@PAVCTabBtn@@@std@@@std@@IAEXPAPAVCTabBtn@@0@Z 00476d80 f i charsel.obj
 0001:00075d80       ?_Destroy@?$vector@PAVCPoint@@V?$allocator@PAVCPoint@@@std@@@std@@IAEXPAPAVCPoint@@0@Z 00476d80 f i charsel.obj
 0001:00075db0       ?insert@?$vector@VCSCI_WorldActor@@V?$allocator@VCSCI_WorldActor@@@std@@@std@@QAEPAVCSCI_WorldActor@@PAV3@ABV3@@Z 00476db0 f i charsel.obj
 0001:00075e00       ?_Destroy@?$vector@VCSCI_WorldActor@@V?$allocator@VCSCI_WorldActor@@@std@@@std@@IAEXPAVCSCI_WorldActor@@0@Z 00476e00 f i charsel.obj
 0001:00075e30       ?destroy@?$allocator@PAVCSkinCtrl@@@std@@QAEXPAPAVCSkinCtrl@@@Z 00476e30 f i charsel.obj
 0001:00075e50       ?_Xran@?$bitset@$04@std@@ABEXXZ 00476e50 f i charsel.obj
 0001:00075eb0       ?insert@?$vector@PAVCSkinCtrl@@V?$allocator@PAVCSkinCtrl@@@std@@@std@@QAEXPAPAVCSkinCtrl@@IABQAV3@@Z 00476eb0 f i charsel.obj
 0001:000760d0       ?insert@?$vector@VCSkinObj@@V?$allocator@VCSkinObj@@@std@@@std@@QAEXPAVCSkinObj@@IABV3@@Z 004770d0 f i charsel.obj
 0001:000762f0       ?destroy@?$allocator@VCSkinObj@@@std@@QAEXPAVCSkinObj@@@Z 004772f0 f i charsel.obj
 0001:00076310       ?insert@?$vector@PAVCSkinBitmap@@V?$allocator@PAVCSkinBitmap@@@std@@@std@@QAEXPAPAVCSkinBitmap@@IABQAV3@@Z 00477310 f i charsel.obj
 0001:00076310       ?insert@?$vector@PAVCVerbBtn@@V?$allocator@PAVCVerbBtn@@@std@@@std@@QAEXPAPAVCVerbBtn@@IABQAV3@@Z 00477310 f i charsel.obj
 0001:00076310       ?insert@?$vector@PAVCSCIObjectMethodPair@@V?$allocator@PAVCSCIObjectMethodPair@@@std@@@std@@QAEXPAPAVCSCIObjectMethodPair@@IABQAV3@@Z 00477310 f i charsel.obj
 0001:00076310       ?insert@?$vector@PAVCPoint@@V?$allocator@PAVCPoint@@@std@@@std@@QAEXPAPAVCPoint@@IABQAV3@@Z 00477310 f i charsel.obj
 0001:00076530       ?insert@?$vector@VCSCI_WorldActor@@V?$allocator@VCSCI_WorldActor@@@std@@@std@@QAEXPAVCSCI_WorldActor@@IABV3@@Z 00477530 f i charsel.obj
 0001:00076740       ?size@?$vector@VCSkinObj@@V?$allocator@VCSkinObj@@@std@@@std@@QBEIXZ 00477740 f i charsel.obj
 0001:00076780       ?_Ucopy@?$vector@VCSkinObj@@V?$allocator@VCSkinObj@@@std@@@std@@IAEPAVCSkinObj@@PBV3@0PAV3@@Z 00477780 f i charsel.obj
 0001:000767c0       ?_Ufill@?$vector@VCSkinObj@@V?$allocator@VCSkinObj@@@std@@@std@@IAEXPAVCSkinObj@@IABV3@@Z 004777c0 f i charsel.obj
 0001:00076800       ?allocate@?$allocator@VCSkinObj@@@std@@QAEPAVCSkinObj@@IPBX@Z 00477800 f i charsel.obj
 0001:00076820       ?_Ufill@?$vector@PAVCSkinBitmap@@V?$allocator@PAVCSkinBitmap@@@std@@@std@@IAEXPAPAVCSkinBitmap@@IABQAV3@@Z 00477820 f i charsel.obj
 0001:00076820       ?_Ufill@?$vector@PAVCSkinCtrl@@V?$allocator@PAVCSkinCtrl@@@std@@@std@@IAEXPAPAVCSkinCtrl@@IABQAV3@@Z 00477820 f i charsel.obj
 0001:00076820       ?_Ufill@?$vector@PAVCSCIObjectMethod@@V?$allocator@PAVCSCIObjectMethod@@@std@@@std@@IAEXPAPAVCSCIObjectMethod@@IABQAV3@@Z 00477820 f i charsel.obj
 0001:00076820       ?_Ufill@?$vector@PAVCTabBtn@@V?$allocator@PAVCTabBtn@@@std@@@std@@IAEXPAPAVCTabBtn@@IABQAV3@@Z 00477820 f i charsel.obj
 0001:00076820       ?_Ufill@?$vector@PAVCPoint@@V?$allocator@PAVCPoint@@@std@@@std@@IAEXPAPAVCPoint@@IABQAV3@@Z 00477820 f i charsel.obj
 0001:00076820       ?_Ufill@?$vector@PAVCSCIObjectMethodPair@@V?$allocator@PAVCSCIObjectMethodPair@@@std@@@std@@IAEXPAPAVCSCIObjectMethodPair@@IABQAV3@@Z 00477820 f i charsel.obj
 0001:00076820       ?_Ufill@?$vector@PAVCVerbBtn@@V?$allocator@PAVCVerbBtn@@@std@@@std@@IAEXPAPAVCVerbBtn@@IABQAV3@@Z 00477820 f i charsel.obj
 0001:00076820       ?_Ufill@?$vector@PAVCTabEntry@@V?$allocator@PAVCTabEntry@@@std@@@std@@IAEXPAPAVCTabEntry@@IABQAV3@@Z 00477820 f i charsel.obj
 0001:00076860       ?allocate@?$allocator@PAVCSkinBitmap@@@std@@QAEPAPAVCSkinBitmap@@IPBX@Z 00477860 f i charsel.obj
 0001:00076860       ?allocate@?$allocator@PAVCPoint@@@std@@QAEPAPAVCPoint@@IPBX@Z 00477860 f i charsel.obj
 0001:00076860       ?allocate@?$allocator@PAVCTabBtn@@@std@@QAEPAPAVCTabBtn@@IPBX@Z 00477860 f i charsel.obj
 0001:00076860       ?allocate@?$allocator@PAVCSkinCtrl@@@std@@QAEPAPAVCSkinCtrl@@IPBX@Z 00477860 f i charsel.obj
 0001:00076860       ?allocate@?$allocator@PAVCSCIObjectMethod@@@std@@QAEPAPAVCSCIObjectMethod@@IPBX@Z 00477860 f i charsel.obj
 0001:00076860       ?allocate@?$allocator@PAVCSCIObjectMethodPair@@@std@@QAEPAPAVCSCIObjectMethodPair@@IPBX@Z 00477860 f i charsel.obj
 0001:00076860       ?allocate@?$allocator@PAVCVerbBtn@@@std@@QAEPAPAVCVerbBtn@@IPBX@Z 00477860 f i charsel.obj
 0001:00076880       ?size@?$vector@PAVCTabBtn@@V?$allocator@PAVCTabBtn@@@std@@@std@@QBEIXZ 00477880 f i charsel.obj
 0001:00076880       ?size@?$vector@PAVCSkinBitmap@@V?$allocator@PAVCSkinBitmap@@@std@@@std@@QBEIXZ 00477880 f i charsel.obj
 0001:00076880       ?size@?$vector@PAVCPoint@@V?$allocator@PAVCPoint@@@std@@@std@@QBEIXZ 00477880 f i charsel.obj
 0001:00076880       ?size@?$vector@PAVCSCIObjectMethod@@V?$allocator@PAVCSCIObjectMethod@@@std@@@std@@QBEIXZ 00477880 f i charsel.obj
 0001:00076880       ?size@?$vector@PAVCSkinCtrl@@V?$allocator@PAVCSkinCtrl@@@std@@@std@@QBEIXZ 00477880 f i charsel.obj
 0001:00076880       ?size@?$vector@PAVCTabEntry@@V?$allocator@PAVCTabEntry@@@std@@@std@@QBEIXZ 00477880 f i charsel.obj
 0001:00076880       ?size@?$vector@PAVCSCIObjectMethodPair@@V?$allocator@PAVCSCIObjectMethodPair@@@std@@@std@@QBEIXZ 00477880 f i charsel.obj
 0001:00076880       ?size@?$vector@PAVCVerbBtn@@V?$allocator@PAVCVerbBtn@@@std@@@std@@QBEIXZ 00477880 f i charsel.obj
 0001:000768c0       ?size@?$vector@VCSCI_WorldActor@@V?$allocator@VCSCI_WorldActor@@@std@@@std@@QBEIXZ 004778c0 f i charsel.obj
 0001:00076900       ?_Ucopy@?$vector@VCSCI_WorldActor@@V?$allocator@VCSCI_WorldActor@@@std@@@std@@IAEPAVCSCI_WorldActor@@PBV3@0PAV3@@Z 00477900 f i charsel.obj
 0001:00076940       ?_Ufill@?$vector@VCSCI_WorldActor@@V?$allocator@VCSCI_WorldActor@@@std@@@std@@IAEXPAVCSCI_WorldActor@@IABV3@@Z 00477940 f i charsel.obj
 0001:00076980       ?allocate@?$allocator@VCSCI_WorldActor@@@std@@QAEPAVCSCI_WorldActor@@IPBX@Z 00477980 f i charsel.obj
 0001:000769a0       ?construct@?$allocator@VCSkinObj@@@std@@QAEXPAVCSkinObj@@ABV3@@Z 004779a0 f i charsel.obj
 0001:000769c0       ?construct@?$allocator@VCSCI_WorldActor@@@std@@QAEXPAVCSCI_WorldActor@@ABV3@@Z 004779c0 f i charsel.obj
 0001:000769e0       ??3@YAXPAX0@Z              004779e0 f i charsel.obj
 0001:000769e0       ?_Destroy@std@@YAXPAPAVCPoint@@@Z 004779e0 f i charsel.obj
 0001:000769e0       ?_Destroy@std@@YAXPAU?$pair@$$CBHPAVCMailMsg@@@1@@Z 004779e0 f i charsel.obj
 0001:000769e0       ?_Destroy@std@@YAXPAPAVCListData@@@Z 004779e0 f i charsel.obj
 0001:000769e0       ?_Destroy@std@@YAXPAPAVCTabEntry@@@Z 004779e0 f i charsel.obj
 0001:000769e0       ?_Destroy@std@@YAXPAU?$pair@$$CBHPAVCMailMsgWnd@@@1@@Z 004779e0 f i charsel.obj
 0001:000769e0       ?_Destroy@std@@YAXPAU?$pair@$$CBVCSCI_WorldObject@@PAVCInventoryDlg@@@1@@Z 004779e0 f i charsel.obj
 0001:000769e0       ?_Destroy@std@@YAXPAU?$pair@$$CBHPAVCVerb@@@1@@Z 004779e0 f i charsel.obj
 0001:000769e0       ?_Destroy@std@@YAXPAU?$pair@$$CBHPAVCVerbBtn@@@1@@Z 004779e0 f i charsel.obj
 0001:000769e0       ?_Destroy@std@@YAXPAPAD@Z  004779e0 f i charsel.obj
 0001:000769e0       ?_Destroy@std@@YAXPAPAVCVerbBtn@@@Z 004779e0 f i charsel.obj
 0001:000769e0       ?_Destroy@std@@YAXPAPAVCSkinWnd@@@Z 004779e0 f i charsel.obj
 0001:000769e0       ?_Destroy@std@@YAXPAU?$pair@QAUHWND__@@PAVCSkinWnd@@@1@@Z 004779e0 f i charsel.obj
 0001:000769e0       ?_Destroy@std@@YAXPAPAVCVerbRequest@@@Z 004779e0 f i charsel.obj
 0001:000769e0       ?_Destroy@std@@YAXPAPAVCSkinBitmap@@@Z 004779e0 f i charsel.obj
 0001:000769e0       ?_Destroy@std@@YAXPAPAVCSkinCtrl@@@Z 004779e0 f i charsel.obj
 0001:000769e0       ?_Destroy@std@@YAXPAPAVCLookAtItem@@@Z 004779e0 f i charsel.obj
 0001:000769e0       ?_Destroy@std@@YAXPAPAVCSCIObjectMethod@@@Z 004779e0 f i charsel.obj
 0001:000769e0       ?_Destroy@std@@YAXPAPAVCInventoryDlg@@@Z 004779e0 f i charsel.obj
 0001:000769e0       ?_Destroy@std@@YAXPAPAVCMailMsg@@@Z 004779e0 f i charsel.obj
 0001:000769e0       ?_Destroy@std@@YAXPAPAVCSCIObjectMethodPair@@@Z 004779e0 f i charsel.obj
 0001:000769e0       ?_Destroy@std@@YAXPAU?$pair@$$CBVCSCI_Object@@PAVCNoButtonDlg@@@1@@Z 004779e0 f i charsel.obj
 0001:000769e0       ?AfxTrace@@YAXPBDZZ        004779e0 f i charsel.obj
 0001:000769e0       ?_Destroy@std@@YAXPAPAVCTabBtn@@@Z 004779e0 f i charsel.obj
 0001:000769e0       ?_Destroy@std@@YAXPAVCSCI_WorldActor@@@Z 004779e0 f i charsel.obj
 0001:000769f0       ?fill@std@@YAXPAVCSkinObj@@0ABV2@@Z 004779f0 f i charsel.obj
 0001:00076a20       ?copy_backward@std@@YAPAVCSkinObj@@PAV2@00@Z 00477a20 f i charsel.obj
 0001:00076a50       ?_Destroy@std@@YAXPAVCSkinObj@@@Z 00477a50 f i charsel.obj
 0001:00076a70       ?fill@std@@YAXPAPAVCTabEntry@@0ABQAV2@@Z 00477a70 f i charsel.obj
 0001:00076a70       ?fill@std@@YAXPAPAVCVerbBtn@@0ABQAV2@@Z 00477a70 f i charsel.obj
 0001:00076a70       ?fill@std@@YAXPAPAVCSCIObjectMethodPair@@0ABQAV2@@Z 00477a70 f i charsel.obj
 0001:00076a70       ?fill@std@@YAXPAPAVCPoint@@0ABQAV2@@Z 00477a70 f i charsel.obj
 0001:00076a70       ?fill@std@@YAXPAPAVCSkinBitmap@@0ABQAV2@@Z 00477a70 f i charsel.obj
 0001:00076a70       ?fill@std@@YAXPAPAVCTabBtn@@0ABQAV2@@Z 00477a70 f i charsel.obj
 0001:00076a70       ?fill@std@@YAXPAPAVCSkinCtrl@@0ABQAV2@@Z 00477a70 f i charsel.obj
 0001:00076a70       ?fill@std@@YAXPAPAVCSCIObjectMethod@@0ABQAV2@@Z 00477a70 f i charsel.obj
 0001:00076aa0       ?copy_backward@std@@YAPAPAVCTabBtn@@PAPAV2@00@Z 00477aa0 f i charsel.obj
 0001:00076aa0       ?copy_backward@std@@YAPAPAVCVerbBtn@@PAPAV2@00@Z 00477aa0 f i charsel.obj
 0001:00076aa0       ?copy_backward@std@@YAPAPAVCSkinCtrl@@PAPAV2@00@Z 00477aa0 f i charsel.obj
 0001:00076aa0       ?copy_backward@std@@YAPAPAVCSkinBitmap@@PAPAV2@00@Z 00477aa0 f i charsel.obj
 0001:00076aa0       ?copy_backward@std@@YAPAPAVCTabEntry@@PAPAV2@00@Z 00477aa0 f i charsel.obj
 0001:00076aa0       ?copy_backward@std@@YAPAPAVCSCIObjectMethod@@PAPAV2@00@Z 00477aa0 f i charsel.obj
 0001:00076aa0       ?copy_backward@std@@YAPAPAVCSCIObjectMethodPair@@PAPAV2@00@Z 00477aa0 f i charsel.obj
 0001:00076aa0       ?copy_backward@std@@YAPAPAVCPoint@@PAPAV2@00@Z 00477aa0 f i charsel.obj
 0001:00076ad0       ?fill@std@@YAXPAVCSCI_WorldActor@@0ABV2@@Z 00477ad0 f i charsel.obj
 0001:00076b00       ?copy_backward@std@@YAPAVCSCI_WorldActor@@PAV2@00@Z 00477b00 f i charsel.obj
 0001:00076b30       ?_Allocate@std@@YAPAVCSkinObj@@HPAV2@@Z 00477b30 f i charsel.obj
 0001:00076b60       ?_Allocate@std@@YAPAVCSCI_WorldActor@@HPAV2@@Z 00477b60 f i charsel.obj
 0001:00076b80       ?_Construct@std@@YAXPAVCSkinObj@@ABV2@@Z 00477b80 f i charsel.obj
 0001:00076bf0       ?_Construct@std@@YAXPAVCSCI_WorldActor@@ABV2@@Z 00477bf0 f i charsel.obj
 0001:00076c60       ??_ECCharSelectWnd@@WJE@AEPAXI@Z 00477c60 f i charsel.obj
 0001:00076c70       ?get_bitmap@CSCI_BitMap@@QAEFXZ 00477c70 f i charsel.obj
 0001:00076c90       ?get_pProperName@CSCI_BCharacter@@QAE?AVStringID@@XZ 00477c90 f i charsel.obj
 0001:00076cd0       ?get_pName@CSCI_WorldObject@@QAE?AVStringID@@XZ 00477cd0 f i charsel.obj
 0001:00076cd0       ?get_pName@CSCI_GroupMember@@QAE?AVStringID@@XZ 00477cd0 f i charsel.obj
 0001:00076d10       ?SetAllowMove@CSkinWnd@@IAEX_N@Z 00477d10 f i charsel.obj
 0001:00076d40       ??0strstream@std@@QAE@XZ   00477d40 f i charsel.obj
 0001:00076df0       ??0strstreambuf@std@@QAE@H@Z 00477df0 f i charsel.obj
 0001:00076e60       ??_Gstrstreambuf@std@@UAEPAXI@Z 00477e60 f i charsel.obj
 0001:00076e60       ??_Estrstreambuf@std@@UAEPAXI@Z 00477e60 f i charsel.obj
 0001:00076e90       ?str@strstream@std@@QAEPADXZ 00477e90 f i charsel.obj
 0001:00076eb0       ?str@strstreambuf@std@@QAEPADXZ 00477eb0 f i charsel.obj
 0001:00076ed0       ?pcount@strstream@std@@QBEHXZ 00477ed0 f i charsel.obj
 0001:00076ef0       ?pcount@strstreambuf@std@@QBEHXZ 00477ef0 f i charsel.obj
 0001:00076f40       ??_Estrstream@std@@UAEPAXI@Z 00477f40 f i charsel.obj
 0001:00076f40       ??_Gstrstream@std@@UAEPAXI@Z 00477f40 f i charsel.obj
 0001:00076f80       ??_Dstrstream@std@@QAEXXZ  00477f80 f i charsel.obj
 0001:000771e7       ??0CMessageLog@@QAE@XZ     004781e7 f   chatdisplay.obj
 0001:00077247       ?Empty@CMessageLog@@QAEXXZ 00478247 f   chatdisplay.obj
 0001:000772a4       ?GetMessageA@CMessageLog@@QAE?AVCString@@XZ 004782a4 f   chatdisplay.obj
 0001:000772d7       ?Insert@CMessageLog@@QAEXPBDPAVCSkinEdit@@@Z 004782d7 f   chatdisplay.obj
 0001:000775dc       ??0CChatDisplay@@QAE@VCSkinObj@@PAVCSkinWnd@@IK@Z 004785dc f   chatdisplay.obj
 0001:00077688       ?ParseText@CChatDisplay@@QAEHPBD@Z 00478688 f   chatdisplay.obj
 0001:000776c0       ?Attach@CChatDisplay@@QAEXPAVCMessageLog@@@Z 004786c0 f   chatdisplay.obj
 0001:00077757       ?Empty@CChatDisplay@@QAEXXZ 00478757 f   chatdisplay.obj
 0001:00077790       ??1CMessageLog@@QAE@XZ     00478790 f i chatdisplay.obj
 0001:000777b0       ??_GCChatDisplay@@UAEPAXI@Z 004787b0 f i chatdisplay.obj
 0001:000777b0       ??_ECChatDisplay@@UAEPAXI@Z 004787b0 f i chatdisplay.obj
 0001:000777e0       ??_ECChatDisplay@@WGA@AEPAXI@Z 004787e0 f i chatdisplay.obj
 0001:000777f0       ??_ECChatDisplay@@WHE@AEPAXI@Z 004787f0 f i chatdisplay.obj
 0001:00077800       ?ReplaceSel@CRichEditCtrl@@QAEXPBDH@Z 00478800 f i chatdisplay.obj
 0001:00077830       ?GetTextLength@CRichEditCtrl@@QBEJXZ 00478830 f i chatdisplay.obj
 0001:0007788f       ??0CChatPanel@@QAE@XZ      0047888f f   chatpanel.obj
 0001:000778bb       ??1CChatPanel@@UAE@XZ      004788bb f   chatpanel.obj
 0001:000778d7       ?Create@CChatPanel@@UAEHXZ 004788d7 f   chatpanel.obj
 0001:00077950       ??0CChatPanelVerbHandler@@QAE@XZ 00478950 f i chatpanel.obj
 0001:00077970       ?HandleVerb@CChatPanelVerbHandler@@UAEHHVCSCI_WorldObject@@@Z 00478970 f i chatpanel.obj
 0001:00077a30       ??1CChatPanelVerbHandler@@UAE@XZ 00478a30 f i chatpanel.obj
 0001:00077a50       ??_ECChatPanelVerbHandler@@UAEPAXI@Z 00478a50 f i chatpanel.obj
 0001:00077a50       ??_GCChatPanelVerbHandler@@UAEPAXI@Z 00478a50 f i chatpanel.obj
 0001:00077a80       ??_GCChatPanel@@UAEPAXI@Z  00478a80 f i chatpanel.obj
 0001:00077a80       ??_ECChatPanel@@UAEPAXI@Z  00478a80 f i chatpanel.obj
 0001:00077ab0       ?SelectTab@CMainPanelWnd@@QAEXH@Z 00478ab0 f i chatpanel.obj
 0001:00077ae0       ??0CProfanityBtn@@QAE@VCSkinObj@@PAVCSkinWnd@@@Z 00478ae0 f   ChatSettings.obj
 0001:00077b89       ?OnActivate@CProfanityBtn@@UAEXFF@Z 00478b89 f   ChatSettings.obj
 0001:00077bea       ??0CBusyBtn@@QAE@VCSkinObj@@PAVCSkinWnd@@@Z 00478bea f   ChatSettings.obj
 0001:00077c93       ?OnActivate@CBusyBtn@@UAEXFF@Z 00478c93 f   ChatSettings.obj
 0001:00077cf4       ??0CColorBtn@@QAE@VCSkinObj@@PAVCSkinWnd@@@Z 00478cf4 f   ChatSettings.obj
 0001:00077dc6       ?OnActivate@CColorBtn@@UAEXFF@Z 00478dc6 f   ChatSettings.obj
 0001:00077dee       ??0CChatSettingsDlg@@QAE@XZ 00478dee f   ChatSettings.obj
 0001:00077e1a       ?CloseSelf@CChatSettingsDlg@@UAEX_N@Z 00478e1a f   ChatSettings.obj
 0001:00077e7f       ?Create@CChatSettingsDlg@@QAEHXZ 00478e7f f   ChatSettings.obj
 0001:00077f5e       ?MakeSkinCtrl@CChatSettingsDlg@@UAEPAVCSkinCtrl@@VCSkinObj@@@Z 00478f5e f   ChatSettings.obj
 0001:000782fc       ?SetColor@CChatSettingsDlg@@QAEXH@Z 004792fc f   ChatSettings.obj
 0001:00078390       ??_ECProfanityBtn@@UAEPAXI@Z 00479390 f i ChatSettings.obj
 0001:00078390       ??_GCProfanityBtn@@UAEPAXI@Z 00479390 f i ChatSettings.obj
 0001:000783c0       ??1CProfanityBtn@@UAE@XZ   004793c0 f i ChatSettings.obj
 0001:000783e0       ??_ECBusyBtn@@UAEPAXI@Z    004793e0 f i ChatSettings.obj
 0001:000783e0       ??_GCBusyBtn@@UAEPAXI@Z    004793e0 f i ChatSettings.obj
 0001:00078410       ??1CBusyBtn@@UAE@XZ        00479410 f i ChatSettings.obj
 0001:00078430       ??_ECWhatsNewDlg@@UAEPAXI@Z 00479430 f i ChatSettings.obj
 0001:00078430       ??_GCGameSettingsDlg@@UAEPAXI@Z 00479430 f i ChatSettings.obj
 0001:00078430       ??_ECChatSettingsDlg@@UAEPAXI@Z 00479430 f i ChatSettings.obj
 0001:00078430       ??_GCChatSettingsDlg@@UAEPAXI@Z 00479430 f i ChatSettings.obj
 0001:00078430       ??_GCMailMgrWnd@@UAEPAXI@Z 00479430 f i ChatSettings.obj
 0001:00078430       ??_ECMailMgrWnd@@UAEPAXI@Z 00479430 f i ChatSettings.obj
 0001:00078430       ??_ECGameSettingsDlg@@UAEPAXI@Z 00479430 f i ChatSettings.obj
 0001:00078430       ??_GCWhatsNewDlg@@UAEPAXI@Z 00479430 f i ChatSettings.obj
 0001:00078460       ?flip@?$bitset@$04@std@@QAEAAV12@I@Z 00479460 f i ChatSettings.obj
 0001:000784b0       ??4reference@?$bitset@$04@std@@QAEAAV012@_N@Z 004794b0 f i ChatSettings.obj
 0001:000784e0       ?set@?$bitset@$04@std@@QAEAAV12@I_N@Z 004794e0 f i ChatSettings.obj
 0001:0007860b       ??0CChatVerbDialog@@QAE@XZ 0047960b f   chatverbs.obj
 0001:00078637       ??1CChatVerbDialog@@UAE@XZ 00479637 f   chatverbs.obj
 0001:00078653       ?Create@CChatVerbDialog@@UAEHPBD_N1@Z 00479653 f   chatverbs.obj
 0001:00078870       ??0CChatVerbDialogHandler@@QAE@XZ 00479870 f i chatverbs.obj
 0001:00078890       ?HandleVerb@CChatVerbDialogHandler@@UAEHHVCSCI_WorldObject@@@Z 00479890 f i chatverbs.obj
 0001:00078a50       ??1CChatVerbDialogHandler@@UAE@XZ 00479a50 f i chatverbs.obj
 0001:00078a70       ??_ECChatVerbDialogHandler@@UAEPAXI@Z 00479a70 f i chatverbs.obj
 0001:00078a70       ??_GCChatVerbDialogHandler@@UAEPAXI@Z 00479a70 f i chatverbs.obj
 0001:00078aa0       ??0CSCI_GameServer@@QAE@ABV0@@Z 00479aa0 f i chatverbs.obj
 0001:00078ac0       ??0CSCI_Server@@QAE@ABV0@@Z 00479ac0 f i chatverbs.obj
 0001:00078ae0       ??_ECChatVerbDialog@@UAEPAXI@Z 00479ae0 f i chatverbs.obj
 0001:00078ae0       ??_GCChatVerbDialog@@UAEPAXI@Z 00479ae0 f i chatverbs.obj
 0001:00078b10       ?_GetBaseMessageMap@CChangePasswordDlg@@KGPBUAFX_MSGMAP@@XZ 00479b10 f   ChngPass.obj
 0001:00078b1a       ?GetMessageMap@CChangePasswordDlg@@MBEPBUAFX_MSGMAP@@XZ 00479b1a f   ChngPass.obj
 0001:00078b2a       ??0CChangePasswordDlg@@QAE@VCSCI_Script@@VStringID@@1@Z 00479b2a f   ChngPass.obj
 0001:00078beb       ?CloseSelf@CChangePasswordDlg@@UAEX_N@Z 00479beb f   ChngPass.obj
 0001:00078faa       ?Create@CChangePasswordDlg@@QAEHXZ 00479faa f   ChngPass.obj
 0001:0007907a       ?MakeSkinCtrl@CChangePasswordDlg@@UAEPAVCSkinCtrl@@VCSkinObj@@@Z 0047a07a f   ChngPass.obj
 0001:0007947d       ?OnSetFocus@CChangePasswordDlg@@QAEXPAVCWnd@@@Z 0047a47d f   ChngPass.obj
 0001:000794b0       ??_ECGenericDlg@@UAEPAXI@Z 0047a4b0 f i ChngPass.obj
 0001:000794b0       ??_ECGspViewerDlg@@UAEPAXI@Z 0047a4b0 f i ChngPass.obj
 0001:000794b0       ??_GCChBannedListWnd@@UAEPAXI@Z 0047a4b0 f i ChngPass.obj
 0001:000794b0       ??_ECRoomWindow@@UAEPAXI@Z 0047a4b0 f i ChngPass.obj
 0001:000794b0       ??_GCSplashDlg@@UAEPAXI@Z  0047a4b0 f i ChngPass.obj
 0001:000794b0       ??_ECSplashDlg@@UAEPAXI@Z  0047a4b0 f i ChngPass.obj
 0001:000794b0       ??_GCRoomWindow@@UAEPAXI@Z 0047a4b0 f i ChngPass.obj
 0001:000794b0       ??_ECChBannedListWnd@@UAEPAXI@Z 0047a4b0 f i ChngPass.obj
 0001:000794b0       ??_ECChangePasswordDlg@@UAEPAXI@Z 0047a4b0 f i ChngPass.obj
 0001:000794b0       ??_ECChMemberListWnd@@UAEPAXI@Z 0047a4b0 f i ChngPass.obj
 0001:000794b0       ??_GCQuantityDlg@@UAEPAXI@Z 0047a4b0 f i ChngPass.obj
 0001:000794b0       ??_GCGspViewerDlg@@UAEPAXI@Z 0047a4b0 f i ChngPass.obj
 0001:000794b0       ??_GCChangePasswordDlg@@UAEPAXI@Z 0047a4b0 f i ChngPass.obj
 0001:000794b0       ??_GCMainWindow@@UAEPAXI@Z 0047a4b0 f i ChngPass.obj
 0001:000794b0       ??_GCBuyLookAtItem@@UAEPAXI@Z 0047a4b0 f i ChngPass.obj
 0001:000794b0       ??_ECBuyLookAtItem@@UAEPAXI@Z 0047a4b0 f i ChngPass.obj
 0001:000794b0       ??_GCNetworkErrorDlg@@UAEPAXI@Z 0047a4b0 f i ChngPass.obj
 0001:000794b0       ??_GCChMemberListWnd@@UAEPAXI@Z 0047a4b0 f i ChngPass.obj
 0001:000794b0       ??_ECNetworkErrorDlg@@UAEPAXI@Z 0047a4b0 f i ChngPass.obj
 0001:000794b0       ??_ECMainWindow@@UAEPAXI@Z 0047a4b0 f i ChngPass.obj
 0001:000794b0       ??_ECQuantityDlg@@UAEPAXI@Z 0047a4b0 f i ChngPass.obj
 0001:000794b0       ??_GCGenericDlg@@UAEPAXI@Z 0047a4b0 f i ChngPass.obj
 0001:000794e0       ??1CChMemberListWnd@@UAE@XZ 0047a4e0 f i ChngPass.obj
 0001:000794e0       ??1CMainWindow@@UAE@XZ     0047a4e0 f i ChngPass.obj
 0001:000794e0       ??1CQuantityDlg@@UAE@XZ    0047a4e0 f i ChngPass.obj
 0001:000794e0       ??1CSplashDlg@@UAE@XZ      0047a4e0 f i ChngPass.obj
 0001:000794e0       ??1CChBannedListWnd@@UAE@XZ 0047a4e0 f i ChngPass.obj
 0001:000794e0       ??1CChangePasswordDlg@@UAE@XZ 0047a4e0 f i ChngPass.obj
 0001:000794e0       ??1CBuyLookAtItem@@UAE@XZ  0047a4e0 f i ChngPass.obj
 0001:000794e0       ??1CGspViewerDlg@@UAE@XZ   0047a4e0 f i ChngPass.obj
 0001:000794e0       ??1CLookAtFiller@@UAE@XZ   0047a4e0 f i ChngPass.obj
 0001:000794e0       ??1CNetworkErrorDlg@@UAE@XZ 0047a4e0 f i ChngPass.obj
 0001:000794e0       ??1CGenericDlg@@UAE@XZ     0047a4e0 f i ChngPass.obj
 0001:000794e0       ??1CRoomWindow@@UAE@XZ     0047a4e0 f i ChngPass.obj
 0001:00079500       ??8@YG_NABVCString@@0@Z    0047a500 f i ChngPass.obj
 0001:00079520       ??9@YG_NABVCString@@0@Z    0047a520 f i ChngPass.obj
 0001:00079540       ?LimitText@CEdit@@QAEXH@Z  0047a540 f i ChngPass.obj
 0001:00079570       ?SetAllowResize@CSkinWnd@@IAEX_N@Z 0047a570 f i ChngPass.obj
 0001:000795a0       ??0CCombatVerbDialog@@QAE@XZ 0047a5a0 f   combatverbs.obj
 0001:0007963c       ??1CCombatVerbDialog@@UAE@XZ 0047a63c f   combatverbs.obj
 0001:000796ba       ?Create@CCombatVerbDialog@@UAEHH@Z 0047a6ba f   combatverbs.obj
 0001:00079875       ?Press@CCombatVerbDialog@@UAEXH@Z 0047a875 f   combatverbs.obj
 0001:00079914       ?UpdateTimer@CCombatVerbDialog@@QAEXH@Z 0047a914 f   combatverbs.obj
 0001:00079956       ?SetGlobalPointer@CCombatVerbDialog@@MAEXXZ 0047a956 f   combatverbs.obj
 0001:00079969       ?ClearGlobalPointer@CCombatVerbDialog@@MAEXXZ 0047a969 f   combatverbs.obj
 0001:00079988       ?EnableGameModal@CCombatVerbDialog@@UAEXHPAH@Z 0047a988 f   combatverbs.obj
 0001:000799b1       ?DisableGameModal@CCombatVerbDialog@@UAEXHPAH_N@Z 0047a9b1 f   combatverbs.obj
 0001:000799da       ??0CCombatExitDialog@@QAE@XZ 0047a9da f   combatverbs.obj
 0001:00079a39       ??1CCombatExitDialog@@UAE@XZ 0047aa39 f   combatverbs.obj
 0001:00079a5f       ?Create@CCombatExitDialog@@UAEXPAVCWnd@@@Z 0047aa5f f   combatverbs.obj
 0001:00079ae3       ?MakeSkinCtrl@CCombatExitDialog@@UAEPAVCSkinCtrl@@VCSkinObj@@@Z 0047aae3 f   combatverbs.obj
 0001:00079c40       ??_ECCombatVerbDialog@@UAEPAXI@Z 0047ac40 f i combatverbs.obj
 0001:00079c40       ??_GCCombatVerbDialog@@UAEPAXI@Z 0047ac40 f i combatverbs.obj
 0001:00079c70       ??_GCCombatExitDialog@@UAEPAXI@Z 0047ac70 f i combatverbs.obj
 0001:00079c70       ??_ECCombatExitDialog@@UAEPAXI@Z 0047ac70 f i combatverbs.obj
 0001:00079ca0       ??0CCombatExitBtn@@QAE@VCSkinObj@@PAVCSkinWnd@@@Z 0047aca0 f i combatverbs.obj
 0001:00079d20       ?OnActivate@CCombatExitBtn@@UAEXFF@Z 0047ad20 f i combatverbs.obj
 0001:00079d70       ??_GCCombatExitBtn@@UAEPAXI@Z 0047ad70 f i combatverbs.obj
 0001:00079d70       ??_ECCombatExitBtn@@UAEPAXI@Z 0047ad70 f i combatverbs.obj
 0001:00079da0       ??1CCombatExitBtn@@UAE@XZ  0047ada0 f i combatverbs.obj
 0001:00079dc0       ?GetClientRect@CWnd@@QBEXPAUtagRECT@@@Z 0047adc0 f i combatverbs.obj
 0001:00079de0       ?OnDeferredClick@CDeferredClickHandler@@UAEXXZ 0047ade0 f   deferredclick.obj
 0001:00079deb       ?Start@CDeferredClickMgr@@SAXPAVCDeferredClickHandler@@@Z 0047adeb f   deferredclick.obj
 0001:00079e17       ?Stop@CDeferredClickMgr@@SAXPAVCDeferredClickHandler@@@Z 0047ae17 f   deferredclick.obj
 0001:00079e3a       ?Process@CDeferredClickMgr@@SAXXZ 0047ae3a f   deferredclick.obj
 0001:00079e80       ?_GetBaseMessageMap@CMultipleDlg@@KGPBUAFX_MSGMAP@@XZ 0047ae80 f   DlgWnd.obj
 0001:00079e8a       ?GetMessageMap@CMultipleDlg@@MBEPBUAFX_MSGMAP@@XZ 0047ae8a f   DlgWnd.obj
 0001:00079e9a       ??0CMultipleDlg@@QAE@XZ    0047ae9a f   DlgWnd.obj
 0001:00079ee0       ??1CMultipleDlg@@UAE@XZ    0047aee0 f   DlgWnd.obj
 0001:00079f22       ?Create@CMultipleDlg@@QAEHPAD0@Z 0047af22 f   DlgWnd.obj
 0001:00079fef       ?MakeSkinCtrl@CMultipleDlg@@UAEPAVCSkinCtrl@@VCSkinObj@@@Z 0047afef f   DlgWnd.obj
 0001:0007a30f       ?disableEdit@CMultipleDlg@@QAEXXZ 0047b30f f   DlgWnd.obj
 0001:0007a339       ?OnSetFocus@CMultipleDlg@@QAEXPAVCWnd@@@Z 0047b339 f   DlgWnd.obj
 0001:0007a36f       ?GetBuffer@CMultipleDlg@@QAEXAAVCString@@@Z 0047b36f f   DlgWnd.obj
 0001:0007a39a       ?SetBuffer@CMultipleDlg@@QAEXAAVCString@@@Z 0047b39a f   DlgWnd.obj
 0001:0007a3ca       ?ParseText@CMultipleDlg@@UAEHPBD@Z 0047b3ca f   DlgWnd.obj
 0001:0007a3f9       ?CloseSelf@CMultipleDlg@@UAEX_N@Z 0047b3f9 f   DlgWnd.obj
 0001:0007a41f       ??0CCombinedDlg@@QAE@XZ    0047b41f f   DlgWnd.obj
 0001:0007a43e       ?CloseSelf@CCombinedDlg@@UAEX_N@Z 0047b43e f   DlgWnd.obj
 0001:0007a461       ?ParseText@CCombinedDlg@@UAEHPBD0@Z 0047b461 f   DlgWnd.obj
 0001:0007a4dd       ?Create@CCombinedDlg@@QAEHPAD@Z 0047b4dd f   DlgWnd.obj
 0001:0007a59c       ??0CModeratorDlg@@QAE@XZ   0047b59c f   DlgWnd.obj
 0001:0007a5d2       ?CloseSelf@CModeratorDlg@@UAEX_N@Z 0047b5d2 f   DlgWnd.obj
 0001:0007a5f5       ?ParseText@CModeratorDlg@@UAEHPBD@Z 0047b5f5 f   DlgWnd.obj
 0001:0007a658       ?Create@CModeratorDlg@@QAEHPAD@Z 0047b658 f   DlgWnd.obj
 0001:0007a754       ??0CGuideDlg@@QAE@XZ       0047b754 f   DlgWnd.obj
 0001:0007a78a       ?ParseText@CGuideDlg@@UAEHPBD@Z 0047b78a f   DlgWnd.obj
 0001:0007a7ed       ?CloseSelf@CGuideDlg@@UAEX_N@Z 0047b7ed f   DlgWnd.obj
 0001:0007a810       ?Create@CGuideDlg@@QAEHPAD@Z 0047b810 f   DlgWnd.obj
 0001:0007a90c       ??0CGodDlg@@QAE@XZ         0047b90c f   DlgWnd.obj
 0001:0007a942       ?ParseText@CGodDlg@@UAEHPBD@Z 0047b942 f   DlgWnd.obj
 0001:0007a971       ?CloseSelf@CGodDlg@@UAEX_N@Z 0047b971 f   DlgWnd.obj
 0001:0007a994       ?Create@CGodDlg@@QAEHPAD@Z 0047b994 f   DlgWnd.obj
 0001:0007aa90       ??0CHostDlg@@QAE@XZ        0047ba90 f   DlgWnd.obj
 0001:0007aac6       ?ParseText@CHostDlg@@UAEHPBD@Z 0047bac6 f   DlgWnd.obj
 0001:0007aaf5       ?CloseSelf@CHostDlg@@UAEX_N@Z 0047baf5 f   DlgWnd.obj
 0001:0007ab18       ?Create@CHostDlg@@QAEHPAD@Z 0047bb18 f   DlgWnd.obj
 0001:0007ac14       ??0CEventDlg@@QAE@XZ       0047bc14 f   DlgWnd.obj
 0001:0007ac64       ?ParseText@CEventDlg@@UAEHPBD@Z 0047bc64 f   DlgWnd.obj
 0001:0007aca0       ?CloseSelf@CEventDlg@@UAEX_N@Z 0047bca0 f   DlgWnd.obj
 0001:0007acc3       ?Create@CEventDlg@@QAEHPAD@Z 0047bcc3 f   DlgWnd.obj
 0001:0007adec       ?MakeSkinCtrl@CEventDlg@@UAEPAVCSkinCtrl@@VCSkinObj@@@Z 0047bdec f   DlgWnd.obj
 0001:0007afef       ?SetTitle@CEventDlg@@QAEXPAD@Z 0047bfef f   DlgWnd.obj
 0001:0007b05c       ??0CEventSettingsBtn@@QAE@VCSkinObj@@PAVCSkinWnd@@@Z 0047c05c f   DlgWnd.obj
 0001:0007b0cf       ?OnActivate@CEventSettingsBtn@@UAEXFF@Z 0047c0cf f   DlgWnd.obj
 0001:0007b154       ??0CGroupDlg@@QAE@XZ       0047c154 f   DlgWnd.obj
 0001:0007b18a       ?ParseText@CGroupDlg@@UAEHPBD@Z 0047c18a f   DlgWnd.obj
 0001:0007b1ed       ?CloseSelf@CGroupDlg@@UAEX_N@Z 0047c1ed f   DlgWnd.obj
 0001:0007b210       ?Create@CGroupDlg@@QAEHPAD@Z 0047c210 f   DlgWnd.obj
 0001:0007b2fd       ??0CChannelPasswordDlg@@QAE@XZ 0047c2fd f   DlgWnd.obj
 0001:0007b325       ?Create@CChannelPasswordDlg@@QAEH_N@Z 0047c325 f   DlgWnd.obj
 0001:0007b40a       ?MakeSkinCtrl@CChannelPasswordDlg@@UAEPAVCSkinCtrl@@VCSkinObj@@@Z 0047c40a f   DlgWnd.obj
 0001:0007b839       ?CloseSelf@CChannelPasswordDlg@@UAEX_N@Z 0047c839 f   DlgWnd.obj
 0001:0007b8df       ?Next@CChannelPasswordDlg@@UAEXXZ 0047c8df f   DlgWnd.obj
 0001:0007b8fa       ?Previous@CChannelPasswordDlg@@UAEXXZ 0047c8fa f   DlgWnd.obj
 0001:0007b915       ??0CResponseLine@@QAE@VCSkinObj@@PAVCSkinWnd@@IKPADH@Z 0047c915 f   DlgWnd.obj
 0001:0007b9c8       ?OnReturn@CResponseLine@@UAEXXZ 0047c9c8 f   DlgWnd.obj
 0001:0007bab0       ??_ECMultipleDlg@@UAEPAXI@Z 0047cab0 f i DlgWnd.obj
 0001:0007bab0       ??_GCMultipleDlg@@UAEPAXI@Z 0047cab0 f i DlgWnd.obj
 0001:0007bae0       ??_GCModeratorDlg@@UAEPAXI@Z 0047cae0 f i DlgWnd.obj
 0001:0007bae0       ??_ECModeratorDlg@@UAEPAXI@Z 0047cae0 f i DlgWnd.obj
 0001:0007bae0       ??_ECCombinedDlg@@UAEPAXI@Z 0047cae0 f i DlgWnd.obj
 0001:0007bae0       ??_GCGodDlg@@UAEPAXI@Z     0047cae0 f i DlgWnd.obj
 0001:0007bae0       ??_GCCombinedDlg@@UAEPAXI@Z 0047cae0 f i DlgWnd.obj
 0001:0007bae0       ??_ECHostDlg@@UAEPAXI@Z    0047cae0 f i DlgWnd.obj
 0001:0007bae0       ??_ECEventDlg@@UAEPAXI@Z   0047cae0 f i DlgWnd.obj
 0001:0007bae0       ??_GCEventDlg@@UAEPAXI@Z   0047cae0 f i DlgWnd.obj
 0001:0007bae0       ??_ECGodDlg@@UAEPAXI@Z     0047cae0 f i DlgWnd.obj
 0001:0007bae0       ??_GCHostDlg@@UAEPAXI@Z    0047cae0 f i DlgWnd.obj
 0001:0007bb10       ??_GCGuideDlg@@UAEPAXI@Z   0047cb10 f i DlgWnd.obj
 0001:0007bb10       ??_ECGuideDlg@@UAEPAXI@Z   0047cb10 f i DlgWnd.obj
 0001:0007bb40       ??1CGuideDlg@@UAE@XZ       0047cb40 f i DlgWnd.obj
 0001:0007bb60       ??1CHostDlg@@UAE@XZ        0047cb60 f i DlgWnd.obj
 0001:0007bb60       ??1CModeratorDlg@@UAE@XZ   0047cb60 f i DlgWnd.obj
 0001:0007bb60       ??1CCombinedDlg@@UAE@XZ    0047cb60 f i DlgWnd.obj
 0001:0007bb60       ??1CGodDlg@@UAE@XZ         0047cb60 f i DlgWnd.obj
 0001:0007bb60       ??1CEventDlg@@UAE@XZ       0047cb60 f i DlgWnd.obj
 0001:0007bb80       ??_GCEventSettingsBtn@@UAEPAXI@Z 0047cb80 f i DlgWnd.obj
 0001:0007bb80       ??_ECEventSettingsBtn@@UAEPAXI@Z 0047cb80 f i DlgWnd.obj
 0001:0007bbb0       ??1CEventSettingsBtn@@UAE@XZ 0047cbb0 f i DlgWnd.obj
 0001:0007bbd0       ??_GCGroupDlg@@UAEPAXI@Z   0047cbd0 f i DlgWnd.obj
 0001:0007bbd0       ??_ECGroupDlg@@UAEPAXI@Z   0047cbd0 f i DlgWnd.obj
 0001:0007bc00       ??1CGroupDlg@@UAE@XZ       0047cc00 f i DlgWnd.obj
 0001:0007bc20       ??_GCChannelPasswordDlg@@UAEPAXI@Z 0047cc20 f i DlgWnd.obj
 0001:0007bc20       ??_ECChannelPasswordDlg@@UAEPAXI@Z 0047cc20 f i DlgWnd.obj
 0001:0007bc50       ??1CChannelPasswordDlg@@UAE@XZ 0047cc50 f i DlgWnd.obj
 0001:0007bc70       ??_ECGossipLine@@UAEPAXI@Z 0047cc70 f i DlgWnd.obj
 0001:0007bc70       ??_GCBioLine@@UAEPAXI@Z    0047cc70 f i DlgWnd.obj
 0001:0007bc70       ??_ECTextLine@@UAEPAXI@Z   0047cc70 f i DlgWnd.obj
 0001:0007bc70       ??_GCGossipLine@@UAEPAXI@Z 0047cc70 f i DlgWnd.obj
 0001:0007bc70       ??_GCResponseLine@@UAEPAXI@Z 0047cc70 f i DlgWnd.obj
 0001:0007bc70       ??_GCTextLine@@UAEPAXI@Z   0047cc70 f i DlgWnd.obj
 0001:0007bc70       ??_ECResponseLine@@UAEPAXI@Z 0047cc70 f i DlgWnd.obj
 0001:0007bc70       ??_ECBioLine@@UAEPAXI@Z    0047cc70 f i DlgWnd.obj
 0001:0007bc70       ??_GCTopicLine@@UAEPAXI@Z  0047cc70 f i DlgWnd.obj
 0001:0007bc70       ??_ECTopicLine@@UAEPAXI@Z  0047cc70 f i DlgWnd.obj
 0001:0007bca0       ??1CChatDisplay@@UAE@XZ    0047cca0 f i DlgWnd.obj
 0001:0007bca0       ??1CResponseLine@@UAE@XZ   0047cca0 f i DlgWnd.obj
 0001:0007bca0       ??1CTopicLine@@UAE@XZ      0047cca0 f i DlgWnd.obj
 0001:0007bca0       ??1CBioLine@@UAE@XZ        0047cca0 f i DlgWnd.obj
 0001:0007bca0       ??1CGossipLine@@UAE@XZ     0047cca0 f i DlgWnd.obj
 0001:0007bca0       ??1CTextLine@@UAE@XZ       0047cca0 f i DlgWnd.obj
 0001:0007bcc0       ??_ECResponseLine@@WHE@AEPAXI@Z 0047ccc0 f i DlgWnd.obj
 0001:0007bcc0       ??_ECGossipLine@@WHE@AEPAXI@Z 0047ccc0 f i DlgWnd.obj
 0001:0007bcd0       ?getChannel_AttemptJoin@CToonSettings@@QAEHXZ 0047ccd0 f i DlgWnd.obj
 0001:0007bcf0       ?HideTab@CMainPanelWnd@@QAEXHH@Z 0047ccf0 f i DlgWnd.obj
 0001:0007bd20       ??0CDraggable@@QAE@XZ      0047cd20 f   drag-n-drop.obj
 0001:0007bd50       ??1CDraggable@@UAE@XZ      0047cd50 f   drag-n-drop.obj
 0001:0007bda6       ?GetSkinBitmap@CDraggable@@QAEPAVCSkinBitmap@@XZ 0047cda6 f   drag-n-drop.obj
 0001:0007bdb7       ?GetType@CDraggable@@UAE?AW4eDragType@1@XZ 0047cdb7 f   drag-n-drop.obj
 0001:0007bdc4       ?ApplyOffset@CDraggable@@QAEXAAVCPoint@@@Z 0047cdc4 f   drag-n-drop.obj
 0001:0007be5b       ??0CDropTarget@@QAE@XZ     0047ce5b f   drag-n-drop.obj
 0001:0007be7c       ??1CDropTarget@@UAE@XZ     0047ce7c f   drag-n-drop.obj
 0001:0007be9a       ?LinkToWindow@CDropTarget@@IAEXPAUHWND__@@@Z 0047ce9a f   drag-n-drop.obj
 0001:0007beed       ?FromWindowHandle@CDropTarget@@SAPAV1@PAUHWND__@@@Z 0047ceed f   drag-n-drop.obj
 0001:0007bf3d       ?FromScreenPoint@CDropTarget@@SAPAV1@AAVCPoint@@@Z 0047cf3d f   drag-n-drop.obj
 0001:0007bfa1       ?CanAcceptDrop@CDropTarget@@UAEPAUHICON__@@AAVCDraggable@@AAVCPoint@@@Z 0047cfa1 f   drag-n-drop.obj
 0001:0007bfb0       ?AcceptDrop@CDropTarget@@UAEXAAVCDraggable@@AAVCPoint@@@Z 0047cfb0 f   drag-n-drop.obj
 0001:0007bfbd       ?_GetBaseMessageMap@CDragDropMgr@@KGPBUAFX_MSGMAP@@XZ 0047cfbd f   drag-n-drop.obj
 0001:0007bfc7       ?GetMessageMap@CDragDropMgr@@MBEPBUAFX_MSGMAP@@XZ 0047cfc7 f   drag-n-drop.obj
 0001:0007bfd7       ??0CDragDropMgr@@QAE@XZ    0047cfd7 f   drag-n-drop.obj
 0001:0007c08e       ??1CDragDropMgr@@UAE@XZ    0047d08e f   drag-n-drop.obj
 0001:0007c0df       ?StartDrag@CDragDropMgr@@QAEXPAVCDraggable@@@Z 0047d0df f   drag-n-drop.obj
 0001:0007c1db       ?StopDrag@CDragDropMgr@@QAEXXZ 0047d1db f   drag-n-drop.obj
 0001:0007c23f       ?OnMouseMove@CDragDropMgr@@IAEXIVCPoint@@@Z 0047d23f f   drag-n-drop.obj
 0001:0007c2fd       ?OnLButtonUp@CDragDropMgr@@IAEXIVCPoint@@@Z 0047d2fd f   drag-n-drop.obj
 0001:0007c381       ?OnRButtonUp@CDragDropMgr@@IAEXIVCPoint@@@Z 0047d381 f   drag-n-drop.obj
 0001:0007c396       ?OnLButtonDown@CDragDropMgr@@IAEXIVCPoint@@@Z 0047d396 f   drag-n-drop.obj
 0001:0007c3ab       ?OnRButtonDown@CDragDropMgr@@IAEXIVCPoint@@@Z 0047d3ab f   drag-n-drop.obj
 0001:0007c3c0       ?OnKillFocus@CDragDropMgr@@IAEXPAVCWnd@@@Z 0047d3c0 f   drag-n-drop.obj
 0001:0007c43d       ?UpdatePosn@CDragDropMgr@@QAEXAAVCPoint@@@Z 0047d43d f   drag-n-drop.obj
 0001:0007c495       ?Hide@CDragDropMgr@@QAEXXZ 0047d495 f   drag-n-drop.obj
 0001:0007c4aa       ?Show@CDragDropMgr@@QAEXXZ 0047d4aa f   drag-n-drop.obj
 0001:0007c4bf       ?IsDragging@CDragDropMgr@@QAE_NXZ 0047d4bf f   drag-n-drop.obj
 0001:0007c4d7       ?UpdateFastScroll@CDragDropMgr@@QAEPAUHICON__@@XZ 0047d4d7 f   drag-n-drop.obj
 0001:0007c540       ??_ECDraggable@@UAEPAXI@Z  0047d540 f i drag-n-drop.obj
 0001:0007c540       ??_GCDraggable@@UAEPAXI@Z  0047d540 f i drag-n-drop.obj
 0001:0007c570       ??1?$map@PAUHWND__@@PAVCDropTarget@@U?$less@PAUHWND__@@@std@@V?$allocator@PAVCDropTarget@@@4@@std@@QAE@XZ 0047d570 f i drag-n-drop.obj
 0001:0007c590       ??_GCDropTarget@@UAEPAXI@Z 0047d590 f i drag-n-drop.obj
 0001:0007c590       ??_ECDropTarget@@UAEPAXI@Z 0047d590 f i drag-n-drop.obj
 0001:0007c5c0       ??_GCDragDropMgr@@UAEPAXI@Z 0047d5c0 f i drag-n-drop.obj
 0001:0007c5c0       ??_ECDragDropMgr@@UAEPAXI@Z 0047d5c0 f i drag-n-drop.obj
 0001:0007c5f0       ??0?$map@PAUHWND__@@PAVCDropTarget@@U?$less@PAUHWND__@@@std@@V?$allocator@PAVCDropTarget@@@4@@std@@QAE@ABU?$less@PAUHWND__@@@1@ABV?$allocator@PAVCDropTarget@@@1@@Z 0047d5f0 f i drag-n-drop.obj
 0001:0007c620       ??A?$map@PAUHWND__@@PAVCDropTarget@@U?$less@PAUHWND__@@@std@@V?$allocator@PAVCDropTarget@@@4@@std@@QAEAAPAVCDropTarget@@ABQAUHWND__@@@Z 0047d620 f i drag-n-drop.obj
 0001:0007c670       ?erase@?$map@PAUHWND__@@PAVCDropTarget@@U?$less@PAUHWND__@@@std@@V?$allocator@PAVCDropTarget@@@4@@std@@QAEIABQAUHWND__@@@Z 0047d670 f i drag-n-drop.obj
 0001:0007c690       ?find@?$map@PAUHWND__@@PAVCDropTarget@@U?$less@PAUHWND__@@@std@@V?$allocator@PAVCDropTarget@@@4@@std@@QAE?AViterator@?$_Tree@PAUHWND__@@U?$pair@QAUHWND__@@PAVCDropTarget@@@std@@U_Kfn@?$map@PAUHWND__@@PAVCDropTarget@@U?$less@PAUHWND__@@@std@@V?$allocator@PAVCDropTarget@@@4@@3@U?$less@PAUHWND__@@@3@V?$allocator@PAVCDropTarget@@@3@@2@ABQAUHWND__@@@Z 0047d690 f i drag-n-drop.obj
 0001:0007c6c0       ??1?$_Tree@PAUHWND__@@U?$pair@QAUHWND__@@PAVCDropTarget@@@std@@U_Kfn@?$map@PAUHWND__@@PAVCDropTarget@@U?$less@PAUHWND__@@@std@@V?$allocator@PAVCDropTarget@@@4@@3@U?$less@PAUHWND__@@@3@V?$allocator@PAVCDropTarget@@@3@@std@@QAE@XZ 0047d6c0 f i drag-n-drop.obj
 0001:0007c790       ??0CPoint@@QAE@UtagPOINT@@@Z 0047d790 f i drag-n-drop.obj
 0001:0007c7b0       ??ZCPoint@@QAEXUtagPOINT@@@Z 0047d7b0 f i drag-n-drop.obj
 0001:0007c7e0       ?insert@?$map@PAUHWND__@@PAVCDropTarget@@U?$less@PAUHWND__@@@std@@V?$allocator@PAVCDropTarget@@@4@@std@@QAE?AU?$pair@Viterator@?$_Tree@PAUHWND__@@U?$pair@QAUHWND__@@PAVCDropTarget@@@std@@U_Kfn@?$map@PAUHWND__@@PAVCDropTarget@@U?$less@PAUHWND__@@@std@@V?$allocator@PAVCDropTarget@@@4@@3@U?$less@PAUHWND__@@@3@V?$allocator@PAVCDropTarget@@@3@@std@@_N@2@ABU?$pair@QAUHWND__@@PAVCDropTarget@@@2@@Z 0047d7e0 f i drag-n-drop.obj
 0001:0007c830       ??0?$_Tree@PAUHWND__@@U?$pair@QAUHWND__@@PAVCDropTarget@@@std@@U_Kfn@?$map@PAUHWND__@@PAVCDropTarget@@U?$less@PAUHWND__@@@std@@V?$allocator@PAVCDropTarget@@@4@@3@U?$less@PAUHWND__@@@3@V?$allocator@PAVCDropTarget@@@3@@std@@QAE@ABU?$less@PAUHWND__@@@1@_NABV?$allocator@PAVCDropTarget@@@1@@Z 0047d830 f i drag-n-drop.obj
 0001:0007c870       ?erase@?$_Tree@PAUHWND__@@U?$pair@QAUHWND__@@PAVCDropTarget@@@std@@U_Kfn@?$map@PAUHWND__@@PAVCDropTarget@@U?$less@PAUHWND__@@@std@@V?$allocator@PAVCDropTarget@@@4@@3@U?$less@PAUHWND__@@@3@V?$allocator@PAVCDropTarget@@@3@@std@@QAE?AViterator@12@V312@0@Z 0047d870 f i drag-n-drop.obj
 0001:0007c9b0       ?erase@?$_Tree@PAUHWND__@@U?$pair@QAUHWND__@@PAVCDropTarget@@@std@@U_Kfn@?$map@PAUHWND__@@PAVCDropTarget@@U?$less@PAUHWND__@@@std@@V?$allocator@PAVCDropTarget@@@4@@3@U?$less@PAUHWND__@@@3@V?$allocator@PAVCDropTarget@@@3@@std@@QAEIABQAUHWND__@@@Z 0047d9b0 f i drag-n-drop.obj
 0001:0007ca10       ?find@?$_Tree@PAUHWND__@@U?$pair@QAUHWND__@@PAVCDropTarget@@@std@@U_Kfn@?$map@PAUHWND__@@PAVCDropTarget@@U?$less@PAUHWND__@@@std@@V?$allocator@PAVCDropTarget@@@4@@3@U?$less@PAUHWND__@@@3@V?$allocator@PAVCDropTarget@@@3@@std@@QAE?AViterator@12@ABQAUHWND__@@@Z 0047da10 f i drag-n-drop.obj
 0001:0007cab0       ??R?$less@PAVCSkinCtrl@@@std@@QBE_NABQAVCSkinCtrl@@0@Z 0047dab0 f i drag-n-drop.obj
 0001:0007cab0       ??R?$less@PAUHWND__@@@std@@QBE_NABQAUHWND__@@0@Z 0047dab0 f i drag-n-drop.obj
 0001:0007cad0       ?insert@?$_Tree@PAUHWND__@@U?$pair@QAUHWND__@@PAVCDropTarget@@@std@@U_Kfn@?$map@PAUHWND__@@PAVCDropTarget@@U?$less@PAUHWND__@@@std@@V?$allocator@PAVCDropTarget@@@4@@3@U?$less@PAUHWND__@@@3@V?$allocator@PAVCDropTarget@@@3@@std@@QAE?AU?$pair@Viterator@?$_Tree@PAUHWND__@@U?$pair@QAUHWND__@@PAVCDropTarget@@@std@@U_Kfn@?$map@PAUHWND__@@PAVCDropTarget@@U?$less@PAUHWND__@@@std@@V?$allocator@PAVCDropTarget@@@4@@3@U?$less@PAUHWND__@@@3@V?$allocator@PAVCDropTarget@@@3@@std@@_N@2@ABU?$pair@QAUHWND__@@PAVCDropTarget@@@2@@Z 0047dad0 f i drag-n-drop.obj
 0001:0007cd10       ?erase@?$_Tree@PAUHWND__@@U?$pair@QAUHWND__@@PAVCDropTarget@@@std@@U_Kfn@?$map@PAUHWND__@@PAVCDropTarget@@U?$less@PAUHWND__@@@std@@V?$allocator@PAVCDropTarget@@@4@@3@U?$less@PAUHWND__@@@3@V?$allocator@PAVCDropTarget@@@3@@std@@QAE?AViterator@12@V312@@Z 0047dd10 f i drag-n-drop.obj
 0001:0007d560       ?lower_bound@?$_Tree@PAUHWND__@@U?$pair@QAUHWND__@@PAVCDropTarget@@@std@@U_Kfn@?$map@PAUHWND__@@PAVCDropTarget@@U?$less@PAUHWND__@@@std@@V?$allocator@PAVCDropTarget@@@4@@3@U?$less@PAUHWND__@@@3@V?$allocator@PAVCDropTarget@@@3@@std@@QAE?AViterator@12@ABQAUHWND__@@@Z 0047e560 f i drag-n-drop.obj
 0001:0007d590       ?equal_range@?$_Tree@PAUHWND__@@U?$pair@QAUHWND__@@PAVCDropTarget@@@std@@U_Kfn@?$map@PAUHWND__@@PAVCDropTarget@@U?$less@PAUHWND__@@@std@@V?$allocator@PAVCDropTarget@@@4@@3@U?$less@PAUHWND__@@@3@V?$allocator@PAVCDropTarget@@@3@@std@@QAE?AU?$pair@Viterator@?$_Tree@PAUHWND__@@U?$pair@QAUHWND__@@PAVCDropTarget@@@std@@U_Kfn@?$map@PAUHWND__@@PAVCDropTarget@@U?$less@PAUHWND__@@@std@@V?$allocator@PAVCDropTarget@@@4@@3@U?$less@PAUHWND__@@@3@V?$allocator@PAVCDropTarget@@@3@@std@@V123@@2@ABQAUHWND__@@@Z 0047e590 f i drag-n-drop.obj
 0001:0007d5e0       ?_Erase@?$_Tree@PAUHWND__@@U?$pair@QAUHWND__@@PAVCDropTarget@@@std@@U_Kfn@?$map@PAUHWND__@@PAVCDropTarget@@U?$less@PAUHWND__@@@std@@V?$allocator@PAVCDropTarget@@@4@@3@U?$less@PAUHWND__@@@3@V?$allocator@PAVCDropTarget@@@3@@std@@IAEXPAU_Node@12@@Z 0047e5e0 f i drag-n-drop.obj
 0001:0007d6a0       ?_Init@?$_Tree@PAUHWND__@@U?$pair@QAUHWND__@@PAVCDropTarget@@@std@@U_Kfn@?$map@PAUHWND__@@PAVCDropTarget@@U?$less@PAUHWND__@@@std@@V?$allocator@PAVCDropTarget@@@4@@3@U?$less@PAUHWND__@@@3@V?$allocator@PAVCDropTarget@@@3@@std@@IAEXXZ 0047e6a0 f i drag-n-drop.obj
 0001:0007d780       ??Eiterator@?$_Tree@PAUHWND__@@U?$pair@QAUHWND__@@PAVCDropTarget@@@std@@U_Kfn@?$map@PAUHWND__@@PAVCDropTarget@@U?$less@PAUHWND__@@@std@@V?$allocator@PAVCDropTarget@@@4@@3@U?$less@PAUHWND__@@@3@V?$allocator@PAVCDropTarget@@@3@@std@@QAE?AV012@H@Z 0047e780 f i drag-n-drop.obj
 0001:0007d7b0       ?GetSafeHwnd@CWnd@@QBEPAUHWND__@@XZ 0047e7b0 f i drag-n-drop.obj
 0001:0007d7e0       ?upper_bound@?$_Tree@PAUHWND__@@U?$pair@QAUHWND__@@PAVCDropTarget@@@std@@U_Kfn@?$map@PAUHWND__@@PAVCDropTarget@@U?$less@PAUHWND__@@@std@@V?$allocator@PAVCDropTarget@@@4@@3@U?$less@PAUHWND__@@@3@V?$allocator@PAVCDropTarget@@@3@@std@@QAE?AViterator@12@ABQAUHWND__@@@Z 0047e7e0 f i drag-n-drop.obj
 0001:0007d810       ?_Insert@?$_Tree@PAUHWND__@@U?$pair@QAUHWND__@@PAVCDropTarget@@@std@@U_Kfn@?$map@PAUHWND__@@PAVCDropTarget@@U?$less@PAUHWND__@@@std@@V?$allocator@PAVCDropTarget@@@4@@3@U?$less@PAUHWND__@@@3@V?$allocator@PAVCDropTarget@@@3@@std@@IAE?AViterator@12@PAU_Node@12@0ABU?$pair@QAUHWND__@@PAVCDropTarget@@@2@@Z 0047e810 f i drag-n-drop.obj
 0001:0007dce0       ?ClientToScreen@CWnd@@QBEXPAUtagPOINT@@@Z 0047ece0 f i drag-n-drop.obj
 0001:0007dd00       ?_Lbound@?$_Tree@PAUHWND__@@U?$pair@QAUHWND__@@PAVCDropTarget@@@std@@U_Kfn@?$map@PAUHWND__@@PAVCDropTarget@@U?$less@PAUHWND__@@@std@@V?$allocator@PAVCDropTarget@@@4@@3@U?$less@PAUHWND__@@@3@V?$allocator@PAVCDropTarget@@@3@@std@@IBEPAU_Node@12@ABQAUHWND__@@@Z 0047ed00 f i drag-n-drop.obj
 0001:0007ddd0       ?_Lrotate@?$_Tree@PAUHWND__@@U?$pair@QAUHWND__@@PAVCDropTarget@@@std@@U_Kfn@?$map@PAUHWND__@@PAVCDropTarget@@U?$less@PAUHWND__@@@std@@V?$allocator@PAVCDropTarget@@@4@@3@U?$less@PAUHWND__@@@3@V?$allocator@PAVCDropTarget@@@3@@std@@IAEXPAU_Node@12@@Z 0047edd0 f i drag-n-drop.obj
 0001:0007df40       ?_Max@?$_Tree@PAUHWND__@@U?$pair@QAUHWND__@@PAVCDropTarget@@@std@@U_Kfn@?$map@PAUHWND__@@PAVCDropTarget@@U?$less@PAUHWND__@@@std@@V?$allocator@PAVCDropTarget@@@4@@3@U?$less@PAUHWND__@@@3@V?$allocator@PAVCDropTarget@@@3@@std@@KAPAU_Node@12@PAU312@@Z 0047ef40 f i drag-n-drop.obj
 0001:0007dfc0       ?_Min@?$_Tree@PAUHWND__@@U?$pair@QAUHWND__@@PAVCDropTarget@@@std@@U_Kfn@?$map@PAUHWND__@@PAVCDropTarget@@U?$less@PAUHWND__@@@std@@V?$allocator@PAVCDropTarget@@@4@@3@U?$less@PAUHWND__@@@3@V?$allocator@PAVCDropTarget@@@3@@std@@KAPAU_Node@12@PAU312@@Z 0047efc0 f i drag-n-drop.obj
 0001:0007e040       ?_Rrotate@?$_Tree@PAUHWND__@@U?$pair@QAUHWND__@@PAVCDropTarget@@@std@@U_Kfn@?$map@PAUHWND__@@PAVCDropTarget@@U?$less@PAUHWND__@@@std@@V?$allocator@PAVCDropTarget@@@4@@3@U?$less@PAUHWND__@@@3@V?$allocator@PAVCDropTarget@@@3@@std@@IAEXPAU_Node@12@@Z 0047f040 f i drag-n-drop.obj
 0001:0007e1b0       ?SetCapture@CWnd@@QAEPAV1@XZ 0047f1b0 f i drag-n-drop.obj
 0001:0007e1d0       ??Eiterator@?$_Tree@PAUHWND__@@U?$pair@QAUHWND__@@PAVCDropTarget@@@std@@U_Kfn@?$map@PAUHWND__@@PAVCDropTarget@@U?$less@PAUHWND__@@@std@@V?$allocator@PAVCDropTarget@@@4@@3@U?$less@PAUHWND__@@@3@V?$allocator@PAVCDropTarget@@@3@@std@@QAEAAV012@XZ 0047f1d0 f i drag-n-drop.obj
 0001:0007e1f0       ??Fiterator@?$_Tree@PAUHWND__@@U?$pair@QAUHWND__@@PAVCDropTarget@@@std@@U_Kfn@?$map@PAUHWND__@@PAVCDropTarget@@U?$less@PAUHWND__@@@std@@V?$allocator@PAVCDropTarget@@@4@@3@U?$less@PAUHWND__@@@3@V?$allocator@PAVCDropTarget@@@3@@std@@QAEAAV012@XZ 0047f1f0 f i drag-n-drop.obj
 0001:0007e210       ?_Ubound@?$_Tree@PAUHWND__@@U?$pair@QAUHWND__@@PAVCDropTarget@@@std@@U_Kfn@?$map@PAUHWND__@@PAVCDropTarget@@U?$less@PAUHWND__@@@std@@V?$allocator@PAVCDropTarget@@@4@@3@U?$less@PAUHWND__@@@3@V?$allocator@PAVCDropTarget@@@3@@std@@IBEPAU_Node@12@ABQAUHWND__@@@Z 0047f210 f i drag-n-drop.obj
 0001:0007e2e0       ?_Consval@?$_Tree@HU?$pair@$$CBHPAVCVerbBtn@@@std@@U_Kfn@?$map@HPAVCVerbBtn@@U?$less@H@std@@V?$allocator@PAVCVerbBtn@@@3@@2@U?$less@H@2@V?$allocator@PAVCVerbBtn@@@2@@std@@IAEXPAU?$pair@$$CBHPAVCVerbBtn@@@2@ABU32@@Z 0047f2e0 f i drag-n-drop.obj
 0001:0007e2e0       ?_Consval@?$_Tree@HU?$pair@$$CBHPAVCMailMsg@@@std@@U_Kfn@?$map@HPAVCMailMsg@@U?$less@H@std@@V?$allocator@PAVCMailMsg@@@3@@2@U?$less@H@2@V?$allocator@PAVCMailMsg@@@2@@std@@IAEXPAU?$pair@$$CBHPAVCMailMsg@@@2@ABU32@@Z 0047f2e0 f i drag-n-drop.obj
 0001:0007e2e0       ?_Consval@?$_Tree@PAUHWND__@@U?$pair@QAUHWND__@@PAVCMouseWheelable@@@std@@U_Kfn@?$map@PAUHWND__@@PAVCMouseWheelable@@U?$less@PAUHWND__@@@std@@V?$allocator@PAVCMouseWheelable@@@4@@3@U?$less@PAUHWND__@@@3@V?$allocator@PAVCMouseWheelable@@@3@@std@@IAEXPAU?$pair@QAUHWND__@@PAVCMouseWheelable@@@2@ABU32@@Z 0047f2e0 f i drag-n-drop.obj
 0001:0007e2e0       ?_Consval@?$_Tree@HU?$pair@$$CBHPAVCMailMsgWnd@@@std@@U_Kfn@?$map@HPAVCMailMsgWnd@@U?$less@H@std@@V?$allocator@PAVCMailMsgWnd@@@3@@2@U?$less@H@2@V?$allocator@PAVCMailMsgWnd@@@2@@std@@IAEXPAU?$pair@$$CBHPAVCMailMsgWnd@@@2@ABU32@@Z 0047f2e0 f i drag-n-drop.obj
 0001:0007e2e0       ?_Consval@?$_Tree@HU?$pair@$$CBHPAVCVerb@@@std@@U_Kfn@?$map@HPAVCVerb@@U?$less@H@std@@V?$allocator@PAVCVerb@@@3@@2@U?$less@H@2@V?$allocator@PAVCVerb@@@2@@std@@IAEXPAU?$pair@$$CBHPAVCVerb@@@2@ABU32@@Z 0047f2e0 f i drag-n-drop.obj
 0001:0007e2e0       ?_Consval@?$_Tree@PAUHWND__@@U?$pair@QAUHWND__@@PAVCDropTarget@@@std@@U_Kfn@?$map@PAUHWND__@@PAVCDropTarget@@U?$less@PAUHWND__@@@std@@V?$allocator@PAVCDropTarget@@@4@@3@U?$less@PAUHWND__@@@3@V?$allocator@PAVCDropTarget@@@3@@std@@IAEXPAU?$pair@QAUHWND__@@PAVCDropTarget@@@2@ABU32@@Z 0047f2e0 f i drag-n-drop.obj
 0001:0007e2e0       ?_Consval@?$_Tree@PAUHWND__@@U?$pair@QAUHWND__@@PAVCSkinWnd@@@std@@U_Kfn@?$map@PAUHWND__@@PAVCSkinWnd@@U?$less@PAUHWND__@@@std@@V?$allocator@PAVCSkinWnd@@@4@@3@U?$less@PAUHWND__@@@3@V?$allocator@PAVCSkinWnd@@@3@@std@@IAEXPAU?$pair@QAUHWND__@@PAVCSkinWnd@@@2@ABU32@@Z 0047f2e0 f i drag-n-drop.obj
 0001:0007e300       ?_Dec@const_iterator@?$_Tree@PAUHWND__@@U?$pair@QAUHWND__@@PAVCDropTarget@@@std@@U_Kfn@?$map@PAUHWND__@@PAVCDropTarget@@U?$less@PAUHWND__@@@std@@V?$allocator@PAVCDropTarget@@@4@@3@U?$less@PAUHWND__@@@3@V?$allocator@PAVCDropTarget@@@3@@std@@QAEXXZ 0047f300 f i drag-n-drop.obj
 0001:0007e410       ?_Inc@const_iterator@?$_Tree@PAUHWND__@@U?$pair@QAUHWND__@@PAVCDropTarget@@@std@@U_Kfn@?$map@PAUHWND__@@PAVCDropTarget@@U?$less@PAUHWND__@@@std@@V?$allocator@PAVCDropTarget@@@4@@3@U?$less@PAUHWND__@@@3@V?$allocator@PAVCDropTarget@@@3@@std@@QAEXXZ 0047f410 f i drag-n-drop.obj
 0001:0007e4f0       ?_Distance@std@@YAXViterator@?$_Tree@PAUHWND__@@U?$pair@QAUHWND__@@PAVCDropTarget@@@std@@U_Kfn@?$map@PAUHWND__@@PAVCDropTarget@@U?$less@PAUHWND__@@@std@@V?$allocator@PAVCDropTarget@@@4@@3@U?$less@PAUHWND__@@@3@V?$allocator@PAVCDropTarget@@@3@@1@0AAI@Z 0047f4f0 f i drag-n-drop.obj
 0001:0007e520       ?_Destroy@std@@YAXPAU?$pair@QAUHWND__@@PAVCDropTarget@@@1@@Z 0047f520 f i drag-n-drop.obj
 0001:0007e520       ?_Destroy@std@@YAXPAU?$pair@$$CBHVCSCI_WorldObject@@@1@@Z 0047f520 f i drag-n-drop.obj
 0001:0007e520       ?_Destroy@std@@YAXPAU?$pair@QAUHWND__@@PAVCMouseWheelable@@@1@@Z 0047f520 f i drag-n-drop.obj
 0001:0007e530       ?_Distance@std@@YAXViterator@?$_Tree@PAUHWND__@@U?$pair@QAUHWND__@@PAVCDropTarget@@@std@@U_Kfn@?$map@PAUHWND__@@PAVCDropTarget@@U?$less@PAUHWND__@@@std@@V?$allocator@PAVCDropTarget@@@4@@3@U?$less@PAUHWND__@@@3@V?$allocator@PAVCDropTarget@@@3@@1@0AAIUbidirectional_iterator_tag@1@@Z 0047f530 f i drag-n-drop.obj
 0001:0007e570       ?SetFocusable@CSkinWnd@@QAEX_N@Z 0047f570 f i drag-n-drop.obj
 0001:0007e590       ??0CWorldObjectDraggable@@QAE@VCSCI_WorldObject@@AAVCPoint@@@Z 0047f590 f   dragworldobject.obj
 0001:0007e872       ??1CWorldObjectDraggable@@UAE@XZ 0047f872 f   dragworldobject.obj
 0001:0007e88e       ?GetType@CWorldObjectDraggable@@UAE?AW4eDragType@CDraggable@@XZ 0047f88e f   dragworldobject.obj
 0001:0007e89e       ?CalcCursor@CWorldObjectDraggable@@QAEPAUHICON__@@VCSCI_WorldObject@@@Z 0047f89e f   dragworldobject.obj
 0001:0007ea50       ??_GCWorldObjectDraggable@@UAEPAXI@Z 0047fa50 f i dragworldobject.obj
 0001:0007ea50       ??_ECWorldObjectDraggable@@UAEPAXI@Z 0047fa50 f i dragworldobject.obj
 0001:0007ea80       ??YCPoint@@QAEXUtagPOINT@@@Z 0047fa80 f i dragworldobject.obj
 0001:0007eab0       ?get_elements@CSCI_Collection@@QAEFXZ 0047fab0 f i dragworldobject.obj
 0001:0007ead0       ?get_scaleX@CSCI_BitMap@@QAEFXZ 0047fad0 f i dragworldobject.obj
 0001:0007eaf0       ?get_scaleY@CSCI_BitMap@@QAEFXZ 0047faf0 f i dragworldobject.obj
 0001:0007eb10       ?get_pOwner@CSCI_BCarryable@@QAEFXZ 0047fb10 f i dragworldobject.obj
 0001:0007eb6f       ??0CEventVerbs@@QAE@XZ     0047fb6f f   EventVerbs.obj
 0001:0007eb9b       ??1CEventVerbs@@UAE@XZ     0047fb9b f   EventVerbs.obj
 0001:0007ebb7       ?Create@CEventVerbs@@UAEHXZ 0047fbb7 f   EventVerbs.obj
 0001:0007ec64       ??0COpenEventDlg@@QAE@XZ   0047fc64 f   EventVerbs.obj
 0001:0007ec83       ?CloseSelf@COpenEventDlg@@UAEX_N@Z 0047fc83 f   EventVerbs.obj
 0001:0007ed36       ?Create@COpenEventDlg@@QAEHXZ 0047fd36 f   EventVerbs.obj
 0001:0007eda6       ?MakeSkinCtrl@COpenEventDlg@@UAEPAVCSkinCtrl@@VCSkinObj@@@Z 0047fda6 f   EventVerbs.obj
 0001:0007f040       ?_GetBaseMessageMap@CTopicLine@@KGPBUAFX_MSGMAP@@XZ 00480040 f   EventVerbs.obj
 0001:0007f04a       ?GetMessageMap@CTopicLine@@MBEPBUAFX_MSGMAP@@XZ 0048004a f   EventVerbs.obj
 0001:0007f05a       ??0CTopicLine@@QAE@VCSkinObj@@PAVCSkinWnd@@IK_N22@Z 0048005a f   EventVerbs.obj
 0001:0007f0ff       ?OnChar@CTopicLine@@QAEXIII@Z 004800ff f   EventVerbs.obj
 0001:0007f330       ??0CEventVerbHandler@@QAE@XZ 00480330 f i EventVerbs.obj
 0001:0007f350       ?HandleVerb@CEventVerbHandler@@UAEHHVCSCI_WorldObject@@@Z 00480350 f i EventVerbs.obj
 0001:0007f430       ??1CEventVerbHandler@@UAE@XZ 00480430 f i EventVerbs.obj
 0001:0007f450       ??_GCEventVerbHandler@@UAEPAXI@Z 00480450 f i EventVerbs.obj
 0001:0007f450       ??_ECEventVerbHandler@@UAEPAXI@Z 00480450 f i EventVerbs.obj
 0001:0007f480       ??_ECEventVerbs@@UAEPAXI@Z 00480480 f i EventVerbs.obj
 0001:0007f480       ??_GCEventVerbs@@UAEPAXI@Z 00480480 f i EventVerbs.obj
 0001:0007f4b0       ??_ECOpenEventDlg@@UAEPAXI@Z 004804b0 f i EventVerbs.obj
 0001:0007f4b0       ??_GCOpenEventDlg@@UAEPAXI@Z 004804b0 f i EventVerbs.obj
 0001:0007f4e0       ??1COpenEventDlg@@UAE@XZ   004804e0 f i EventVerbs.obj
 0001:0007f500       ??_ECTextLine@@WGA@AEPAXI@Z 00480500 f i EventVerbs.obj
 0001:0007f500       ??_ECBioLine@@WGA@AEPAXI@Z 00480500 f i EventVerbs.obj
 0001:0007f500       ??_ECGossipLine@@WGA@AEPAXI@Z 00480500 f i EventVerbs.obj
 0001:0007f500       ??_ECTopicLine@@WGA@AEPAXI@Z 00480500 f i EventVerbs.obj
 0001:0007f500       ??_ECResponseLine@@WGA@AEPAXI@Z 00480500 f i EventVerbs.obj
 0001:0007f510       ??_ECTextLine@@WHE@AEPAXI@Z 00480510 f i EventVerbs.obj
 0001:0007f510       ??_ECTopicLine@@WHE@AEPAXI@Z 00480510 f i EventVerbs.obj
 0001:0007f510       ??_ECBioLine@@WHE@AEPAXI@Z 00480510 f i EventVerbs.obj
 0001:0007f520       ?GetLineCount@CRichEditCtrl@@QBEHXZ 00480520 f i EventVerbs.obj
 0001:0007f550       ?GetLimitText@CRichEditCtrl@@QBEJXZ 00480550 f i EventVerbs.obj
 0001:0007f580       ?IsEvent@CEventDlg@@QAEHXZ 00480580 f i EventVerbs.obj
 0001:0007f5a0       ?getRights@CToonSettings@@QAEHH@Z 004805a0 f i EventVerbs.obj
 0001:0007f5c0       ??0CEvictDlg@@QAE@XZ       004805c0 f   evict.obj
 0001:0007f5df       ??1CEvictDlg@@UAE@XZ       004805df f   evict.obj
 0001:0007f5fb       ?Create@CEvictDlg@@UAEXPAVCWnd@@@Z 004805fb f   evict.obj
 0001:0007f689       ?MakeSkinCtrl@CEvictDlg@@UAEPAVCSkinCtrl@@VCSkinObj@@@Z 00480689 f   evict.obj
 0001:0007f7e0       ??_GCEvictDlg@@UAEPAXI@Z   004807e0 f i evict.obj
 0001:0007f7e0       ??_ECEvictDlg@@UAEPAXI@Z   004807e0 f i evict.obj
 0001:0007f810       ??0CEvictBtn@@QAE@VCSkinObj@@PAVCSkinWnd@@@Z 00480810 f i evict.obj
 0001:0007f890       ?OnActivate@CEvictBtn@@UAEXFF@Z 00480890 f i evict.obj
 0001:0007f8b0       ??_GCEvictBtn@@UAEPAXI@Z   004808b0 f i evict.obj
 0001:0007f8b0       ??_ECEvictBtn@@UAEPAXI@Z   004808b0 f i evict.obj
 0001:0007f8e0       ??1CEvictBtn@@UAE@XZ       004808e0 f i evict.obj
 0001:0007f900       ??0CPerson@@QAE@XZ         00480900 f   friendmgr.obj
 0001:0007f961       ??1CPerson@@UAE@XZ         00480961 f   friendmgr.obj
 0001:0007f980       ?SetName@CPerson@@QAEXPBD@Z 00480980 f   friendmgr.obj
 0001:0007f99c       ?SetBusy@CPerson@@QAEHH@Z  0048099c f   friendmgr.obj
 0001:0007f9d2       ?SetOnline@CPerson@@QAEHH@Z 004809d2 f   friendmgr.obj
 0001:0007fa08       ?SetPermenant@CPerson@@QAEHH@Z 00480a08 f   friendmgr.obj
 0001:0007fa3e       ?GetName@CPerson@@QAEXAAVCString@@@Z 00480a3e f   friendmgr.obj
 0001:0007fa5a       ?GetBusy@CPerson@@QAEHXZ   00480a5a f   friendmgr.obj
 0001:0007fa72       ?GetOnline@CPerson@@QAEHXZ 00480a72 f   friendmgr.obj
 0001:0007fa8a       ?GetPermenant@CPerson@@QAEHXZ 00480a8a f   friendmgr.obj
 0001:0007faa2       ?Compare@CPerson@@QAEHPAV1@@Z 00480aa2 f   friendmgr.obj
 0001:0007fb44       ?_GetBaseMessageMap@CAddFriendDlg@@KGPBUAFX_MSGMAP@@XZ 00480b44 f   friendmgr.obj
 0001:0007fb4e       ?GetMessageMap@CAddFriendDlg@@MBEPBUAFX_MSGMAP@@XZ 00480b4e f   friendmgr.obj
 0001:0007fb5e       ??0CAddFriendDlg@@QAE@XZ   00480b5e f   friendmgr.obj
 0001:0007fb97       ?ExecuteButton@CAddFriendDlg@@UAEXH@Z 00480b97 f   friendmgr.obj
 0001:0007fcb7       ?Create@CAddFriendDlg@@QAEHPAD0@Z 00480cb7 f   friendmgr.obj
 0001:0007fd29       ?MakeSkinCtrl@CAddFriendDlg@@UAEPAVCSkinCtrl@@VCSkinObj@@@Z 00480d29 f   friendmgr.obj
 0001:0007feaf       ?Next@CAddFriendDlg@@UAEXXZ 00480eaf f   friendmgr.obj
 0001:0007feca       ?OnSetFocus@CAddFriendDlg@@QAEXPAVCWnd@@@Z 00480eca f   friendmgr.obj
 0001:0007fefd       ?_GetBaseMessageMap@CAddFoeDlg@@KGPBUAFX_MSGMAP@@XZ 00480efd f   friendmgr.obj
 0001:0007ff07       ?GetMessageMap@CAddFoeDlg@@MBEPBUAFX_MSGMAP@@XZ 00480f07 f   friendmgr.obj
 0001:0007ff17       ??0CAddFoeDlg@@QAE@XZ      00480f17 f   friendmgr.obj
 0001:0007ff50       ?ExecuteButton@CAddFoeDlg@@UAEXH@Z 00480f50 f   friendmgr.obj
 0001:00080072       ?Create@CAddFoeDlg@@QAEHPAD0@Z 00481072 f   friendmgr.obj
 0001:000800e4       ?MakeSkinCtrl@CAddFoeDlg@@UAEPAVCSkinCtrl@@VCSkinObj@@@Z 004810e4 f   friendmgr.obj
 0001:0008026a       ?Next@CAddFoeDlg@@UAEXXZ   0048126a f   friendmgr.obj
 0001:00080285       ?OnSetFocus@CAddFoeDlg@@QAEXPAVCWnd@@@Z 00481285 f   friendmgr.obj
 0001:000802b8       ??0CPeopleMgrWnd@@QAE@XZ   004812b8 f   friendmgr.obj
 0001:00080320       ??1CPeopleMgrWnd@@UAE@XZ   00481320 f   friendmgr.obj
 0001:000804db       ?CloseSelf@CPeopleMgrWnd@@UAEX_N@Z 004814db f   friendmgr.obj
 0001:000804fe       ?Create@CPeopleMgrWnd@@QAEHXZ 004814fe f   friendmgr.obj
 0001:0008071d       ?MakeSkinCtrl@CPeopleMgrWnd@@UAEPAVCSkinCtrl@@VCSkinObj@@@Z 0048171d f   friendmgr.obj
 0001:00080db6       ?ClearFriends@CPeopleMgrWnd@@QAEXXZ 00481db6 f   friendmgr.obj
 0001:00080ddb       ?AddFriend@CPeopleMgrWnd@@QAEXPAVCPerson@@H@Z 00481ddb f   friendmgr.obj
 0001:00080e7f       ?DelFriend@CPeopleMgrWnd@@QAEXPAVCPerson@@H@Z 00481e7f f   friendmgr.obj
 0001:00080ee6       ?UpdateFriend@CPeopleMgrWnd@@QAEXPAVCPerson@@H@Z 00481ee6 f   friendmgr.obj
 0001:00080ffc       ?ClearFoes@CPeopleMgrWnd@@QAEXXZ 00481ffc f   friendmgr.obj
 0001:00081021       ?AddFoe@CPeopleMgrWnd@@QAEXPAVCPerson@@H@Z 00482021 f   friendmgr.obj
 0001:000810c0       ?DelFoe@CPeopleMgrWnd@@QAEXPAVCPerson@@H@Z 004820c0 f   friendmgr.obj
 0001:00081127       ?UpdateFoe@CPeopleMgrWnd@@QAEXPAVCPerson@@H@Z 00482127 f   friendmgr.obj
 0001:000811be       ?CompareFriends@CPeopleMgrWnd@@KGHPAVCPerson@@0PAVCSkinListCtrl@@@Z 004821be f   friendmgr.obj
 0001:000811dd       ?Sort@CPeopleMgrWnd@@QAEXXZ 004821dd f   friendmgr.obj
 0001:00081222       ??0CFriendMgr@@QAE@XZ      00482222 f   friendmgr.obj
 0001:00081256       ??1CFriendMgr@@UAE@XZ      00482256 f   friendmgr.obj
 0001:000812cb       ?LoadFriends@CFriendMgr@@QAEXXZ 004822cb f   friendmgr.obj
 0001:0008143f       ?UnregisterFriends@CFriendMgr@@QAEXXZ 0048243f f   friendmgr.obj
 0001:00081595       ?ShowFriends@CFriendMgr@@QAEXXZ 00482595 f   friendmgr.obj
 0001:000816a4       ?HideFriends@CFriendMgr@@QAEXXZ 004826a4 f   friendmgr.obj
 0001:000816cd       ?HandleMessage@CFriendMgr@@QAEXPBD@Z 004826cd f   friendmgr.obj
 0001:0008196b       ?IsFriend@CFriendMgr@@QAEHAAVCString@@@Z 0048296b f   friendmgr.obj
 0001:000819f8       ?AddFriend@CFriendMgr@@QAEXAAVCString@@@Z 004829f8 f   friendmgr.obj
 0001:00081aa7       ?DelFriend@CFriendMgr@@QAEXAAVCString@@@Z 00482aa7 f   friendmgr.obj
 0001:00081b8e       ??0CEnemyMgr@@QAE@XZ       00482b8e f   friendmgr.obj
 0001:00081bc2       ??1CEnemyMgr@@UAE@XZ       00482bc2 f   friendmgr.obj
 0001:00081c37       ?ShowEnemies@CEnemyMgr@@QAEXXZ 00482c37 f   friendmgr.obj
 0001:00081d46       ?HideEnemies@CEnemyMgr@@QAEXXZ 00482d46 f   friendmgr.obj
 0001:00081d6f       ?HandleMessage@CEnemyMgr@@QAEXPBD@Z 00482d6f f   friendmgr.obj
 0001:00081f23       ?IsEnemy@CEnemyMgr@@QAEHAAVCString@@PA_N@Z 00482f23 f   friendmgr.obj
 0001:00082004       ?IsEnemy@CEnemyMgr@@QAEHPADPA_N@Z 00483004 f   friendmgr.obj
 0001:000820e5       ?AddEnemy@CEnemyMgr@@QAEXAAVCString@@_N@Z 004830e5 f   friendmgr.obj
 0001:0008219f       ?DelEnemy@CEnemyMgr@@QAEXAAVCString@@@Z 0048319f f   friendmgr.obj
 0001:000822a0       ??_GCPerson@@UAEPAXI@Z     004832a0 f i friendmgr.obj
 0001:000822a0       ??_ECPerson@@UAEPAXI@Z     004832a0 f i friendmgr.obj
 0001:000822d0       ??_ECAddFriendDlg@@UAEPAXI@Z 004832d0 f i friendmgr.obj
 0001:000822d0       ??_GCAddFriendDlg@@UAEPAXI@Z 004832d0 f i friendmgr.obj
 0001:00082300       ??1CAddFriendDlg@@UAE@XZ   00483300 f i friendmgr.obj
 0001:00082320       ??_GCAddFoeDlg@@UAEPAXI@Z  00483320 f i friendmgr.obj
 0001:00082320       ??_ECAddFoeDlg@@UAEPAXI@Z  00483320 f i friendmgr.obj
 0001:00082350       ??1CAddFoeDlg@@UAE@XZ      00483350 f i friendmgr.obj
 0001:00082370       ??_GCPeopleMgrWnd@@UAEPAXI@Z 00483370 f i friendmgr.obj
 0001:00082370       ??_ECPeopleMgrWnd@@UAEPAXI@Z 00483370 f i friendmgr.obj
 0001:000823a0       ??0CFriendListCtrl@@QAE@XZ 004833a0 f i friendmgr.obj
 0001:000823e0       ?OnItemActivate@CFriendListCtrl@@UAEXH_N@Z 004833e0 f i friendmgr.obj
 0001:00082590       ??_ECFriendListCtrl@@UAEPAXI@Z 00483590 f i friendmgr.obj
 0001:00082590       ??_GCFriendListCtrl@@UAEPAXI@Z 00483590 f i friendmgr.obj
 0001:000825c0       ??1CFriendListCtrl@@UAE@XZ 004835c0 f i friendmgr.obj
 0001:000825e0       ??0CFoeListCtrl@@QAE@XZ    004835e0 f i friendmgr.obj
 0001:00082620       ?OnItemActivate@CFoeListCtrl@@UAEXH_N@Z 00483620 f i friendmgr.obj
 0001:00082820       ??_ECFoeListCtrl@@UAEPAXI@Z 00483820 f i friendmgr.obj
 0001:00082820       ??_GCFoeListCtrl@@UAEPAXI@Z 00483820 f i friendmgr.obj
 0001:00082850       ??1CFoeListCtrl@@UAE@XZ    00483850 f i friendmgr.obj
 0001:00082870       ??0CAddFriendBtn@@QAE@VCSkinObj@@PAVCSkinWnd@@@Z 00483870 f i friendmgr.obj
 0001:000828f0       ?OnActivate@CAddFriendBtn@@UAEXFF@Z 004838f0 f i friendmgr.obj
 0001:00082970       ??_GCAddFriendBtn@@UAEPAXI@Z 00483970 f i friendmgr.obj
 0001:00082970       ??_ECAddFriendBtn@@UAEPAXI@Z 00483970 f i friendmgr.obj
 0001:000829a0       ??1CAddFriendBtn@@UAE@XZ   004839a0 f i friendmgr.obj
 0001:000829c0       ??0CAddFoeBtn@@QAE@VCSkinObj@@PAVCSkinWnd@@@Z 004839c0 f i friendmgr.obj
 0001:00082a40       ?OnActivate@CAddFoeBtn@@UAEXFF@Z 00483a40 f i friendmgr.obj
 0001:00082ac0       ??_GCAddFoeBtn@@UAEPAXI@Z  00483ac0 f i friendmgr.obj
 0001:00082ac0       ??_ECAddFoeBtn@@UAEPAXI@Z  00483ac0 f i friendmgr.obj
 0001:00082af0       ??1CAddFoeBtn@@UAE@XZ      00483af0 f i friendmgr.obj
 0001:00082b10       ??0CWhoBtn@@QAE@VCSkinObj@@PAVCSkinWnd@@@Z 00483b10 f i friendmgr.obj
 0001:00082b90       ?OnActivate@CWhoBtn@@UAEXFF@Z 00483b90 f i friendmgr.obj
 0001:00082bb0       ??_GCWhoBtn@@UAEPAXI@Z     00483bb0 f i friendmgr.obj
 0001:00082bb0       ??_ECWhoBtn@@UAEPAXI@Z     00483bb0 f i friendmgr.obj
 0001:00082be0       ??1CWhoBtn@@UAE@XZ         00483be0 f i friendmgr.obj
 0001:00082c00       ??_GCFriendMgr@@UAEPAXI@Z  00483c00 f i friendmgr.obj
 0001:00082c00       ??_ECFriendMgr@@UAEPAXI@Z  00483c00 f i friendmgr.obj
 0001:00082c30       ??1?$map@VCString@@VCPerson@@U?$less@VCString@@@std@@V?$allocator@VCPerson@@@4@@std@@QAE@XZ 00483c30 f i friendmgr.obj
 0001:00082c50       ??_ECEnemyMgr@@UAEPAXI@Z   00483c50 f i friendmgr.obj
 0001:00082c50       ??_GCEnemyMgr@@UAEPAXI@Z   00483c50 f i friendmgr.obj
 0001:00082c80       ?CompareNoCase@CString@@QBEHPBD@Z 00483c80 f i friendmgr.obj
 0001:00082ca0       __tcsicmp                  00483ca0 f i friendmgr.obj
 0001:00082cc0       ?AfxGetInstanceHandle@@YGPAUHINSTANCE__@@XZ 00483cc0 f i friendmgr.obj
 0001:00082cd0       ??0?$map@VCString@@VCPerson@@U?$less@VCString@@@std@@V?$allocator@VCPerson@@@4@@std@@QAE@ABU?$less@VCString@@@1@ABV?$allocator@VCPerson@@@1@@Z 00483cd0 f i friendmgr.obj
 0001:00082d00       ??A?$map@VCString@@VCPerson@@U?$less@VCString@@@std@@V?$allocator@VCPerson@@@4@@std@@QAEAAVCPerson@@ABVCString@@@Z 00483d00 f i friendmgr.obj
 0001:00082da0       ?erase@?$map@VCString@@VCPerson@@U?$less@VCString@@@std@@V?$allocator@VCPerson@@@4@@std@@QAE?AViterator@?$_Tree@VCString@@U?$pair@$$CBVCString@@VCPerson@@@std@@U_Kfn@?$map@VCString@@VCPerson@@U?$less@VCString@@@std@@V?$allocator@VCPerson@@@4@@3@U?$less@VCString@@@3@V?$allocator@VCPerson@@@3@@2@V342@@Z 00483da0 f i friendmgr.obj
 0001:00082dd0       ?erase@?$map@VCString@@VCPerson@@U?$less@VCString@@@std@@V?$allocator@VCPerson@@@4@@std@@QAEIABVCString@@@Z 00483dd0 f i friendmgr.obj
 0001:00082df0       ?find@?$map@VCString@@VCPerson@@U?$less@VCString@@@std@@V?$allocator@VCPerson@@@4@@std@@QAE?AViterator@?$_Tree@VCString@@U?$pair@$$CBVCString@@VCPerson@@@std@@U_Kfn@?$map@VCString@@VCPerson@@U?$less@VCString@@@std@@V?$allocator@VCPerson@@@4@@3@U?$less@VCString@@@3@V?$allocator@VCPerson@@@3@@2@ABVCString@@@Z 00483df0 f i friendmgr.obj
 0001:00082e20       ??1?$_Tree@VCString@@U?$pair@$$CBVCString@@VCPerson@@@std@@U_Kfn@?$map@VCString@@VCPerson@@U?$less@VCString@@@std@@V?$allocator@VCPerson@@@4@@3@U?$less@VCString@@@3@V?$allocator@VCPerson@@@3@@std@@QAE@XZ 00483e20 f i friendmgr.obj
 0001:00082ef0       ??Eiterator@?$_Tree@VCString@@U?$pair@$$CBVCString@@VCPerson@@@std@@U_Kfn@?$map@VCString@@VCPerson@@U?$less@VCString@@@std@@V?$allocator@VCPerson@@@4@@3@U?$less@VCString@@@3@V?$allocator@VCPerson@@@3@@std@@QAE?AV012@H@Z 00483ef0 f i friendmgr.obj
 0001:00082f20       ??1?$pair@$$CBVCString@@VCPerson@@@std@@QAE@XZ 00483f20 f i friendmgr.obj
 0001:00082f70       ?insert@?$map@VCString@@VCPerson@@U?$less@VCString@@@std@@V?$allocator@VCPerson@@@4@@std@@QAE?AU?$pair@Viterator@?$_Tree@VCString@@U?$pair@$$CBVCString@@VCPerson@@@std@@U_Kfn@?$map@VCString@@VCPerson@@U?$less@VCString@@@std@@V?$allocator@VCPerson@@@4@@3@U?$less@VCString@@@3@V?$allocator@VCPerson@@@3@@std@@_N@2@ABU?$pair@$$CBVCString@@VCPerson@@@2@@Z 00483f70 f i friendmgr.obj
 0001:00082fc0       ??0?$_Tree@VCString@@U?$pair@$$CBVCString@@VCPerson@@@std@@U_Kfn@?$map@VCString@@VCPerson@@U?$less@VCString@@@std@@V?$allocator@VCPerson@@@4@@3@U?$less@VCString@@@3@V?$allocator@VCPerson@@@3@@std@@QAE@ABU?$less@VCString@@@1@_NABV?$allocator@VCPerson@@@1@@Z 00483fc0 f i friendmgr.obj
 0001:00083000       ?erase@?$_Tree@VCString@@U?$pair@$$CBVCString@@VCPerson@@@std@@U_Kfn@?$map@VCString@@VCPerson@@U?$less@VCString@@@std@@V?$allocator@VCPerson@@@4@@3@U?$less@VCString@@@3@V?$allocator@VCPerson@@@3@@std@@QAE?AViterator@12@V312@@Z 00484000 f i friendmgr.obj
 0001:00083850       ?erase@?$_Tree@VCString@@U?$pair@$$CBVCString@@VCPerson@@@std@@U_Kfn@?$map@VCString@@VCPerson@@U?$less@VCString@@@std@@V?$allocator@VCPerson@@@4@@3@U?$less@VCString@@@3@V?$allocator@VCPerson@@@3@@std@@QAE?AViterator@12@V312@0@Z 00484850 f i friendmgr.obj
 0001:00083990       ?erase@?$_Tree@VCString@@U?$pair@$$CBVCString@@VCPerson@@@std@@U_Kfn@?$map@VCString@@VCPerson@@U?$less@VCString@@@std@@V?$allocator@VCPerson@@@4@@3@U?$less@VCString@@@3@V?$allocator@VCPerson@@@3@@std@@QAEIABVCString@@@Z 00484990 f i friendmgr.obj
 0001:000839f0       ?find@?$_Tree@VCString@@U?$pair@$$CBVCString@@VCPerson@@@std@@U_Kfn@?$map@VCString@@VCPerson@@U?$less@VCString@@@std@@V?$allocator@VCPerson@@@4@@3@U?$less@VCString@@@3@V?$allocator@VCPerson@@@3@@std@@QAE?AViterator@12@ABVCString@@@Z 004849f0 f i friendmgr.obj
 0001:00083a90       ??0?$pair@$$CBVCString@@VCPerson@@@std@@QAE@ABVCString@@ABVCPerson@@@Z 00484a90 f i friendmgr.obj
 0001:00083af0       ??Eiterator@?$_Tree@VCString@@U?$pair@$$CBVCString@@VCPerson@@@std@@U_Kfn@?$map@VCString@@VCPerson@@U?$less@VCString@@@std@@V?$allocator@VCPerson@@@4@@3@U?$less@VCString@@@3@V?$allocator@VCPerson@@@3@@std@@QAEAAV012@XZ 00484af0 f i friendmgr.obj
 0001:00083b10       ??0CPerson@@QAE@ABV0@@Z    00484b10 f i friendmgr.obj
 0001:00083b50       ??R?$less@VCString@@@std@@QBE_NABVCString@@0@Z 00484b50 f i friendmgr.obj
 0001:00083b70       ??M@YG_NABVCString@@0@Z    00484b70 f i friendmgr.obj
 0001:00083ba0       ?deallocate@?$allocator@PAVCMailMsgWnd@@@std@@QAEXPAXI@Z 00484ba0 f i friendmgr.obj
 0001:00083ba0       ?deallocate@?$allocator@PAVCMouseWheelable@@@std@@QAEXPAXI@Z 00484ba0 f i friendmgr.obj
 0001:00083ba0       ?deallocate@?$allocator@PAVCVerbBtn@@@std@@QAEXPAXI@Z 00484ba0 f i friendmgr.obj
 0001:00083ba0       ?deallocate@?$allocator@VCSCI_WorldActor@@@std@@QAEXPAXI@Z 00484ba0 f i friendmgr.obj
 0001:00083ba0       ?deallocate@?$allocator@PAVCSkinCtrl@@@std@@QAEXPAXI@Z 00484ba0 f i friendmgr.obj
 0001:00083ba0       ?deallocate@?$allocator@PAVCFastScrollCtrl@@@std@@QAEXPAXI@Z 00484ba0 f i friendmgr.obj
 0001:00083ba0       ?deallocate@?$allocator@PAVCSCIObjectMethodPair@@@std@@QAEXPAXI@Z 00484ba0 f i friendmgr.obj
 0001:00083ba0       ?deallocate@?$allocator@VCSkinObj@@@std@@QAEXPAXI@Z 00484ba0 f i friendmgr.obj
 0001:00083ba0       ?deallocate@?$allocator@H@std@@QAEXPAXI@Z 00484ba0 f i friendmgr.obj
 0001:00083ba0       ?deallocate@?$allocator@PAVCDropTarget@@@std@@QAEXPAXI@Z 00484ba0 f i friendmgr.obj
 0001:00083ba0       ?deallocate@?$allocator@PAD@std@@QAEXPAXI@Z 00484ba0 f i friendmgr.obj
 0001:00083ba0       ?deallocate@?$allocator@PAVCListData@@@std@@QAEXPAXI@Z 00484ba0 f i friendmgr.obj
 0001:00083ba0       ?deallocate@?$allocator@VCPerson@@@std@@QAEXPAXI@Z 00484ba0 f i friendmgr.obj
 0001:00083ba0       ?deallocate@?$allocator@PAVCSkinWnd@@@std@@QAEXPAXI@Z 00484ba0 f i friendmgr.obj
 0001:00083ba0       ?deallocate@?$allocator@PAVCSkinBitmap@@@std@@QAEXPAXI@Z 00484ba0 f i friendmgr.obj
 0001:00083ba0       ?deallocate@?$allocator@PAVCVerb@@@std@@QAEXPAXI@Z 00484ba0 f i friendmgr.obj
 0001:00083ba0       ?deallocate@?$allocator@VCPoint@@@std@@QAEXPAXI@Z 00484ba0 f i friendmgr.obj
 0001:00083ba0       ?deallocate@?$allocator@PAVCPrivateTell@@@std@@QAEXPAXI@Z 00484ba0 f i friendmgr.obj
 0001:00083ba0       ?deallocate@?$allocator@PAVCTabEntry@@@std@@QAEXPAXI@Z 00484ba0 f i friendmgr.obj
 0001:00083ba0       ?deallocate@?$allocator@PAVCNoButtonDlg@@@std@@QAEXPAXI@Z 00484ba0 f i friendmgr.obj
 0001:00083ba0       ?deallocate@?$allocator@PAVCPoint@@@std@@QAEXPAXI@Z 00484ba0 f i friendmgr.obj
 0001:00083ba0       ?deallocate@?$allocator@PAVCMailMsg@@@std@@QAEXPAXI@Z 00484ba0 f i friendmgr.obj
 0001:00083ba0       ?deallocate@?$allocator@PAVCVerbRequest@@@std@@QAEXPAXI@Z 00484ba0 f i friendmgr.obj
 0001:00083ba0       ?deallocate@?$allocator@VCSCI_WorldObject@@@std@@QAEXPAXI@Z 00484ba0 f i friendmgr.obj
 0001:00083ba0       ?deallocate@?$allocator@PAVCLookAtItem@@@std@@QAEXPAXI@Z 00484ba0 f i friendmgr.obj
 0001:00083bc0       ?_Color@?$_Tree@VCString@@U?$pair@$$CBVCString@@VCPerson@@@std@@U_Kfn@?$map@VCString@@VCPerson@@U?$less@VCString@@@std@@V?$allocator@VCPerson@@@4@@3@U?$less@VCString@@@3@V?$allocator@VCPerson@@@3@@std@@KAAAW4_Redbl@12@PAU_Node@12@@Z 00484bc0 f i friendmgr.obj
 0001:00083bd0       ?insert@?$_Tree@VCString@@U?$pair@$$CBVCString@@VCPerson@@@std@@U_Kfn@?$map@VCString@@VCPerson@@U?$less@VCString@@@std@@V?$allocator@VCPerson@@@4@@3@U?$less@VCString@@@3@V?$allocator@VCPerson@@@3@@std@@QAE?AU?$pair@Viterator@?$_Tree@VCString@@U?$pair@$$CBVCString@@VCPerson@@@std@@U_Kfn@?$map@VCString@@VCPerson@@U?$less@VCString@@@std@@V?$allocator@VCPerson@@@4@@3@U?$less@VCString@@@3@V?$allocator@VCPerson@@@3@@std@@_N@2@ABU?$pair@$$CBVCString@@VCPerson@@@2@@Z 00484bd0 f i friendmgr.obj
 0001:00083e10       ?lower_bound@?$_Tree@VCString@@U?$pair@$$CBVCString@@VCPerson@@@std@@U_Kfn@?$map@VCString@@VCPerson@@U?$less@VCString@@@std@@V?$allocator@VCPerson@@@4@@3@U?$less@VCString@@@3@V?$allocator@VCPerson@@@3@@std@@QAE?AViterator@12@ABVCString@@@Z 00484e10 f i friendmgr.obj
 0001:00083e40       ?equal_range@?$_Tree@VCString@@U?$pair@$$CBVCString@@VCPerson@@@std@@U_Kfn@?$map@VCString@@VCPerson@@U?$less@VCString@@@std@@V?$allocator@VCPerson@@@4@@3@U?$less@VCString@@@3@V?$allocator@VCPerson@@@3@@std@@QAE?AU?$pair@Viterator@?$_Tree@VCString@@U?$pair@$$CBVCString@@VCPerson@@@std@@U_Kfn@?$map@VCString@@VCPerson@@U?$less@VCString@@@std@@V?$allocator@VCPerson@@@4@@3@U?$less@VCString@@@3@V?$allocator@VCPerson@@@3@@std@@V123@@2@ABVCString@@@Z 00484e40 f i friendmgr.obj
 0001:00083e90       ?_Erase@?$_Tree@VCString@@U?$pair@$$CBVCString@@VCPerson@@@std@@U_Kfn@?$map@VCString@@VCPerson@@U?$less@VCString@@@std@@V?$allocator@VCPerson@@@4@@3@U?$less@VCString@@@3@V?$allocator@VCPerson@@@3@@std@@IAEXPAU_Node@12@@Z 00484e90 f i friendmgr.obj
 0001:00083f50       ?_Init@?$_Tree@VCString@@U?$pair@$$CBVCString@@VCPerson@@@std@@U_Kfn@?$map@VCString@@VCPerson@@U?$less@VCString@@@std@@V?$allocator@VCPerson@@@4@@3@U?$less@VCString@@@3@V?$allocator@VCPerson@@@3@@std@@IAEXXZ 00484f50 f i friendmgr.obj
 0001:00084030       ?_Lrotate@?$_Tree@VCString@@U?$pair@$$CBVCString@@VCPerson@@@std@@U_Kfn@?$map@VCString@@VCPerson@@U?$less@VCString@@@std@@V?$allocator@VCPerson@@@4@@3@U?$less@VCString@@@3@V?$allocator@VCPerson@@@3@@std@@IAEXPAU_Node@12@@Z 00485030 f i friendmgr.obj
 0001:000841a0       ?_Max@?$_Tree@VCString@@U?$pair@$$CBVCString@@VCPerson@@@std@@U_Kfn@?$map@VCString@@VCPerson@@U?$less@VCString@@@std@@V?$allocator@VCPerson@@@4@@3@U?$less@VCString@@@3@V?$allocator@VCPerson@@@3@@std@@KAPAU_Node@12@PAU312@@Z 004851a0 f i friendmgr.obj
 0001:00084220       ?_Min@?$_Tree@VCString@@U?$pair@$$CBVCString@@VCPerson@@@std@@U_Kfn@?$map@VCString@@VCPerson@@U?$less@VCString@@@std@@V?$allocator@VCPerson@@@4@@3@U?$less@VCString@@@3@V?$allocator@VCPerson@@@3@@std@@KAPAU_Node@12@PAU312@@Z 00485220 f i friendmgr.obj
 0001:000842a0       ?_Rrotate@?$_Tree@VCString@@U?$pair@$$CBVCString@@VCPerson@@@std@@U_Kfn@?$map@VCString@@VCPerson@@U?$less@VCString@@@std@@V?$allocator@VCPerson@@@4@@3@U?$less@VCString@@@3@V?$allocator@VCPerson@@@3@@std@@IAEXPAU_Node@12@@Z 004852a0 f i friendmgr.obj
 0001:00084410       ?_Destval@?$_Tree@VCString@@U?$pair@$$CBVCString@@VCPerson@@@std@@U_Kfn@?$map@VCString@@VCPerson@@U?$less@VCString@@@std@@V?$allocator@VCPerson@@@4@@3@U?$less@VCString@@@3@V?$allocator@VCPerson@@@3@@std@@IAEXPAU?$pair@$$CBVCString@@VCPerson@@@2@@Z 00485410 f i friendmgr.obj
 0001:00084430       ?_Inc@const_iterator@?$_Tree@VCString@@U?$pair@$$CBVCString@@VCPerson@@@std@@U_Kfn@?$map@VCString@@VCPerson@@U?$less@VCString@@@std@@V?$allocator@VCPerson@@@4@@3@U?$less@VCString@@@3@V?$allocator@VCPerson@@@3@@std@@QAEXXZ 00485430 f i friendmgr.obj
 0001:00084510       ?upper_bound@?$_Tree@VCString@@U?$pair@$$CBVCString@@VCPerson@@@std@@U_Kfn@?$map@VCString@@VCPerson@@U?$less@VCString@@@std@@V?$allocator@VCPerson@@@4@@3@U?$less@VCString@@@3@V?$allocator@VCPerson@@@3@@std@@QAE?AViterator@12@ABVCString@@@Z 00485510 f i friendmgr.obj
 0001:00084540       ?_Insert@?$_Tree@VCString@@U?$pair@$$CBVCString@@VCPerson@@@std@@U_Kfn@?$map@VCString@@VCPerson@@U?$less@VCString@@@std@@V?$allocator@VCPerson@@@4@@3@U?$less@VCString@@@3@V?$allocator@VCPerson@@@3@@std@@IAE?AViterator@12@PAU_Node@12@0ABU?$pair@$$CBVCString@@VCPerson@@@2@@Z 00485540 f i friendmgr.obj
 0001:00084a10       ?_Lbound@?$_Tree@VCString@@U?$pair@$$CBVCString@@VCPerson@@@std@@U_Kfn@?$map@VCString@@VCPerson@@U?$less@VCString@@@std@@V?$allocator@VCPerson@@@4@@3@U?$less@VCString@@@3@V?$allocator@VCPerson@@@3@@std@@IBEPAU_Node@12@ABVCString@@@Z 00485a10 f i friendmgr.obj
 0001:00084ae0       ?_Buynode@?$_Tree@VCString@@U?$pair@$$CBVCString@@VCPerson@@@std@@U_Kfn@?$map@VCString@@VCPerson@@U?$less@VCString@@@std@@V?$allocator@VCPerson@@@4@@3@U?$less@VCString@@@3@V?$allocator@VCPerson@@@3@@std@@IAEPAU_Node@12@PAU312@W4_Redbl@12@@Z 00485ae0 f i friendmgr.obj
 0001:00084b30       ??Fiterator@?$_Tree@VCString@@U?$pair@$$CBVCString@@VCPerson@@@std@@U_Kfn@?$map@VCString@@VCPerson@@U?$less@VCString@@@std@@V?$allocator@VCPerson@@@4@@3@U?$less@VCString@@@3@V?$allocator@VCPerson@@@3@@std@@QAEAAV012@XZ 00485b30 f i friendmgr.obj
 0001:00084b50       ?_Ubound@?$_Tree@VCString@@U?$pair@$$CBVCString@@VCPerson@@@std@@U_Kfn@?$map@VCString@@VCPerson@@U?$less@VCString@@@std@@V?$allocator@VCPerson@@@4@@3@U?$less@VCString@@@3@V?$allocator@VCPerson@@@3@@std@@IBEPAU_Node@12@ABVCString@@@Z 00485b50 f i friendmgr.obj
 0001:00084c20       ?_Consval@?$_Tree@VCString@@U?$pair@$$CBVCString@@VCPerson@@@std@@U_Kfn@?$map@VCString@@VCPerson@@U?$less@VCString@@@std@@V?$allocator@VCPerson@@@4@@3@U?$less@VCString@@@3@V?$allocator@VCPerson@@@3@@std@@IAEXPAU?$pair@$$CBVCString@@VCPerson@@@2@ABU32@@Z 00485c20 f i friendmgr.obj
 0001:00084c40       ?_Dec@const_iterator@?$_Tree@VCString@@U?$pair@$$CBVCString@@VCPerson@@@std@@U_Kfn@?$map@VCString@@VCPerson@@U?$less@VCString@@@std@@V?$allocator@VCPerson@@@4@@3@U?$less@VCString@@@3@V?$allocator@VCPerson@@@3@@std@@QAEXXZ 00485c40 f i friendmgr.obj
 0001:00084d50       ?_Distance@std@@YAXViterator@?$_Tree@VCString@@U?$pair@$$CBVCString@@VCPerson@@@std@@U_Kfn@?$map@VCString@@VCPerson@@U?$less@VCString@@@std@@V?$allocator@VCPerson@@@4@@3@U?$less@VCString@@@3@V?$allocator@VCPerson@@@3@@1@0AAI@Z 00485d50 f i friendmgr.obj
 0001:00084d80       ?_Destroy@std@@YAXPAU?$pair@$$CBVCString@@VCPerson@@@1@@Z 00485d80 f i friendmgr.obj
 0001:00084d90       ?_Construct@std@@YAXPAU?$pair@$$CBVCString@@VCPerson@@@1@ABU21@@Z 00485d90 f i friendmgr.obj
 0001:00084e00       ??_G?$pair@$$CBVCString@@VCPerson@@@std@@QAEPAXI@Z 00485e00 f i friendmgr.obj
 0001:00084e30       ??0?$pair@$$CBVCString@@VCPerson@@@std@@QAE@ABU01@@Z 00485e30 f i friendmgr.obj
 0001:00084e90       ?_Iter_cat@std@@YA?AUbidirectional_iterator_tag@1@ABU?$iterator@Ubidirectional_iterator_tag@std@@U?$pair@QAUHWND__@@PAVCDropTarget@@@2@H@1@@Z 00485e90 f i friendmgr.obj
 0001:00084e90       ?_Iter_cat@std@@YA?AUbidirectional_iterator_tag@1@ABU?$iterator@Ubidirectional_iterator_tag@std@@U?$pair@$$CBVCSkinObj@@PAVCSkinCtrl@@@2@H@1@@Z 00485e90 f i friendmgr.obj
 0001:00084e90       ?_Iter_cat@std@@YA?AUbidirectional_iterator_tag@1@ABU?$iterator@Ubidirectional_iterator_tag@std@@U?$pair@$$CBVCSCI_WorldObject@@PAVCInventoryDlg@@@2@H@1@@Z 00485e90 f i friendmgr.obj
 0001:00084e90       ?_Iter_cat@std@@YA?AUbidirectional_iterator_tag@1@ABU?$iterator@Ubidirectional_iterator_tag@std@@U?$pair@QAUHWND__@@PAVCMouseWheelable@@@2@H@1@@Z 00485e90 f i friendmgr.obj
 0001:00084e90       ?_Iter_cat@std@@YA?AUbidirectional_iterator_tag@1@ABU?$iterator@Ubidirectional_iterator_tag@std@@U?$pair@$$CBVCSkinObj@@PAVCFastScrollCtrl@@@2@H@1@@Z 00485e90 f i friendmgr.obj
 0001:00084e90       ?_Iter_cat@std@@YA?AUbidirectional_iterator_tag@1@ABU?$iterator@Ubidirectional_iterator_tag@std@@U?$pair@$$CBHVCSCI_WorldObject@@@2@H@1@@Z 00485e90 f i friendmgr.obj
 0001:00084e90       ?_Iter_cat@std@@YA?AUbidirectional_iterator_tag@1@ABU?$iterator@Ubidirectional_iterator_tag@std@@U?$pair@$$CBVCString@@VCPerson@@@2@H@1@@Z 00485e90 f i friendmgr.obj
 0001:00084e90       ?_Iter_cat@std@@YA?AUbidirectional_iterator_tag@1@ABU?$iterator@Ubidirectional_iterator_tag@std@@U?$pair@$$CBV?$basic_string@DU?$char_traits@D@std@@V?$allocator@D@2@@std@@PAVCPrivateTell@@@2@H@1@@Z 00485e90 f i friendmgr.obj
 0001:00084e90       ?_Iter_cat@std@@YA?AUbidirectional_iterator_tag@1@ABU?$iterator@Ubidirectional_iterator_tag@std@@U?$pair@QAUHWND__@@PAVCSkinWnd@@@2@H@1@@Z 00485e90 f i friendmgr.obj
 0001:00084e90       ?_Iter_cat@std@@YA?AUbidirectional_iterator_tag@1@ABU?$iterator@Ubidirectional_iterator_tag@std@@PAVCSkinCtrl@@H@1@@Z 00485e90 f i friendmgr.obj
 0001:00084e90       ?_Iter_cat@std@@YA?AUbidirectional_iterator_tag@1@ABU?$iterator@Ubidirectional_iterator_tag@std@@U?$pair@$$CBHPAVCMailMsg@@@2@H@1@@Z 00485e90 f i friendmgr.obj
 0001:00084e90       ?_Iter_cat@std@@YA?AUbidirectional_iterator_tag@1@ABU?$iterator@Ubidirectional_iterator_tag@std@@U?$pair@$$CBHPAVCMailMsgWnd@@@2@H@1@@Z 00485e90 f i friendmgr.obj
 0001:00084e90       ?_Iter_cat@std@@YA?AUbidirectional_iterator_tag@1@ABU?$iterator@Ubidirectional_iterator_tag@std@@PAVCSkinWnd@@H@1@@Z 00485e90 f i friendmgr.obj
 0001:00084eb0       ?_Distance@std@@YAXViterator@?$_Tree@VCString@@U?$pair@$$CBVCString@@VCPerson@@@std@@U_Kfn@?$map@VCString@@VCPerson@@U?$less@VCString@@@std@@V?$allocator@VCPerson@@@4@@3@U?$less@VCString@@@3@V?$allocator@VCPerson@@@3@@1@0AAIUbidirectional_iterator_tag@1@@Z 00485eb0 f i friendmgr.obj
 0001:00084ef0       ??_ECFriendListCtrl@@WEA@AEPAXI@Z 00485ef0 f i friendmgr.obj
 0001:00084f00       ??_ECFriendListCtrl@@WHE@AEPAXI@Z 00485f00 f i friendmgr.obj
 0001:00084f10       ??_ECFoeListCtrl@@WEA@AEPAXI@Z 00485f10 f i friendmgr.obj
 0001:00084f20       ??_ECFoeListCtrl@@WHE@AEPAXI@Z 00485f20 f i friendmgr.obj
 0001:00084f30       ?Add@CImageList@@QAEHPAUHICON__@@@Z 00485f30 f i friendmgr.obj
 0001:00084f50       ??0CDoubleButtonDlg@@QAE@XZ 00485f50 f i friendmgr.obj
 0001:00084f70       ??_GCDoubleButtonDlg@@UAEPAXI@Z 00485f70 f i friendmgr.obj
 0001:00084f70       ??_ECDoubleButtonDlg@@UAEPAXI@Z 00485f70 f i friendmgr.obj
 0001:00084fa0       ??1CDoubleButtonDlg@@UAE@XZ 00485fa0 f i friendmgr.obj
 0001:00084fc0       ??0CSfxVolume@@QAE@XZ      00485fc0 f   GameSettings.obj
 0001:00084ffd       ?UpdateMe@CSfxVolume@@UAEXXZ 00485ffd f   GameSettings.obj
 0001:0008503b       ??0CMidiVolume@@QAE@XZ     0048603b f   GameSettings.obj
 0001:00085078       ?UpdateMe@CMidiVolume@@UAEXXZ 00486078 f   GameSettings.obj
 0001:000850b6       ??0CMidiBtn@@QAE@VCSkinObj@@PAVCSkinWnd@@@Z 004860b6 f   GameSettings.obj
 0001:0008515f       ?OnActivate@CMidiBtn@@UAEXFF@Z 0048615f f   GameSettings.obj
 0001:000851e4       ??0CSfxBtn@@QAE@VCSkinObj@@PAVCSkinWnd@@@Z 004861e4 f   GameSettings.obj
 0001:0008528d       ?OnActivate@CSfxBtn@@UAEXFF@Z 0048628d f   GameSettings.obj
 0001:00085312       ??0CAcceptBtn@@QAE@VCSkinObj@@PAVCSkinWnd@@@Z 00486312 f   GameSettings.obj
 0001:000853bb       ?OnActivate@CAcceptBtn@@UAEXFF@Z 004863bb f   GameSettings.obj
 0001:0008541c       ??0CLagBtn@@QAE@VCSkinObj@@PAVCSkinWnd@@@Z 0048641c f   GameSettings.obj
 0001:000854c5       ?OnActivate@CLagBtn@@UAEXFF@Z 004864c5 f   GameSettings.obj
 0001:00085526       ??0CAltEnterBtn@@QAE@VCSkinObj@@PAVCSkinWnd@@@Z 00486526 f   GameSettings.obj
 0001:000855cf       ?OnActivate@CAltEnterBtn@@UAEXFF@Z 004865cf f   GameSettings.obj
 0001:00085630       ??0CFullScreenBtn@@QAE@VCSkinObj@@PAVCSkinWnd@@@Z 00486630 f   GameSettings.obj
 0001:000856fe       ?OnActivate@CFullScreenBtn@@UAEXFF@Z 004866fe f   GameSettings.obj
 0001:00085754       ??0CTabDispBtn@@QAE@VCSkinObj@@PAVCSkinWnd@@@Z 00486754 f   GameSettings.obj
 0001:000857fd       ?OnActivate@CTabDispBtn@@UAEXFF@Z 004867fd f   GameSettings.obj
 0001:0008585e       ??0CSpeedBtn@@QAE@VCSkinObj@@PAVCSkinWnd@@@Z 0048685e f   GameSettings.obj
 0001:0008594b       ?OnActivate@CSpeedBtn@@UAEXFF@Z 0048694b f   GameSettings.obj
 0001:0008596a       ??0CSetPasswordBtn@@QAE@VCSkinObj@@PAVCSkinWnd@@@Z 0048696a f   GameSettings.obj
 0001:000859dd       ?OnActivate@CSetPasswordBtn@@UAEXFF@Z 004869dd f   GameSettings.obj
 0001:00085a27       ??0CGameSettingsDlg@@QAE@XZ 00486a27 f   GameSettings.obj
 0001:00085a9d       ?CloseSelf@CGameSettingsDlg@@UAEX_N@Z 00486a9d f   GameSettings.obj
 0001:00085b24       ?Create@CGameSettingsDlg@@QAEHXZ 00486b24 f   GameSettings.obj
 0001:00085d1b       ?MakeSkinCtrl@CGameSettingsDlg@@UAEPAVCSkinCtrl@@VCSkinObj@@@Z 00486d1b f   GameSettings.obj
 0001:0008668f       ?EnableTabOption@CGameSettingsDlg@@QAEX_N@Z 0048768f f   GameSettings.obj
 0001:000866fe       ?SetFullScreenOption@CGameSettingsDlg@@QAEX_N@Z 004876fe f   GameSettings.obj
 0001:0008678f       ?EnableGameModal@CGameSettingsDlg@@UAEXHPAH@Z 0048778f f   GameSettings.obj
 0001:000867b5       ?DisableGameModal@CGameSettingsDlg@@UAEXHPAH_N@Z 004877b5 f   GameSettings.obj
 0001:000867e0       ??_ECMidiBtn@@UAEPAXI@Z    004877e0 f i GameSettings.obj
 0001:000867e0       ??_GCMidiBtn@@UAEPAXI@Z    004877e0 f i GameSettings.obj
 0001:00086810       ??1CMidiBtn@@UAE@XZ        00487810 f i GameSettings.obj
 0001:00086830       ??_GCSfxBtn@@UAEPAXI@Z     00487830 f i GameSettings.obj
 0001:00086830       ??_ECSfxBtn@@UAEPAXI@Z     00487830 f i GameSettings.obj
 0001:00086860       ??1CSfxBtn@@UAE@XZ         00487860 f i GameSettings.obj
 0001:00086880       ??_GCAcceptBtn@@UAEPAXI@Z  00487880 f i GameSettings.obj
 0001:00086880       ??_ECAcceptBtn@@UAEPAXI@Z  00487880 f i GameSettings.obj
 0001:000868b0       ??1CAcceptBtn@@UAE@XZ      004878b0 f i GameSettings.obj
 0001:000868d0       ??_GCLagBtn@@UAEPAXI@Z     004878d0 f i GameSettings.obj
 0001:000868d0       ??_ECLagBtn@@UAEPAXI@Z     004878d0 f i GameSettings.obj
 0001:00086900       ??1CLagBtn@@UAE@XZ         00487900 f i GameSettings.obj
 0001:00086920       ??_ECAltEnterBtn@@UAEPAXI@Z 00487920 f i GameSettings.obj
 0001:00086920       ??_GCAltEnterBtn@@UAEPAXI@Z 00487920 f i GameSettings.obj
 0001:00086950       ??1CAltEnterBtn@@UAE@XZ    00487950 f i GameSettings.obj
 0001:00086970       ??_ECFullScreenBtn@@UAEPAXI@Z 00487970 f i GameSettings.obj
 0001:00086970       ??_GCFullScreenBtn@@UAEPAXI@Z 00487970 f i GameSettings.obj
 0001:000869a0       ??1CFullScreenBtn@@UAE@XZ  004879a0 f i GameSettings.obj
 0001:000869c0       ??_ECTabDispBtn@@UAEPAXI@Z 004879c0 f i GameSettings.obj
 0001:000869c0       ??_GCTabDispBtn@@UAEPAXI@Z 004879c0 f i GameSettings.obj
 0001:000869f0       ??1CTabDispBtn@@UAE@XZ     004879f0 f i GameSettings.obj
 0001:00086a10       ??_ECSpeedBtn@@UAEPAXI@Z   00487a10 f i GameSettings.obj
 0001:00086a10       ??_GCSpeedBtn@@UAEPAXI@Z   00487a10 f i GameSettings.obj
 0001:00086a40       ??1CSpeedBtn@@UAE@XZ       00487a40 f i GameSettings.obj
 0001:00086a60       ??_ECSetPasswordBtn@@UAEPAXI@Z 00487a60 f i GameSettings.obj
 0001:00086a60       ??_GCSetPasswordBtn@@UAEPAXI@Z 00487a60 f i GameSettings.obj
 0001:00086a90       ??1CSetPasswordBtn@@UAE@XZ 00487a90 f i GameSettings.obj
 0001:00086ab0       ?get_AutoAccept@CToonSettings@@QAEHXZ 00487ab0 f i GameSettings.obj
 0001:00086ab0       ?PicResNum@ScreenItem@@QBEHXZ 00487ab0 f i GameSettings.obj
 0001:00086ad0       ?get_LagDisplay@CToonSettings@@QAEHXZ 00487ad0 f i GameSettings.obj
 0001:00086ad0       ?HasSkip@CelObj@@QBEHXZ    00487ad0 f i GameSettings.obj
 0001:00086ad0       ?PlaneId@ScreenItem@@QBEJXZ 00487ad0 f i GameSettings.obj
 0001:00086af0       ?get_AltEnter@CToonSettings@@QAEHXZ 00487af0 f i GameSettings.obj
 0001:00086af0       ?Priority@CelObjPic@@QBEHXZ 00487af0 f i GameSettings.obj
 0001:00086b10       ?Id@ScreenItem@@QBEJXZ     00487b10 f i GameSettings.obj
 0001:00086b10       ?ResY@CelObj@@QBEHXZ       00487b10 f i GameSettings.obj
 0001:00086b10       ?getCombat_Speed@CToonSettings@@QAEHXZ 00487b10 f i GameSettings.obj
 0001:00086b30       ?EraseCount@SOL_Plane@@QBEHXZ 00487b30 f i GameSettings.obj
 0001:00086b30       ?Mirrored@CelObj@@QBEHXZ   00487b30 f i GameSettings.obj
 0001:00086b30       ?getSound_MidiOn@CToonSettings@@QAEHXZ 00487b30 f i GameSettings.obj
 0001:00086b50       ?getSound_MidiVolume@CToonSettings@@QAEHXZ 00487b50 f i GameSettings.obj
 0001:00086b50       ?AddCount@ScreenItem@@QBEHXZ 00487b50 f i GameSettings.obj
 0001:00086b70       ?getSound_SfxOn@CToonSettings@@QAEHXZ 00487b70 f i GameSettings.obj
 0001:00086b70       ?CelCount@CelObjPic@@QBEHXZ 00487b70 f i GameSettings.obj
 0001:00086b70       ?DeleteCount@ScreenItem@@QBEHXZ 00487b70 f i GameSettings.obj
 0001:00086b90       ?getSound_SfxVolume@CToonSettings@@QAEHXZ 00487b90 f i GameSettings.obj
 0001:00086bb0       ??0CSCIButtonBtn@@QAE@VCSkinObj@@PAVCSkinWnd@@@Z 00487bb0 f   GenericDlg.obj
 0001:00086c7e       ?OnActivate@CSCIButtonBtn@@UAEXFF@Z 00487c7e f   GenericDlg.obj
 0001:00086caf       ??0CSCIObjectMethodPair@@QAE@VCSCI_Object@@F@Z 00487caf f   GenericDlg.obj
 0001:00086cdc       ?Execute@CSCIObjectMethodPair@@QAEXXZ 00487cdc f   GenericDlg.obj
 0001:00086d08       ?_GetBaseMessageMap@CNoButtonDlg@@KGPBUAFX_MSGMAP@@XZ 00487d08 f   GenericDlg.obj
 0001:00086d12       ?GetMessageMap@CNoButtonDlg@@MBEPBUAFX_MSGMAP@@XZ 00487d12 f   GenericDlg.obj
 0001:00086d8b       ?OnResize@CNoButtonDlg@@QAEXPAUtagNMHDR@@PAJ@Z 00487d8b f   GenericDlg.obj
 0001:00086e29       ??0CNoButtonDlg@@QAE@XZ    00487e29 f   GenericDlg.obj
 0001:00086ebd       ??1CNoButtonDlg@@UAE@XZ    00487ebd f   GenericDlg.obj
 0001:0008700d       ?CloseSelf@CNoButtonDlg@@UAEX_N@Z 0048800d f   GenericDlg.obj
 0001:00087089       ?AddButton@CNoButtonDlg@@IAEXVCSCI_Object@@F@Z 00488089 f   GenericDlg.obj
 0001:00087131       ?Dispose@CNoButtonDlg@@SAXVCSCI_Object@@@Z 00488131 f   GenericDlg.obj
 0001:000871aa       ?CreatePopup@CNoButtonDlg@@QAEHPBDPAD1@Z 004881aa f   GenericDlg.obj
 0001:00087262       ?Create@CNoButtonDlg@@QAEHPBDPAD1_N@Z 00488262 f   GenericDlg.obj
 0001:0008734f       ?Create@CNoButtonDlg@@QAEHPAD0_N@Z 0048834f f   GenericDlg.obj
 0001:00087462       ?MakeSkinCtrl@CNoButtonDlg@@UAEPAVCSkinCtrl@@VCSkinObj@@@Z 00488462 f   GenericDlg.obj
 0001:00087699       ?ExecuteButton@CNoButtonDlg@@UAEXH@Z 00488699 f   GenericDlg.obj
 0001:000876e2       ??0CSingleButtonDlg@@QAE@VCSCI_Object@@F@Z 004886e2 f   GenericDlg.obj
 0001:0008775b       ?Create@CSingleButtonDlg@@QAEHPAD00_N@Z 0048875b f   GenericDlg.obj
 0001:000877d3       ??0CDoubleButtonDlg@@QAE@VCSCI_Object@@F0F@Z 004887d3 f   GenericDlg.obj
 0001:00087868       ?Create@CDoubleButtonDlg@@QAEHPAD000_N1@Z 00488868 f   GenericDlg.obj
 0001:00087936       ?CreateSkin@CDoubleButtonDlg@@QAEHPBDPAD111_N@Z 00488936 f   GenericDlg.obj
 0001:000879bf       ?_GetBaseMessageMap@CTextDoubleButtonDlg@@KGPBUAFX_MSGMAP@@XZ 004889bf f   GenericDlg.obj
 0001:000879c9       ?GetMessageMap@CTextDoubleButtonDlg@@MBEPBUAFX_MSGMAP@@XZ 004889c9 f   GenericDlg.obj
 0001:000879d9       ??0CTextDoubleButtonDlg@@QAE@VStringID@@VCSCI_Object@@F1F@Z 004889d9 f   GenericDlg.obj
 0001:00087a7d       ?ExecuteButton@CTextDoubleButtonDlg@@UAEXH@Z 00488a7d f   GenericDlg.obj
 0001:00087b0a       ?Create@CTextDoubleButtonDlg@@QAEHPAD0H00_N1@Z 00488b0a f   GenericDlg.obj
 0001:00087bb8       ?MakeSkinCtrl@CTextDoubleButtonDlg@@UAEPAVCSkinCtrl@@VCSkinObj@@@Z 00488bb8 f   GenericDlg.obj
 0001:00087d3e       ?Next@CTextDoubleButtonDlg@@UAEXXZ 00488d3e f   GenericDlg.obj
 0001:00087d59       ?OnSetFocus@CTextDoubleButtonDlg@@QAEXPAVCWnd@@@Z 00488d59 f   GenericDlg.obj
 0001:00087d8c       ?_GetBaseMessageMap@CPasswordDoubleButtonDlg@@KGPBUAFX_MSGMAP@@XZ 00488d8c f   GenericDlg.obj
 0001:00087d96       ?GetMessageMap@CPasswordDoubleButtonDlg@@MBEPBUAFX_MSGMAP@@XZ 00488d96 f   GenericDlg.obj
 0001:00087da6       ??0CPasswordDoubleButtonDlg@@QAE@VStringID@@VCSCI_Object@@F1F@Z 00488da6 f   GenericDlg.obj
 0001:00087e4a       ?ExecuteButton@CPasswordDoubleButtonDlg@@UAEXH@Z 00488e4a f   GenericDlg.obj
 0001:00087ef3       ?Create@CPasswordDoubleButtonDlg@@QAEHPAD0H00_N@Z 00488ef3 f   GenericDlg.obj
 0001:00087f89       ?MakeSkinCtrl@CPasswordDoubleButtonDlg@@UAEPAVCSkinCtrl@@VCSkinObj@@@Z 00488f89 f   GenericDlg.obj
 0001:00088105       ?Next@CPasswordDoubleButtonDlg@@UAEXXZ 00489105 f   GenericDlg.obj
 0001:00088120       ?OnSetFocus@CPasswordDoubleButtonDlg@@QAEXPAVCWnd@@@Z 00489120 f   GenericDlg.obj
 0001:00088153       ??0CGroupQuestionDlg@@QAE@H@Z 00489153 f   GenericDlg.obj
 0001:000881d3       ?ExecuteButton@CGroupQuestionDlg@@UAEXH@Z 004891d3 f   GenericDlg.obj
 0001:0008821a       ?CloseSelf@CGroupQuestionDlg@@UAEX_N@Z 0048921a f   GenericDlg.obj
 0001:00088271       ?Create@CGroupQuestionDlg@@QAEHPAD000_N1@Z 00489271 f   GenericDlg.obj
 0001:0008833f       ??0CSkinEditField@@QAE@VCSkinObj@@PAVCSkinWnd@@IK_N2@Z 0048933f f   GenericDlg.obj
 0001:000883e2       ?OnReturn@CSkinEditField@@UAEXXZ 004893e2 f   GenericDlg.obj
 0001:00088401       ?OnEscape@CSkinEditField@@UAEXXZ 00489401 f   GenericDlg.obj
 0001:00088422       ?_GetBaseMessageMap@CGenericDlg@@KGPBUAFX_MSGMAP@@XZ 00489422 f   GenericDlg.obj
 0001:0008842c       ?GetMessageMap@CGenericDlg@@MBEPBUAFX_MSGMAP@@XZ 0048942c f   GenericDlg.obj
 0001:0008843c       ?OnResize@CGenericDlg@@QAEXPAUtagNMHDR@@PAJ@Z 0048943c f   GenericDlg.obj
 0001:00088501       ??0CGenericDlg@@QAE@XZ     00489501 f   GenericDlg.obj
 0001:0008852d       ?CloseSelf@CGenericDlg@@UAEX_N@Z 0048952d f   GenericDlg.obj
 0001:00088544       ?Create@CGenericDlg@@QAEHPBD0_N1@Z 00489544 f   GenericDlg.obj
 0001:0008866d       ?Create@CGenericDlg@@QAEHPBDVCSCI_Object@@_N2@Z 0048966d f   GenericDlg.obj
 0001:000888af       ?MakeSkinCtrl@CGenericDlg@@UAEPAVCSkinCtrl@@VCSkinObj@@@Z 004898af f   GenericDlg.obj
 0001:00088bb8       ??0CQuestDlg@@QAE@XZ       00489bb8 f   GenericDlg.obj
 0001:00088c2b       ?CloseSelf@CQuestDlg@@UAEX_N@Z 00489c2b f   GenericDlg.obj
 0001:00088c4c       ??0CDeadDlg@@QAE@XZ        00489c4c f   GenericDlg.obj
 0001:00088ca6       ?Create@CDeadDlg@@QAEHVCSCI_Script@@@Z 00489ca6 f   GenericDlg.obj
 0001:00088d29       ?MakeSkinCtrl@CDeadDlg@@UAEPAVCSkinCtrl@@VCSkinObj@@@Z 00489d29 f   GenericDlg.obj
 0001:00088f4b       ??0CPerformBtn@@QAE@VCSkinObj@@PAVCSkinWnd@@VCSCI_Script@@@Z 00489f4b f   GenericDlg.obj
 0001:00088fd1       ?OnActivate@CPerformBtn@@UAEXFF@Z 00489fd1 f   GenericDlg.obj
 0001:0008900a       ??0CCueBtn@@QAE@VCSkinObj@@PAVCSkinWnd@@VCSCI_Script@@@Z 0048a00a f   GenericDlg.obj
 0001:00089090       ?OnActivate@CCueBtn@@UAEXFF@Z 0048a090 f   GenericDlg.obj
 0001:000890c7       ??0CLeaveBtn@@QAE@VCSkinObj@@PAVCSkinWnd@@@Z 0048a0c7 f   GenericDlg.obj
 0001:0008913a       ?OnActivate@CLeaveBtn@@UAEXFF@Z 0048a13a f   GenericDlg.obj
 0001:0008914f       ??0CNetworkErrorDlg@@QAE@XZ 0048a14f f   GenericDlg.obj
 0001:00089184       ?CloseSelf@CNetworkErrorDlg@@UAEX_N@Z 0048a184 f   GenericDlg.obj
 0001:000891a7       ?Create@CNetworkErrorDlg@@QAEHXZ 0048a1a7 f   GenericDlg.obj
 0001:00089279       ?MakeSkinCtrl@CNetworkErrorDlg@@UAEPAVCSkinCtrl@@VCSkinObj@@@Z 0048a279 f   GenericDlg.obj
 0001:000895b0       ??_GCSkinChangeButton@@UAEPAXI@Z 0048a5b0 f i GenericDlg.obj
 0001:000895b0       ??_GCTabDlgBtn@@UAEPAXI@Z  0048a5b0 f i GenericDlg.obj
 0001:000895b0       ??_ECSCIButtonBtn@@UAEPAXI@Z 0048a5b0 f i GenericDlg.obj
 0001:000895b0       ??_GCSkinScrollBar@@UAEPAXI@Z 0048a5b0 f i GenericDlg.obj
 0001:000895b0       ??_ECSkinScrollBar@@UAEPAXI@Z 0048a5b0 f i GenericDlg.obj
 0001:000895b0       ??_ECTabDlgBtn@@UAEPAXI@Z  0048a5b0 f i GenericDlg.obj
 0001:000895b0       ??_GCSCIButtonBtn@@UAEPAXI@Z 0048a5b0 f i GenericDlg.obj
 0001:000895b0       ??_ECSkinChangeButton@@UAEPAXI@Z 0048a5b0 f i GenericDlg.obj
 0001:000895e0       ??1?$map@VCSCI_Object@@PAVCNoButtonDlg@@U?$less@VCSCI_Object@@@std@@V?$allocator@PAVCNoButtonDlg@@@4@@std@@QAE@XZ 0048a5e0 f i GenericDlg.obj
 0001:00089600       ??_ECNoButtonDlg@@UAEPAXI@Z 0048a600 f i GenericDlg.obj
 0001:00089600       ??_GCNoButtonDlg@@UAEPAXI@Z 0048a600 f i GenericDlg.obj
 0001:00089630       ??_GCSingleButtonDlg@@UAEPAXI@Z 0048a630 f i GenericDlg.obj
 0001:00089630       ??_ECSingleButtonDlg@@UAEPAXI@Z 0048a630 f i GenericDlg.obj
 0001:00089660       ??1CSingleButtonDlg@@UAE@XZ 0048a660 f i GenericDlg.obj
 0001:00089680       ??_ECTextDoubleButtonDlg@@UAEPAXI@Z 0048a680 f i GenericDlg.obj
 0001:00089680       ??_GCTextDoubleButtonDlg@@UAEPAXI@Z 0048a680 f i GenericDlg.obj
 0001:000896b0       ??1CTextDoubleButtonDlg@@UAE@XZ 0048a6b0 f i GenericDlg.obj
 0001:000896d0       ??_GCPasswordDoubleButtonDlg@@UAEPAXI@Z 0048a6d0 f i GenericDlg.obj
 0001:000896d0       ??_ECPasswordDoubleButtonDlg@@UAEPAXI@Z 0048a6d0 f i GenericDlg.obj
 0001:00089700       ??1CPasswordDoubleButtonDlg@@UAE@XZ 0048a700 f i GenericDlg.obj
 0001:00089720       ??_ECGroupQuestionDlg@@UAEPAXI@Z 0048a720 f i GenericDlg.obj
 0001:00089720       ??_GCGroupQuestionDlg@@UAEPAXI@Z 0048a720 f i GenericDlg.obj
 0001:00089750       ??1CGroupQuestionDlg@@UAE@XZ 0048a750 f i GenericDlg.obj
 0001:00089770       ??_ECSkinEditField@@UAEPAXI@Z 0048a770 f i GenericDlg.obj
 0001:00089770       ??_GCSkinEditField@@UAEPAXI@Z 0048a770 f i GenericDlg.obj
 0001:000897a0       ??1CSkinEditField@@UAE@XZ  0048a7a0 f i GenericDlg.obj
 0001:000897c0       ??_GCCreditsDlg@@UAEPAXI@Z 0048a7c0 f i GenericDlg.obj
 0001:000897c0       ??_GCQuestDlg@@UAEPAXI@Z   0048a7c0 f i GenericDlg.obj
 0001:000897c0       ??_ECEmotesDlg@@UAEPAXI@Z  0048a7c0 f i GenericDlg.obj
 0001:000897c0       ??_ECQuestDlg@@UAEPAXI@Z   0048a7c0 f i GenericDlg.obj
 0001:000897c0       ??_GCEmotesDlg@@UAEPAXI@Z  0048a7c0 f i GenericDlg.obj
 0001:000897c0       ??_ECCreditsDlg@@UAEPAXI@Z 0048a7c0 f i GenericDlg.obj
 0001:000897f0       ??_GCDeadDlg@@UAEPAXI@Z    0048a7f0 f i GenericDlg.obj
 0001:000897f0       ??_ECDeadDlg@@UAEPAXI@Z    0048a7f0 f i GenericDlg.obj
 0001:00089820       ??1CDeadDlg@@UAE@XZ        0048a820 f i GenericDlg.obj
 0001:00089840       ??_ECPerformBtn@@UAEPAXI@Z 0048a840 f i GenericDlg.obj
 0001:00089840       ??_GCPerformBtn@@UAEPAXI@Z 0048a840 f i GenericDlg.obj
 0001:00089870       ??1CPerformBtn@@UAE@XZ     0048a870 f i GenericDlg.obj
 0001:00089890       ??_ECCueBtn@@UAEPAXI@Z     0048a890 f i GenericDlg.obj
 0001:00089890       ??_GCCueBtn@@UAEPAXI@Z     0048a890 f i GenericDlg.obj
 0001:000898c0       ??1CCueBtn@@UAE@XZ         0048a8c0 f i GenericDlg.obj
 0001:000898e0       ??_GCLeaveBtn@@UAEPAXI@Z   0048a8e0 f i GenericDlg.obj
 0001:000898e0       ??_ECLeaveBtn@@UAEPAXI@Z   0048a8e0 f i GenericDlg.obj
 0001:00089910       ??1CLeaveBtn@@UAE@XZ       0048a910 f i GenericDlg.obj
 0001:00089930       ??1?$vector@PAVCPoint@@V?$allocator@PAVCPoint@@@std@@@std@@QAE@XZ 0048a930 f i GenericDlg.obj
 0001:00089930       ??1?$vector@PAVCSCIObjectMethodPair@@V?$allocator@PAVCSCIObjectMethodPair@@@std@@@std@@QAE@XZ 0048a930 f i GenericDlg.obj
 0001:00089930       ??1?$vector@PAVCSkinBitmap@@V?$allocator@PAVCSkinBitmap@@@std@@@std@@QAE@XZ 0048a930 f i GenericDlg.obj
 0001:00089930       ??1?$vector@PAVCTabEntry@@V?$allocator@PAVCTabEntry@@@std@@@std@@QAE@XZ 0048a930 f i GenericDlg.obj
 0001:00089990       ?push_back@?$vector@PAVCSCIObjectMethodPair@@V?$allocator@PAVCSCIObjectMethodPair@@@std@@@std@@QAEXABQAVCSCIObjectMethodPair@@@Z 0048a990 f i GenericDlg.obj
 0001:000899c0       ?clear@?$vector@PAVCSCIObjectMethodPair@@V?$allocator@PAVCSCIObjectMethodPair@@@std@@@std@@QAEXXZ 0048a9c0 f i GenericDlg.obj
 0001:000899c0       ?clear@?$vector@PAVCSkinBitmap@@V?$allocator@PAVCSkinBitmap@@@std@@@std@@QAEXXZ 0048a9c0 f i GenericDlg.obj
 0001:000899c0       ?clear@?$vector@PAVCPoint@@V?$allocator@PAVCPoint@@@std@@@std@@QAEXXZ 0048a9c0 f i GenericDlg.obj
 0001:000899c0       ?clear@?$vector@PAVCTabEntry@@V?$allocator@PAVCTabEntry@@@std@@@std@@QAEXXZ 0048a9c0 f i GenericDlg.obj
 0001:000899c0       ?clear@?$vector@PAVCSCIObjectMethod@@V?$allocator@PAVCSCIObjectMethod@@@std@@@std@@QAEXXZ 0048a9c0 f i GenericDlg.obj
 0001:000899f0       ??0?$map@VCSCI_Object@@PAVCNoButtonDlg@@U?$less@VCSCI_Object@@@std@@V?$allocator@PAVCNoButtonDlg@@@4@@std@@QAE@ABU?$less@VCSCI_Object@@@1@ABV?$allocator@PAVCNoButtonDlg@@@1@@Z 0048a9f0 f i GenericDlg.obj
 0001:00089a20       ?end@?$map@VCString@@VCPerson@@U?$less@VCString@@@std@@V?$allocator@VCPerson@@@4@@std@@QAE?AViterator@?$_Tree@VCString@@U?$pair@$$CBVCString@@VCPerson@@@std@@U_Kfn@?$map@VCString@@VCPerson@@U?$less@VCString@@@std@@V?$allocator@VCPerson@@@4@@3@U?$less@VCString@@@3@V?$allocator@VCPerson@@@3@@2@XZ 0048aa20 f i GenericDlg.obj
 0001:00089a20       ?end@?$set@PAVCSkinWnd@@U?$less@PAVCSkinWnd@@@std@@V?$allocator@PAVCSkinWnd@@@3@@std@@QAE?AViterator@?$_Tree@PAVCSkinWnd@@PAV1@U_Kfn@?$set@PAVCSkinWnd@@U?$less@PAVCSkinWnd@@@std@@V?$allocator@PAVCSkinWnd@@@3@@std@@U?$less@PAVCSkinWnd@@@4@V?$allocator@PAVCSkinWnd@@@4@@2@XZ 0048aa20 f i GenericDlg.obj
 0001:00089a20       ?end@?$map@VCSCI_WorldObject@@PAVCInventoryDlg@@U?$less@VCSCI_WorldObject@@@std@@V?$allocator@PAVCInventoryDlg@@@4@@std@@QAE?AViterator@?$_Tree@VCSCI_WorldObject@@U?$pair@$$CBVCSCI_WorldObject@@PAVCInventoryDlg@@@std@@U_Kfn@?$map@VCSCI_WorldObject@@PAVCInventoryDlg@@U?$less@VCSCI_WorldObject@@@std@@V?$allocator@PAVCInventoryDlg@@@4@@3@U?$less@VCSCI_WorldObject@@@3@V?$allocator@PAVCInventoryDlg@@@3@@2@XZ 0048aa20 f i GenericDlg.obj
 0001:00089a20       ?end@?$set@PAVCSkinCtrl@@U?$less@PAVCSkinCtrl@@@std@@V?$allocator@PAVCSkinCtrl@@@3@@std@@QAE?AViterator@?$_Tree@PAVCSkinCtrl@@PAV1@U_Kfn@?$set@PAVCSkinCtrl@@U?$less@PAVCSkinCtrl@@@std@@V?$allocator@PAVCSkinCtrl@@@3@@std@@U?$less@PAVCSkinCtrl@@@4@V?$allocator@PAVCSkinCtrl@@@4@@2@XZ 0048aa20 f i GenericDlg.obj
 0001:00089a20       ?end@?$map@VCSkinObj@@PAVCSkinCtrl@@U?$less@VCSkinObj@@@std@@V?$allocator@PAVCSkinCtrl@@@4@@std@@QAE?AViterator@?$_Tree@VCSkinObj@@U?$pair@$$CBVCSkinObj@@PAVCSkinCtrl@@@std@@U_Kfn@?$map@VCSkinObj@@PAVCSkinCtrl@@U?$less@VCSkinObj@@@std@@V?$allocator@PAVCSkinCtrl@@@4@@3@U?$less@VCSkinObj@@@3@V?$allocator@PAVCSkinCtrl@@@3@@2@XZ 0048aa20 f i GenericDlg.obj
 0001:00089a20       ?end@?$map@HPAVCVerb@@U?$less@H@std@@V?$allocator@PAVCVerb@@@3@@std@@QAE?AViterator@?$_Tree@HU?$pair@$$CBHPAVCVerb@@@std@@U_Kfn@?$map@HPAVCVerb@@U?$less@H@std@@V?$allocator@PAVCVerb@@@3@@2@U?$less@H@2@V?$allocator@PAVCVerb@@@2@@2@XZ 0048aa20 f i GenericDlg.obj
 0001:00089a20       ?end@?$map@VCSCI_Object@@PAVCNoButtonDlg@@U?$less@VCSCI_Object@@@std@@V?$allocator@PAVCNoButtonDlg@@@4@@std@@QAE?AViterator@?$_Tree@VCSCI_Object@@U?$pair@$$CBVCSCI_Object@@PAVCNoButtonDlg@@@std@@U_Kfn@?$map@VCSCI_Object@@PAVCNoButtonDlg@@U?$less@VCSCI_Object@@@std@@V?$allocator@PAVCNoButtonDlg@@@4@@3@U?$less@VCSCI_Object@@@3@V?$allocator@PAVCNoButtonDlg@@@3@@2@XZ 0048aa20 f i GenericDlg.obj
 0001:00089a20       ?end@?$map@VCSkinObj@@PAVCFastScrollCtrl@@U?$less@VCSkinObj@@@std@@V?$allocator@PAVCFastScrollCtrl@@@4@@std@@QAE?AViterator@?$_Tree@VCSkinObj@@U?$pair@$$CBVCSkinObj@@PAVCFastScrollCtrl@@@std@@U_Kfn@?$map@VCSkinObj@@PAVCFastScrollCtrl@@U?$less@VCSkinObj@@@std@@V?$allocator@PAVCFastScrollCtrl@@@4@@3@U?$less@VCSkinObj@@@3@V?$allocator@PAVCFastScrollCtrl@@@3@@2@XZ 0048aa20 f i GenericDlg.obj
 0001:00089a20       ?end@?$map@PAUHWND__@@PAVCMouseWheelable@@U?$less@PAUHWND__@@@std@@V?$allocator@PAVCMouseWheelable@@@4@@std@@QAE?AViterator@?$_Tree@PAUHWND__@@U?$pair@QAUHWND__@@PAVCMouseWheelable@@@std@@U_Kfn@?$map@PAUHWND__@@PAVCMouseWheelable@@U?$less@PAUHWND__@@@std@@V?$allocator@PAVCMouseWheelable@@@4@@3@U?$less@PAUHWND__@@@3@V?$allocator@PAVCMouseWheelable@@@3@@2@XZ 0048aa20 f i GenericDlg.obj
 0001:00089a20       ?end@?$map@V?$basic_string@DU?$char_traits@D@std@@V?$allocator@D@2@@std@@PAVCPrivateTell@@U?$less@V?$basic_string@DU?$char_traits@D@std@@V?$allocator@D@2@@std@@@2@V?$allocator@PAVCPrivateTell@@@2@@std@@QAE?AViterator@?$_Tree@V?$basic_string@DU?$char_traits@D@std@@V?$allocator@D@2@@std@@U?$pair@$$CBV?$basic_string@DU?$char_traits@D@std@@V?$allocator@D@2@@std@@PAVCPrivateTell@@@2@U_Kfn@?$map@V?$basic_string@DU?$char_traits@D@std@@V?$allocator@D@2@@std@@PAVCPrivateTell@@U?$less@V?$basic_string@DU?$char_traits@D@std@@V?$allocator@D@2@@std@@@2@V?$allocator@PAVCPrivateTell@@@2@@2@U?$less@V?$basic_string@DU?$char_traits@D@std@@V?$allocator@D@2@@std@@@2@V?$allocator@PAVCPrivateTell@@@2@@2@XZ 0048aa20 f i GenericDlg.obj
 0001:00089a20       ?end@?$map@V?$basic_string@DU?$char_traits@D@std@@V?$allocator@D@2@@std@@HU?$less@V?$basic_string@DU?$char_traits@D@std@@V?$allocator@D@2@@std@@@2@V?$allocator@H@2@@std@@QAE?AViterator@?$_Tree@V?$basic_string@DU?$char_traits@D@std@@V?$allocator@D@2@@std@@U?$pair@$$CBV?$basic_string@DU?$char_traits@D@std@@V?$allocator@D@2@@std@@H@2@U_Kfn@?$map@V?$basic_string@DU?$char_traits@D@std@@V?$allocator@D@2@@std@@HU?$less@V?$basic_string@DU?$char_traits@D@std@@V?$allocator@D@2@@std@@@2@V?$allocator@H@2@@2@U?$less@V?$basic_string@DU?$char_traits@D@std@@V?$allocator@D@2@@std@@@2@V?$allocator@H@2@@2@XZ 0048aa20 f i GenericDlg.obj
 0001:00089a20       ?end@?$map@HVCSCI_WorldObject@@U?$less@H@std@@V?$allocator@VCSCI_WorldObject@@@3@@std@@QAE?AViterator@?$_Tree@HU?$pair@$$CBHVCSCI_WorldObject@@@std@@U_Kfn@?$map@HVCSCI_WorldObject@@U?$less@H@std@@V?$allocator@VCSCI_WorldObject@@@3@@2@U?$less@H@2@V?$allocator@VCSCI_WorldObject@@@2@@2@XZ 0048aa20 f i GenericDlg.obj
 0001:00089a20       ?end@?$map@PAUHWND__@@PAVCSkinWnd@@U?$less@PAUHWND__@@@std@@V?$allocator@PAVCSkinWnd@@@4@@std@@QAE?AViterator@?$_Tree@PAUHWND__@@U?$pair@QAUHWND__@@PAVCSkinWnd@@@std@@U_Kfn@?$map@PAUHWND__@@PAVCSkinWnd@@U?$less@PAUHWND__@@@std@@V?$allocator@PAVCSkinWnd@@@4@@3@U?$less@PAUHWND__@@@3@V?$allocator@PAVCSkinWnd@@@3@@2@XZ 0048aa20 f i GenericDlg.obj
 0001:00089a20       ?end@?$map@PAUHWND__@@PAVCDropTarget@@U?$less@PAUHWND__@@@std@@V?$allocator@PAVCDropTarget@@@4@@std@@QAE?AViterator@?$_Tree@PAUHWND__@@U?$pair@QAUHWND__@@PAVCDropTarget@@@std@@U_Kfn@?$map@PAUHWND__@@PAVCDropTarget@@U?$less@PAUHWND__@@@std@@V?$allocator@PAVCDropTarget@@@4@@3@U?$less@PAUHWND__@@@3@V?$allocator@PAVCDropTarget@@@3@@2@XZ 0048aa20 f i GenericDlg.obj
 0001:00089a20       ?end@?$map@V?$basic_string@DU?$char_traits@D@std@@V?$allocator@D@2@@std@@VCPoint@@U?$less@V?$basic_string@DU?$char_traits@D@std@@V?$allocator@D@2@@std@@@2@V?$allocator@VCPoint@@@2@@std@@QAE?AViterator@?$_Tree@V?$basic_string@DU?$char_traits@D@std@@V?$allocator@D@2@@std@@U?$pair@$$CBV?$basic_string@DU?$char_traits@D@std@@V?$allocator@D@2@@std@@VCPoint@@@2@U_Kfn@?$map@V?$basic_string@DU?$char_traits@D@std@@V?$allocator@D@2@@std@@VCPoint@@U?$less@V?$basic_string@DU?$char_traits@D@std@@V?$allocator@D@2@@std@@@2@V?$allocator@VCPoint@@@2@@2@U?$less@V?$basic_string@DU?$char_traits@D@std@@V?$allocator@D@2@@std@@@2@V?$allocator@VCPoint@@@2@@2@XZ 0048aa20 f i GenericDlg.obj
 0001:00089a50       ??A?$map@VCSCI_Object@@PAVCNoButtonDlg@@U?$less@VCSCI_Object@@@std@@V?$allocator@PAVCNoButtonDlg@@@4@@std@@QAEAAPAVCNoButtonDlg@@ABVCSCI_Object@@@Z 0048aa50 f i GenericDlg.obj
 0001:00089aa0       ?erase@?$map@VCSCI_Object@@PAVCNoButtonDlg@@U?$less@VCSCI_Object@@@std@@V?$allocator@PAVCNoButtonDlg@@@4@@std@@QAE?AViterator@?$_Tree@VCSCI_Object@@U?$pair@$$CBVCSCI_Object@@PAVCNoButtonDlg@@@std@@U_Kfn@?$map@VCSCI_Object@@PAVCNoButtonDlg@@U?$less@VCSCI_Object@@@std@@V?$allocator@PAVCNoButtonDlg@@@4@@3@U?$less@VCSCI_Object@@@3@V?$allocator@PAVCNoButtonDlg@@@3@@2@V342@@Z 0048aaa0 f i GenericDlg.obj
 0001:00089ad0       ?find@?$map@VCSCI_Object@@PAVCNoButtonDlg@@U?$less@VCSCI_Object@@@std@@V?$allocator@PAVCNoButtonDlg@@@4@@std@@QAE?AViterator@?$_Tree@VCSCI_Object@@U?$pair@$$CBVCSCI_Object@@PAVCNoButtonDlg@@@std@@U_Kfn@?$map@VCSCI_Object@@PAVCNoButtonDlg@@U?$less@VCSCI_Object@@@std@@V?$allocator@PAVCNoButtonDlg@@@4@@3@U?$less@VCSCI_Object@@@3@V?$allocator@PAVCNoButtonDlg@@@3@@2@ABVCSCI_Object@@@Z 0048aad0 f i GenericDlg.obj
 0001:00089b00       ??1?$_Tree@VCSCI_Object@@U?$pair@$$CBVCSCI_Object@@PAVCNoButtonDlg@@@std@@U_Kfn@?$map@VCSCI_Object@@PAVCNoButtonDlg@@U?$less@VCSCI_Object@@@std@@V?$allocator@PAVCNoButtonDlg@@@4@@3@U?$less@VCSCI_Object@@@3@V?$allocator@PAVCNoButtonDlg@@@3@@std@@QAE@XZ 0048ab00 f i GenericDlg.obj
 0001:00089bd0       ?insert@?$vector@PAVCSCIObjectMethodPair@@V?$allocator@PAVCSCIObjectMethodPair@@@std@@@std@@QAEPAPAVCSCIObjectMethodPair@@PAPAV3@ABQAV3@@Z 0048abd0 f i GenericDlg.obj
 0001:00089c20       ?insert@?$map@VCSCI_Object@@PAVCNoButtonDlg@@U?$less@VCSCI_Object@@@std@@V?$allocator@PAVCNoButtonDlg@@@4@@std@@QAE?AU?$pair@Viterator@?$_Tree@VCSCI_Object@@U?$pair@$$CBVCSCI_Object@@PAVCNoButtonDlg@@@std@@U_Kfn@?$map@VCSCI_Object@@PAVCNoButtonDlg@@U?$less@VCSCI_Object@@@std@@V?$allocator@PAVCNoButtonDlg@@@4@@3@U?$less@VCSCI_Object@@@3@V?$allocator@PAVCNoButtonDlg@@@3@@std@@_N@2@ABU?$pair@$$CBVCSCI_Object@@PAVCNoButtonDlg@@@2@@Z 0048ac20 f i GenericDlg.obj
 0001:00089c70       ??0?$_Tree@VCSCI_Object@@U?$pair@$$CBVCSCI_Object@@PAVCNoButtonDlg@@@std@@U_Kfn@?$map@VCSCI_Object@@PAVCNoButtonDlg@@U?$less@VCSCI_Object@@@std@@V?$allocator@PAVCNoButtonDlg@@@4@@3@U?$less@VCSCI_Object@@@3@V?$allocator@PAVCNoButtonDlg@@@3@@std@@QAE@ABU?$less@VCSCI_Object@@@1@_NABV?$allocator@PAVCNoButtonDlg@@@1@@Z 0048ac70 f i GenericDlg.obj
 0001:00089cb0       ?erase@?$_Tree@VCSCI_Object@@U?$pair@$$CBVCSCI_Object@@PAVCNoButtonDlg@@@std@@U_Kfn@?$map@VCSCI_Object@@PAVCNoButtonDlg@@U?$less@VCSCI_Object@@@std@@V?$allocator@PAVCNoButtonDlg@@@4@@3@U?$less@VCSCI_Object@@@3@V?$allocator@PAVCNoButtonDlg@@@3@@std@@QAE?AViterator@12@V312@@Z 0048acb0 f i GenericDlg.obj
 0001:0008a500       ?erase@?$_Tree@VCSCI_Object@@U?$pair@$$CBVCSCI_Object@@PAVCNoButtonDlg@@@std@@U_Kfn@?$map@VCSCI_Object@@PAVCNoButtonDlg@@U?$less@VCSCI_Object@@@std@@V?$allocator@PAVCNoButtonDlg@@@4@@3@U?$less@VCSCI_Object@@@3@V?$allocator@PAVCNoButtonDlg@@@3@@std@@QAE?AViterator@12@V312@0@Z 0048b500 f i GenericDlg.obj
 0001:0008a640       ?find@?$_Tree@VCSCI_Object@@U?$pair@$$CBVCSCI_Object@@PAVCNoButtonDlg@@@std@@U_Kfn@?$map@VCSCI_Object@@PAVCNoButtonDlg@@U?$less@VCSCI_Object@@@std@@V?$allocator@PAVCNoButtonDlg@@@4@@3@U?$less@VCSCI_Object@@@3@V?$allocator@PAVCNoButtonDlg@@@3@@std@@QAE?AViterator@12@ABVCSCI_Object@@@Z 0048b640 f i GenericDlg.obj
 0001:0008a6e0       ??0?$pair@$$CBVCSCI_Object@@PAVCNoButtonDlg@@@std@@QAE@ABVCSCI_Object@@ABQAVCNoButtonDlg@@@Z 0048b6e0 f i GenericDlg.obj
 0001:0008a710       ?size@?$_Tree@VCSCI_Object@@U?$pair@$$CBVCSCI_Object@@PAVCNoButtonDlg@@@std@@U_Kfn@?$map@VCSCI_Object@@PAVCNoButtonDlg@@U?$less@VCSCI_Object@@@std@@V?$allocator@PAVCNoButtonDlg@@@4@@3@U?$less@VCSCI_Object@@@3@V?$allocator@PAVCNoButtonDlg@@@3@@std@@QBEIXZ 0048b710 f i GenericDlg.obj
 0001:0008a730       ?insert@?$_Tree@VCSCI_Object@@U?$pair@$$CBVCSCI_Object@@PAVCNoButtonDlg@@@std@@U_Kfn@?$map@VCSCI_Object@@PAVCNoButtonDlg@@U?$less@VCSCI_Object@@@std@@V?$allocator@PAVCNoButtonDlg@@@4@@3@U?$less@VCSCI_Object@@@3@V?$allocator@PAVCNoButtonDlg@@@3@@std@@QAE?AU?$pair@Viterator@?$_Tree@VCSCI_Object@@U?$pair@$$CBVCSCI_Object@@PAVCNoButtonDlg@@@std@@U_Kfn@?$map@VCSCI_Object@@PAVCNoButtonDlg@@U?$less@VCSCI_Object@@@std@@V?$allocator@PAVCNoButtonDlg@@@4@@3@U?$less@VCSCI_Object@@@3@V?$allocator@PAVCNoButtonDlg@@@3@@std@@_N@2@ABU?$pair@$$CBVCSCI_Object@@PAVCNoButtonDlg@@@2@@Z 0048b730 f i GenericDlg.obj
 0001:0008a970       ?lower_bound@?$_Tree@VCSCI_Object@@U?$pair@$$CBVCSCI_Object@@PAVCNoButtonDlg@@@std@@U_Kfn@?$map@VCSCI_Object@@PAVCNoButtonDlg@@U?$less@VCSCI_Object@@@std@@V?$allocator@PAVCNoButtonDlg@@@4@@3@U?$less@VCSCI_Object@@@3@V?$allocator@PAVCNoButtonDlg@@@3@@std@@QAE?AViterator@12@ABVCSCI_Object@@@Z 0048b970 f i GenericDlg.obj
 0001:0008a9a0       ?_Erase@?$_Tree@VCSCI_Object@@U?$pair@$$CBVCSCI_Object@@PAVCNoButtonDlg@@@std@@U_Kfn@?$map@VCSCI_Object@@PAVCNoButtonDlg@@U?$less@VCSCI_Object@@@std@@V?$allocator@PAVCNoButtonDlg@@@4@@3@U?$less@VCSCI_Object@@@3@V?$allocator@PAVCNoButtonDlg@@@3@@std@@IAEXPAU_Node@12@@Z 0048b9a0 f i GenericDlg.obj
 0001:0008aa60       ?_Init@?$_Tree@VCSCI_Object@@U?$pair@$$CBVCSCI_Object@@PAVCNoButtonDlg@@@std@@U_Kfn@?$map@VCSCI_Object@@PAVCNoButtonDlg@@U?$less@VCSCI_Object@@@std@@V?$allocator@PAVCNoButtonDlg@@@4@@3@U?$less@VCSCI_Object@@@3@V?$allocator@PAVCNoButtonDlg@@@3@@std@@IAEXXZ 0048ba60 f i GenericDlg.obj
 0001:0008ab40       ?_Lrotate@?$_Tree@VCSCI_Object@@U?$pair@$$CBVCSCI_Object@@PAVCNoButtonDlg@@@std@@U_Kfn@?$map@VCSCI_Object@@PAVCNoButtonDlg@@U?$less@VCSCI_Object@@@std@@V?$allocator@PAVCNoButtonDlg@@@4@@3@U?$less@VCSCI_Object@@@3@V?$allocator@PAVCNoButtonDlg@@@3@@std@@IAEXPAU_Node@12@@Z 0048bb40 f i GenericDlg.obj
 0001:0008acb0       ?_Max@?$_Tree@VCSCI_Object@@U?$pair@$$CBVCSCI_Object@@PAVCNoButtonDlg@@@std@@U_Kfn@?$map@VCSCI_Object@@PAVCNoButtonDlg@@U?$less@VCSCI_Object@@@std@@V?$allocator@PAVCNoButtonDlg@@@4@@3@U?$less@VCSCI_Object@@@3@V?$allocator@PAVCNoButtonDlg@@@3@@std@@KAPAU_Node@12@PAU312@@Z 0048bcb0 f i GenericDlg.obj
 0001:0008ad30       ?_Min@?$_Tree@VCSCI_Object@@U?$pair@$$CBVCSCI_Object@@PAVCNoButtonDlg@@@std@@U_Kfn@?$map@VCSCI_Object@@PAVCNoButtonDlg@@U?$less@VCSCI_Object@@@std@@V?$allocator@PAVCNoButtonDlg@@@4@@3@U?$less@VCSCI_Object@@@3@V?$allocator@PAVCNoButtonDlg@@@3@@std@@KAPAU_Node@12@PAU312@@Z 0048bd30 f i GenericDlg.obj
 0001:0008adb0       ?_Rrotate@?$_Tree@VCSCI_Object@@U?$pair@$$CBVCSCI_Object@@PAVCNoButtonDlg@@@std@@U_Kfn@?$map@VCSCI_Object@@PAVCNoButtonDlg@@U?$less@VCSCI_Object@@@std@@V?$allocator@PAVCNoButtonDlg@@@4@@3@U?$less@VCSCI_Object@@@3@V?$allocator@PAVCNoButtonDlg@@@3@@std@@IAEXPAU_Node@12@@Z 0048bdb0 f i GenericDlg.obj
 0001:0008af20       ??Eiterator@?$_Tree@VCSCI_Object@@U?$pair@$$CBVCSCI_Object@@PAVCNoButtonDlg@@@std@@U_Kfn@?$map@VCSCI_Object@@PAVCNoButtonDlg@@U?$less@VCSCI_Object@@@std@@V?$allocator@PAVCNoButtonDlg@@@4@@3@U?$less@VCSCI_Object@@@3@V?$allocator@PAVCNoButtonDlg@@@3@@std@@QAE?AV012@H@Z 0048bf20 f i GenericDlg.obj
 0001:0008af50       ?_Insert@?$_Tree@VCSCI_Object@@U?$pair@$$CBVCSCI_Object@@PAVCNoButtonDlg@@@std@@U_Kfn@?$map@VCSCI_Object@@PAVCNoButtonDlg@@U?$less@VCSCI_Object@@@std@@V?$allocator@PAVCNoButtonDlg@@@4@@3@U?$less@VCSCI_Object@@@3@V?$allocator@PAVCNoButtonDlg@@@3@@std@@IAE?AViterator@12@PAU_Node@12@0ABU?$pair@$$CBVCSCI_Object@@PAVCNoButtonDlg@@@2@@Z 0048bf50 f i GenericDlg.obj
 0001:0008b420       ?_Lbound@?$_Tree@VCSCI_Object@@U?$pair@$$CBVCSCI_Object@@PAVCNoButtonDlg@@@std@@U_Kfn@?$map@VCSCI_Object@@PAVCNoButtonDlg@@U?$less@VCSCI_Object@@@std@@V?$allocator@PAVCNoButtonDlg@@@4@@3@U?$less@VCSCI_Object@@@3@V?$allocator@PAVCNoButtonDlg@@@3@@std@@IBEPAU_Node@12@ABVCSCI_Object@@@Z 0048c420 f i GenericDlg.obj
 0001:0008b4f0       ??Eiterator@?$_Tree@VCSCI_Object@@U?$pair@$$CBVCSCI_Object@@PAVCNoButtonDlg@@@std@@U_Kfn@?$map@VCSCI_Object@@PAVCNoButtonDlg@@U?$less@VCSCI_Object@@@std@@V?$allocator@PAVCNoButtonDlg@@@4@@3@U?$less@VCSCI_Object@@@3@V?$allocator@PAVCNoButtonDlg@@@3@@std@@QAEAAV012@XZ 0048c4f0 f i GenericDlg.obj
 0001:0008b510       ??Fiterator@?$_Tree@VCSCI_Object@@U?$pair@$$CBVCSCI_Object@@PAVCNoButtonDlg@@@std@@U_Kfn@?$map@VCSCI_Object@@PAVCNoButtonDlg@@U?$less@VCSCI_Object@@@std@@V?$allocator@PAVCNoButtonDlg@@@4@@3@U?$less@VCSCI_Object@@@3@V?$allocator@PAVCNoButtonDlg@@@3@@std@@QAEAAV012@XZ 0048c510 f i GenericDlg.obj
 0001:0008b530       ?_Charalloc@?$allocator@PAVCFastScrollCtrl@@@std@@QAEPADI@Z 0048c530 f i GenericDlg.obj
 0001:0008b530       ?_Charalloc@?$allocator@PAD@std@@QAEPADI@Z 0048c530 f i GenericDlg.obj
 0001:0008b530       ?_Charalloc@?$allocator@H@std@@QAEPADI@Z 0048c530 f i GenericDlg.obj
 0001:0008b530       ?_Charalloc@?$allocator@PAVCListData@@@std@@QAEPADI@Z 0048c530 f i GenericDlg.obj
 0001:0008b530       ?_Charalloc@?$allocator@VCPoint@@@std@@QAEPADI@Z 0048c530 f i GenericDlg.obj
 0001:0008b530       ?_Charalloc@?$allocator@PAVCInventoryDlg@@@std@@QAEPADI@Z 0048c530 f i GenericDlg.obj
 0001:0008b530       ?_Charalloc@?$allocator@PAVCSkinCtrl@@@std@@QAEPADI@Z 0048c530 f i GenericDlg.obj
 0001:0008b530       ?_Charalloc@?$allocator@VCSCI_WorldObject@@@std@@QAEPADI@Z 0048c530 f i GenericDlg.obj
 0001:0008b530       ?_Charalloc@?$allocator@PAVCVerb@@@std@@QAEPADI@Z 0048c530 f i GenericDlg.obj
 0001:0008b530       ?_Charalloc@?$allocator@PAVCMailMsgWnd@@@std@@QAEPADI@Z 0048c530 f i GenericDlg.obj
 0001:0008b530       ?_Charalloc@?$allocator@PAVCVerbRequest@@@std@@QAEPADI@Z 0048c530 f i GenericDlg.obj
 0001:0008b530       ?_Charalloc@?$allocator@PAVCLookAtItem@@@std@@QAEPADI@Z 0048c530 f i GenericDlg.obj
 0001:0008b530       ?_Charalloc@?$allocator@PAVCSkinWnd@@@std@@QAEPADI@Z 0048c530 f i GenericDlg.obj
 0001:0008b530       ?_Charalloc@?$allocator@PAVCMouseWheelable@@@std@@QAEPADI@Z 0048c530 f i GenericDlg.obj
 0001:0008b530       ?_Charalloc@?$allocator@PAVCNoButtonDlg@@@std@@QAEPADI@Z 0048c530 f i GenericDlg.obj
 0001:0008b530       ?_Charalloc@?$allocator@PAVCDropTarget@@@std@@QAEPADI@Z 0048c530 f i GenericDlg.obj
 0001:0008b530       ?_Charalloc@?$allocator@PAVCMailMsg@@@std@@QAEPADI@Z 0048c530 f i GenericDlg.obj
 0001:0008b530       ?_Charalloc@?$allocator@PAVCVerbBtn@@@std@@QAEPADI@Z 0048c530 f i GenericDlg.obj
 0001:0008b530       ?_Charalloc@?$allocator@VCPerson@@@std@@QAEPADI@Z 0048c530 f i GenericDlg.obj
 0001:0008b530       ?_Charalloc@?$allocator@PAVCPrivateTell@@@std@@QAEPADI@Z 0048c530 f i GenericDlg.obj
 0001:0008b550       ?_Consval@?$_Tree@VCSCI_Object@@U?$pair@$$CBVCSCI_Object@@PAVCNoButtonDlg@@@std@@U_Kfn@?$map@VCSCI_Object@@PAVCNoButtonDlg@@U?$less@VCSCI_Object@@@std@@V?$allocator@PAVCNoButtonDlg@@@4@@3@U?$less@VCSCI_Object@@@3@V?$allocator@PAVCNoButtonDlg@@@3@@std@@IAEXPAU?$pair@$$CBVCSCI_Object@@PAVCNoButtonDlg@@@2@ABU32@@Z 0048c550 f i GenericDlg.obj
 0001:0008b570       ?_Dec@const_iterator@?$_Tree@VCSCI_Object@@U?$pair@$$CBVCSCI_Object@@PAVCNoButtonDlg@@@std@@U_Kfn@?$map@VCSCI_Object@@PAVCNoButtonDlg@@U?$less@VCSCI_Object@@@std@@V?$allocator@PAVCNoButtonDlg@@@4@@3@U?$less@VCSCI_Object@@@3@V?$allocator@PAVCNoButtonDlg@@@3@@std@@QAEXXZ 0048c570 f i GenericDlg.obj
 0001:0008b680       ?_Inc@const_iterator@?$_Tree@VCSCI_Object@@U?$pair@$$CBVCSCI_Object@@PAVCNoButtonDlg@@@std@@U_Kfn@?$map@VCSCI_Object@@PAVCNoButtonDlg@@U?$less@VCSCI_Object@@@std@@V?$allocator@PAVCNoButtonDlg@@@4@@3@U?$less@VCSCI_Object@@@3@V?$allocator@PAVCNoButtonDlg@@@3@@std@@QAEXXZ 0048c680 f i GenericDlg.obj
 0001:0008b760       ?_Construct@std@@YAXPAU?$pair@$$CBVCSCI_Object@@PAVCNoButtonDlg@@@1@ABU21@@Z 0048c760 f i GenericDlg.obj
 0001:0008b7d0       ??0?$pair@$$CBVCSCI_Object@@PAVCNoButtonDlg@@@std@@QAE@ABU01@@Z 0048c7d0 f i GenericDlg.obj
 0001:0008b800       ??_ECSkinEditField@@WGA@AEPAXI@Z 0048c800 f i GenericDlg.obj
 0001:0008b810       ??_ECSkinEditField@@WHE@AEPAXI@Z 0048c810 f i GenericDlg.obj
 0001:0008b820       ?getObject@CSCIObjectMethodPair@@QAE?AVCSCI_Object@@XZ 0048c820 f i GenericDlg.obj
 0001:0008b840       ??0CGroupListWnd@@QAE@XZ   0048c840 f   GroupList.obj
 0001:0008b8c1       ?CloseSelf@CGroupListWnd@@UAEX_N@Z 0048c8c1 f   GroupList.obj
 0001:0008b8e4       ?CompareNames@CGroupListWnd@@KGHHHPAVCSkinListCtrl@@@Z 0048c8e4 f   GroupList.obj
 0001:0008b9ae       ?Create@CGroupListWnd@@QAEHVCSCI_GroupList@@@Z 0048c9ae f   GroupList.obj
 0001:0008bbd4       ?MakeSkinCtrl@CGroupListWnd@@UAEPAVCSkinCtrl@@VCSkinObj@@@Z 0048cbd4 f   GroupList.obj
 0001:0008bd6b       ?Add@CGroupListWnd@@QAEXVCSCI_GroupMember@@@Z 0048cd6b f   GroupList.obj
 0001:0008bdd5       ?Delete@CGroupListWnd@@QAEXVCSCI_GroupMember@@@Z 0048cdd5 f   GroupList.obj
 0001:0008be3d       ?SortByName@CGroupListWnd@@QAEXXZ 0048ce3d f   GroupList.obj
 0001:0008be70       ??0CGroupListCtrl@@QAE@XZ  0048ce70 f i GroupList.obj
 0001:0008beb0       ?OnItemActivate@CGroupListCtrl@@UAEXH_N@Z 0048ceb0 f i GroupList.obj
 0001:0008c010       ??_ECGroupListCtrl@@UAEPAXI@Z 0048d010 f i GroupList.obj
 0001:0008c010       ??_GCGroupListCtrl@@UAEPAXI@Z 0048d010 f i GroupList.obj
 0001:0008c040       ??1CGroupListCtrl@@UAE@XZ  0048d040 f i GroupList.obj
 0001:0008c080       ??_ECGroupListCtrl@@WEA@AEPAXI@Z 0048d080 f i GroupList.obj
 0001:0008c090       ??_ECGroupListCtrl@@WHE@AEPAXI@Z 0048d090 f i GroupList.obj
 0001:0008c0a0       ?get_size@CSCI_Collection@@QAEFXZ 0048d0a0 f i GroupList.obj
 0001:0008c0c0       ?get_pLeader@CSCI_GroupList@@QAE?AVCSCI_GroupMember@@XZ 0048d0c0 f i GroupList.obj
 0001:0008c141       ?groupLeader@@YA_NXZ       0048d141 f   GroupVerbs.obj
 0001:0008c1e8       ?groupMember@@YAFPBD@Z     0048d1e8 f   GroupVerbs.obj
 0001:0008c2d4       ??0CGroupVerbs@@QAE@XZ     0048d2d4 f   GroupVerbs.obj
 0001:0008c300       ??1CGroupVerbs@@UAE@XZ     0048d300 f   GroupVerbs.obj
 0001:0008c31c       ?Create@CGroupVerbs@@UAEHXZ 0048d31c f   GroupVerbs.obj
 0001:0008c4f0       ??0CGroupVerbHandler@@QAE@XZ 0048d4f0 f i GroupVerbs.obj
 0001:0008c510       ?HandleVerb@CGroupVerbHandler@@UAEHHVCSCI_WorldObject@@@Z 0048d510 f i GroupVerbs.obj
 0001:0008c710       ??1CGroupVerbHandler@@UAE@XZ 0048d710 f i GroupVerbs.obj
 0001:0008c730       ??_ECGroupVerbHandler@@UAEPAXI@Z 0048d730 f i GroupVerbs.obj
 0001:0008c730       ??_GCGroupVerbHandler@@UAEPAXI@Z 0048d730 f i GroupVerbs.obj
 0001:0008c760       ??_GCGroupVerbs@@UAEPAXI@Z 0048d760 f i GroupVerbs.obj
 0001:0008c760       ??_ECGroupVerbs@@UAEPAXI@Z 0048d760 f i GroupVerbs.obj
 0001:0008c790       ?get_pWhoToFollow@CSCI_WorldActor@@QAE?AVCSCI_LongInt@@XZ 0048d790 f i GroupVerbs.obj
 0001:0008c7c0       ?get_pServID@CSCI_GroupMember@@QAE?AVCSCI_LongInt@@XZ 0048d7c0 f i GroupVerbs.obj
 0001:0008c7f0       ??0CSCI_VerbList@@QAE@G@Z  0048d7f0 f i GroupVerbs.obj
 0001:0008c7f0       ??0CSCI_GroupList@@QAE@G@Z 0048d7f0 f i GroupVerbs.obj
 0001:0008c7f0       ??0CSCI_View@@QAE@G@Z      0048d7f0 f i GroupVerbs.obj
 0001:0008c7f0       ??0CSCI_NetMsg@@QAE@G@Z    0048d7f0 f i GroupVerbs.obj
 0001:0008c810       ??0CSCI_BWeapon@@QAE@G@Z   0048d810 f i GroupVerbs.obj
 0001:0008c810       ??0CSCI_PackedData@@QAE@G@Z 0048d810 f i GroupVerbs.obj
 0001:0008c810       ??0CSCI_String@@QAE@G@Z    0048d810 f i GroupVerbs.obj
 0001:0008c810       ??0CSCI_Feature@@QAE@G@Z   0048d810 f i GroupVerbs.obj
 0001:0008c810       ??0CSCI_Set@@QAE@G@Z       0048d810 f i GroupVerbs.obj
 0001:0008c810       ??0CSCI_Spell@@QAE@G@Z     0048d810 f i GroupVerbs.obj
 0001:0008c810       ??0CSCI_NetRoom@@QAE@G@Z   0048d810 f i GroupVerbs.obj
 0001:0008c810       ??0CSCI_BHead@@QAE@G@Z     0048d810 f i GroupVerbs.obj
 0001:0008c830       ?getGroup_Open@CToonSettings@@QAEHXZ 0048d830 f i GroupVerbs.obj
 0001:0008c964       ??0CGspSettingsDlg@@QAE@XZ 0048d964 f   GspSettings.obj
 0001:0008ca25       ?CloseSelf@CGspSettingsDlg@@UAEX_N@Z 0048da25 f   GspSettings.obj
 0001:0008ca48       ?Create@CGspSettingsDlg@@QAEH_N@Z 0048da48 f   GspSettings.obj
 0001:0008cc3e       ?MakeSkinCtrl@CGspSettingsDlg@@UAEPAVCSkinCtrl@@VCSkinObj@@@Z 0048dc3e f   GspSettings.obj
 0001:0008d260       ?Process@CGspSettingsDlg@@QAEXXZ 0048e260 f   GspSettings.obj
 0001:0008d420       ?Update@CGspSettingsDlg@@QAEXPBD0@Z 0048e420 f   GspSettings.obj
 0001:0008d451       ??0CGspViewerDlg@@QAE@XZ   0048e451 f   GspSettings.obj
 0001:0008d493       ?CloseSelf@CGspViewerDlg@@UAEX_N@Z 0048e493 f   GspSettings.obj
 0001:0008d4b6       ?Create@CGspViewerDlg@@QAEHXZ 0048e4b6 f   GspSettings.obj
 0001:0008d5cf       ?MakeSkinCtrl@CGspViewerDlg@@UAEPAVCSkinCtrl@@VCSkinObj@@@Z 0048e5cf f   GspSettings.obj
 0001:0008d82e       ?Update@CGspViewerDlg@@QAEXPBD0@Z 0048e82e f   GspSettings.obj
 0001:0008d85f       ??0CCreateBtn@@QAE@VCSkinObj@@PAVCSkinWnd@@_N@Z 0048e85f f   GspSettings.obj
 0001:0008d8f4       ?OnActivate@CCreateBtn@@UAEXFF@Z 0048e8f4 f   GspSettings.obj
 0001:0008d920       ??1CGameSettingsDlg@@UAE@XZ 0048e920 f i GspSettings.obj
 0001:0008d920       ??1CMailMgrWnd@@UAE@XZ     0048e920 f i GspSettings.obj
 0001:0008d920       ??1CGroupListWnd@@UAE@XZ   0048e920 f i GspSettings.obj
 0001:0008d920       ??1CWhatsNewDlg@@UAE@XZ    0048e920 f i GspSettings.obj
 0001:0008d920       ??1CChatSettingsDlg@@UAE@XZ 0048e920 f i GspSettings.obj
 0001:0008d920       ??1CChanListWnd@@UAE@XZ    0048e920 f i GspSettings.obj
 0001:0008d920       ??1CGspSettingsDlg@@UAE@XZ 0048e920 f i GspSettings.obj
 0001:0008d920       ??1CPatchDlg@@UAE@XZ       0048e920 f i GspSettings.obj
 0001:0008d940       ??_ECCityBtn@@UAEPAXI@Z    0048e940 f i GspSettings.obj
 0001:0008d940       ??_ECCreateBtn@@UAEPAXI@Z  0048e940 f i GspSettings.obj
 0001:0008d940       ??_GCCreateBtn@@UAEPAXI@Z  0048e940 f i GspSettings.obj
 0001:0008d940       ??_GCSCITalkButtonBtn@@UAEPAXI@Z 0048e940 f i GspSettings.obj
 0001:0008d940       ??_GCCityBtn@@UAEPAXI@Z    0048e940 f i GspSettings.obj
 0001:0008d940       ??_ECToonMakeFeatureUpBtn@@UAEPAXI@Z 0048e940 f i GspSettings.obj
 0001:0008d940       ??_ECSCITalkButtonBtn@@UAEPAXI@Z 0048e940 f i GspSettings.obj
 0001:0008d940       ??_GCToonMakeFeatureUpBtn@@UAEPAXI@Z 0048e940 f i GspSettings.obj
 0001:0008d970       ?getChannel_Topic@CToonSettings@@QAE?AVCString@@XZ 0048e970 f i GspSettings.obj
 0001:0008d9b0       ?getChannel_Password@CToonSettings@@QAE?AVCString@@XZ 0048e9b0 f i GspSettings.obj
 0001:0008da2f       ??0CHelpVerbs@@QAE@XZ      0048ea2f f   HelpVerbs.obj
 0001:0008da5b       ??1CHelpVerbs@@UAE@XZ      0048ea5b f   HelpVerbs.obj
 0001:0008da77       ?Create@CHelpVerbs@@UAEHXZ 0048ea77 f   HelpVerbs.obj
 0001:0008db10       ??0CEmotesDlg@@QAE@XZ      0048eb10 f   HelpVerbs.obj
 0001:0008db38       ?CloseSelf@CEmotesDlg@@UAEX_N@Z 0048eb38 f   HelpVerbs.obj
 0001:0008db5b       ?Create@CEmotesDlg@@QAEHXZ 0048eb5b f   HelpVerbs.obj
 0001:0008dba2       ??0CCreditsDlg@@QAE@XZ     0048eba2 f   HelpVerbs.obj
 0001:0008dbca       ?CloseSelf@CCreditsDlg@@UAEX_N@Z 0048ebca f   HelpVerbs.obj
 0001:0008dc75       ?Create@CCreditsDlg@@QAEHXZ 0048ec75 f   HelpVerbs.obj
 0001:0008dd50       ??0CHelpVerbHandler@@QAE@XZ 0048ed50 f i HelpVerbs.obj
 0001:0008dd70       ?HandleVerb@CHelpVerbHandler@@UAEHHVCSCI_WorldObject@@@Z 0048ed70 f i HelpVerbs.obj
 0001:0008df10       ??1CHelpVerbHandler@@UAE@XZ 0048ef10 f i HelpVerbs.obj
 0001:0008df30       ??_GCHelpVerbHandler@@UAEPAXI@Z 0048ef30 f i HelpVerbs.obj
 0001:0008df30       ??_ECHelpVerbHandler@@UAEPAXI@Z 0048ef30 f i HelpVerbs.obj
 0001:0008df60       ??_ECHelpVerbs@@UAEPAXI@Z  0048ef60 f i HelpVerbs.obj
 0001:0008df60       ??_GCHelpVerbs@@UAEPAXI@Z  0048ef60 f i HelpVerbs.obj
 0001:0008df90       ??1CCreditsDlg@@UAE@XZ     0048ef90 f i HelpVerbs.obj
 0001:0008df90       ??1CEmotesDlg@@UAE@XZ      0048ef90 f i HelpVerbs.obj
 0001:0008df90       ??1CQuestDlg@@UAE@XZ       0048ef90 f i HelpVerbs.obj
 0001:0008e019       ??0CFastScrollCtrl@@QAE@VCSkinObj@@PAVCSkinWnd@@H@Z 0048f019 f   inventorydlg.obj
 0001:0008e0c0       ??1CFastScrollCtrl@@UAE@XZ 0048f0c0 f   inventorydlg.obj
 0001:0008e13e       ?Refresh@CFastScrollCtrl@@UAEXXZ 0048f13e f   inventorydlg.obj
 0001:0008e149       ?GetCursor@CFastScrollCtrl@@UAEPAUHICON__@@XZ 0048f149 f   inventorydlg.obj
 0001:0008e169       ?SetScrollable@CFastScrollCtrl@@QAEXPAVCScrollable@@@Z 0048f169 f   inventorydlg.obj
 0001:0008e17f       ?Scroll@CFastScrollCtrl@@QAEXXZ 0048f17f f   inventorydlg.obj
 0001:0008e1d3       ?FromScreenPoint@CFastScrollCtrl@@SAPAV1@AAVCPoint@@@Z 0048f1d3 f   inventorydlg.obj
 0001:0008e413       ??0CInventoryDlg@@QAE@XZ   0048f413 f   inventorydlg.obj
 0001:0008e4d1       ??1CInventoryDlg@@UAE@XZ   0048f4d1 f   inventorydlg.obj
 0001:0008e5d8       ?EnableGameModal@CInventoryDlg@@UAEXHPAH@Z 0048f5d8 f   inventorydlg.obj
 0001:0008e60a       ?DisableGameModal@CInventoryDlg@@UAEXHPAH_N@Z 0048f60a f   inventorydlg.obj
 0001:0008e637       ?Create@CInventoryDlg@@QAEHVCSCI_WorldObject@@@Z 0048f637 f   inventorydlg.obj
 0001:0008eb9b       ?AddObject@CInventoryDlg@@QAEXVCSCI_WorldObject@@@Z 0048fb9b f   inventorydlg.obj
 0001:0008ecde       ?DelObject@CInventoryDlg@@QAEXVCSCI_WorldObject@@@Z 0048fcde f   inventorydlg.obj
 0001:0008ed26       ?UpdateObject@CInventoryDlg@@QAEXVCSCI_WorldObject@@@Z 0048fd26 f   inventorydlg.obj
 0001:0008eda6       ?UpdateObjectIcon@CInventoryDlg@@QAEXVCSCI_WorldObject@@H@Z 0048fda6 f   inventorydlg.obj
 0001:0008ee7d       ?FromObject@CInventoryDlg@@SAPAV1@VCSCI_WorldObject@@@Z 0048fe7d f   inventorydlg.obj
 0001:0008eecd       ?MakeSkinCtrl@CInventoryDlg@@UAEPAVCSkinCtrl@@VCSkinObj@@@Z 0048fecd f   inventorydlg.obj
 0001:0008f150       ??1?$map@VCSkinObj@@PAVCFastScrollCtrl@@U?$less@VCSkinObj@@@std@@V?$allocator@PAVCFastScrollCtrl@@@4@@std@@QAE@XZ 00490150 f i inventorydlg.obj
 0001:0008f170       ??_GCFastScrollCtrl@@UAEPAXI@Z 00490170 f i inventorydlg.obj
 0001:0008f170       ??_ECFastScrollCtrl@@UAEPAXI@Z 00490170 f i inventorydlg.obj
 0001:0008f1a0       ??1?$map@VCSCI_WorldObject@@PAVCInventoryDlg@@U?$less@VCSCI_WorldObject@@@std@@V?$allocator@PAVCInventoryDlg@@@4@@std@@QAE@XZ 004901a0 f i inventorydlg.obj
 0001:0008f1c0       ??_GCInventoryDlg@@UAEPAXI@Z 004901c0 f i inventorydlg.obj
 0001:0008f1c0       ??_ECInventoryDlg@@UAEPAXI@Z 004901c0 f i inventorydlg.obj
 0001:0008f1f0       ??0?$map@VCSkinObj@@PAVCFastScrollCtrl@@U?$less@VCSkinObj@@@std@@V?$allocator@PAVCFastScrollCtrl@@@4@@std@@QAE@ABU?$less@VCSkinObj@@@1@ABV?$allocator@PAVCFastScrollCtrl@@@1@@Z 004901f0 f i inventorydlg.obj
 0001:0008f220       ??A?$map@VCSkinObj@@PAVCFastScrollCtrl@@U?$less@VCSkinObj@@@std@@V?$allocator@PAVCFastScrollCtrl@@@4@@std@@QAEAAPAVCFastScrollCtrl@@ABVCSkinObj@@@Z 00490220 f i inventorydlg.obj
 0001:0008f2b0       ?erase@?$map@VCSkinObj@@PAVCFastScrollCtrl@@U?$less@VCSkinObj@@@std@@V?$allocator@PAVCFastScrollCtrl@@@4@@std@@QAEIABVCSkinObj@@@Z 004902b0 f i inventorydlg.obj
 0001:0008f2d0       ?find@?$map@VCSkinObj@@PAVCFastScrollCtrl@@U?$less@VCSkinObj@@@std@@V?$allocator@PAVCFastScrollCtrl@@@4@@std@@QAE?AViterator@?$_Tree@VCSkinObj@@U?$pair@$$CBVCSkinObj@@PAVCFastScrollCtrl@@@std@@U_Kfn@?$map@VCSkinObj@@PAVCFastScrollCtrl@@U?$less@VCSkinObj@@@std@@V?$allocator@PAVCFastScrollCtrl@@@4@@3@U?$less@VCSkinObj@@@3@V?$allocator@PAVCFastScrollCtrl@@@3@@2@ABVCSkinObj@@@Z 004902d0 f i inventorydlg.obj
 0001:0008f300       ??1?$_Tree@VCSkinObj@@U?$pair@$$CBVCSkinObj@@PAVCFastScrollCtrl@@@std@@U_Kfn@?$map@VCSkinObj@@PAVCFastScrollCtrl@@U?$less@VCSkinObj@@@std@@V?$allocator@PAVCFastScrollCtrl@@@4@@3@U?$less@VCSkinObj@@@3@V?$allocator@PAVCFastScrollCtrl@@@3@@std@@QAE@XZ 00490300 f i inventorydlg.obj
 0001:0008f3d0       ??0?$map@VCSCI_WorldObject@@PAVCInventoryDlg@@U?$less@VCSCI_WorldObject@@@std@@V?$allocator@PAVCInventoryDlg@@@4@@std@@QAE@ABU?$less@VCSCI_WorldObject@@@1@ABV?$allocator@PAVCInventoryDlg@@@1@@Z 004903d0 f i inventorydlg.obj
 0001:0008f400       ??A?$map@VCSCI_WorldObject@@PAVCInventoryDlg@@U?$less@VCSCI_WorldObject@@@std@@V?$allocator@PAVCInventoryDlg@@@4@@std@@QAEAAPAVCInventoryDlg@@ABVCSCI_WorldObject@@@Z 00490400 f i inventorydlg.obj
 0001:0008f450       ?erase@?$map@VCSCI_WorldObject@@PAVCInventoryDlg@@U?$less@VCSCI_WorldObject@@@std@@V?$allocator@PAVCInventoryDlg@@@4@@std@@QAEIABVCSCI_WorldObject@@@Z 00490450 f i inventorydlg.obj
 0001:0008f470       ?find@?$map@VCSCI_WorldObject@@PAVCInventoryDlg@@U?$less@VCSCI_WorldObject@@@std@@V?$allocator@PAVCInventoryDlg@@@4@@std@@QAE?AViterator@?$_Tree@VCSCI_WorldObject@@U?$pair@$$CBVCSCI_WorldObject@@PAVCInventoryDlg@@@std@@U_Kfn@?$map@VCSCI_WorldObject@@PAVCInventoryDlg@@U?$less@VCSCI_WorldObject@@@std@@V?$allocator@PAVCInventoryDlg@@@4@@3@U?$less@VCSCI_WorldObject@@@3@V?$allocator@PAVCInventoryDlg@@@3@@2@ABVCSCI_WorldObject@@@Z 00490470 f i inventorydlg.obj
 0001:0008f4a0       ??1?$_Tree@VCSCI_WorldObject@@U?$pair@$$CBVCSCI_WorldObject@@PAVCInventoryDlg@@@std@@U_Kfn@?$map@VCSCI_WorldObject@@PAVCInventoryDlg@@U?$less@VCSCI_WorldObject@@@std@@V?$allocator@PAVCInventoryDlg@@@4@@3@U?$less@VCSCI_WorldObject@@@3@V?$allocator@PAVCInventoryDlg@@@3@@std@@QAE@XZ 004904a0 f i inventorydlg.obj
 0001:0008f570       ??1?$list@PAVCInventoryDlg@@V?$allocator@PAVCInventoryDlg@@@std@@@std@@QAE@XZ 00490570 f i inventorydlg.obj
 0001:0008f5d0       ?push_back@?$list@PAVCInventoryDlg@@V?$allocator@PAVCInventoryDlg@@@std@@@std@@QAEXABQAVCInventoryDlg@@@Z 004905d0 f i inventorydlg.obj
 0001:0008f600       ?remove@?$list@PAVCInventoryDlg@@V?$allocator@PAVCInventoryDlg@@@std@@@std@@QAEXABQAVCInventoryDlg@@@Z 00490600 f i inventorydlg.obj
 0001:0008f680       ??Diterator@?$list@PAVCInventoryDlg@@V?$allocator@PAVCInventoryDlg@@@std@@@std@@QBEAAPAVCInventoryDlg@@XZ 00490680 f i inventorydlg.obj
 0001:0008f6a0       ?insert@?$map@VCSkinObj@@PAVCFastScrollCtrl@@U?$less@VCSkinObj@@@std@@V?$allocator@PAVCFastScrollCtrl@@@4@@std@@QAE?AU?$pair@Viterator@?$_Tree@VCSkinObj@@U?$pair@$$CBVCSkinObj@@PAVCFastScrollCtrl@@@std@@U_Kfn@?$map@VCSkinObj@@PAVCFastScrollCtrl@@U?$less@VCSkinObj@@@std@@V?$allocator@PAVCFastScrollCtrl@@@4@@3@U?$less@VCSkinObj@@@3@V?$allocator@PAVCFastScrollCtrl@@@3@@std@@_N@2@ABU?$pair@$$CBVCSkinObj@@PAVCFastScrollCtrl@@@2@@Z 004906a0 f i inventorydlg.obj
 0001:0008f6f0       ??0?$_Tree@VCSkinObj@@U?$pair@$$CBVCSkinObj@@PAVCFastScrollCtrl@@@std@@U_Kfn@?$map@VCSkinObj@@PAVCFastScrollCtrl@@U?$less@VCSkinObj@@@std@@V?$allocator@PAVCFastScrollCtrl@@@4@@3@U?$less@VCSkinObj@@@3@V?$allocator@PAVCFastScrollCtrl@@@3@@std@@QAE@ABU?$less@VCSkinObj@@@1@_NABV?$allocator@PAVCFastScrollCtrl@@@1@@Z 004906f0 f i inventorydlg.obj
 0001:0008f730       ?erase@?$_Tree@VCSkinObj@@U?$pair@$$CBVCSkinObj@@PAVCFastScrollCtrl@@@std@@U_Kfn@?$map@VCSkinObj@@PAVCFastScrollCtrl@@U?$less@VCSkinObj@@@std@@V?$allocator@PAVCFastScrollCtrl@@@4@@3@U?$less@VCSkinObj@@@3@V?$allocator@PAVCFastScrollCtrl@@@3@@std@@QAE?AViterator@12@V312@0@Z 00490730 f i inventorydlg.obj
 0001:0008f870       ?erase@?$_Tree@VCSkinObj@@U?$pair@$$CBVCSkinObj@@PAVCFastScrollCtrl@@@std@@U_Kfn@?$map@VCSkinObj@@PAVCFastScrollCtrl@@U?$less@VCSkinObj@@@std@@V?$allocator@PAVCFastScrollCtrl@@@4@@3@U?$less@VCSkinObj@@@3@V?$allocator@PAVCFastScrollCtrl@@@3@@std@@QAEIABVCSkinObj@@@Z 00490870 f i inventorydlg.obj
 0001:0008f8d0       ?find@?$_Tree@VCSkinObj@@U?$pair@$$CBVCSkinObj@@PAVCFastScrollCtrl@@@std@@U_Kfn@?$map@VCSkinObj@@PAVCFastScrollCtrl@@U?$less@VCSkinObj@@@std@@V?$allocator@PAVCFastScrollCtrl@@@4@@3@U?$less@VCSkinObj@@@3@V?$allocator@PAVCFastScrollCtrl@@@3@@std@@QAE?AViterator@12@ABVCSkinObj@@@Z 004908d0 f i inventorydlg.obj
 0001:0008f970       ??0?$pair@$$CBVCSkinObj@@PAVCSkinCtrl@@@std@@QAE@ABVCSkinObj@@ABQAVCSkinCtrl@@@Z 00490970 f i inventorydlg.obj
 0001:0008f970       ??0?$pair@$$CBVCSkinObj@@PAVCFastScrollCtrl@@@std@@QAE@ABVCSkinObj@@ABQAVCFastScrollCtrl@@@Z 00490970 f i inventorydlg.obj
 0001:0008f9a0       ?insert@?$map@VCSCI_WorldObject@@PAVCInventoryDlg@@U?$less@VCSCI_WorldObject@@@std@@V?$allocator@PAVCInventoryDlg@@@4@@std@@QAE?AU?$pair@Viterator@?$_Tree@VCSCI_WorldObject@@U?$pair@$$CBVCSCI_WorldObject@@PAVCInventoryDlg@@@std@@U_Kfn@?$map@VCSCI_WorldObject@@PAVCInventoryDlg@@U?$less@VCSCI_WorldObject@@@std@@V?$allocator@PAVCInventoryDlg@@@4@@3@U?$less@VCSCI_WorldObject@@@3@V?$allocator@PAVCInventoryDlg@@@3@@std@@_N@2@ABU?$pair@$$CBVCSCI_WorldObject@@PAVCInventoryDlg@@@2@@Z 004909a0 f i inventorydlg.obj
 0001:0008f9f0       ??0?$_Tree@VCSCI_WorldObject@@U?$pair@$$CBVCSCI_WorldObject@@PAVCInventoryDlg@@@std@@U_Kfn@?$map@VCSCI_WorldObject@@PAVCInventoryDlg@@U?$less@VCSCI_WorldObject@@@std@@V?$allocator@PAVCInventoryDlg@@@4@@3@U?$less@VCSCI_WorldObject@@@3@V?$allocator@PAVCInventoryDlg@@@3@@std@@QAE@ABU?$less@VCSCI_WorldObject@@@1@_NABV?$allocator@PAVCInventoryDlg@@@1@@Z 004909f0 f i inventorydlg.obj
 0001:0008fa30       ?erase@?$_Tree@VCSCI_WorldObject@@U?$pair@$$CBVCSCI_WorldObject@@PAVCInventoryDlg@@@std@@U_Kfn@?$map@VCSCI_WorldObject@@PAVCInventoryDlg@@U?$less@VCSCI_WorldObject@@@std@@V?$allocator@PAVCInventoryDlg@@@4@@3@U?$less@VCSCI_WorldObject@@@3@V?$allocator@PAVCInventoryDlg@@@3@@std@@QAE?AViterator@12@V312@0@Z 00490a30 f i inventorydlg.obj
 0001:0008fb70       ?erase@?$_Tree@VCSCI_WorldObject@@U?$pair@$$CBVCSCI_WorldObject@@PAVCInventoryDlg@@@std@@U_Kfn@?$map@VCSCI_WorldObject@@PAVCInventoryDlg@@U?$less@VCSCI_WorldObject@@@std@@V?$allocator@PAVCInventoryDlg@@@4@@3@U?$less@VCSCI_WorldObject@@@3@V?$allocator@PAVCInventoryDlg@@@3@@std@@QAEIABVCSCI_WorldObject@@@Z 00490b70 f i inventorydlg.obj
 0001:0008fbd0       ?find@?$_Tree@VCSCI_WorldObject@@U?$pair@$$CBVCSCI_WorldObject@@PAVCInventoryDlg@@@std@@U_Kfn@?$map@VCSCI_WorldObject@@PAVCInventoryDlg@@U?$less@VCSCI_WorldObject@@@std@@V?$allocator@PAVCInventoryDlg@@@4@@3@U?$less@VCSCI_WorldObject@@@3@V?$allocator@PAVCInventoryDlg@@@3@@std@@QAE?AViterator@12@ABVCSCI_WorldObject@@@Z 00490bd0 f i inventorydlg.obj
 0001:0008fc70       ??0?$pair@$$CBVCSCI_WorldObject@@PAVCInventoryDlg@@@std@@QAE@ABVCSCI_WorldObject@@ABQAVCInventoryDlg@@@Z 00490c70 f i inventorydlg.obj
 0001:0008fca0       ?erase@?$list@PAVCInventoryDlg@@V?$allocator@PAVCInventoryDlg@@@std@@@std@@QAE?AViterator@12@V312@@Z 00490ca0 f i inventorydlg.obj
 0001:0008fd60       ?erase@?$list@PAVCInventoryDlg@@V?$allocator@PAVCInventoryDlg@@@std@@@std@@QAE?AViterator@12@V312@0@Z 00490d60 f i inventorydlg.obj
 0001:0008fdb0       ?_Freenode@?$list@PAVCInventoryDlg@@V?$allocator@PAVCInventoryDlg@@@std@@@std@@IAEXPAU_Node@12@@Z 00490db0 f i inventorydlg.obj
 0001:0008fdb0       ?_Freenode@?$_Tree@VCSCI_WorldObject@@U?$pair@$$CBVCSCI_WorldObject@@PAVCInventoryDlg@@@std@@U_Kfn@?$map@VCSCI_WorldObject@@PAVCInventoryDlg@@U?$less@VCSCI_WorldObject@@@std@@V?$allocator@PAVCInventoryDlg@@@4@@3@U?$less@VCSCI_WorldObject@@@3@V?$allocator@PAVCInventoryDlg@@@3@@std@@IAEXPAU_Node@12@@Z 00490db0 f i inventorydlg.obj
 0001:0008fdd0       ??R?$less@VCSkinObj@@@std@@QBE_NABVCSkinObj@@0@Z 00490dd0 f i inventorydlg.obj
 0001:0008fdf0       ?insert@?$_Tree@VCSkinObj@@U?$pair@$$CBVCSkinObj@@PAVCFastScrollCtrl@@@std@@U_Kfn@?$map@VCSkinObj@@PAVCFastScrollCtrl@@U?$less@VCSkinObj@@@std@@V?$allocator@PAVCFastScrollCtrl@@@4@@3@U?$less@VCSkinObj@@@3@V?$allocator@PAVCFastScrollCtrl@@@3@@std@@QAE?AU?$pair@Viterator@?$_Tree@VCSkinObj@@U?$pair@$$CBVCSkinObj@@PAVCFastScrollCtrl@@@std@@U_Kfn@?$map@VCSkinObj@@PAVCFastScrollCtrl@@U?$less@VCSkinObj@@@std@@V?$allocator@PAVCFastScrollCtrl@@@4@@3@U?$less@VCSkinObj@@@3@V?$allocator@PAVCFastScrollCtrl@@@3@@std@@_N@2@ABU?$pair@$$CBVCSkinObj@@PAVCFastScrollCtrl@@@2@@Z 00490df0 f i inventorydlg.obj
 0001:00090030       ?erase@?$_Tree@VCSkinObj@@U?$pair@$$CBVCSkinObj@@PAVCFastScrollCtrl@@@std@@U_Kfn@?$map@VCSkinObj@@PAVCFastScrollCtrl@@U?$less@VCSkinObj@@@std@@V?$allocator@PAVCFastScrollCtrl@@@4@@3@U?$less@VCSkinObj@@@3@V?$allocator@PAVCFastScrollCtrl@@@3@@std@@QAE?AViterator@12@V312@@Z 00491030 f i inventorydlg.obj
 0001:00090880       ?lower_bound@?$_Tree@VCSkinObj@@U?$pair@$$CBVCSkinObj@@PAVCFastScrollCtrl@@@std@@U_Kfn@?$map@VCSkinObj@@PAVCFastScrollCtrl@@U?$less@VCSkinObj@@@std@@V?$allocator@PAVCFastScrollCtrl@@@4@@3@U?$less@VCSkinObj@@@3@V?$allocator@PAVCFastScrollCtrl@@@3@@std@@QAE?AViterator@12@ABVCSkinObj@@@Z 00491880 f i inventorydlg.obj
 0001:000908b0       ?equal_range@?$_Tree@VCSkinObj@@U?$pair@$$CBVCSkinObj@@PAVCFastScrollCtrl@@@std@@U_Kfn@?$map@VCSkinObj@@PAVCFastScrollCtrl@@U?$less@VCSkinObj@@@std@@V?$allocator@PAVCFastScrollCtrl@@@4@@3@U?$less@VCSkinObj@@@3@V?$allocator@PAVCFastScrollCtrl@@@3@@std@@QAE?AU?$pair@Viterator@?$_Tree@VCSkinObj@@U?$pair@$$CBVCSkinObj@@PAVCFastScrollCtrl@@@std@@U_Kfn@?$map@VCSkinObj@@PAVCFastScrollCtrl@@U?$less@VCSkinObj@@@std@@V?$allocator@PAVCFastScrollCtrl@@@4@@3@U?$less@VCSkinObj@@@3@V?$allocator@PAVCFastScrollCtrl@@@3@@std@@V123@@2@ABVCSkinObj@@@Z 004918b0 f i inventorydlg.obj
 0001:00090900       ?_Erase@?$_Tree@VCSkinObj@@U?$pair@$$CBVCSkinObj@@PAVCFastScrollCtrl@@@std@@U_Kfn@?$map@VCSkinObj@@PAVCFastScrollCtrl@@U?$less@VCSkinObj@@@std@@V?$allocator@PAVCFastScrollCtrl@@@4@@3@U?$less@VCSkinObj@@@3@V?$allocator@PAVCFastScrollCtrl@@@3@@std@@IAEXPAU_Node@12@@Z 00491900 f i inventorydlg.obj
 0001:000909c0       ?_Init@?$_Tree@VCSkinObj@@U?$pair@$$CBVCSkinObj@@PAVCFastScrollCtrl@@@std@@U_Kfn@?$map@VCSkinObj@@PAVCFastScrollCtrl@@U?$less@VCSkinObj@@@std@@V?$allocator@PAVCFastScrollCtrl@@@4@@3@U?$less@VCSkinObj@@@3@V?$allocator@PAVCFastScrollCtrl@@@3@@std@@IAEXXZ 004919c0 f i inventorydlg.obj
 0001:00090aa0       ??Eiterator@?$_Tree@VCSkinObj@@U?$pair@$$CBVCSkinObj@@PAVCFastScrollCtrl@@@std@@U_Kfn@?$map@VCSkinObj@@PAVCFastScrollCtrl@@U?$less@VCSkinObj@@@std@@V?$allocator@PAVCFastScrollCtrl@@@4@@3@U?$less@VCSkinObj@@@3@V?$allocator@PAVCFastScrollCtrl@@@3@@std@@QAE?AV012@H@Z 00491aa0 f i inventorydlg.obj
 0001:00090ad0       ??R?$less@VCSCI_WorldObject@@@std@@QBE_NABVCSCI_WorldObject@@0@Z 00491ad0 f i inventorydlg.obj
 0001:00090ad0       ??R?$less@VCSCI_Object@@@std@@QBE_NABVCSCI_Object@@0@Z 00491ad0 f i inventorydlg.obj
 0001:00090b10       ?ScreenToClient@CWnd@@QBEXPAUtagPOINT@@@Z 00491b10 f i inventorydlg.obj
 0001:00090b30       ?insert@?$_Tree@VCSCI_WorldObject@@U?$pair@$$CBVCSCI_WorldObject@@PAVCInventoryDlg@@@std@@U_Kfn@?$map@VCSCI_WorldObject@@PAVCInventoryDlg@@U?$less@VCSCI_WorldObject@@@std@@V?$allocator@PAVCInventoryDlg@@@4@@3@U?$less@VCSCI_WorldObject@@@3@V?$allocator@PAVCInventoryDlg@@@3@@std@@QAE?AU?$pair@Viterator@?$_Tree@VCSCI_WorldObject@@U?$pair@$$CBVCSCI_WorldObject@@PAVCInventoryDlg@@@std@@U_Kfn@?$map@VCSCI_WorldObject@@PAVCInventoryDlg@@U?$less@VCSCI_WorldObject@@@std@@V?$allocator@PAVCInventoryDlg@@@4@@3@U?$less@VCSCI_WorldObject@@@3@V?$allocator@PAVCInventoryDlg@@@3@@std@@_N@2@ABU?$pair@$$CBVCSCI_WorldObject@@PAVCInventoryDlg@@@2@@Z 00491b30 f i inventorydlg.obj
 0001:00090d70       ?erase@?$_Tree@VCSCI_WorldObject@@U?$pair@$$CBVCSCI_WorldObject@@PAVCInventoryDlg@@@std@@U_Kfn@?$map@VCSCI_WorldObject@@PAVCInventoryDlg@@U?$less@VCSCI_WorldObject@@@std@@V?$allocator@PAVCInventoryDlg@@@4@@3@U?$less@VCSCI_WorldObject@@@3@V?$allocator@PAVCInventoryDlg@@@3@@std@@QAE?AViterator@12@V312@@Z 00491d70 f i inventorydlg.obj
 0001:000915c0       ?lower_bound@?$_Tree@VCSCI_WorldObject@@U?$pair@$$CBVCSCI_WorldObject@@PAVCInventoryDlg@@@std@@U_Kfn@?$map@VCSCI_WorldObject@@PAVCInventoryDlg@@U?$less@VCSCI_WorldObject@@@std@@V?$allocator@PAVCInventoryDlg@@@4@@3@U?$less@VCSCI_WorldObject@@@3@V?$allocator@PAVCInventoryDlg@@@3@@std@@QAE?AViterator@12@ABVCSCI_WorldObject@@@Z 004925c0 f i inventorydlg.obj
 0001:000915f0       ?equal_range@?$_Tree@VCSCI_WorldObject@@U?$pair@$$CBVCSCI_WorldObject@@PAVCInventoryDlg@@@std@@U_Kfn@?$map@VCSCI_WorldObject@@PAVCInventoryDlg@@U?$less@VCSCI_WorldObject@@@std@@V?$allocator@PAVCInventoryDlg@@@4@@3@U?$less@VCSCI_WorldObject@@@3@V?$allocator@PAVCInventoryDlg@@@3@@std@@QAE?AU?$pair@Viterator@?$_Tree@VCSCI_WorldObject@@U?$pair@$$CBVCSCI_WorldObject@@PAVCInventoryDlg@@@std@@U_Kfn@?$map@VCSCI_WorldObject@@PAVCInventoryDlg@@U?$less@VCSCI_WorldObject@@@std@@V?$allocator@PAVCInventoryDlg@@@4@@3@U?$less@VCSCI_WorldObject@@@3@V?$allocator@PAVCInventoryDlg@@@3@@std@@V123@@2@ABVCSCI_WorldObject@@@Z 004925f0 f i inventorydlg.obj
 0001:00091640       ?_Erase@?$_Tree@VCSCI_WorldObject@@U?$pair@$$CBVCSCI_WorldObject@@PAVCInventoryDlg@@@std@@U_Kfn@?$map@VCSCI_WorldObject@@PAVCInventoryDlg@@U?$less@VCSCI_WorldObject@@@std@@V?$allocator@PAVCInventoryDlg@@@4@@3@U?$less@VCSCI_WorldObject@@@3@V?$allocator@PAVCInventoryDlg@@@3@@std@@IAEXPAU_Node@12@@Z 00492640 f i inventorydlg.obj
 0001:00091700       ?_Init@?$_Tree@VCSCI_WorldObject@@U?$pair@$$CBVCSCI_WorldObject@@PAVCInventoryDlg@@@std@@U_Kfn@?$map@VCSCI_WorldObject@@PAVCInventoryDlg@@U?$less@VCSCI_WorldObject@@@std@@V?$allocator@PAVCInventoryDlg@@@4@@3@U?$less@VCSCI_WorldObject@@@3@V?$allocator@PAVCInventoryDlg@@@3@@std@@IAEXXZ 00492700 f i inventorydlg.obj
 0001:000917e0       ??Eiterator@?$_Tree@VCSCI_WorldObject@@U?$pair@$$CBVCSCI_WorldObject@@PAVCInventoryDlg@@@std@@U_Kfn@?$map@VCSCI_WorldObject@@PAVCInventoryDlg@@U?$less@VCSCI_WorldObject@@@std@@V?$allocator@PAVCInventoryDlg@@@4@@3@U?$less@VCSCI_WorldObject@@@3@V?$allocator@PAVCInventoryDlg@@@3@@std@@QAE?AV012@H@Z 004927e0 f i inventorydlg.obj
 0001:00091810       ??0?$pair@Viterator@?$_Tree@VCSCI_Object@@U?$pair@$$CBVCSCI_Object@@PAVCNoButtonDlg@@@std@@U_Kfn@?$map@VCSCI_Object@@PAVCNoButtonDlg@@U?$less@VCSCI_Object@@@std@@V?$allocator@PAVCNoButtonDlg@@@4@@3@U?$less@VCSCI_Object@@@3@V?$allocator@PAVCNoButtonDlg@@@3@@std@@_N@std@@QAE@ABViterator@?$_Tree@VCSCI_Object@@U?$pair@$$CBVCSCI_Object@@PAVCNoButtonDlg@@@std@@U_Kfn@?$map@VCSCI_Object@@PAVCNoButtonDlg@@U?$less@VCSCI_Object@@@std@@V?$allocator@PAVCNoButtonDlg@@@4@@3@U?$less@VCSCI_Object@@@3@V?$allocator@PAVCNoButtonDlg@@@3@@1@AB_N@Z 00492810 f i inventorydlg.obj
 0001:00091810       ??0?$pair@Viterator@?$_Tree@V?$basic_string@DU?$char_traits@D@std@@V?$allocator@D@2@@std@@U?$pair@$$CBV?$basic_string@DU?$char_traits@D@std@@V?$allocator@D@2@@std@@PAVCPrivateTell@@@2@U_Kfn@?$map@V?$basic_string@DU?$char_traits@D@std@@V?$allocator@D@2@@std@@PAVCPrivateTell@@U?$less@V?$basic_string@DU?$char_traits@D@std@@V?$allocator@D@2@@std@@@2@V?$allocator@PAVCPrivateTell@@@2@@2@U?$less@V?$basic_string@DU?$char_traits@D@std@@V?$allocator@D@2@@std@@@2@V?$allocator@PAVCPrivateTell@@@2@@std@@_N@std@@QAE@ABViterator@?$_Tree@V?$basic_string@DU?$char_traits@D@std@@V?$allocator@D@2@@std@@U?$pair@$$CBV?$basic_string@DU?$char_traits@D@std@@V?$allocator@D@2@@std@@PAVCPrivateTell@@@2@U_Kfn@?$map@V?$basic_string@DU?$char_traits@D@std@@V?$allocator@D@2@@std@@PAVCPrivateTell@@U?$less@V?$basic_string@DU?$char_traits@D@std@@V?$allocator@D@2@@std@@@2@V?$allocator@PAVCPrivateTell@@@2@@2@U?$less@V?$basic_string@DU?$char_traits@D@std@@V?$allocator@D@2@@std@@@2@V?$allocator@PAVCPrivateTell@@@2@@1@AB_N@Z 00492810 f i inventorydlg.obj
 0001:00091810       ??0?$pair@Viterator@?$_Tree@HU?$pair@$$CBHPAVCMailMsgWnd@@@std@@U_Kfn@?$map@HPAVCMailMsgWnd@@U?$less@H@std@@V?$allocator@PAVCMailMsgWnd@@@3@@2@U?$less@H@2@V?$allocator@PAVCMailMsgWnd@@@2@@std@@_N@std@@QAE@ABViterator@?$_Tree@HU?$pair@$$CBHPAVCMailMsgWnd@@@std@@U_Kfn@?$map@HPAVCMailMsgWnd@@U?$less@H@std@@V?$allocator@PAVCMailMsgWnd@@@3@@2@U?$less@H@2@V?$allocator@PAVCMailMsgWnd@@@2@@1@AB_N@Z 00492810 f i inventorydlg.obj
 0001:00091810       ??0?$pair@Viterator@?$_Tree@VCSkinObj@@U?$pair@$$CBVCSkinObj@@PAVCFastScrollCtrl@@@std@@U_Kfn@?$map@VCSkinObj@@PAVCFastScrollCtrl@@U?$less@VCSkinObj@@@std@@V?$allocator@PAVCFastScrollCtrl@@@4@@3@U?$less@VCSkinObj@@@3@V?$allocator@PAVCFastScrollCtrl@@@3@@std@@_N@std@@QAE@ABViterator@?$_Tree@VCSkinObj@@U?$pair@$$CBVCSkinObj@@PAVCFastScrollCtrl@@@std@@U_Kfn@?$map@VCSkinObj@@PAVCFastScrollCtrl@@U?$less@VCSkinObj@@@std@@V?$allocator@PAVCFastScrollCtrl@@@4@@3@U?$less@VCSkinObj@@@3@V?$allocator@PAVCFastScrollCtrl@@@3@@1@AB_N@Z 00492810 f i inventorydlg.obj
 0001:00091810       ??0?$pair@Viterator@?$_Tree@HU?$pair@$$CBHVCSCI_WorldObject@@@std@@U_Kfn@?$map@HVCSCI_WorldObject@@U?$less@H@std@@V?$allocator@VCSCI_WorldObject@@@3@@2@U?$less@H@2@V?$allocator@VCSCI_WorldObject@@@2@@std@@_N@std@@QAE@ABViterator@?$_Tree@HU?$pair@$$CBHVCSCI_WorldObject@@@std@@U_Kfn@?$map@HVCSCI_WorldObject@@U?$less@H@std@@V?$allocator@VCSCI_WorldObject@@@3@@2@U?$less@H@2@V?$allocator@VCSCI_WorldObject@@@2@@1@AB_N@Z 00492810 f i inventorydlg.obj
 0001:00091810       ??0?$pair@Viterator@?$_Tree@PAUHWND__@@U?$pair@QAUHWND__@@PAVCDropTarget@@@std@@U_Kfn@?$map@PAUHWND__@@PAVCDropTarget@@U?$less@PAUHWND__@@@std@@V?$allocator@PAVCDropTarget@@@4@@3@U?$less@PAUHWND__@@@3@V?$allocator@PAVCDropTarget@@@3@@std@@_N@std@@QAE@ABViterator@?$_Tree@PAUHWND__@@U?$pair@QAUHWND__@@PAVCDropTarget@@@std@@U_Kfn@?$map@PAUHWND__@@PAVCDropTarget@@U?$less@PAUHWND__@@@std@@V?$allocator@PAVCDropTarget@@@4@@3@U?$less@PAUHWND__@@@3@V?$allocator@PAVCDropTarget@@@3@@1@AB_N@Z 00492810 f i inventorydlg.obj
 0001:00091810       ??0?$pair@Viterator@?$_Tree@VCSkinObj@@U?$pair@$$CBVCSkinObj@@PAVCSkinCtrl@@@std@@U_Kfn@?$map@VCSkinObj@@PAVCSkinCtrl@@U?$less@VCSkinObj@@@std@@V?$allocator@PAVCSkinCtrl@@@4@@3@U?$less@VCSkinObj@@@3@V?$allocator@PAVCSkinCtrl@@@3@@std@@_N@std@@QAE@ABViterator@?$_Tree@VCSkinObj@@U?$pair@$$CBVCSkinObj@@PAVCSkinCtrl@@@std@@U_Kfn@?$map@VCSkinObj@@PAVCSkinCtrl@@U?$less@VCSkinObj@@@std@@V?$allocator@PAVCSkinCtrl@@@4@@3@U?$less@VCSkinObj@@@3@V?$allocator@PAVCSkinCtrl@@@3@@1@AB_N@Z 00492810 f i inventorydlg.obj
 0001:00091810       ??0?$pair@Viterator@?$_Tree@PAVCSkinWnd@@PAV1@U_Kfn@?$set@PAVCSkinWnd@@U?$less@PAVCSkinWnd@@@std@@V?$allocator@PAVCSkinWnd@@@3@@std@@U?$less@PAVCSkinWnd@@@4@V?$allocator@PAVCSkinWnd@@@4@@std@@_N@std@@QAE@ABViterator@?$_Tree@PAVCSkinWnd@@PAV1@U_Kfn@?$set@PAVCSkinWnd@@U?$less@PAVCSkinWnd@@@std@@V?$allocator@PAVCSkinWnd@@@3@@std@@U?$less@PAVCSkinWnd@@@4@V?$allocator@PAVCSkinWnd@@@4@@1@AB_N@Z 00492810 f i inventorydlg.obj
 0001:00091810       ??0?$pair@Viterator@?$_Tree@HU?$pair@$$CBHPAVCVerbBtn@@@std@@U_Kfn@?$map@HPAVCVerbBtn@@U?$less@H@std@@V?$allocator@PAVCVerbBtn@@@3@@2@U?$less@H@2@V?$allocator@PAVCVerbBtn@@@2@@std@@_N@std@@QAE@ABViterator@?$_Tree@HU?$pair@$$CBHPAVCVerbBtn@@@std@@U_Kfn@?$map@HPAVCVerbBtn@@U?$less@H@std@@V?$allocator@PAVCVerbBtn@@@3@@2@U?$less@H@2@V?$allocator@PAVCVerbBtn@@@2@@1@AB_N@Z 00492810 f i inventorydlg.obj
 0001:00091810       ??0?$pair@Viterator@?$_Tree@HU?$pair@$$CBHPAVCMailMsg@@@std@@U_Kfn@?$map@HPAVCMailMsg@@U?$less@H@std@@V?$allocator@PAVCMailMsg@@@3@@2@U?$less@H@2@V?$allocator@PAVCMailMsg@@@2@@std@@_N@std@@QAE@ABViterator@?$_Tree@HU?$pair@$$CBHPAVCMailMsg@@@std@@U_Kfn@?$map@HPAVCMailMsg@@U?$less@H@std@@V?$allocator@PAVCMailMsg@@@3@@2@U?$less@H@2@V?$allocator@PAVCMailMsg@@@2@@1@AB_N@Z 00492810 f i inventorydlg.obj
 0001:00091810       ??0?$pair@Viterator@?$_Tree@HU?$pair@$$CBHPAVCVerb@@@std@@U_Kfn@?$map@HPAVCVerb@@U?$less@H@std@@V?$allocator@PAVCVerb@@@3@@2@U?$less@H@2@V?$allocator@PAVCVerb@@@2@@std@@_N@std@@QAE@ABViterator@?$_Tree@HU?$pair@$$CBHPAVCVerb@@@std@@U_Kfn@?$map@HPAVCVerb@@U?$less@H@std@@V?$allocator@PAVCVerb@@@3@@2@U?$less@H@2@V?$allocator@PAVCVerb@@@2@@1@AB_N@Z 00492810 f i inventorydlg.obj
 0001:00091810       ??0?$pair@Viterator@?$_Tree@PAVCSkinCtrl@@PAV1@U_Kfn@?$set@PAVCSkinCtrl@@U?$less@PAVCSkinCtrl@@@std@@V?$allocator@PAVCSkinCtrl@@@3@@std@@U?$less@PAVCSkinCtrl@@@4@V?$allocator@PAVCSkinCtrl@@@4@@std@@_N@std@@QAE@ABViterator@?$_Tree@PAVCSkinCtrl@@PAV1@U_Kfn@?$set@PAVCSkinCtrl@@U?$less@PAVCSkinCtrl@@@std@@V?$allocator@PAVCSkinCtrl@@@3@@std@@U?$less@PAVCSkinCtrl@@@4@V?$allocator@PAVCSkinCtrl@@@4@@1@AB_N@Z 00492810 f i inventorydlg.obj
 0001:00091810       ??0?$pair@Viterator@?$_Tree@PAUHWND__@@U?$pair@QAUHWND__@@PAVCMouseWheelable@@@std@@U_Kfn@?$map@PAUHWND__@@PAVCMouseWheelable@@U?$less@PAUHWND__@@@std@@V?$allocator@PAVCMouseWheelable@@@4@@3@U?$less@PAUHWND__@@@3@V?$allocator@PAVCMouseWheelable@@@3@@std@@_N@std@@QAE@ABViterator@?$_Tree@PAUHWND__@@U?$pair@QAUHWND__@@PAVCMouseWheelable@@@std@@U_Kfn@?$map@PAUHWND__@@PAVCMouseWheelable@@U?$less@PAUHWND__@@@std@@V?$allocator@PAVCMouseWheelable@@@4@@3@U?$less@PAUHWND__@@@3@V?$allocator@PAVCMouseWheelable@@@3@@1@AB_N@Z 00492810 f i inventorydlg.obj
 0001:00091810       ??0?$pair@Viterator@?$_Tree@V?$basic_string@DU?$char_traits@D@std@@V?$allocator@D@2@@std@@U?$pair@$$CBV?$basic_string@DU?$char_traits@D@std@@V?$allocator@D@2@@std@@VCPoint@@@2@U_Kfn@?$map@V?$basic_string@DU?$char_traits@D@std@@V?$allocator@D@2@@std@@VCPoint@@U?$less@V?$basic_string@DU?$char_traits@D@std@@V?$allocator@D@2@@std@@@2@V?$allocator@VCPoint@@@2@@2@U?$less@V?$basic_string@DU?$char_traits@D@std@@V?$allocator@D@2@@std@@@2@V?$allocator@VCPoint@@@2@@std@@_N@std@@QAE@ABViterator@?$_Tree@V?$basic_string@DU?$char_traits@D@std@@V?$allocator@D@2@@std@@U?$pair@$$CBV?$basic_string@DU?$char_traits@D@std@@V?$allocator@D@2@@std@@VCPoint@@@2@U_Kfn@?$map@V?$basic_string@DU?$char_traits@D@std@@V?$allocator@D@2@@std@@VCPoint@@U?$less@V?$basic_string@DU?$char_traits@D@std@@V?$allocator@D@2@@std@@@2@V?$allocator@VCPoint@@@2@@2@U?$less@V?$basic_string@DU?$char_traits@D@std@@V?$allocator@D@2@@std@@@2@V?$allocator@VCPoint@@@2@@1@AB_N@Z 00492810 f i inventorydlg.obj
 0001:00091810       ??0?$pair@Viterator@?$_Tree@V?$basic_string@DU?$char_traits@D@std@@V?$allocator@D@2@@std@@U?$pair@$$CBV?$basic_string@DU?$char_traits@D@std@@V?$allocator@D@2@@std@@H@2@U_Kfn@?$map@V?$basic_string@DU?$char_traits@D@std@@V?$allocator@D@2@@std@@HU?$less@V?$basic_string@DU?$char_traits@D@std@@V?$allocator@D@2@@std@@@2@V?$allocator@H@2@@2@U?$less@V?$basic_string@DU?$char_traits@D@std@@V?$allocator@D@2@@std@@@2@V?$allocator@H@2@@std@@_N@std@@QAE@ABViterator@?$_Tree@V?$basic_string@DU?$char_traits@D@std@@V?$allocator@D@2@@std@@U?$pair@$$CBV?$basic_string@DU?$char_traits@D@std@@V?$allocator@D@2@@std@@H@2@U_Kfn@?$map@V?$basic_string@DU?$char_traits@D@std@@V?$allocator@D@2@@std@@HU?$less@V?$basic_string@DU?$char_traits@D@std@@V?$allocator@D@2@@std@@@2@V?$allocator@H@2@@2@U?$less@V?$basic_string@DU?$char_traits@D@std@@V?$allocator@D@2@@std@@@2@V?$allocator@H@2@@1@AB_N@Z 00492810 f i inventorydlg.obj
 0001:00091810       ??0?$pair@Viterator@?$_Tree@PAUHWND__@@U?$pair@QAUHWND__@@PAVCSkinWnd@@@std@@U_Kfn@?$map@PAUHWND__@@PAVCSkinWnd@@U?$less@PAUHWND__@@@std@@V?$allocator@PAVCSkinWnd@@@4@@3@U?$less@PAUHWND__@@@3@V?$allocator@PAVCSkinWnd@@@3@@std@@_N@std@@QAE@ABViterator@?$_Tree@PAUHWND__@@U?$pair@QAUHWND__@@PAVCSkinWnd@@@std@@U_Kfn@?$map@PAUHWND__@@PAVCSkinWnd@@U?$less@PAUHWND__@@@std@@V?$allocator@PAVCSkinWnd@@@4@@3@U?$less@PAUHWND__@@@3@V?$allocator@PAVCSkinWnd@@@3@@1@AB_N@Z 00492810 f i inventorydlg.obj
 0001:00091810       ??0?$pair@Viterator@?$_Tree@VCString@@U?$pair@$$CBVCString@@VCPerson@@@std@@U_Kfn@?$map@VCString@@VCPerson@@U?$less@VCString@@@std@@V?$allocator@VCPerson@@@4@@3@U?$less@VCString@@@3@V?$allocator@VCPerson@@@3@@std@@_N@std@@QAE@ABViterator@?$_Tree@VCString@@U?$pair@$$CBVCString@@VCPerson@@@std@@U_Kfn@?$map@VCString@@VCPerson@@U?$less@VCString@@@std@@V?$allocator@VCPerson@@@4@@3@U?$less@VCString@@@3@V?$allocator@VCPerson@@@3@@1@AB_N@Z 00492810 f i inventorydlg.obj
 0001:00091810       ??0?$pair@Viterator@?$_Tree@VCSCI_WorldObject@@U?$pair@$$CBVCSCI_WorldObject@@PAVCInventoryDlg@@@std@@U_Kfn@?$map@VCSCI_WorldObject@@PAVCInventoryDlg@@U?$less@VCSCI_WorldObject@@@std@@V?$allocator@PAVCInventoryDlg@@@4@@3@U?$less@VCSCI_WorldObject@@@3@V?$allocator@PAVCInventoryDlg@@@3@@std@@_N@std@@QAE@ABViterator@?$_Tree@VCSCI_WorldObject@@U?$pair@$$CBVCSCI_WorldObject@@PAVCInventoryDlg@@@std@@U_Kfn@?$map@VCSCI_WorldObject@@PAVCInventoryDlg@@U?$less@VCSCI_WorldObject@@@std@@V?$allocator@PAVCInventoryDlg@@@4@@3@U?$less@VCSCI_WorldObject@@@3@V?$allocator@PAVCInventoryDlg@@@3@@1@AB_N@Z 00492810 f i inventorydlg.obj
 0001:00091840       ?_Color@?$_Tree@VCSkinObj@@U?$pair@$$CBVCSkinObj@@PAVCFastScrollCtrl@@@std@@U_Kfn@?$map@VCSkinObj@@PAVCFastScrollCtrl@@U?$less@VCSkinObj@@@std@@V?$allocator@PAVCFastScrollCtrl@@@4@@3@U?$less@VCSkinObj@@@3@V?$allocator@PAVCFastScrollCtrl@@@3@@std@@KAAAW4_Redbl@12@PAU_Node@12@@Z 00492840 f i inventorydlg.obj
 0001:00091840       ?_Color@?$_Tree@VCSkinObj@@U?$pair@$$CBVCSkinObj@@PAVCSkinCtrl@@@std@@U_Kfn@?$map@VCSkinObj@@PAVCSkinCtrl@@U?$less@VCSkinObj@@@std@@V?$allocator@PAVCSkinCtrl@@@4@@3@U?$less@VCSkinObj@@@3@V?$allocator@PAVCSkinCtrl@@@3@@std@@KAAAW4_Redbl@12@PAU_Node@12@@Z 00492840 f i inventorydlg.obj
 0001:00091850       ?upper_bound@?$_Tree@VCSkinObj@@U?$pair@$$CBVCSkinObj@@PAVCFastScrollCtrl@@@std@@U_Kfn@?$map@VCSkinObj@@PAVCFastScrollCtrl@@U?$less@VCSkinObj@@@std@@V?$allocator@PAVCFastScrollCtrl@@@4@@3@U?$less@VCSkinObj@@@3@V?$allocator@PAVCFastScrollCtrl@@@3@@std@@QAE?AViterator@12@ABVCSkinObj@@@Z 00492850 f i inventorydlg.obj
 0001:00091880       ?_Insert@?$_Tree@VCSkinObj@@U?$pair@$$CBVCSkinObj@@PAVCFastScrollCtrl@@@std@@U_Kfn@?$map@VCSkinObj@@PAVCFastScrollCtrl@@U?$less@VCSkinObj@@@std@@V?$allocator@PAVCFastScrollCtrl@@@4@@3@U?$less@VCSkinObj@@@3@V?$allocator@PAVCFastScrollCtrl@@@3@@std@@IAE?AViterator@12@PAU_Node@12@0ABU?$pair@$$CBVCSkinObj@@PAVCFastScrollCtrl@@@2@@Z 00492880 f i inventorydlg.obj
 0001:00091d50       ?_Lbound@?$_Tree@VCSkinObj@@U?$pair@$$CBVCSkinObj@@PAVCFastScrollCtrl@@@std@@U_Kfn@?$map@VCSkinObj@@PAVCFastScrollCtrl@@U?$less@VCSkinObj@@@std@@V?$allocator@PAVCFastScrollCtrl@@@4@@3@U?$less@VCSkinObj@@@3@V?$allocator@PAVCFastScrollCtrl@@@3@@std@@IBEPAU_Node@12@ABVCSkinObj@@@Z 00492d50 f i inventorydlg.obj
 0001:00091e20       ?_Lrotate@?$_Tree@VCSkinObj@@U?$pair@$$CBVCSkinObj@@PAVCFastScrollCtrl@@@std@@U_Kfn@?$map@VCSkinObj@@PAVCFastScrollCtrl@@U?$less@VCSkinObj@@@std@@V?$allocator@PAVCFastScrollCtrl@@@4@@3@U?$less@VCSkinObj@@@3@V?$allocator@PAVCFastScrollCtrl@@@3@@std@@IAEXPAU_Node@12@@Z 00492e20 f i inventorydlg.obj
 0001:00091f90       ?_Max@?$_Tree@VCSkinObj@@U?$pair@$$CBVCSkinObj@@PAVCFastScrollCtrl@@@std@@U_Kfn@?$map@VCSkinObj@@PAVCFastScrollCtrl@@U?$less@VCSkinObj@@@std@@V?$allocator@PAVCFastScrollCtrl@@@4@@3@U?$less@VCSkinObj@@@3@V?$allocator@PAVCFastScrollCtrl@@@3@@std@@KAPAU_Node@12@PAU312@@Z 00492f90 f i inventorydlg.obj
 0001:00092010       ?_Min@?$_Tree@VCSkinObj@@U?$pair@$$CBVCSkinObj@@PAVCFastScrollCtrl@@@std@@U_Kfn@?$map@VCSkinObj@@PAVCFastScrollCtrl@@U?$less@VCSkinObj@@@std@@V?$allocator@PAVCFastScrollCtrl@@@4@@3@U?$less@VCSkinObj@@@3@V?$allocator@PAVCFastScrollCtrl@@@3@@std@@KAPAU_Node@12@PAU312@@Z 00493010 f i inventorydlg.obj
 0001:00092090       ?_Rrotate@?$_Tree@VCSkinObj@@U?$pair@$$CBVCSkinObj@@PAVCFastScrollCtrl@@@std@@U_Kfn@?$map@VCSkinObj@@PAVCFastScrollCtrl@@U?$less@VCSkinObj@@@std@@V?$allocator@PAVCFastScrollCtrl@@@4@@3@U?$less@VCSkinObj@@@3@V?$allocator@PAVCFastScrollCtrl@@@3@@std@@IAEXPAU_Node@12@@Z 00493090 f i inventorydlg.obj
 0001:00092200       ??Eiterator@?$_Tree@VCSkinObj@@U?$pair@$$CBVCSkinObj@@PAVCFastScrollCtrl@@@std@@U_Kfn@?$map@VCSkinObj@@PAVCFastScrollCtrl@@U?$less@VCSkinObj@@@std@@V?$allocator@PAVCFastScrollCtrl@@@4@@3@U?$less@VCSkinObj@@@3@V?$allocator@PAVCFastScrollCtrl@@@3@@std@@QAEAAV012@XZ 00493200 f i inventorydlg.obj
 0001:00092220       ??Fiterator@?$_Tree@VCSkinObj@@U?$pair@$$CBVCSkinObj@@PAVCFastScrollCtrl@@@std@@U_Kfn@?$map@VCSkinObj@@PAVCFastScrollCtrl@@U?$less@VCSkinObj@@@std@@V?$allocator@PAVCFastScrollCtrl@@@4@@3@U?$less@VCSkinObj@@@3@V?$allocator@PAVCFastScrollCtrl@@@3@@std@@QAEAAV012@XZ 00493220 f i inventorydlg.obj
 0001:00092240       ?_Color@?$_Tree@VCSCI_WorldObject@@U?$pair@$$CBVCSCI_WorldObject@@PAVCInventoryDlg@@@std@@U_Kfn@?$map@VCSCI_WorldObject@@PAVCInventoryDlg@@U?$less@VCSCI_WorldObject@@@std@@V?$allocator@PAVCInventoryDlg@@@4@@3@U?$less@VCSCI_WorldObject@@@3@V?$allocator@PAVCInventoryDlg@@@3@@std@@KAAAW4_Redbl@12@PAU_Node@12@@Z 00493240 f i inventorydlg.obj
 0001:00092240       ?_Color@?$_Tree@PAUHWND__@@U?$pair@QAUHWND__@@PAVCSkinWnd@@@std@@U_Kfn@?$map@PAUHWND__@@PAVCSkinWnd@@U?$less@PAUHWND__@@@std@@V?$allocator@PAVCSkinWnd@@@4@@3@U?$less@PAUHWND__@@@3@V?$allocator@PAVCSkinWnd@@@3@@std@@KAAAW4_Redbl@12@PAU_Node@12@@Z 00493240 f i inventorydlg.obj
 0001:00092240       ?_Color@?$_Tree@HU?$pair@$$CBHPAVCMailMsg@@@std@@U_Kfn@?$map@HPAVCMailMsg@@U?$less@H@std@@V?$allocator@PAVCMailMsg@@@3@@2@U?$less@H@2@V?$allocator@PAVCMailMsg@@@2@@std@@KAAAW4_Redbl@12@PAU_Node@12@@Z 00493240 f i inventorydlg.obj
 0001:00092240       ?_Color@?$_Tree@HU?$pair@$$CBHPAVCVerbBtn@@@std@@U_Kfn@?$map@HPAVCVerbBtn@@U?$less@H@std@@V?$allocator@PAVCVerbBtn@@@3@@2@U?$less@H@2@V?$allocator@PAVCVerbBtn@@@2@@std@@KAAAW4_Redbl@12@PAU_Node@12@@Z 00493240 f i inventorydlg.obj
 0001:00092240       ?_Color@?$_Tree@HU?$pair@$$CBHVCSCI_WorldObject@@@std@@U_Kfn@?$map@HVCSCI_WorldObject@@U?$less@H@std@@V?$allocator@VCSCI_WorldObject@@@3@@2@U?$less@H@2@V?$allocator@VCSCI_WorldObject@@@2@@std@@KAAAW4_Redbl@12@PAU_Node@12@@Z 00493240 f i inventorydlg.obj
 0001:00092240       ?_Color@?$_Tree@HU?$pair@$$CBHPAVCVerb@@@std@@U_Kfn@?$map@HPAVCVerb@@U?$less@H@std@@V?$allocator@PAVCVerb@@@3@@2@U?$less@H@2@V?$allocator@PAVCVerb@@@2@@std@@KAAAW4_Redbl@12@PAU_Node@12@@Z 00493240 f i inventorydlg.obj
 0001:00092240       ?_Color@?$_Tree@PAUHWND__@@U?$pair@QAUHWND__@@PAVCDropTarget@@@std@@U_Kfn@?$map@PAUHWND__@@PAVCDropTarget@@U?$less@PAUHWND__@@@std@@V?$allocator@PAVCDropTarget@@@4@@3@U?$less@PAUHWND__@@@3@V?$allocator@PAVCDropTarget@@@3@@std@@KAAAW4_Redbl@12@PAU_Node@12@@Z 00493240 f i inventorydlg.obj
 0001:00092240       ?_Color@?$_Tree@VCSCI_Object@@U?$pair@$$CBVCSCI_Object@@PAVCNoButtonDlg@@@std@@U_Kfn@?$map@VCSCI_Object@@PAVCNoButtonDlg@@U?$less@VCSCI_Object@@@std@@V?$allocator@PAVCNoButtonDlg@@@4@@3@U?$less@VCSCI_Object@@@3@V?$allocator@PAVCNoButtonDlg@@@3@@std@@KAAAW4_Redbl@12@PAU_Node@12@@Z 00493240 f i inventorydlg.obj
 0001:00092240       ?_Color@?$_Tree@HU?$pair@$$CBHPAVCMailMsgWnd@@@std@@U_Kfn@?$map@HPAVCMailMsgWnd@@U?$less@H@std@@V?$allocator@PAVCMailMsgWnd@@@3@@2@U?$less@H@2@V?$allocator@PAVCMailMsgWnd@@@2@@std@@KAAAW4_Redbl@12@PAU_Node@12@@Z 00493240 f i inventorydlg.obj
 0001:00092240       ?_Color@?$_Tree@PAUHWND__@@U?$pair@QAUHWND__@@PAVCMouseWheelable@@@std@@U_Kfn@?$map@PAUHWND__@@PAVCMouseWheelable@@U?$less@PAUHWND__@@@std@@V?$allocator@PAVCMouseWheelable@@@4@@3@U?$less@PAUHWND__@@@3@V?$allocator@PAVCMouseWheelable@@@3@@std@@KAAAW4_Redbl@12@PAU_Node@12@@Z 00493240 f i inventorydlg.obj
 0001:00092250       ?_Prev@_Acc@?$list@PAVCVerbRequest@@V?$allocator@PAVCVerbRequest@@@std@@@std@@SAAAPAU_Node@23@PAU423@@Z 00493250 f i inventorydlg.obj
 0001:00092250       ?_Prev@_Acc@?$list@PADV?$allocator@PAD@std@@@std@@SAAAPAU_Node@23@PAU423@@Z 00493250 f i inventorydlg.obj
 0001:00092250       ?_Parent@?$_Tree@VCSkinObj@@U?$pair@$$CBVCSkinObj@@PAVCFastScrollCtrl@@@std@@U_Kfn@?$map@VCSkinObj@@PAVCFastScrollCtrl@@U?$less@VCSkinObj@@@std@@V?$allocator@PAVCFastScrollCtrl@@@4@@3@U?$less@VCSkinObj@@@3@V?$allocator@PAVCFastScrollCtrl@@@3@@std@@KAAAPAU_Node@12@PAU312@@Z 00493250 f i inventorydlg.obj
 0001:00092250       ?_Parent@?$_Tree@PAUHWND__@@U?$pair@QAUHWND__@@PAVCSkinWnd@@@std@@U_Kfn@?$map@PAUHWND__@@PAVCSkinWnd@@U?$less@PAUHWND__@@@std@@V?$allocator@PAVCSkinWnd@@@4@@3@U?$less@PAUHWND__@@@3@V?$allocator@PAVCSkinWnd@@@3@@std@@KAAAPAU_Node@12@PAU312@@Z 00493250 f i inventorydlg.obj
 0001:00092250       ?_Parent@?$_Tree@HU?$pair@$$CBHPAVCVerbBtn@@@std@@U_Kfn@?$map@HPAVCVerbBtn@@U?$less@H@std@@V?$allocator@PAVCVerbBtn@@@3@@2@U?$less@H@2@V?$allocator@PAVCVerbBtn@@@2@@std@@KAAAPAU_Node@12@PAU312@@Z 00493250 f i inventorydlg.obj
 0001:00092250       ?_Parent@?$_Tree@HU?$pair@$$CBHVCSCI_WorldObject@@@std@@U_Kfn@?$map@HVCSCI_WorldObject@@U?$less@H@std@@V?$allocator@VCSCI_WorldObject@@@3@@2@U?$less@H@2@V?$allocator@VCSCI_WorldObject@@@2@@std@@KAAAPAU_Node@12@PAU312@@Z 00493250 f i inventorydlg.obj
 0001:00092250       ?_Parent@?$_Tree@V?$basic_string@DU?$char_traits@D@std@@V?$allocator@D@2@@std@@U?$pair@$$CBV?$basic_string@DU?$char_traits@D@std@@V?$allocator@D@2@@std@@VCPoint@@@2@U_Kfn@?$map@V?$basic_string@DU?$char_traits@D@std@@V?$allocator@D@2@@std@@VCPoint@@U?$less@V?$basic_string@DU?$char_traits@D@std@@V?$allocator@D@2@@std@@@2@V?$allocator@VCPoint@@@2@@2@U?$less@V?$basic_string@DU?$char_traits@D@std@@V?$allocator@D@2@@std@@@2@V?$allocator@VCPoint@@@2@@std@@KAAAPAU_Node@12@PAU312@@Z 00493250 f i inventorydlg.obj
 0001:00092250       ?_Prev@_Acc@?$list@PAVCListData@@V?$allocator@PAVCListData@@@std@@@std@@SAAAPAU_Node@23@PAU423@@Z 00493250 f i inventorydlg.obj
 0001:00092250       ?_Parent@?$_Tree@PAVCSkinCtrl@@PAV1@U_Kfn@?$set@PAVCSkinCtrl@@U?$less@PAVCSkinCtrl@@@std@@V?$allocator@PAVCSkinCtrl@@@3@@std@@U?$less@PAVCSkinCtrl@@@4@V?$allocator@PAVCSkinCtrl@@@4@@std@@KAAAPAU_Node@12@PAU312@@Z 00493250 f i inventorydlg.obj
 0001:00092250       ?_Prev@_Acc@?$list@PAVCInventoryDlg@@V?$allocator@PAVCInventoryDlg@@@std@@@std@@SAAAPAU_Node@23@PAU423@@Z 00493250 f i inventorydlg.obj
 0001:00092250       ?_Parent@?$_Tree@HU?$pair@$$CBHPAVCVerb@@@std@@U_Kfn@?$map@HPAVCVerb@@U?$less@H@std@@V?$allocator@PAVCVerb@@@3@@2@U?$less@H@2@V?$allocator@PAVCVerb@@@2@@std@@KAAAPAU_Node@12@PAU312@@Z 00493250 f i inventorydlg.obj
 0001:00092250       ?_Parent@?$_Tree@HU?$pair@$$CBHPAVCMailMsg@@@std@@U_Kfn@?$map@HPAVCMailMsg@@U?$less@H@std@@V?$allocator@PAVCMailMsg@@@3@@2@U?$less@H@2@V?$allocator@PAVCMailMsg@@@2@@std@@KAAAPAU_Node@12@PAU312@@Z 00493250 f i inventorydlg.obj
 0001:00092250       ?_Parent@?$_Tree@VCSCI_Object@@U?$pair@$$CBVCSCI_Object@@PAVCNoButtonDlg@@@std@@U_Kfn@?$map@VCSCI_Object@@PAVCNoButtonDlg@@U?$less@VCSCI_Object@@@std@@V?$allocator@PAVCNoButtonDlg@@@4@@3@U?$less@VCSCI_Object@@@3@V?$allocator@PAVCNoButtonDlg@@@3@@std@@KAAAPAU_Node@12@PAU312@@Z 00493250 f i inventorydlg.obj
 0001:00092250       ?_Prev@_Acc@?$list@PAVCSkinCtrl@@V?$allocator@PAVCSkinCtrl@@@std@@@std@@SAAAPAU_Node@23@PAU423@@Z 00493250 f i inventorydlg.obj
 0001:00092250       ?_Parent@?$_Tree@VCString@@U?$pair@$$CBVCString@@VCPerson@@@std@@U_Kfn@?$map@VCString@@VCPerson@@U?$less@VCString@@@std@@V?$allocator@VCPerson@@@4@@3@U?$less@VCString@@@3@V?$allocator@VCPerson@@@3@@std@@KAAAPAU_Node@12@PAU312@@Z 00493250 f i inventorydlg.obj
 0001:00092250       ?_Parent@?$_Tree@HU?$pair@$$CBHPAVCMailMsgWnd@@@std@@U_Kfn@?$map@HPAVCMailMsgWnd@@U?$less@H@std@@V?$allocator@PAVCMailMsgWnd@@@3@@2@U?$less@H@2@V?$allocator@PAVCMailMsgWnd@@@2@@std@@KAAAPAU_Node@12@PAU312@@Z 00493250 f i inventorydlg.obj
 0001:00092250       ?_Parent@?$_Tree@V?$basic_string@DU?$char_traits@D@std@@V?$allocator@D@2@@std@@U?$pair@$$CBV?$basic_string@DU?$char_traits@D@std@@V?$allocator@D@2@@std@@H@2@U_Kfn@?$map@V?$basic_string@DU?$char_traits@D@std@@V?$allocator@D@2@@std@@HU?$less@V?$basic_string@DU?$char_traits@D@std@@V?$allocator@D@2@@std@@@2@V?$allocator@H@2@@2@U?$less@V?$basic_string@DU?$char_traits@D@std@@V?$allocator@D@2@@std@@@2@V?$allocator@H@2@@std@@KAAAPAU_Node@12@PAU312@@Z 00493250 f i inventorydlg.obj
 0001:00092250       ?_Parent@?$_Tree@VCSkinObj@@U?$pair@$$CBVCSkinObj@@PAVCSkinCtrl@@@std@@U_Kfn@?$map@VCSkinObj@@PAVCSkinCtrl@@U?$less@VCSkinObj@@@std@@V?$allocator@PAVCSkinCtrl@@@4@@3@U?$less@VCSkinObj@@@3@V?$allocator@PAVCSkinCtrl@@@3@@std@@KAAAPAU_Node@12@PAU312@@Z 00493250 f i inventorydlg.obj
 0001:00092250       ?_Parent@?$_Tree@PAVCSkinWnd@@PAV1@U_Kfn@?$set@PAVCSkinWnd@@U?$less@PAVCSkinWnd@@@std@@V?$allocator@PAVCSkinWnd@@@3@@std@@U?$less@PAVCSkinWnd@@@4@V?$allocator@PAVCSkinWnd@@@4@@std@@KAAAPAU_Node@12@PAU312@@Z 00493250 f i inventorydlg.obj
 0001:00092250       ?_Prev@_Acc@?$list@PAVCMailMsg@@V?$allocator@PAVCMailMsg@@@std@@@std@@SAAAPAU_Node@23@PAU423@@Z 00493250 f i inventorydlg.obj
 0001:00092250       ?_Prev@_Acc@?$list@PAVCSkinWnd@@V?$allocator@PAVCSkinWnd@@@std@@@std@@SAAAPAU_Node@23@PAU423@@Z 00493250 f i inventorydlg.obj
 0001:00092250       ?_Parent@?$_Tree@VCSCI_WorldObject@@U?$pair@$$CBVCSCI_WorldObject@@PAVCInventoryDlg@@@std@@U_Kfn@?$map@VCSCI_WorldObject@@PAVCInventoryDlg@@U?$less@VCSCI_WorldObject@@@std@@V?$allocator@PAVCInventoryDlg@@@4@@3@U?$less@VCSCI_WorldObject@@@3@V?$allocator@PAVCInventoryDlg@@@3@@std@@KAAAPAU_Node@12@PAU312@@Z 00493250 f i inventorydlg.obj
 0001:00092250       ?_Parent@?$_Tree@V?$basic_string@DU?$char_traits@D@std@@V?$allocator@D@2@@std@@U?$pair@$$CBV?$basic_string@DU?$char_traits@D@std@@V?$allocator@D@2@@std@@PAVCPrivateTell@@@2@U_Kfn@?$map@V?$basic_string@DU?$char_traits@D@std@@V?$allocator@D@2@@std@@PAVCPrivateTell@@U?$less@V?$basic_string@DU?$char_traits@D@std@@V?$allocator@D@2@@std@@@2@V?$allocator@PAVCPrivateTell@@@2@@2@U?$less@V?$basic_string@DU?$char_traits@D@std@@V?$allocator@D@2@@std@@@2@V?$allocator@PAVCPrivateTell@@@2@@std@@KAAAPAU_Node@12@PAU312@@Z 00493250 f i inventorydlg.obj
 0001:00092250       ?_Prev@_Acc@?$list@PAVCLookAtItem@@V?$allocator@PAVCLookAtItem@@@std@@@std@@SAAAPAU_Node@23@PAU423@@Z 00493250 f i inventorydlg.obj
 0001:00092250       ?_Parent@?$_Tree@PAUHWND__@@U?$pair@QAUHWND__@@PAVCMouseWheelable@@@std@@U_Kfn@?$map@PAUHWND__@@PAVCMouseWheelable@@U?$less@PAUHWND__@@@std@@V?$allocator@PAVCMouseWheelable@@@4@@3@U?$less@PAUHWND__@@@3@V?$allocator@PAVCMouseWheelable@@@3@@std@@KAAAPAU_Node@12@PAU312@@Z 00493250 f i inventorydlg.obj
 0001:00092250       ?_Parent@?$_Tree@PAUHWND__@@U?$pair@QAUHWND__@@PAVCDropTarget@@@std@@U_Kfn@?$map@PAUHWND__@@PAVCDropTarget@@U?$less@PAUHWND__@@@std@@V?$allocator@PAVCDropTarget@@@4@@3@U?$less@PAUHWND__@@@3@V?$allocator@PAVCDropTarget@@@3@@std@@KAAAPAU_Node@12@PAU312@@Z 00493250 f i inventorydlg.obj
 0001:00092260       ?_Right@?$_Tree@HU?$pair@$$CBHPAVCVerbBtn@@@std@@U_Kfn@?$map@HPAVCVerbBtn@@U?$less@H@std@@V?$allocator@PAVCVerbBtn@@@3@@2@U?$less@H@2@V?$allocator@PAVCVerbBtn@@@2@@std@@KAAAPAU_Node@12@PAU312@@Z 00493260 f i inventorydlg.obj
 0001:00092260       ?_Right@?$_Tree@PAUHWND__@@U?$pair@QAUHWND__@@PAVCSkinWnd@@@std@@U_Kfn@?$map@PAUHWND__@@PAVCSkinWnd@@U?$less@PAUHWND__@@@std@@V?$allocator@PAVCSkinWnd@@@4@@3@U?$less@PAUHWND__@@@3@V?$allocator@PAVCSkinWnd@@@3@@std@@KAAAPAU_Node@12@PAU312@@Z 00493260 f i inventorydlg.obj
 0001:00092260       ?_Right@?$_Tree@PAVCSkinWnd@@PAV1@U_Kfn@?$set@PAVCSkinWnd@@U?$less@PAVCSkinWnd@@@std@@V?$allocator@PAVCSkinWnd@@@3@@std@@U?$less@PAVCSkinWnd@@@4@V?$allocator@PAVCSkinWnd@@@4@@std@@KAAAPAU_Node@12@PAU312@@Z 00493260 f i inventorydlg.obj
 0001:00092260       ?_Value@_Acc@?$list@PAVCSkinCtrl@@V?$allocator@PAVCSkinCtrl@@@std@@@std@@SAAAPAVCSkinCtrl@@PAU_Node@23@@Z 00493260 f i inventorydlg.obj
 0001:00092260       ?_Right@?$_Tree@HU?$pair@$$CBHPAVCMailMsgWnd@@@std@@U_Kfn@?$map@HPAVCMailMsgWnd@@U?$less@H@std@@V?$allocator@PAVCMailMsgWnd@@@3@@2@U?$less@H@2@V?$allocator@PAVCMailMsgWnd@@@2@@std@@KAAAPAU_Node@12@PAU312@@Z 00493260 f i inventorydlg.obj
 0001:00092260       ?_Right@?$_Tree@VCSkinObj@@U?$pair@$$CBVCSkinObj@@PAVCSkinCtrl@@@std@@U_Kfn@?$map@VCSkinObj@@PAVCSkinCtrl@@U?$less@VCSkinObj@@@std@@V?$allocator@PAVCSkinCtrl@@@4@@3@U?$less@VCSkinObj@@@3@V?$allocator@PAVCSkinCtrl@@@3@@std@@KAAAPAU_Node@12@PAU312@@Z 00493260 f i inventorydlg.obj
 0001:00092260       ?_Value@_Acc@?$list@PAVCVerbRequest@@V?$allocator@PAVCVerbRequest@@@std@@@std@@SAAAPAVCVerbRequest@@PAU_Node@23@@Z 00493260 f i inventorydlg.obj
 0001:00092260       ?_Right@?$_Tree@HU?$pair@$$CBHVCSCI_WorldObject@@@std@@U_Kfn@?$map@HVCSCI_WorldObject@@U?$less@H@std@@V?$allocator@VCSCI_WorldObject@@@3@@2@U?$less@H@2@V?$allocator@VCSCI_WorldObject@@@2@@std@@KAAAPAU_Node@12@PAU312@@Z 00493260 f i inventorydlg.obj
 0001:00092260       ?_Right@?$_Tree@PAUHWND__@@U?$pair@QAUHWND__@@PAVCMouseWheelable@@@std@@U_Kfn@?$map@PAUHWND__@@PAVCMouseWheelable@@U?$less@PAUHWND__@@@std@@V?$allocator@PAVCMouseWheelable@@@4@@3@U?$less@PAUHWND__@@@3@V?$allocator@PAVCMouseWheelable@@@3@@std@@KAAAPAU_Node@12@PAU312@@Z 00493260 f i inventorydlg.obj
 0001:00092260       ?_Right@?$_Tree@V?$basic_string@DU?$char_traits@D@std@@V?$allocator@D@2@@std@@U?$pair@$$CBV?$basic_string@DU?$char_traits@D@std@@V?$allocator@D@2@@std@@H@2@U_Kfn@?$map@V?$basic_string@DU?$char_traits@D@std@@V?$allocator@D@2@@std@@HU?$less@V?$basic_string@DU?$char_traits@D@std@@V?$allocator@D@2@@std@@@2@V?$allocator@H@2@@2@U?$less@V?$basic_string@DU?$char_traits@D@std@@V?$allocator@D@2@@std@@@2@V?$allocator@H@2@@std@@KAAAPAU_Node@12@PAU312@@Z 00493260 f i inventorydlg.obj
 0001:00092260       ?_Right@?$_Tree@VCSCI_Object@@U?$pair@$$CBVCSCI_Object@@PAVCNoButtonDlg@@@std@@U_Kfn@?$map@VCSCI_Object@@PAVCNoButtonDlg@@U?$less@VCSCI_Object@@@std@@V?$allocator@PAVCNoButtonDlg@@@4@@3@U?$less@VCSCI_Object@@@3@V?$allocator@PAVCNoButtonDlg@@@3@@std@@KAAAPAU_Node@12@PAU312@@Z 00493260 f i inventorydlg.obj
 0001:00092260       ?_Value@_Acc@?$list@PAVCMailMsg@@V?$allocator@PAVCMailMsg@@@std@@@std@@SAAAPAVCMailMsg@@PAU_Node@23@@Z 00493260 f i inventorydlg.obj
 0001:00092260       ?_Right@?$_Tree@V?$basic_string@DU?$char_traits@D@std@@V?$allocator@D@2@@std@@U?$pair@$$CBV?$basic_string@DU?$char_traits@D@std@@V?$allocator@D@2@@std@@VCPoint@@@2@U_Kfn@?$map@V?$basic_string@DU?$char_traits@D@std@@V?$allocator@D@2@@std@@VCPoint@@U?$less@V?$basic_string@DU?$char_traits@D@std@@V?$allocator@D@2@@std@@@2@V?$allocator@VCPoint@@@2@@2@U?$less@V?$basic_string@DU?$char_traits@D@std@@V?$allocator@D@2@@std@@@2@V?$allocator@VCPoint@@@2@@std@@KAAAPAU_Node@12@PAU312@@Z 00493260 f i inventorydlg.obj
 0001:00092260       ?_Right@?$_Tree@VCSkinObj@@U?$pair@$$CBVCSkinObj@@PAVCFastScrollCtrl@@@std@@U_Kfn@?$map@VCSkinObj@@PAVCFastScrollCtrl@@U?$less@VCSkinObj@@@std@@V?$allocator@PAVCFastScrollCtrl@@@4@@3@U?$less@VCSkinObj@@@3@V?$allocator@PAVCFastScrollCtrl@@@3@@std@@KAAAPAU_Node@12@PAU312@@Z 00493260 f i inventorydlg.obj
 0001:00092260       ?_Right@?$_Tree@PAUHWND__@@U?$pair@QAUHWND__@@PAVCDropTarget@@@std@@U_Kfn@?$map@PAUHWND__@@PAVCDropTarget@@U?$less@PAUHWND__@@@std@@V?$allocator@PAVCDropTarget@@@4@@3@U?$less@PAUHWND__@@@3@V?$allocator@PAVCDropTarget@@@3@@std@@KAAAPAU_Node@12@PAU312@@Z 00493260 f i inventorydlg.obj
 0001:00092260       ?_Value@_Acc@?$list@PAVCSkinWnd@@V?$allocator@PAVCSkinWnd@@@std@@@std@@SAAAPAVCSkinWnd@@PAU_Node@23@@Z 00493260 f i inventorydlg.obj
 0001:00092260       ?_Value@_Acc@?$list@PAVCLookAtItem@@V?$allocator@PAVCLookAtItem@@@std@@@std@@SAAAPAVCLookAtItem@@PAU_Node@23@@Z 00493260 f i inventorydlg.obj
 0001:00092260       ?_Right@?$_Tree@V?$basic_string@DU?$char_traits@D@std@@V?$allocator@D@2@@std@@U?$pair@$$CBV?$basic_string@DU?$char_traits@D@std@@V?$allocator@D@2@@std@@PAVCPrivateTell@@@2@U_Kfn@?$map@V?$basic_string@DU?$char_traits@D@std@@V?$allocator@D@2@@std@@PAVCPrivateTell@@U?$less@V?$basic_string@DU?$char_traits@D@std@@V?$allocator@D@2@@std@@@2@V?$allocator@PAVCPrivateTell@@@2@@2@U?$less@V?$basic_string@DU?$char_traits@D@std@@V?$allocator@D@2@@std@@@2@V?$allocator@PAVCPrivateTell@@@2@@std@@KAAAPAU_Node@12@PAU312@@Z 00493260 f i inventorydlg.obj
 0001:00092260       ?_Right@?$_Tree@HU?$pair@$$CBHPAVCVerb@@@std@@U_Kfn@?$map@HPAVCVerb@@U?$less@H@std@@V?$allocator@PAVCVerb@@@3@@2@U?$less@H@2@V?$allocator@PAVCVerb@@@2@@std@@KAAAPAU_Node@12@PAU312@@Z 00493260 f i inventorydlg.obj
 0001:00092260       ?_Value@_Acc@?$list@PADV?$allocator@PAD@std@@@std@@SAAAPADPAU_Node@23@@Z 00493260 f i inventorydlg.obj
 0001:00092260       ?_Right@?$_Tree@VCString@@U?$pair@$$CBVCString@@VCPerson@@@std@@U_Kfn@?$map@VCString@@VCPerson@@U?$less@VCString@@@std@@V?$allocator@VCPerson@@@4@@3@U?$less@VCString@@@3@V?$allocator@VCPerson@@@3@@std@@KAAAPAU_Node@12@PAU312@@Z 00493260 f i inventorydlg.obj
 0001:00092260       ?_Right@?$_Tree@PAVCSkinCtrl@@PAV1@U_Kfn@?$set@PAVCSkinCtrl@@U?$less@PAVCSkinCtrl@@@std@@V?$allocator@PAVCSkinCtrl@@@3@@std@@U?$less@PAVCSkinCtrl@@@4@V?$allocator@PAVCSkinCtrl@@@4@@std@@KAAAPAU_Node@12@PAU312@@Z 00493260 f i inventorydlg.obj
 0001:00092260       ?_Value@_Acc@?$list@PAVCInventoryDlg@@V?$allocator@PAVCInventoryDlg@@@std@@@std@@SAAAPAVCInventoryDlg@@PAU_Node@23@@Z 00493260 f i inventorydlg.obj
 0001:00092260       ?_Right@?$_Tree@VCSCI_WorldObject@@U?$pair@$$CBVCSCI_WorldObject@@PAVCInventoryDlg@@@std@@U_Kfn@?$map@VCSCI_WorldObject@@PAVCInventoryDlg@@U?$less@VCSCI_WorldObject@@@std@@V?$allocator@PAVCInventoryDlg@@@4@@3@U?$less@VCSCI_WorldObject@@@3@V?$allocator@PAVCInventoryDlg@@@3@@std@@KAAAPAU_Node@12@PAU312@@Z 00493260 f i inventorydlg.obj
 0001:00092260       ?_Right@?$_Tree@HU?$pair@$$CBHPAVCMailMsg@@@std@@U_Kfn@?$map@HPAVCMailMsg@@U?$less@H@std@@V?$allocator@PAVCMailMsg@@@3@@2@U?$less@H@2@V?$allocator@PAVCMailMsg@@@2@@std@@KAAAPAU_Node@12@PAU312@@Z 00493260 f i inventorydlg.obj
 0001:00092260       ?_Value@_Acc@?$list@PAVCListData@@V?$allocator@PAVCListData@@@std@@@std@@SAAAPAVCListData@@PAU_Node@23@@Z 00493260 f i inventorydlg.obj
 0001:00092270       ?upper_bound@?$_Tree@VCSCI_WorldObject@@U?$pair@$$CBVCSCI_WorldObject@@PAVCInventoryDlg@@@std@@U_Kfn@?$map@VCSCI_WorldObject@@PAVCInventoryDlg@@U?$less@VCSCI_WorldObject@@@std@@V?$allocator@PAVCInventoryDlg@@@4@@3@U?$less@VCSCI_WorldObject@@@3@V?$allocator@PAVCInventoryDlg@@@3@@std@@QAE?AViterator@12@ABVCSCI_WorldObject@@@Z 00493270 f i inventorydlg.obj
 0001:000922a0       ?_Insert@?$_Tree@VCSCI_WorldObject@@U?$pair@$$CBVCSCI_WorldObject@@PAVCInventoryDlg@@@std@@U_Kfn@?$map@VCSCI_WorldObject@@PAVCInventoryDlg@@U?$less@VCSCI_WorldObject@@@std@@V?$allocator@PAVCInventoryDlg@@@4@@3@U?$less@VCSCI_WorldObject@@@3@V?$allocator@PAVCInventoryDlg@@@3@@std@@IAE?AViterator@12@PAU_Node@12@0ABU?$pair@$$CBVCSCI_WorldObject@@PAVCInventoryDlg@@@2@@Z 004932a0 f i inventorydlg.obj
 0001:00092770       ?_Lbound@?$_Tree@VCSCI_WorldObject@@U?$pair@$$CBVCSCI_WorldObject@@PAVCInventoryDlg@@@std@@U_Kfn@?$map@VCSCI_WorldObject@@PAVCInventoryDlg@@U?$less@VCSCI_WorldObject@@@std@@V?$allocator@PAVCInventoryDlg@@@4@@3@U?$less@VCSCI_WorldObject@@@3@V?$allocator@PAVCInventoryDlg@@@3@@std@@IBEPAU_Node@12@ABVCSCI_WorldObject@@@Z 00493770 f i inventorydlg.obj
 0001:00092840       ?_Lrotate@?$_Tree@VCSCI_WorldObject@@U?$pair@$$CBVCSCI_WorldObject@@PAVCInventoryDlg@@@std@@U_Kfn@?$map@VCSCI_WorldObject@@PAVCInventoryDlg@@U?$less@VCSCI_WorldObject@@@std@@V?$allocator@PAVCInventoryDlg@@@4@@3@U?$less@VCSCI_WorldObject@@@3@V?$allocator@PAVCInventoryDlg@@@3@@std@@IAEXPAU_Node@12@@Z 00493840 f i inventorydlg.obj
 0001:000929b0       ?_Max@?$_Tree@VCSCI_WorldObject@@U?$pair@$$CBVCSCI_WorldObject@@PAVCInventoryDlg@@@std@@U_Kfn@?$map@VCSCI_WorldObject@@PAVCInventoryDlg@@U?$less@VCSCI_WorldObject@@@std@@V?$allocator@PAVCInventoryDlg@@@4@@3@U?$less@VCSCI_WorldObject@@@3@V?$allocator@PAVCInventoryDlg@@@3@@std@@KAPAU_Node@12@PAU312@@Z 004939b0 f i inventorydlg.obj
 0001:00092a30       ?_Min@?$_Tree@VCSCI_WorldObject@@U?$pair@$$CBVCSCI_WorldObject@@PAVCInventoryDlg@@@std@@U_Kfn@?$map@VCSCI_WorldObject@@PAVCInventoryDlg@@U?$less@VCSCI_WorldObject@@@std@@V?$allocator@PAVCInventoryDlg@@@4@@3@U?$less@VCSCI_WorldObject@@@3@V?$allocator@PAVCInventoryDlg@@@3@@std@@KAPAU_Node@12@PAU312@@Z 00493a30 f i inventorydlg.obj
 0001:00092ab0       ?_Rrotate@?$_Tree@VCSCI_WorldObject@@U?$pair@$$CBVCSCI_WorldObject@@PAVCInventoryDlg@@@std@@U_Kfn@?$map@VCSCI_WorldObject@@PAVCInventoryDlg@@U?$less@VCSCI_WorldObject@@@std@@V?$allocator@PAVCInventoryDlg@@@4@@3@U?$less@VCSCI_WorldObject@@@3@V?$allocator@PAVCInventoryDlg@@@3@@std@@IAEXPAU_Node@12@@Z 00493ab0 f i inventorydlg.obj
 0001:00092c20       ??Eiterator@?$_Tree@VCSCI_WorldObject@@U?$pair@$$CBVCSCI_WorldObject@@PAVCInventoryDlg@@@std@@U_Kfn@?$map@VCSCI_WorldObject@@PAVCInventoryDlg@@U?$less@VCSCI_WorldObject@@@std@@V?$allocator@PAVCInventoryDlg@@@4@@3@U?$less@VCSCI_WorldObject@@@3@V?$allocator@PAVCInventoryDlg@@@3@@std@@QAEAAV012@XZ 00493c20 f i inventorydlg.obj
 0001:00092c40       ??Fiterator@?$_Tree@VCSCI_WorldObject@@U?$pair@$$CBVCSCI_WorldObject@@PAVCInventoryDlg@@@std@@U_Kfn@?$map@VCSCI_WorldObject@@PAVCInventoryDlg@@U?$less@VCSCI_WorldObject@@@std@@V?$allocator@PAVCInventoryDlg@@@4@@3@U?$less@VCSCI_WorldObject@@@3@V?$allocator@PAVCInventoryDlg@@@3@@std@@QAEAAV012@XZ 00493c40 f i inventorydlg.obj
 0001:00092c60       ?_Root@?$_Tree@HU?$pair@$$CBHPAVCMailMsg@@@std@@U_Kfn@?$map@HPAVCMailMsg@@U?$less@H@std@@V?$allocator@PAVCMailMsg@@@3@@2@U?$less@H@2@V?$allocator@PAVCMailMsg@@@2@@std@@IAEAAPAU_Node@12@XZ 00493c60 f i inventorydlg.obj
 0001:00092c60       ?_Root@?$_Tree@HU?$pair@$$CBHPAVCVerb@@@std@@U_Kfn@?$map@HPAVCVerb@@U?$less@H@std@@V?$allocator@PAVCVerb@@@3@@2@U?$less@H@2@V?$allocator@PAVCVerb@@@2@@std@@IAEAAPAU_Node@12@XZ 00493c60 f i inventorydlg.obj
 0001:00092c60       ?_Root@?$_Tree@VCSkinObj@@U?$pair@$$CBVCSkinObj@@PAVCSkinCtrl@@@std@@U_Kfn@?$map@VCSkinObj@@PAVCSkinCtrl@@U?$less@VCSkinObj@@@std@@V?$allocator@PAVCSkinCtrl@@@4@@3@U?$less@VCSkinObj@@@3@V?$allocator@PAVCSkinCtrl@@@3@@std@@IAEAAPAU_Node@12@XZ 00493c60 f i inventorydlg.obj
 0001:00092c60       ?_Root@?$_Tree@V?$basic_string@DU?$char_traits@D@std@@V?$allocator@D@2@@std@@U?$pair@$$CBV?$basic_string@DU?$char_traits@D@std@@V?$allocator@D@2@@std@@H@2@U_Kfn@?$map@V?$basic_string@DU?$char_traits@D@std@@V?$allocator@D@2@@std@@HU?$less@V?$basic_string@DU?$char_traits@D@std@@V?$allocator@D@2@@std@@@2@V?$allocator@H@2@@2@U?$less@V?$basic_string@DU?$char_traits@D@std@@V?$allocator@D@2@@std@@@2@V?$allocator@H@2@@std@@IBEAAPAU_Node@12@XZ 00493c60 f i inventorydlg.obj
 0001:00092c60       ?_Root@?$_Tree@HU?$pair@$$CBHVCSCI_WorldObject@@@std@@U_Kfn@?$map@HVCSCI_WorldObject@@U?$less@H@std@@V?$allocator@VCSCI_WorldObject@@@3@@2@U?$less@H@2@V?$allocator@VCSCI_WorldObject@@@2@@std@@IBEAAPAU_Node@12@XZ 00493c60 f i inventorydlg.obj
 0001:00092c60       ?_Root@?$_Tree@VCSkinObj@@U?$pair@$$CBVCSkinObj@@PAVCFastScrollCtrl@@@std@@U_Kfn@?$map@VCSkinObj@@PAVCFastScrollCtrl@@U?$less@VCSkinObj@@@std@@V?$allocator@PAVCFastScrollCtrl@@@4@@3@U?$less@VCSkinObj@@@3@V?$allocator@PAVCFastScrollCtrl@@@3@@std@@IBEAAPAU_Node@12@XZ 00493c60 f i inventorydlg.obj
 0001:00092c60       ?_Root@?$_Tree@V?$basic_string@DU?$char_traits@D@std@@V?$allocator@D@2@@std@@U?$pair@$$CBV?$basic_string@DU?$char_traits@D@std@@V?$allocator@D@2@@std@@VCPoint@@@2@U_Kfn@?$map@V?$basic_string@DU?$char_traits@D@std@@V?$allocator@D@2@@std@@VCPoint@@U?$less@V?$basic_string@DU?$char_traits@D@std@@V?$allocator@D@2@@std@@@2@V?$allocator@VCPoint@@@2@@2@U?$less@V?$basic_string@DU?$char_traits@D@std@@V?$allocator@D@2@@std@@@2@V?$allocator@VCPoint@@@2@@std@@IAEAAPAU_Node@12@XZ 00493c60 f i inventorydlg.obj
 0001:00092c60       ?_Root@?$_Tree@VCString@@U?$pair@$$CBVCString@@VCPerson@@@std@@U_Kfn@?$map@VCString@@VCPerson@@U?$less@VCString@@@std@@V?$allocator@VCPerson@@@4@@3@U?$less@VCString@@@3@V?$allocator@VCPerson@@@3@@std@@IAEAAPAU_Node@12@XZ 00493c60 f i inventorydlg.obj
 0001:00092c60       ?_Root@?$_Tree@VCSCI_WorldObject@@U?$pair@$$CBVCSCI_WorldObject@@PAVCInventoryDlg@@@std@@U_Kfn@?$map@VCSCI_WorldObject@@PAVCInventoryDlg@@U?$less@VCSCI_WorldObject@@@std@@V?$allocator@PAVCInventoryDlg@@@4@@3@U?$less@VCSCI_WorldObject@@@3@V?$allocator@PAVCInventoryDlg@@@3@@std@@IAEAAPAU_Node@12@XZ 00493c60 f i inventorydlg.obj
 0001:00092c60       ?_Root@?$_Tree@VCSkinObj@@U?$pair@$$CBVCSkinObj@@PAVCFastScrollCtrl@@@std@@U_Kfn@?$map@VCSkinObj@@PAVCFastScrollCtrl@@U?$less@VCSkinObj@@@std@@V?$allocator@PAVCFastScrollCtrl@@@4@@3@U?$less@VCSkinObj@@@3@V?$allocator@PAVCFastScrollCtrl@@@3@@std@@IAEAAPAU_Node@12@XZ 00493c60 f i inventorydlg.obj
 0001:00092c60       ?_Root@?$_Tree@V?$basic_string@DU?$char_traits@D@std@@V?$allocator@D@2@@std@@U?$pair@$$CBV?$basic_string@DU?$char_traits@D@std@@V?$allocator@D@2@@std@@H@2@U_Kfn@?$map@V?$basic_string@DU?$char_traits@D@std@@V?$allocator@D@2@@std@@HU?$less@V?$basic_string@DU?$char_traits@D@std@@V?$allocator@D@2@@std@@@2@V?$allocator@H@2@@2@U?$less@V?$basic_string@DU?$char_traits@D@std@@V?$allocator@D@2@@std@@@2@V?$allocator@H@2@@std@@IAEAAPAU_Node@12@XZ 00493c60 f i inventorydlg.obj
 0001:00092c60       ?_Root@?$_Tree@PAUHWND__@@U?$pair@QAUHWND__@@PAVCDropTarget@@@std@@U_Kfn@?$map@PAUHWND__@@PAVCDropTarget@@U?$less@PAUHWND__@@@std@@V?$allocator@PAVCDropTarget@@@4@@3@U?$less@PAUHWND__@@@3@V?$allocator@PAVCDropTarget@@@3@@std@@IBEAAPAU_Node@12@XZ 00493c60 f i inventorydlg.obj
 0001:00092c60       ?_Root@?$_Tree@VCSCI_Object@@U?$pair@$$CBVCSCI_Object@@PAVCNoButtonDlg@@@std@@U_Kfn@?$map@VCSCI_Object@@PAVCNoButtonDlg@@U?$less@VCSCI_Object@@@std@@V?$allocator@PAVCNoButtonDlg@@@4@@3@U?$less@VCSCI_Object@@@3@V?$allocator@PAVCNoButtonDlg@@@3@@std@@IBEAAPAU_Node@12@XZ 00493c60 f i inventorydlg.obj
 0001:00092c60       ?_Root@?$_Tree@HU?$pair@$$CBHPAVCMailMsgWnd@@@std@@U_Kfn@?$map@HPAVCMailMsgWnd@@U?$less@H@std@@V?$allocator@PAVCMailMsgWnd@@@3@@2@U?$less@H@2@V?$allocator@PAVCMailMsgWnd@@@2@@std@@IAEAAPAU_Node@12@XZ 00493c60 f i inventorydlg.obj
 0001:00092c60       ?_Root@?$_Tree@PAUHWND__@@U?$pair@QAUHWND__@@PAVCDropTarget@@@std@@U_Kfn@?$map@PAUHWND__@@PAVCDropTarget@@U?$less@PAUHWND__@@@std@@V?$allocator@PAVCDropTarget@@@4@@3@U?$less@PAUHWND__@@@3@V?$allocator@PAVCDropTarget@@@3@@std@@IAEAAPAU_Node@12@XZ 00493c60 f i inventorydlg.obj
 0001:00092c60       ?_Root@?$_Tree@VCString@@U?$pair@$$CBVCString@@VCPerson@@@std@@U_Kfn@?$map@VCString@@VCPerson@@U?$less@VCString@@@std@@V?$allocator@VCPerson@@@4@@3@U?$less@VCString@@@3@V?$allocator@VCPerson@@@3@@std@@IBEAAPAU_Node@12@XZ 00493c60 f i inventorydlg.obj
 0001:00092c60       ?_Root@?$_Tree@HU?$pair@$$CBHPAVCMailMsg@@@std@@U_Kfn@?$map@HPAVCMailMsg@@U?$less@H@std@@V?$allocator@PAVCMailMsg@@@3@@2@U?$less@H@2@V?$allocator@PAVCMailMsg@@@2@@std@@IBEAAPAU_Node@12@XZ 00493c60 f i inventorydlg.obj
 0001:00092c60       ?_Root@?$_Tree@HU?$pair@$$CBHVCSCI_WorldObject@@@std@@U_Kfn@?$map@HVCSCI_WorldObject@@U?$less@H@std@@V?$allocator@VCSCI_WorldObject@@@3@@2@U?$less@H@2@V?$allocator@VCSCI_WorldObject@@@2@@std@@IAEAAPAU_Node@12@XZ 00493c60 f i inventorydlg.obj
 0001:00092c60       ?_Root@?$_Tree@PAVCSkinCtrl@@PAV1@U_Kfn@?$set@PAVCSkinCtrl@@U?$less@PAVCSkinCtrl@@@std@@V?$allocator@PAVCSkinCtrl@@@3@@std@@U?$less@PAVCSkinCtrl@@@4@V?$allocator@PAVCSkinCtrl@@@4@@std@@IAEAAPAU_Node@12@XZ 00493c60 f i inventorydlg.obj
 0001:00092c60       ?_Root@?$_Tree@VCSCI_Object@@U?$pair@$$CBVCSCI_Object@@PAVCNoButtonDlg@@@std@@U_Kfn@?$map@VCSCI_Object@@PAVCNoButtonDlg@@U?$less@VCSCI_Object@@@std@@V?$allocator@PAVCNoButtonDlg@@@4@@3@U?$less@VCSCI_Object@@@3@V?$allocator@PAVCNoButtonDlg@@@3@@std@@IAEAAPAU_Node@12@XZ 00493c60 f i inventorydlg.obj
 0001:00092c60       ?_Root@?$_Tree@PAUHWND__@@U?$pair@QAUHWND__@@PAVCMouseWheelable@@@std@@U_Kfn@?$map@PAUHWND__@@PAVCMouseWheelable@@U?$less@PAUHWND__@@@std@@V?$allocator@PAVCMouseWheelable@@@4@@3@U?$less@PAUHWND__@@@3@V?$allocator@PAVCMouseWheelable@@@3@@std@@IBEAAPAU_Node@12@XZ 00493c60 f i inventorydlg.obj
 0001:00092c60       ?_Root@?$_Tree@HU?$pair@$$CBHPAVCVerbBtn@@@std@@U_Kfn@?$map@HPAVCVerbBtn@@U?$less@H@std@@V?$allocator@PAVCVerbBtn@@@3@@2@U?$less@H@2@V?$allocator@PAVCVerbBtn@@@2@@std@@IAEAAPAU_Node@12@XZ 00493c60 f i inventorydlg.obj
 0001:00092c60       ?_Root@?$_Tree@PAUHWND__@@U?$pair@QAUHWND__@@PAVCSkinWnd@@@std@@U_Kfn@?$map@PAUHWND__@@PAVCSkinWnd@@U?$less@PAUHWND__@@@std@@V?$allocator@PAVCSkinWnd@@@4@@3@U?$less@PAUHWND__@@@3@V?$allocator@PAVCSkinWnd@@@3@@std@@IBEAAPAU_Node@12@XZ 00493c60 f i inventorydlg.obj
 0001:00092c60       ?_Root@?$_Tree@VCSkinObj@@U?$pair@$$CBVCSkinObj@@PAVCSkinCtrl@@@std@@U_Kfn@?$map@VCSkinObj@@PAVCSkinCtrl@@U?$less@VCSkinObj@@@std@@V?$allocator@PAVCSkinCtrl@@@4@@3@U?$less@VCSkinObj@@@3@V?$allocator@PAVCSkinCtrl@@@3@@std@@IBEAAPAU_Node@12@XZ 00493c60 f i inventorydlg.obj
 0001:00092c60       ?_Root@?$_Tree@V?$basic_string@DU?$char_traits@D@std@@V?$allocator@D@2@@std@@U?$pair@$$CBV?$basic_string@DU?$char_traits@D@std@@V?$allocator@D@2@@std@@PAVCPrivateTell@@@2@U_Kfn@?$map@V?$basic_string@DU?$char_traits@D@std@@V?$allocator@D@2@@std@@PAVCPrivateTell@@U?$less@V?$basic_string@DU?$char_traits@D@std@@V?$allocator@D@2@@std@@@2@V?$allocator@PAVCPrivateTell@@@2@@2@U?$less@V?$basic_string@DU?$char_traits@D@std@@V?$allocator@D@2@@std@@@2@V?$allocator@PAVCPrivateTell@@@2@@std@@IAEAAPAU_Node@12@XZ 00493c60 f i inventorydlg.obj
 0001:00092c60       ?_Root@?$_Tree@VCSCI_WorldObject@@U?$pair@$$CBVCSCI_WorldObject@@PAVCInventoryDlg@@@std@@U_Kfn@?$map@VCSCI_WorldObject@@PAVCInventoryDlg@@U?$less@VCSCI_WorldObject@@@std@@V?$allocator@PAVCInventoryDlg@@@4@@3@U?$less@VCSCI_WorldObject@@@3@V?$allocator@PAVCInventoryDlg@@@3@@std@@IBEAAPAU_Node@12@XZ 00493c60 f i inventorydlg.obj
 0001:00092c60       ?_Root@?$_Tree@V?$basic_string@DU?$char_traits@D@std@@V?$allocator@D@2@@std@@U?$pair@$$CBV?$basic_string@DU?$char_traits@D@std@@V?$allocator@D@2@@std@@VCPoint@@@2@U_Kfn@?$map@V?$basic_string@DU?$char_traits@D@std@@V?$allocator@D@2@@std@@VCPoint@@U?$less@V?$basic_string@DU?$char_traits@D@std@@V?$allocator@D@2@@std@@@2@V?$allocator@VCPoint@@@2@@2@U?$less@V?$basic_string@DU?$char_traits@D@std@@V?$allocator@D@2@@std@@@2@V?$allocator@VCPoint@@@2@@std@@IBEAAPAU_Node@12@XZ 00493c60 f i inventorydlg.obj
 0001:00092c60       ?_Root@?$_Tree@PAVCSkinWnd@@PAV1@U_Kfn@?$set@PAVCSkinWnd@@U?$less@PAVCSkinWnd@@@std@@V?$allocator@PAVCSkinWnd@@@3@@std@@U?$less@PAVCSkinWnd@@@4@V?$allocator@PAVCSkinWnd@@@4@@std@@IAEAAPAU_Node@12@XZ 00493c60 f i inventorydlg.obj
 0001:00092c60       ?_Root@?$_Tree@PAVCSkinWnd@@PAV1@U_Kfn@?$set@PAVCSkinWnd@@U?$less@PAVCSkinWnd@@@std@@V?$allocator@PAVCSkinWnd@@@3@@std@@U?$less@PAVCSkinWnd@@@4@V?$allocator@PAVCSkinWnd@@@4@@std@@IBEAAPAU_Node@12@XZ 00493c60 f i inventorydlg.obj
 0001:00092c60       ?_Root@?$_Tree@PAUHWND__@@U?$pair@QAUHWND__@@PAVCMouseWheelable@@@std@@U_Kfn@?$map@PAUHWND__@@PAVCMouseWheelable@@U?$less@PAUHWND__@@@std@@V?$allocator@PAVCMouseWheelable@@@4@@3@U?$less@PAUHWND__@@@3@V?$allocator@PAVCMouseWheelable@@@3@@std@@IAEAAPAU_Node@12@XZ 00493c60 f i inventorydlg.obj
 0001:00092c60       ?_Root@?$_Tree@V?$basic_string@DU?$char_traits@D@std@@V?$allocator@D@2@@std@@U?$pair@$$CBV?$basic_string@DU?$char_traits@D@std@@V?$allocator@D@2@@std@@PAVCPrivateTell@@@2@U_Kfn@?$map@V?$basic_string@DU?$char_traits@D@std@@V?$allocator@D@2@@std@@PAVCPrivateTell@@U?$less@V?$basic_string@DU?$char_traits@D@std@@V?$allocator@D@2@@std@@@2@V?$allocator@PAVCPrivateTell@@@2@@2@U?$less@V?$basic_string@DU?$char_traits@D@std@@V?$allocator@D@2@@std@@@2@V?$allocator@PAVCPrivateTell@@@2@@std@@IBEAAPAU_Node@12@XZ 00493c60 f i inventorydlg.obj
 0001:00092c60       ?_Root@?$_Tree@PAVCSkinCtrl@@PAV1@U_Kfn@?$set@PAVCSkinCtrl@@U?$less@PAVCSkinCtrl@@@std@@V?$allocator@PAVCSkinCtrl@@@3@@std@@U?$less@PAVCSkinCtrl@@@4@V?$allocator@PAVCSkinCtrl@@@4@@std@@IBEAAPAU_Node@12@XZ 00493c60 f i inventorydlg.obj
 0001:00092c60       ?_Root@?$_Tree@PAUHWND__@@U?$pair@QAUHWND__@@PAVCSkinWnd@@@std@@U_Kfn@?$map@PAUHWND__@@PAVCSkinWnd@@U?$less@PAUHWND__@@@std@@V?$allocator@PAVCSkinWnd@@@4@@3@U?$less@PAUHWND__@@@3@V?$allocator@PAVCSkinWnd@@@3@@std@@IAEAAPAU_Node@12@XZ 00493c60 f i inventorydlg.obj
 0001:00092c80       ?_Ubound@?$_Tree@VCSkinObj@@U?$pair@$$CBVCSkinObj@@PAVCFastScrollCtrl@@@std@@U_Kfn@?$map@VCSkinObj@@PAVCFastScrollCtrl@@U?$less@VCSkinObj@@@std@@V?$allocator@PAVCFastScrollCtrl@@@4@@3@U?$less@VCSkinObj@@@3@V?$allocator@PAVCFastScrollCtrl@@@3@@std@@IBEPAU_Node@12@ABVCSkinObj@@@Z 00493c80 f i inventorydlg.obj
 0001:00092d50       ?_Consval@?$_Tree@VCSkinObj@@U?$pair@$$CBVCSkinObj@@PAVCFastScrollCtrl@@@std@@U_Kfn@?$map@VCSkinObj@@PAVCFastScrollCtrl@@U?$less@VCSkinObj@@@std@@V?$allocator@PAVCFastScrollCtrl@@@4@@3@U?$less@VCSkinObj@@@3@V?$allocator@PAVCFastScrollCtrl@@@3@@std@@IAEXPAU?$pair@$$CBVCSkinObj@@PAVCFastScrollCtrl@@@2@ABU32@@Z 00493d50 f i inventorydlg.obj
 0001:00092d70       ?_Dec@const_iterator@?$_Tree@VCSkinObj@@U?$pair@$$CBVCSkinObj@@PAVCFastScrollCtrl@@@std@@U_Kfn@?$map@VCSkinObj@@PAVCFastScrollCtrl@@U?$less@VCSkinObj@@@std@@V?$allocator@PAVCFastScrollCtrl@@@4@@3@U?$less@VCSkinObj@@@3@V?$allocator@PAVCFastScrollCtrl@@@3@@std@@QAEXXZ 00493d70 f i inventorydlg.obj
 0001:00092e80       ?_Inc@const_iterator@?$_Tree@VCSkinObj@@U?$pair@$$CBVCSkinObj@@PAVCFastScrollCtrl@@@std@@U_Kfn@?$map@VCSkinObj@@PAVCFastScrollCtrl@@U?$less@VCSkinObj@@@std@@V?$allocator@PAVCFastScrollCtrl@@@4@@3@U?$less@VCSkinObj@@@3@V?$allocator@PAVCFastScrollCtrl@@@3@@std@@QAEXXZ 00493e80 f i inventorydlg.obj
 0001:00092f60       ?_Ubound@?$_Tree@VCSCI_WorldObject@@U?$pair@$$CBVCSCI_WorldObject@@PAVCInventoryDlg@@@std@@U_Kfn@?$map@VCSCI_WorldObject@@PAVCInventoryDlg@@U?$less@VCSCI_WorldObject@@@std@@V?$allocator@PAVCInventoryDlg@@@4@@3@U?$less@VCSCI_WorldObject@@@3@V?$allocator@PAVCInventoryDlg@@@3@@std@@IBEPAU_Node@12@ABVCSCI_WorldObject@@@Z 00493f60 f i inventorydlg.obj
 0001:00093030       ?_Consval@?$_Tree@VCSCI_WorldObject@@U?$pair@$$CBVCSCI_WorldObject@@PAVCInventoryDlg@@@std@@U_Kfn@?$map@VCSCI_WorldObject@@PAVCInventoryDlg@@U?$less@VCSCI_WorldObject@@@std@@V?$allocator@PAVCInventoryDlg@@@4@@3@U?$less@VCSCI_WorldObject@@@3@V?$allocator@PAVCInventoryDlg@@@3@@std@@IAEXPAU?$pair@$$CBVCSCI_WorldObject@@PAVCInventoryDlg@@@2@ABU32@@Z 00494030 f i inventorydlg.obj
 0001:00093050       ?_Dec@const_iterator@?$_Tree@VCSCI_WorldObject@@U?$pair@$$CBVCSCI_WorldObject@@PAVCInventoryDlg@@@std@@U_Kfn@?$map@VCSCI_WorldObject@@PAVCInventoryDlg@@U?$less@VCSCI_WorldObject@@@std@@V?$allocator@PAVCInventoryDlg@@@4@@3@U?$less@VCSCI_WorldObject@@@3@V?$allocator@PAVCInventoryDlg@@@3@@std@@QAEXXZ 00494050 f i inventorydlg.obj
 0001:00093160       ?_Inc@const_iterator@?$_Tree@VCSCI_WorldObject@@U?$pair@$$CBVCSCI_WorldObject@@PAVCInventoryDlg@@@std@@U_Kfn@?$map@VCSCI_WorldObject@@PAVCInventoryDlg@@U?$less@VCSCI_WorldObject@@@std@@V?$allocator@PAVCInventoryDlg@@@4@@3@U?$less@VCSCI_WorldObject@@@3@V?$allocator@PAVCInventoryDlg@@@3@@std@@QAEXXZ 00494160 f i inventorydlg.obj
 0001:00093240       ?_Distance@std@@YAXViterator@?$_Tree@VCSkinObj@@U?$pair@$$CBVCSkinObj@@PAVCFastScrollCtrl@@@std@@U_Kfn@?$map@VCSkinObj@@PAVCFastScrollCtrl@@U?$less@VCSkinObj@@@std@@V?$allocator@PAVCFastScrollCtrl@@@4@@3@U?$less@VCSkinObj@@@3@V?$allocator@PAVCFastScrollCtrl@@@3@@1@0AAI@Z 00494240 f i inventorydlg.obj
 0001:00093270       ?_Distance@std@@YAXViterator@?$_Tree@VCSCI_WorldObject@@U?$pair@$$CBVCSCI_WorldObject@@PAVCInventoryDlg@@@std@@U_Kfn@?$map@VCSCI_WorldObject@@PAVCInventoryDlg@@U?$less@VCSCI_WorldObject@@@std@@V?$allocator@PAVCInventoryDlg@@@4@@3@U?$less@VCSCI_WorldObject@@@3@V?$allocator@PAVCInventoryDlg@@@3@@1@0AAI@Z 00494270 f i inventorydlg.obj
 0001:000932a0       ?_Destroy@std@@YAXPAU?$pair@$$CBVCSkinObj@@PAVCSkinCtrl@@@1@@Z 004942a0 f i inventorydlg.obj
 0001:000932a0       ?_Destroy@std@@YAXPAU?$pair@$$CBVCSkinObj@@PAVCFastScrollCtrl@@@1@@Z 004942a0 f i inventorydlg.obj
 0001:000932b0       ?_Construct@std@@YAXPAU?$pair@$$CBVCSkinObj@@PAVCFastScrollCtrl@@@1@ABU21@@Z 004942b0 f i inventorydlg.obj
 0001:00093320       ?_Construct@std@@YAXPAU?$pair@$$CBVCSCI_WorldObject@@PAVCInventoryDlg@@@1@ABU21@@Z 00494320 f i inventorydlg.obj
 0001:00093390       ??_G?$pair@$$CBVCSkinObj@@PAVCSkinCtrl@@@std@@QAEPAXI@Z 00494390 f i inventorydlg.obj
 0001:00093390       ??_G?$pair@$$CBVCSkinObj@@PAVCFastScrollCtrl@@@std@@QAEPAXI@Z 00494390 f i inventorydlg.obj
 0001:000933c0       ??0?$pair@$$CBVCSCI_WorldObject@@PAVCInventoryDlg@@@std@@QAE@ABU01@@Z 004943c0 f i inventorydlg.obj
 0001:000933f0       ?_Distance@std@@YAXViterator@?$_Tree@VCSkinObj@@U?$pair@$$CBVCSkinObj@@PAVCFastScrollCtrl@@@std@@U_Kfn@?$map@VCSkinObj@@PAVCFastScrollCtrl@@U?$less@VCSkinObj@@@std@@V?$allocator@PAVCFastScrollCtrl@@@4@@3@U?$less@VCSkinObj@@@3@V?$allocator@PAVCFastScrollCtrl@@@3@@1@0AAIUbidirectional_iterator_tag@1@@Z 004943f0 f i inventorydlg.obj
 0001:00093430       ?_Distance@std@@YAXViterator@?$_Tree@VCSCI_WorldObject@@U?$pair@$$CBVCSCI_WorldObject@@PAVCInventoryDlg@@@std@@U_Kfn@?$map@VCSCI_WorldObject@@PAVCInventoryDlg@@U?$less@VCSCI_WorldObject@@@std@@V?$allocator@PAVCInventoryDlg@@@4@@3@U?$less@VCSCI_WorldObject@@@3@V?$allocator@PAVCInventoryDlg@@@3@@1@0AAIUbidirectional_iterator_tag@1@@Z 00494430 f i inventorydlg.obj
 0001:00093470       ??0CSCI_BContainer@@QAE@XZ 00494470 f i inventorydlg.obj
 0001:00093470       ??0CSCI_List@@QAE@XZ       00494470 f i inventorydlg.obj
 0001:00093470       ??0CSCI_BitMap@@QAE@XZ     00494470 f i inventorydlg.obj
 0001:00093490       ?get_pContents@CSCI_BContainer@@QAEFXZ 00494490 f i inventorydlg.obj
 0001:000934b0       ?get_pIsWorn@CSCI_BWearable@@QAEFXZ 004944b0 f i inventorydlg.obj
 0001:000934d0       ?_GetBaseMessageMap@CInventoryListCtrl@@KGPBUAFX_MSGMAP@@XZ 004944d0 f   invlistctrl.obj
 0001:000934da       ?GetMessageMap@CInventoryListCtrl@@MBEPBUAFX_MSGMAP@@XZ 004944da f   invlistctrl.obj
 0001:000934ea       ??0CInventoryListCtrl@@QAE@VCSkinObj@@VCSCI_WorldObject@@@Z 004944ea f   invlistctrl.obj
 0001:000935c7       ??1CInventoryListCtrl@@UAE@XZ 004945c7 f   invlistctrl.obj
 0001:00093660       ?OnItemActivate@CInventoryListCtrl@@UAEXH_N@Z 00494660 f   invlistctrl.obj
 0001:0009385b       ?OnStartDrag@CInventoryListCtrl@@IAEXPAUtagNMHDR@@PAJ@Z 0049485b f   invlistctrl.obj
 0001:00093940       ?CanAcceptDrop@CInventoryListCtrl@@UAEPAUHICON__@@AAVCDraggable@@AAVCPoint@@@Z 00494940 f   invlistctrl.obj
 0001:000939a5       ?AcceptDrop@CInventoryListCtrl@@UAEXAAVCDraggable@@AAVCPoint@@@Z 004949a5 f   invlistctrl.obj
 0001:00093c1b       ?OnCreate@CInventoryListCtrl@@IAEHPAUtagCREATESTRUCTA@@@Z 00494c1b f   invlistctrl.obj
 0001:00093c4b       ?ObjectFromPoint@CInventoryListCtrl@@QAE?AVCSCI_WorldObject@@AAVCPoint@@@Z 00494c4b f   invlistctrl.obj
 0001:00093cc7       ?ObjectFromScreenPoint@CInventoryListCtrl@@QAE?AVCSCI_WorldObject@@AAVCPoint@@@Z 00494cc7 f   invlistctrl.obj
 0001:00093d0c       ?SetFastScrollUp@CInventoryListCtrl@@QAEXPAVCFastScrollCtrl@@@Z 00494d0c f   invlistctrl.obj
 0001:00093d25       ?SetFastScrollDown@CInventoryListCtrl@@QAEXPAVCFastScrollCtrl@@@Z 00494d25 f   invlistctrl.obj
 0001:00093d3e       ?OnSetCursor@CInventoryListCtrl@@IAEHPAVCWnd@@II@Z 00494d3e f   invlistctrl.obj
 0001:00093e80       ??_ECInventoryListCtrl@@UAEPAXI@Z 00494e80 f i invlistctrl.obj
 0001:00093e80       ??_GCInventoryListCtrl@@UAEPAXI@Z 00494e80 f i invlistctrl.obj
 0001:00093eb0       ??_ECInventoryListCtrl@@WEA@AEPAXI@Z 00494eb0 f i invlistctrl.obj
 0001:00093ec0       ??_ECInventoryListCtrl@@WHE@AEPAXI@Z 00494ec0 f i invlistctrl.obj
 0001:00093ed0       ??_ECInventoryListCtrl@@WLE@AEPAXI@Z 00494ed0 f i invlistctrl.obj
 0001:00093ee0       ?set_pDirectObject@CSCI_CVerbRequest@@QAEXF@Z 00494ee0 f i invlistctrl.obj
 0001:00093ee0       ?set_pDirectObject@CSCI_WorldObject@@QAEXF@Z 00494ee0 f i invlistctrl.obj
 0001:00093f00       ?set_pIndirectObject@CSCI_CVerbRequest@@QAEXF@Z 00494f00 f i invlistctrl.obj
 0001:00093f00       ?set_pIndirectObject@CSCI_WorldObject@@QAEXF@Z 00494f00 f i invlistctrl.obj
 0001:00093f20       ?get_pTargetting@CSCI_WorldEgo@@QAEFXZ 00494f20 f i invlistctrl.obj
 0001:00093f40       ?GetObjectA@CWorldObjectDraggable@@QAE?AVCSCI_WorldObject@@XZ 00494f40 f i invlistctrl.obj
 0001:00093f60       ??0CItemListDlg@@QAE@XZ    00494f60 f   ItemList.obj
 0001:0009401a       ?CloseSelf@CItemListDlg@@UAEX_N@Z 0049501a f   ItemList.obj
 0001:00094089       ?Create@CItemListDlg@@QAEHVCSCI_List@@VCSCI_Object@@@Z 00495089 f   ItemList.obj
 0001:00094338       ?MakeSkinCtrl@CItemListDlg@@UAEPAVCSkinCtrl@@VCSkinObj@@@Z 00495338 f   ItemList.obj
 0001:000944cf       ?OnClick@CItemListDlg@@QAEXF_N@Z 004954cf f   ItemList.obj
 0001:0009468d       ?HandleVerb@CItemListDlg@@UAEHHVCSCI_WorldObject@@@Z 0049568d f   ItemList.obj
 0001:00094700       ??_ECItemListDlg@@UAEPAXI@Z 00495700 f i ItemList.obj
 0001:00094700       ??_GCItemListDlg@@UAEPAXI@Z 00495700 f i ItemList.obj
 0001:00094730       ??1CItemListDlg@@UAE@XZ    00495730 f i ItemList.obj
 0001:000947a0       ??0CItemListCtrl@@QAE@XZ   004957a0 f i ItemList.obj
 0001:000947e0       ?OnItemActivate@CItemListCtrl@@UAEXH_N@Z 004957e0 f i ItemList.obj
 0001:00094810       ??_ECItemListCtrl@@UAEPAXI@Z 00495810 f i ItemList.obj
 0001:00094810       ??_GCItemListCtrl@@UAEPAXI@Z 00495810 f i ItemList.obj
 0001:00094840       ??1CItemListCtrl@@UAE@XZ   00495840 f i ItemList.obj
 0001:00094880       ??_ECItemListDlg@@WJE@AEPAXI@Z 00495880 f i ItemList.obj
 0001:00094890       ??_ECItemListCtrl@@WEA@AEPAXI@Z 00495890 f i ItemList.obj
 0001:000948a0       ??_ECItemListCtrl@@WHE@AEPAXI@Z 004958a0 f i ItemList.obj
 0001:000948b0       ?get_scratch@CSCI_Object@@QAEFXZ 004958b0 f i ItemList.obj
 0001:000948d0       ?_GetBaseMessageMap@CLogInDlg@@KGPBUAFX_MSGMAP@@XZ 004958d0 f   LogInDlg.obj
 0001:000948da       ?GetMessageMap@CLogInDlg@@MBEPBUAFX_MSGMAP@@XZ 004958da f   LogInDlg.obj
 0001:000948ea       ?_GetBaseMessageMap@CSplashDlg@@KGPBUAFX_MSGMAP@@XZ 004958ea f   LogInDlg.obj
 0001:000948f4       ?GetMessageMap@CSplashDlg@@MBEPBUAFX_MSGMAP@@XZ 004958f4 f   LogInDlg.obj
 0001:00094904       ?OnResize@CLogInDlg@@QAEXPAUtagNMHDR@@PAJ@Z 00495904 f   LogInDlg.obj
 0001:000949a2       ??0CLogInDlg@@QAE@XZ       004959a2 f   LogInDlg.obj
 0001:000949ce       ??1CLogInDlg@@UAE@XZ       004959ce f   LogInDlg.obj
 0001:00094a56       ?CloseSelf@CLogInDlg@@UAEX_N@Z 00495a56 f   LogInDlg.obj
 0001:00094a6f       ?Create@CLogInDlg@@QAEHPAD0@Z 00495a6f f   LogInDlg.obj
 0001:00094b4e       ?AddText@CLogInDlg@@QAEXPADH@Z 00495b4e f   LogInDlg.obj
 0001:00094bac       ?MakeSkinCtrl@CLogInDlg@@UAEPAVCSkinCtrl@@VCSkinObj@@@Z 00495bac f   LogInDlg.obj
 0001:00094d4a       ?Create@CSplashDlg@@QAEHPAVCWnd@@@Z 00495d4a f   LogInDlg.obj
 0001:00094de2       ?OnWindowPosChanged@CSplashDlg@@QAEXPAUtagWINDOWPOS@@@Z 00495de2 f   LogInDlg.obj
 0001:00094e0f       ??0CLogInPassword@@QAE@VCSCI_Script@@VStringID@@1VCSCI_LongInt@@1@Z 00495e0f f   LogInDlg.obj
 0001:00094ed1       ?CloseSelf@CLogInPassword@@UAEX_N@Z 00495ed1 f   LogInDlg.obj
 0001:0009509d       ?Create@CLogInPassword@@QAEHXZ 0049609d f   LogInDlg.obj
 0001:000951c3       ?MakeSkinCtrl@CLogInPassword@@UAEPAVCSkinCtrl@@VCSkinObj@@@Z 004961c3 f   LogInDlg.obj
 0001:000954c0       ?Next@CLogInPassword@@UAEXXZ 004964c0 f   LogInDlg.obj
 0001:000954db       ??0CSignupBtn@@QAE@VCSkinObj@@PAVCSkinWnd@@@Z 004964db f   LogInDlg.obj
 0001:0009554e       ?OnActivate@CSignupBtn@@UAEXFF@Z 0049654e f   LogInDlg.obj
 0001:00095573       ??0CAccountDlg@@QAE@VCSCI_Script@@@Z 00496573 f   LogInDlg.obj
 0001:000955e0       ?CloseSelf@CAccountDlg@@UAEX_N@Z 004965e0 f   LogInDlg.obj
 0001:00095645       ?Create@CAccountDlg@@QAEHXZ 00496645 f   LogInDlg.obj
 0001:000956b0       ??_GCLogInDlg@@UAEPAXI@Z   004966b0 f i LogInDlg.obj
 0001:000956b0       ??_ECLogInDlg@@UAEPAXI@Z   004966b0 f i LogInDlg.obj
 0001:000956e0       ??_GCLogInPassword@@UAEPAXI@Z 004966e0 f i LogInDlg.obj
 0001:000956e0       ??_ECLogInPassword@@UAEPAXI@Z 004966e0 f i LogInDlg.obj
 0001:00095710       ??1CLogInPassword@@UAE@XZ  00496710 f i LogInDlg.obj
 0001:00095730       ??_GCSignupBtn@@UAEPAXI@Z  00496730 f i LogInDlg.obj
 0001:00095730       ??_GCTabBtn@@UAEPAXI@Z     00496730 f i LogInDlg.obj
 0001:00095730       ??_ECTabBtn@@UAEPAXI@Z     00496730 f i LogInDlg.obj
 0001:00095730       ??_ECSignupBtn@@UAEPAXI@Z  00496730 f i LogInDlg.obj
 0001:00095760       ??_ECAccountDlg@@UAEPAXI@Z 00496760 f i LogInDlg.obj
 0001:00095760       ??_GCAccountDlg@@UAEPAXI@Z 00496760 f i LogInDlg.obj
 0001:00095790       ??1CAccountDlg@@UAE@XZ     00496790 f i LogInDlg.obj
 0001:000957b0       ?GetFocus@CWnd@@SGPAV1@XZ  004967b0 f i LogInDlg.obj
 0001:000957d0       ??0CLoginWnd@@QAE@XZ       004967d0 f   loginwnd.obj
 0001:00095816       ??1CLoginWnd@@UAE@XZ       00496816 f   loginwnd.obj
 0001:0009593f       ?Create@CLoginWnd@@QAEHXZ  0049693f f   loginwnd.obj
 0001:00095be0       ??_GCLoginWnd@@UAEPAXI@Z   00496be0 f i loginwnd.obj
 0001:00095be0       ??_ECLoginWnd@@UAEPAXI@Z   00496be0 f i loginwnd.obj
 0001:00095c10       ??0CFont@@QAE@XZ           00496c10 f i loginwnd.obj
 0001:00095c30       ??0CGdiObject@@QAE@XZ      00496c30 f i loginwnd.obj
 0001:00095c60       ??0CObject@@IAE@XZ         00496c60 f i loginwnd.obj
 0001:00095c80       ??_GCObject@@UAEPAXI@Z     00496c80 f i loginwnd.obj
 0001:00095c80       ??_ECObject@@UAEPAXI@Z     00496c80 f i loginwnd.obj
 0001:00095cb0       ??1CObject@@UAE@XZ         00496cb0 f i loginwnd.obj
 0001:00095cd0       ??_GCGdiObject@@UAEPAXI@Z  00496cd0 f i loginwnd.obj
 0001:00095cd0       ??_ECGdiObject@@UAEPAXI@Z  00496cd0 f i loginwnd.obj
 0001:00095d00       ??1CGdiObject@@UAE@XZ      00496d00 f i loginwnd.obj
 0001:00095d60       ??_ECFont@@UAEPAXI@Z       00496d60 f i loginwnd.obj
 0001:00095d60       ??_GCFont@@UAEPAXI@Z       00496d60 f i loginwnd.obj
 0001:00095d90       ??1CFont@@UAE@XZ           00496d90 f i loginwnd.obj
 0001:00095db0       ?GetTextExtent@CDC@@QBE?AVCSize@@ABVCString@@@Z 00496db0 f i loginwnd.obj
 0001:00095e00       ??0CSize@@QAE@UtagSIZE@@@Z 00496e00 f i loginwnd.obj
 0001:00095e20       ?SetFont@CWnd@@QAEXPAVCFont@@H@Z 00496e20 f i loginwnd.obj
 0001:00095e50       ?GetSafeHandle@CGdiObject@@QBEPAXXZ 00496e50 f i loginwnd.obj
 0001:00095e80       ?GetDC@CWnd@@QAEPAVCDC@@XZ 00496e80 f i loginwnd.obj
 0001:00095ea0       ?ReleaseDC@CWnd@@QAEHPAVCDC@@@Z 00496ea0 f i loginwnd.obj
 0001:00095ed0       ??0CEdit@@QAE@XZ           00496ed0 f i loginwnd.obj
 0001:00095ef0       ??_GCEdit@@UAEPAXI@Z       00496ef0 f i loginwnd.obj
 0001:00095ef0       ??_ECEdit@@UAEPAXI@Z       00496ef0 f i loginwnd.obj
 0001:00095f20       ?_GetBaseMessageMap@CBioLine@@KGPBUAFX_MSGMAP@@XZ 00496f20 f   LookAt.obj
 0001:00095f2a       ?GetMessageMap@CBioLine@@MBEPBUAFX_MSGMAP@@XZ 00496f2a f   LookAt.obj
 0001:00095f3a       ??0CBioLine@@QAE@VCSkinObj@@PAVCSkinWnd@@IK_N22@Z 00496f3a f   LookAt.obj
 0001:00095fdf       ?OnChar@CBioLine@@QAEXIII@Z 00496fdf f   LookAt.obj
 0001:00096205       ?MakeString@@YA?AVCString@@H@Z 00497205 f   LookAt.obj
 0001:00096349       ??0CLookAt@@QAE@H@Z        00497349 f   LookAt.obj
 0001:000963f8       ?CloseSelf@CLookAt@@UAEX_N@Z 004973f8 f   LookAt.obj
 0001:000964fb       ?Create@CLookAt@@QAEHPBD@Z 004974fb f   LookAt.obj
 0001:00096c79       ?MakeSkinCtrl@CLookAt@@UAEPAVCSkinCtrl@@VCSkinObj@@@Z 00497c79 f   LookAt.obj
 0001:0009b27a       ?SaveName@CLookAt@@QAEXXZ  0049c27a f   LookAt.obj
 0001:0009b3a7       ?Hide@CLookAt@@UAEXXZ      0049c3a7 f   LookAt.obj
 0001:0009b3c4       ?Show@CLookAt@@UAEXXZ      0049c3c4 f   LookAt.obj
 0001:0009b414       ?TogglePVP@CLookAt@@QAE_NXZ 0049c414 f   LookAt.obj
 0001:0009b468       ??0CLookAtFiller@@QAE@XZ   0049c468 f   LookAt.obj
 0001:0009b490       ?CloseSelf@CLookAtFiller@@UAEX_N@Z 0049c490 f   LookAt.obj
 0001:0009b4b3       ?Create@CLookAtFiller@@QAEHPAVCWnd@@@Z 0049c4b3 f   LookAt.obj
 0001:0009b506       ??0CPVPAttribute@@QAE@VCSkinObj@@PAVCSkinWnd@@_N@Z 0049c506 f   LookAt.obj
 0001:0009b5a6       ?ChangeValue@CPVPAttribute@@UAEXH@Z 0049c5a6 f   LookAt.obj
 0001:0009b5ee       ??0CLookAtBtn@@QAE@VCSkinObj@@PAVCSkinWnd@@H@Z 0049c5ee f   LookAt.obj
 0001:0009b66a       ?OnActivate@CLookAtBtn@@UAEXFF@Z 0049c66a f   LookAt.obj
 0001:0009b79d       ?_GetBaseMessageMap@CLookAtItem@@KGPBUAFX_MSGMAP@@XZ 0049c79d f   LookAt.obj
 0001:0009b7a7       ?GetMessageMap@CLookAtItem@@MBEPBUAFX_MSGMAP@@XZ 0049c7a7 f   LookAt.obj
 0001:0009b7b7       ??0CLookAtItem@@QAE@XZ     0049c7b7 f   LookAt.obj
 0001:0009b846       ??1CLookAtItem@@UAE@XZ     0049c846 f   LookAt.obj
 0001:0009b8b7       ?Create@CLookAtItem@@QAEHVCSCI_WorldObject@@VStringID@@@Z 0049c8b7 f   LookAt.obj
 0001:0009bde6       ?MakeSkinCtrl@CLookAtItem@@UAEPAVCSkinCtrl@@VCSkinObj@@@Z 0049cde6 f   LookAt.obj
 0001:0009bf6e       ?Update@CLookAtItem@@QAEXVStringID@@@Z 0049cf6e f   LookAt.obj
 0001:0009bff4       ?Match@CLookAtItem@@QAEHVCSCI_WorldObject@@@Z 0049cff4 f   LookAt.obj
 0001:0009c012       ?Look@CLookAtItem@@SAXVCSCI_WorldObject@@VStringID@@@Z 0049d012 f   LookAt.obj
 0001:0009c17e       ?OnResize@CLookAtItem@@QAEXPAUtagNMHDR@@PAJ@Z 0049d17e f   LookAt.obj
 0001:0009c220       ??_ECLookAt@@UAEPAXI@Z     0049d220 f i LookAt.obj
 0001:0009c220       ??_GCLookAt@@UAEPAXI@Z     0049d220 f i LookAt.obj
 0001:0009c250       ??1CLookAt@@UAE@XZ         0049d250 f i LookAt.obj
 0001:0009c2a0       ??_GCLookAtFiller@@UAEPAXI@Z 0049d2a0 f i LookAt.obj
 0001:0009c2a0       ??_ECLookAtFiller@@UAEPAXI@Z 0049d2a0 f i LookAt.obj
 0001:0009c2d0       ??_ECPVPAttribute@@UAEPAXI@Z 0049d2d0 f i LookAt.obj
 0001:0009c2d0       ??_GCPVPAttribute@@UAEPAXI@Z 0049d2d0 f i LookAt.obj
 0001:0009c300       ??1CPVPAttribute@@UAE@XZ   0049d300 f i LookAt.obj
 0001:0009c320       ??_ECSellAllBtn@@UAEPAXI@Z 0049d320 f i LookAt.obj
 0001:0009c320       ??_GCMaxBtn@@UAEPAXI@Z     0049d320 f i LookAt.obj
 0001:0009c320       ??_GCModifyBtn@@UAEPAXI@Z  0049d320 f i LookAt.obj
 0001:0009c320       ??_ECRepairBtn@@UAEPAXI@Z  0049d320 f i LookAt.obj
 0001:0009c320       ??_GCToonMakeFeatureDownBtn@@UAEPAXI@Z 0049d320 f i LookAt.obj
 0001:0009c320       ??_GCSellBtn@@UAEPAXI@Z    0049d320 f i LookAt.obj
 0001:0009c320       ??_ECOkBtn@@UAEPAXI@Z      0049d320 f i LookAt.obj
 0001:0009c320       ??_GCCancelBtn@@UAEPAXI@Z  0049d320 f i LookAt.obj
 0001:0009c320       ??_ECEraseBtn@@UAEPAXI@Z   0049d320 f i LookAt.obj
 0001:0009c320       ??_GCToonMakeSexBtn@@UAEPAXI@Z 0049d320 f i LookAt.obj
 0001:0009c320       ??_GCForwardBtn@@UAEPAXI@Z 0049d320 f i LookAt.obj
 0001:0009c320       ??_GCEraseBtn@@UAEPAXI@Z   0049d320 f i LookAt.obj
 0001:0009c320       ??_ECLookAtBtn@@UAEPAXI@Z  0049d320 f i LookAt.obj
 0001:0009c320       ??_ECToonMakeRaceDownBtn@@UAEPAXI@Z 0049d320 f i LookAt.obj
 0001:0009c320       ??_GCRepairBtn@@UAEPAXI@Z  0049d320 f i LookAt.obj
 0001:0009c320       ??_ECCancelBtn@@UAEPAXI@Z  0049d320 f i LookAt.obj
 0001:0009c320       ??_ECSellBtn@@UAEPAXI@Z    0049d320 f i LookAt.obj
 0001:0009c320       ??_GCToonMakeRandomBtn@@UAEPAXI@Z 0049d320 f i LookAt.obj
 0001:0009c320       ??_GCQuestionExitBtn@@UAEPAXI@Z 0049d320 f i LookAt.obj
 0001:0009c320       ??_ECQuestionExitBtn@@UAEPAXI@Z 0049d320 f i LookAt.obj
 0001:0009c320       ??_GCOkBtn@@UAEPAXI@Z      0049d320 f i LookAt.obj
 0001:0009c320       ??_ECToonMakeSexBtn@@UAEPAXI@Z 0049d320 f i LookAt.obj
 0001:0009c320       ??_GCColorBtn@@UAEPAXI@Z   0049d320 f i LookAt.obj
 0001:0009c320       ??_GCReplyBtn@@UAEPAXI@Z   0049d320 f i LookAt.obj
 0001:0009c320       ??_GCDoneBtn@@UAEPAXI@Z    0049d320 f i LookAt.obj
 0001:0009c320       ??_GCToonMakeRaceDownBtn@@UAEPAXI@Z 0049d320 f i LookAt.obj
 0001:0009c320       ??_GCSendBtn@@UAEPAXI@Z    0049d320 f i LookAt.obj
 0001:0009c320       ??_ECReplyBtn@@UAEPAXI@Z   0049d320 f i LookAt.obj
 0001:0009c320       ??_GCNextBtn@@UAEPAXI@Z    0049d320 f i LookAt.obj
 0001:0009c320       ??_GCSettingsBtn@@UAEPAXI@Z 0049d320 f i LookAt.obj
 0001:0009c320       ??_GCSellAllBtn@@UAEPAXI@Z 0049d320 f i LookAt.obj
 0001:0009c320       ??_GCEraseToonBtn@@UAEPAXI@Z 0049d320 f i LookAt.obj
 0001:0009c320       ??_ECForwardBtn@@UAEPAXI@Z 0049d320 f i LookAt.obj
 0001:0009c320       ??_GCToonMakeRaceUpBtn@@UAEPAXI@Z 0049d320 f i LookAt.obj
 0001:0009c320       ??_ECToonMakeRandomBtn@@UAEPAXI@Z 0049d320 f i LookAt.obj
 0001:0009c320       ??_ECColorBtn@@UAEPAXI@Z   0049d320 f i LookAt.obj
 0001:0009c320       ??_ECMaxBtn@@UAEPAXI@Z     0049d320 f i LookAt.obj
 0001:0009c320       ??_ECToonMakeFeatureDownBtn@@UAEPAXI@Z 0049d320 f i LookAt.obj
 0001:0009c320       ??_ECSettingsBtn@@UAEPAXI@Z 0049d320 f i LookAt.obj
 0001:0009c320       ??_ECNextBtn@@UAEPAXI@Z    0049d320 f i LookAt.obj
 0001:0009c320       ??_ECModifyBtn@@UAEPAXI@Z  0049d320 f i LookAt.obj
 0001:0009c320       ??_ECToonMakeRaceUpBtn@@UAEPAXI@Z 0049d320 f i LookAt.obj
 0001:0009c320       ??_ECEraseToonBtn@@UAEPAXI@Z 0049d320 f i LookAt.obj
 0001:0009c320       ??_GCLookAtBtn@@UAEPAXI@Z  0049d320 f i LookAt.obj
 0001:0009c320       ??_ECDoneBtn@@UAEPAXI@Z    0049d320 f i LookAt.obj
 0001:0009c320       ??_ECSendBtn@@UAEPAXI@Z    0049d320 f i LookAt.obj
 0001:0009c350       ??_GCLookAtItem@@UAEPAXI@Z 0049d350 f i LookAt.obj
 0001:0009c350       ??_ECLookAtItem@@UAEPAXI@Z 0049d350 f i LookAt.obj
 0001:0009c380       ?Width@CRect@@QBEHXZ       0049d380 f i LookAt.obj
 0001:0009c3a0       ??ZCRect@@QAEXUtagPOINT@@@Z 0049d3a0 f i LookAt.obj
 0001:0009c3d0       ??1?$list@PAVCLookAtItem@@V?$allocator@PAVCLookAtItem@@@std@@@std@@QAE@XZ 0049d3d0 f i LookAt.obj
 0001:0009c430       ?end@?$vector@PAVCPoint@@V?$allocator@PAVCPoint@@@std@@@std@@QAEPAPAVCPoint@@XZ 0049d430 f i LookAt.obj
 0001:0009c430       ?size@?$list@PADV?$allocator@PAD@std@@@std@@QBEIXZ 0049d430 f i LookAt.obj
 0001:0009c430       ?end@?$vector@PAVCSkinCtrl@@V?$allocator@PAVCSkinCtrl@@@std@@@std@@QAEPAPAVCSkinCtrl@@XZ 0049d430 f i LookAt.obj
 0001:0009c430       ?end@?$vector@PAVCSCIObjectMethodPair@@V?$allocator@PAVCSCIObjectMethodPair@@@std@@@std@@QAEPAPAVCSCIObjectMethodPair@@XZ 0049d430 f i LookAt.obj
 0001:0009c430       ?end@?$vector@VCSCI_WorldActor@@V?$allocator@VCSCI_WorldActor@@@std@@@std@@QAEPAVCSCI_WorldActor@@XZ 0049d430 f i LookAt.obj
 0001:0009c430       ?end@?$vector@PAVCTabBtn@@V?$allocator@PAVCTabBtn@@@std@@@std@@QAEPAPAVCTabBtn@@XZ 0049d430 f i LookAt.obj
 0001:0009c430       ?end@?$vector@PAVCSCIObjectMethod@@V?$allocator@PAVCSCIObjectMethod@@@std@@@std@@QAEPAPAVCSCIObjectMethod@@XZ 0049d430 f i LookAt.obj
 0001:0009c430       ?size@?$list@PAVCLookAtItem@@V?$allocator@PAVCLookAtItem@@@std@@@std@@QBEIXZ 0049d430 f i LookAt.obj
 0001:0009c430       ?size@?$list@PAVCListData@@V?$allocator@PAVCListData@@@std@@@std@@QBEIXZ 0049d430 f i LookAt.obj
 0001:0009c430       ?size@?$list@PAVCVerbRequest@@V?$allocator@PAVCVerbRequest@@@std@@@std@@QBEIXZ 0049d430 f i LookAt.obj
 0001:0009c430       ?end@?$vector@PAVCVerbBtn@@V?$allocator@PAVCVerbBtn@@@std@@@std@@QAEPAPAVCVerbBtn@@XZ 0049d430 f i LookAt.obj
 0001:0009c430       ?Loop@Bitmap@@QBEHXZ       0049d430 f i LookAt.obj
 0001:0009c430       ?size@?$list@PAVCSkinWnd@@V?$allocator@PAVCSkinWnd@@@std@@@std@@QBEIXZ 0049d430 f i LookAt.obj
 0001:0009c430       ?size@?$list@PAVCMailMsg@@V?$allocator@PAVCMailMsg@@@std@@@std@@QBEIXZ 0049d430 f i LookAt.obj
 0001:0009c430       ?end@?$vector@PAVCSkinBitmap@@V?$allocator@PAVCSkinBitmap@@@std@@@std@@QAEPAPAVCSkinBitmap@@XZ 0049d430 f i LookAt.obj
 0001:0009c430       ?end@?$vector@PAVCTabEntry@@V?$allocator@PAVCTabEntry@@@std@@@std@@QAEPAPAVCTabEntry@@XZ 0049d430 f i LookAt.obj
 0001:0009c430       ?end@?$vector@VCSkinObj@@V?$allocator@VCSkinObj@@@std@@@std@@QAEPAVCSkinObj@@XZ 0049d430 f i LookAt.obj
 0001:0009c430       ?size@?$list@PAVCInventoryDlg@@V?$allocator@PAVCInventoryDlg@@@std@@@std@@QBEIXZ 0049d430 f i LookAt.obj
 0001:0009c430       ?Version@HunkPalette@@QBEJXZ 0049d430 f i LookAt.obj
 0001:0009c450       ?push_back@?$list@PAVCLookAtItem@@V?$allocator@PAVCLookAtItem@@@std@@@std@@QAEXABQAVCLookAtItem@@@Z 0049d450 f i LookAt.obj
 0001:0009c480       ?remove@?$list@PAVCLookAtItem@@V?$allocator@PAVCLookAtItem@@@std@@@std@@QAEXABQAVCLookAtItem@@@Z 0049d480 f i LookAt.obj
 0001:0009c500       ??9iterator@?$list@PAVCLookAtItem@@V?$allocator@PAVCLookAtItem@@@std@@@std@@QBE_NABV012@@Z 0049d500 f i LookAt.obj
 0001:0009c530       ?erase@?$list@PAVCLookAtItem@@V?$allocator@PAVCLookAtItem@@@std@@@std@@QAE?AViterator@12@V312@0@Z 0049d530 f i LookAt.obj
 0001:0009c580       ?get_pIsSelf@CSCI_CharInfo@@QAEFXZ 0049d580 f i LookAt.obj
 0001:0009c5a0       ?get_pName@CSCI_CharInfo@@QAEFXZ 0049d5a0 f i LookAt.obj
 0001:0009c5c0       ?get_pTitle@CSCI_CharInfo@@QAE?AVStringID@@XZ 0049d5c0 f i LookAt.obj
 0001:0009c600       ?get_pProfession@CSCI_CharInfo@@QAE?AVStringID@@XZ 0049d600 f i LookAt.obj
 0001:0009c640       ?get_pBiography@CSCI_CharInfo@@QAE?AVStringID@@XZ 0049d640 f i LookAt.obj
 0001:0009c680       ?get_pLevel@CSCI_CharInfo@@QAEFXZ 0049d680 f i LookAt.obj
 0001:0009c6a0       ?get_pStrength@CSCI_CharInfo@@QAEFXZ 0049d6a0 f i LookAt.obj
 0001:0009c6a0       ?get_pStrength@CSCI_WorldObject@@QAEFXZ 0049d6a0 f i LookAt.obj
 0001:0009c6c0       ?get_pDexterity@CSCI_WorldObject@@QAEFXZ 0049d6c0 f i LookAt.obj
 0001:0009c6c0       ?get_pDexterity@CSCI_CharInfo@@QAEFXZ 0049d6c0 f i LookAt.obj
 0001:0009c6e0       ?get_pIntelligence@CSCI_CharInfo@@QAEFXZ 0049d6e0 f i LookAt.obj
 0001:0009c6e0       ?get_pIntelligence@CSCI_WorldObject@@QAEFXZ 0049d6e0 f i LookAt.obj
 0001:0009c700       ?get_pEndurance@CSCI_CharInfo@@QAEFXZ 0049d700 f i LookAt.obj
 0001:0009c700       ?get_pEndurance@CSCI_WorldObject@@QAEFXZ 0049d700 f i LookAt.obj
 0001:0009c720       ?get_pCarry@CSCI_CharInfo@@QAEFXZ 0049d720 f i LookAt.obj
 0001:0009c740       ?get_pCarryMax@CSCI_CharInfo@@QAEFXZ 0049d740 f i LookAt.obj
 0001:0009c760       ?get_pExperience@CSCI_CharInfo@@QAE?AVCSCI_LongInt@@XZ 0049d760 f i LookAt.obj
 0001:0009c790       ?get_pBuildPoints@CSCI_CharInfo@@QAEFXZ 0049d790 f i LookAt.obj
 0001:0009c7b0       ?get_pArmorRating@CSCI_CharInfo@@QAEFXZ 0049d7b0 f i LookAt.obj
 0001:0009c7d0       ?get_pPvp@CSCI_CharInfo@@QAEFXZ 0049d7d0 f i LookAt.obj
 0001:0009c7f0       ?set_pPvp@CSCI_CharInfo@@QAEXF@Z 0049d7f0 f i LookAt.obj
 0001:0009c810       ?get_pAlignment@CSCI_CharInfo@@QAEFXZ 0049d810 f i LookAt.obj
 0001:0009c830       ?get_pFace@CSCI_CharInfo@@QAEFXZ 0049d830 f i LookAt.obj
 0001:0009c850       ?get_pAttackStance@CSCI_CharInfo@@QAEFXZ 0049d850 f i LookAt.obj
 0001:0009c870       ?get_pAttackWidth@CSCI_CharInfo@@QAEFXZ 0049d870 f i LookAt.obj
 0001:0009c890       ?get_pAttackHeight@CSCI_CharInfo@@QAEFXZ 0049d890 f i LookAt.obj
 0001:0009c8b0       ?get_pStand@CSCI_CharInfo@@QAEFXZ 0049d8b0 f i LookAt.obj
 0001:0009c8d0       ?get_pArmorInfoList@CSCI_CharInfo@@QAEFXZ 0049d8d0 f i LookAt.obj
 0001:0009c8f0       ?get_pWeaponName@CSCI_CharInfo@@QAEFXZ 0049d8f0 f i LookAt.obj
 0001:0009c910       ?get_pWeaponDamageMin@CSCI_CharInfo@@QAEFXZ 0049d910 f i LookAt.obj
 0001:0009c930       ?get_pWeaponDamageMax@CSCI_CharInfo@@QAEFXZ 0049d930 f i LookAt.obj
 0001:0009c950       ?get_pWeaponCondition@CSCI_CharInfo@@QAEFXZ 0049d950 f i LookAt.obj
 0001:0009c970       ?get_pAttacksPerRound@CSCI_CharInfo@@QAEFXZ 0049d970 f i LookAt.obj
 0001:0009c990       ?get_pDodgesPerRound@CSCI_CharInfo@@QAEFXZ 0049d990 f i LookAt.obj
 0001:0009c9b0       ?get_pBlocksPerRound@CSCI_CharInfo@@QAEFXZ 0049d9b0 f i LookAt.obj
 0001:0009c9d0       ?get_pAttackDamageMin@CSCI_CharInfo@@QAEFXZ 0049d9d0 f i LookAt.obj
 0001:0009c9f0       ?get_pAttackDamageMax@CSCI_CharInfo@@QAEFXZ 0049d9f0 f i LookAt.obj
 0001:0009ca10       ?get_pMovementRate@CSCI_CharInfo@@QAEFXZ 0049da10 f i LookAt.obj
 0001:0009ca30       ?get_pSkillArray@CSCI_CharInfo@@QAEFXZ 0049da30 f i LookAt.obj
 0001:0009ca50       ?get_pStatusArray@CSCI_CharInfo@@QAEFXZ 0049da50 f i LookAt.obj
 0001:0009ca70       ?get_pNPCKills@CSCI_CharInfo@@QAEFXZ 0049da70 f i LookAt.obj
 0001:0009ca90       ?get_pPKills@CSCI_CharInfo@@QAEFXZ 0049da90 f i LookAt.obj
 0001:0009cab0       ?get_pMeleeMod@CSCI_CharInfo@@QAEFXZ 0049dab0 f i LookAt.obj
 0001:0009cad0       ?get_pSpellMod@CSCI_CharInfo@@QAEFXZ 0049dad0 f i LookAt.obj
 0001:0009caf0       ?get_pOldLevel@CSCI_CharInfo@@QAEFXZ 0049daf0 f i LookAt.obj
 0001:0009cb10       ?set_pUpdateBio@CSCI_CharInfo@@QAEXF@Z 0049db10 f i LookAt.obj
 0001:0009cb30       ?set_pUpdateTitle@CSCI_CharInfo@@QAEXF@Z 0049db30 f i LookAt.obj
 0001:0009cb50       ?get_pManaDrain@CSCI_CharInfo@@QAE?AVCSCI_LongInt@@XZ 0049db50 f i LookAt.obj
 0001:0009cb80       ?get_pMeleeArmorPierce@CSCI_CharInfo@@QAE?AVCSCI_LongInt@@XZ 0049db80 f i LookAt.obj
 0001:0009cbb0       ?get_pEvilMDM@CSCI_CharInfo@@QAE?AVCSCI_LongInt@@XZ 0049dbb0 f i LookAt.obj
 0001:0009cbe0       ?get_pGoodMDM@CSCI_CharInfo@@QAE?AVCSCI_LongInt@@XZ 0049dbe0 f i LookAt.obj
 0001:0009cc10       ?get_pAccountType@CSCI_CharInfo@@QAE?AVStringID@@XZ 0049dc10 f i LookAt.obj
 0001:0009cc50       ?get_pBillingDate@CSCI_CharInfo@@QAE?AVCSCI_LongInt@@XZ 0049dc50 f i LookAt.obj
 0001:0009cc80       ?get_pAccountID@CSCI_CharInfo@@QAE?AVStringID@@XZ 0049dc80 f i LookAt.obj
 0001:0009ccc0       ?get_pCredits@CSCI_CharInfo@@QAE?AVCSCI_LongInt@@XZ 0049dcc0 f i LookAt.obj
 0001:0009ccf0       ?get_pCoppers@CSCI_CharInfo@@QAE?AVCSCI_LongInt@@XZ 0049dcf0 f i LookAt.obj
 0001:0009cd20       ?get_pCastResist@CSCI_CharInfo@@QAE?AVStringID@@XZ 0049dd20 f i LookAt.obj
 0001:0009cd60       ?get_pSpellResist@CSCI_CharInfo@@QAE?AVStringID@@XZ 0049dd60 f i LookAt.obj
 0001:0009cda0       ?get_nRights@CSCI_CharInfo@@QAEFXZ 0049dda0 f i LookAt.obj
 0001:0009cdc0       ??0CSCI_Rectangle@@QAE@XZ  0049ddc0 f i LookAt.obj
 0001:0009cdc0       ??0CSCI_CharInfo@@QAE@XZ   0049ddc0 f i LookAt.obj
 0001:0009cdc0       ??0CSCI_Collection@@QAE@XZ 0049ddc0 f i LookAt.obj
 0001:0009cdc0       ??0CSCI_ArmorInfo@@QAE@XZ  0049ddc0 f i LookAt.obj
 0001:0009cdc0       ??0CSCI_LongInt@@QAE@XZ    0049ddc0 f i LookAt.obj
 0001:0009cdc0       ??0CSCI_Script@@QAE@XZ     0049ddc0 f i LookAt.obj
 0001:0009cdc0       ??0CSCI_WorldObjectBase@@QAE@XZ 0049ddc0 f i LookAt.obj
 0001:0009cde0       ?get_pType@CSCI_ArmorInfo@@QAEFXZ 0049dde0 f i LookAt.obj
 0001:0009ce00       ?get_pRating@CSCI_ArmorInfo@@QAEFXZ 0049de00 f i LookAt.obj
 0001:0009ce20       ?get_pCondition@CSCI_ArmorInfo@@QAEFXZ 0049de20 f i LookAt.obj
 0001:0009cea9       ?FindByUniqueID@CMailMsg@@SAPAV1@H@Z 0049dea9 f   MailMgr.obj
 0001:0009cebe       ??0CMailMsg@@QAE@XZ        0049debe f   MailMgr.obj
 0001:0009cfa2       ??1CMailMsg@@UAE@XZ        0049dfa2 f   MailMgr.obj
 0001:0009d06a       ?EnableSendBtn@CMailMsg@@QAEHH@Z 0049e06a f   MailMgr.obj
 0001:0009d0af       ?CreateInboxHdr@CMailMsg@@QAEHPAVPackedData@@@Z 0049e0af f   MailMgr.obj
 0001:0009d1db       ?CreateInbox@CMailMsg@@QAEHVObjectID@@@Z 0049e1db f   MailMgr.obj
 0001:0009d2e4       ?CreateReply@CMailMsg@@QAEHAAV1@@Z 0049e2e4 f   MailMgr.obj
 0001:0009d4de       ?CreateForward@CMailMsg@@QAEHAAV1@@Z 0049e4de f   MailMgr.obj
 0001:0009d5d7       ?SetTo@CMailMsg@@QAEXV?$basic_string@DU?$char_traits@D@std@@V?$allocator@D@2@@std@@@Z 0049e5d7 f   MailMgr.obj
 0001:0009d62a       ?SetTo@CMailMsg@@QAEXPBD@Z 0049e62a f   MailMgr.obj
 0001:0009d647       ?SetFrom@CMailMsg@@QAEXV?$basic_string@DU?$char_traits@D@std@@V?$allocator@D@2@@std@@@Z 0049e647 f   MailMgr.obj
 0001:0009d69a       ?SetFrom@CMailMsg@@QAEXPBD@Z 0049e69a f   MailMgr.obj
 0001:0009d6b7       ?SetSubject@CMailMsg@@QAEXV?$basic_string@DU?$char_traits@D@std@@V?$allocator@D@2@@std@@@Z 0049e6b7 f   MailMgr.obj
 0001:0009d70a       ?SetSubject@CMailMsg@@QAEXPBD@Z 0049e70a f   MailMgr.obj
 0001:0009d727       ?SetReceived@CMailMsg@@QAEXV?$basic_string@DU?$char_traits@D@std@@V?$allocator@D@2@@std@@@Z 0049e727 f   MailMgr.obj
 0001:0009d77a       ?SetReceived@CMailMsg@@QAEXPBD@Z 0049e77a f   MailMgr.obj
 0001:0009d797       ?SetBody@CMailMsg@@QAEXV?$basic_string@DU?$char_traits@D@std@@V?$allocator@D@2@@std@@@Z 0049e797 f   MailMgr.obj
 0001:0009d7ea       ?SetBody@CMailMsg@@QAEXPBD@Z 0049e7ea f   MailMgr.obj
 0001:0009d807       ?GetComplete@CMailMsg@@QAEHXZ 0049e807 f   MailMgr.obj
 0001:0009d818       ?GetTo@CMailMsg@@QAEXAAV?$basic_string@DU?$char_traits@D@std@@V?$allocator@D@2@@std@@@Z 0049e818 f   MailMgr.obj
 0001:0009d835       ?GetFrom@CMailMsg@@QAEXAAV?$basic_string@DU?$char_traits@D@std@@V?$allocator@D@2@@std@@@Z 0049e835 f   MailMgr.obj
 0001:0009d852       ?GetSubject@CMailMsg@@QAEXAAV?$basic_string@DU?$char_traits@D@std@@V?$allocator@D@2@@std@@@Z 0049e852 f   MailMgr.obj
 0001:0009d86f       ?GetReceived@CMailMsg@@QAEXAAV?$basic_string@DU?$char_traits@D@std@@V?$allocator@D@2@@std@@@Z 0049e86f f   MailMgr.obj
 0001:0009d88c       ?GetBody@CMailMsg@@QAEXAAV?$basic_string@DU?$char_traits@D@std@@V?$allocator@D@2@@std@@@Z 0049e88c f   MailMgr.obj
 0001:0009d8a9       ?GetType@CMailMsg@@QAEHXZ  0049e8a9 f   MailMgr.obj
 0001:0009d8ba       ?GetUniqueID@CMailMsg@@QAEHXZ 0049e8ba f   MailMgr.obj
 0001:0009d8cb       ??0CMailBox@@QAE@XZ        0049e8cb f   MailMgr.obj
 0001:0009d98f       ??1CMailBox@@UAE@XZ        0049e98f f   MailMgr.obj
 0001:0009db12       ?Create@CMailBox@@QAEXXZ   0049eb12 f   MailMgr.obj
 0001:0009dc33       ?Update@CMailBox@@QAEHVObjectID@@@Z 0049ec33 f   MailMgr.obj
 0001:0009dea8       ?Clear@CMailBox@@QAEXXZ    0049eea8 f   MailMgr.obj
 0001:0009df54       ?CanRequestMsg@CMailBox@@QAEHXZ 0049ef54 f   MailMgr.obj
 0001:0009df6d       ?RequestMsg@CMailBox@@QAEXH@Z 0049ef6d f   MailMgr.obj
 0001:0009dfe2       ?HandleMsg@CMailBox@@QAEXVCSCI_NetMsg@@@Z 0049efe2 f   MailMgr.obj
 0001:0009e8ee       ?SendMsg@CMailBox@@QAEXH@Z 0049f8ee f   MailMgr.obj
 0001:0009eaeb       ?DeleteMsg@CMailBox@@QAEHH@Z 0049faeb f   MailMgr.obj
 0001:0009eb13       ?ReadMsg@CMailBox@@QAEHH@Z 0049fb13 f   MailMgr.obj
 0001:0009ec23       ?AuthorMsgInProgress@CMailBox@@QAEHXZ 0049fc23 f   MailMgr.obj
 0001:0009ec40       ?AuthorMsg@CMailBox@@QAEXXZ 0049fc40 f   MailMgr.obj
 0001:0009ed2e       ?AuthorReplyMsg@CMailBox@@QAEXH@Z 0049fd2e f   MailMgr.obj
 0001:0009ee5c       ?AuthorForwardMsg@CMailBox@@QAEXH@Z 0049fe5c f   MailMgr.obj
 0001:0009ef8a       ?ShowManagerWnd@CMailBox@@QAEXXZ 0049ff8a f   MailMgr.obj
 0001:0009efb1       ?DestroyManagerWnd@CMailBox@@QAEXXZ 0049ffb1 f   MailMgr.obj
 0001:0009f01c       ?SetNoLongerViewed@CMailBox@@QAEXH@Z 004a001c f   MailMgr.obj
 0001:0009f06e       ?hasMessages@CMailBox@@QAE_NXZ 004a006e f   MailMgr.obj
 0001:0009f08a       ??0CMailMgrWnd@@QAE@XZ     004a008a f   MailMgr.obj
 0001:0009f0e6       ?CloseSelf@CMailMgrWnd@@UAEX_N@Z 004a00e6 f   MailMgr.obj
 0001:0009f109       ?HandleVerb@CMailMgrWnd@@QAEHHH@Z 004a0109 f   MailMgr.obj
 0001:0009f25a       ?ClearDialog@CMailMgrWnd@@QAEXXZ 004a025a f   MailMgr.obj
 0001:0009f311       ?Create@CMailMgrWnd@@UAEHPAVCMailBox@@@Z 004a0311 f   MailMgr.obj
 0001:0009f413       ?AddMsg@CMailMgrWnd@@QAEHAAVCMailMsg@@@Z 004a0413 f   MailMgr.obj
 0001:0009f5f3       ?DeleteMsg@CMailMgrWnd@@QAEHAAVCMailMsg@@@Z 004a05f3 f   MailMgr.obj
 0001:0009f736       ?Show@CMailMgrWnd@@QAEXXZ  004a0736 f   MailMgr.obj
 0001:0009f74b       ?MakeSkinCtrl@CMailMgrWnd@@UAEPAVCSkinCtrl@@VCSkinObj@@@Z 004a074b f   MailMgr.obj
 0001:0009fb82       ?FindByUniqueID@CMailMsgWnd@@SAPAV1@H@Z 004a0b82 f   MailMgr.obj
 0001:0009fb97       ?MapToUniqueID@CMailMsgWnd@@IAEXH@Z 004a0b97 f   MailMgr.obj
 0001:0009fbc3       ??0CMailMsgWnd@@QAE@XZ     004a0bc3 f   MailMgr.obj
 0001:0009fbef       ??1CMailMsgWnd@@UAE@XZ     004a0bef f   MailMgr.obj
 0001:0009fc69       ??0CMailMsgReadWnd@@QAE@XZ 004a0c69 f   MailMgr.obj
 0001:0009fcf6       ?CloseSelf@CMailMsgReadWnd@@UAEX_N@Z 004a0cf6 f   MailMgr.obj
 0001:0009fd19       ?Create@CMailMsgReadWnd@@UAEHH@Z 004a0d19 f   MailMgr.obj
 0001:000a024d       ?MakeSkinCtrl@CMailMsgReadWnd@@UAEPAVCSkinCtrl@@VCSkinObj@@@Z 004a124d f   MailMgr.obj
 0001:000a05e7       ??0CMailMsgAuthorWnd@@QAE@XZ 004a15e7 f   MailMgr.obj
 0001:000a063a       ??1CMailMsgAuthorWnd@@UAE@XZ 004a163a f   MailMgr.obj
 0001:000a0656       ?Create@CMailMsgAuthorWnd@@UAEHH@Z 004a1656 f   MailMgr.obj
 0001:000a09fc       ?MakeSkinCtrl@CMailMsgAuthorWnd@@UAEPAVCSkinCtrl@@VCSkinObj@@@Z 004a19fc f   MailMgr.obj
 0001:000a0b50       ?Next@CMailMsgAuthorWnd@@UAEXXZ 004a1b50 f   MailMgr.obj
 0001:000a0d4c       ?EnableSendBtn@CMailMsgAuthorWnd@@QAEXH@Z 004a1d4c f   MailMgr.obj
 0001:000a0db4       ??0CEraseBtn@@QAE@VCSkinObj@@PAVCSkinWnd@@H@Z 004a1db4 f   MailMgr.obj
 0001:000a0e30       ?OnActivate@CEraseBtn@@UAEXFF@Z 004a1e30 f   MailMgr.obj
 0001:000a0e9a       ??0CReplyBtn@@QAE@VCSkinObj@@PAVCSkinWnd@@H@Z 004a1e9a f   MailMgr.obj
 0001:000a0f16       ?OnActivate@CReplyBtn@@UAEXFF@Z 004a1f16 f   MailMgr.obj
 0001:000a0f63       ??0CForwardBtn@@QAE@VCSkinObj@@PAVCSkinWnd@@H@Z 004a1f63 f   MailMgr.obj
 0001:000a0fdf       ?OnActivate@CForwardBtn@@UAEXFF@Z 004a1fdf f   MailMgr.obj
 0001:000a102c       ??0CDoneBtn@@QAE@VCSkinObj@@PAVCSkinWnd@@@Z 004a202c f   MailMgr.obj
 0001:000a109f       ?OnActivate@CDoneBtn@@UAEXFF@Z 004a209f f   MailMgr.obj
