	TITLE	\\vboxsrv\vagrant\DnGClientSource\clientwork\Interp\skinform.cpp
	.386P
include listing.inc
if @Version gt 510
.model FLAT
else
_TEXT	SEGMENT PARA USE32 PUBLIC 'CODE'
_TEXT	ENDS
_DATA	SEGMENT DWORD USE32 PUBLIC 'DATA'
_DATA	ENDS
CONST	SEGMENT DWORD USE32 PUBLIC 'CONST'
CONST	ENDS
_BSS	SEGMENT PARA USE32 PUBLIC 'BSS'
_BSS	ENDS
_TLS	SEGMENT DWORD USE32 PUBLIC 'TLS'
_TLS	ENDS
;	COMDAT ??_C@_0BB@NAAD@Magellan?5MSWHEEL?$AA@
_DATA	SEGMENT DWORD USE32 PUBLIC 'DATA'
_DATA	ENDS
;	COMDAT ??_C@_06FPAF@MouseZ?$AA@
_DATA	SEGMENT DWORD USE32 PUBLIC 'DATA'
_DATA	ENDS
;	COMDAT ??_C@_0BA@CLBL@MSWHEEL_ROLLMSG?$AA@
_DATA	SEGMENT DWORD USE32 PUBLIC 'DATA'
_DATA	ENDS
;	COMDAT ??_C@_0BF@DLPD@MSH_WHEELSUPPORT_MSG?$AA@
_DATA	SEGMENT DWORD USE32 PUBLIC 'DATA'
_DATA	ENDS
;	COMDAT ??_C@_0BF@ODOJ@MSH_SCROLL_LINES_MSG?$AA@
_DATA	SEGMENT DWORD USE32 PUBLIC 'DATA'
_DATA	ENDS
;	COMDAT ??_C@_0BP@EDBF@Object?5created?5on?5thread?5?$DN?5?$CFd?6?$AA@
_DATA	SEGMENT DWORD USE32 PUBLIC 'DATA'
_DATA	ENDS
;	COMDAT ??_C@_05FGFK@CLSID?$AA@
_DATA	SEGMENT DWORD USE32 PUBLIC 'DATA'
_DATA	ENDS
;	COMDAT ??_C@_00A@?$AA@
_DATA	SEGMENT DWORD USE32 PUBLIC 'DATA'
_DATA	ENDS
;	COMDAT ??_C@_03DMDD@?5?9?5?$AA@
_DATA	SEGMENT DWORD USE32 PUBLIC 'DATA'
_DATA	ENDS
;	COMDAT ??_C@_09MOFL@Interface?$AA@
_DATA	SEGMENT DWORD USE32 PUBLIC 'DATA'
_DATA	ENDS
;	COMDAT ??_C@_0M@FNJL@?$CICLSID?$DP?$DP?$DP?$CJ?5?$AA@
_DATA	SEGMENT DWORD USE32 PUBLIC 'DATA'
_DATA	ENDS
;	COMDAT ??_C@_09DLIL@?5?9?5failed?$AA@
_DATA	SEGMENT DWORD USE32 PUBLIC 'DATA'
_DATA	ENDS
;	COMDAT ??_C@_01BJG@?6?$AA@
_DATA	SEGMENT DWORD USE32 PUBLIC 'DATA'
_DATA	ENDS
;	COMDAT ??_C@_0O@NKPL@Unknown?5Error?$AA@
_DATA	SEGMENT DWORD USE32 PUBLIC 'DATA'
_DATA	ENDS
;	COMDAT ??_C@_1O@HOAP@?$AAM?$AAo?$AAd?$AAu?$AAl?$AAe?$AA?$AA@
_DATA	SEGMENT DWORD USE32 PUBLIC 'DATA'
_DATA	ENDS
;	COMDAT ??_C@_1BC@BJHN@?$AAR?$AAE?$AAG?$AAI?$AAS?$AAT?$AAR?$AAY?$AA?$AA@
_DATA	SEGMENT DWORD USE32 PUBLIC 'DATA'
_DATA	ENDS
;	COMDAT ??_C@_04MDHG@?4tlb?$AA@
_DATA	SEGMENT DWORD USE32 PUBLIC 'DATA'
_DATA	ENDS
;	COMDAT ??_C@_0N@JLHD@oleaut32?4dll?$AA@
_DATA	SEGMENT DWORD USE32 PUBLIC 'DATA'
_DATA	ENDS
;	COMDAT ??_C@_0BC@FJNM@UnRegisterTypeLib?$AA@
_DATA	SEGMENT DWORD USE32 PUBLIC 'DATA'
_DATA	ENDS
;	COMDAT ??_C@_0O@CDEE@DllGetVersion?$AA@
_DATA	SEGMENT DWORD USE32 PUBLIC 'DATA'
_DATA	ENDS
;	COMDAT ??_C@_0N@FDEG@comctl32?4dll?$AA@
_DATA	SEGMENT DWORD USE32 PUBLIC 'DATA'
_DATA	ENDS
;	COMDAT ??_C@_0M@IKNA@shell32?4dll?$AA@
_DATA	SEGMENT DWORD USE32 PUBLIC 'DATA'
_DATA	ENDS
;	COMDAT ??_C@_0FG@ILEN@?3Sun?3Sunday?3Mon?3Monday?3Tue?3Tuesd@
_DATA	SEGMENT DWORD USE32 PUBLIC 'DATA'
_DATA	ENDS
;	COMDAT ??_C@_0IH@JLLA@?3Jan?3January?3Feb?3February?3Mar?3Ma@
_DATA	SEGMENT DWORD USE32 PUBLIC 'DATA'
_DATA	ENDS
;	COMDAT ??_C@_05NAGO@false?$AA@
_DATA	SEGMENT DWORD USE32 PUBLIC 'DATA'
_DATA	ENDS
;	COMDAT ??_C@_04NCCD@true?$AA@
_DATA	SEGMENT DWORD USE32 PUBLIC 'DATA'
_DATA	ENDS
;	COMDAT ??_C@_02ELCB@no?$AA@
_DATA	SEGMENT DWORD USE32 PUBLIC 'DATA'
_DATA	ENDS
;	COMDAT ??_C@_03LGKI@yes?$AA@
_DATA	SEGMENT DWORD USE32 PUBLIC 'DATA'
_DATA	ENDS
;	COMDAT ??_C@_01FKHJ@C?$AA@
_DATA	SEGMENT DWORD USE32 PUBLIC 'DATA'
_DATA	ENDS
;	COMDAT ??_C@_0BE@OPIO@IDispatch?5error?5?$CD?$CFd?$AA@
_DATA	SEGMENT DWORD USE32 PUBLIC 'DATA'
_DATA	ENDS
;	COMDAT ??_C@_0BF@NADL@Unknown?5error?50x?$CF0lX?$AA@
_DATA	SEGMENT DWORD USE32 PUBLIC 'DATA'
_DATA	ENDS
;	COMDAT ??_C@_02MHAC@?$CFp?$AA@
_DATA	SEGMENT DWORD USE32 PUBLIC 'DATA'
_DATA	ENDS
;	COMDAT ??_C@_0BH@CFAI@0123456789abcdefABCDEF?$AA@
_DATA	SEGMENT DWORD USE32 PUBLIC 'DATA'
_DATA	ENDS
;	COMDAT ??_C@_01KFAL@E?$AA@
_DATA	SEGMENT DWORD USE32 PUBLIC 'DATA'
_DATA	ENDS
;	COMDAT ??_C@_01PHOL@e?$AA@
_DATA	SEGMENT DWORD USE32 PUBLIC 'DATA'
_DATA	ENDS
;	COMDAT ??_C@_01KMAE@?0?$AA@
_DATA	SEGMENT DWORD USE32 PUBLIC 'DATA'
_DATA	ENDS
;	COMDAT ??_C@_0BF@MMAA@missing?5locale?5facet?$AA@
_DATA	SEGMENT DWORD USE32 PUBLIC 'DATA'
_DATA	ENDS
xdata$x	SEGMENT DWORD USE32 PUBLIC 'CONST'
xdata$x	ENDS
;	COMDAT __tcscmp
_TEXT	SEGMENT PARA USE32 PUBLIC 'CODE'
_TEXT	ENDS
;	COMDAT __tcsicmp
_TEXT	SEGMENT PARA USE32 PUBLIC 'CODE'
_TEXT	ENDS
;	COMDAT __tcscoll
_TEXT	SEGMENT PARA USE32 PUBLIC 'CODE'
_TEXT	ENDS
;	COMDAT __tcsicoll
_TEXT	SEGMENT PARA USE32 PUBLIC 'CODE'
_TEXT	ENDS
;	COMDAT ?GetNextWindow@@YAPAUHWND__@@PAU1@I@Z
_TEXT	SEGMENT PARA USE32 PUBLIC 'CODE'
_TEXT	ENDS
;	COMDAT ?DrawState@@YGHPAUHDC__@@PAUHBRUSH__@@P6GH0JIHH@ZJIHHHHI@Z
_TEXT	SEGMENT PARA USE32 PUBLIC 'CODE'
_TEXT	ENDS
;	COMDAT ?GetNextPtr@CSimpleList@@QBEPAPAXPAX@Z
_TEXT	SEGMENT PARA USE32 PUBLIC 'CODE'
_TEXT	ENDS
;	COMDAT ??1CNoTrackObject@@UAE@XZ
_TEXT	SEGMENT PARA USE32 PUBLIC 'CODE'
_TEXT	ENDS
;	COMDAT ??_GCNoTrackObject@@UAEPAXI@Z
_TEXT	SEGMENT PARA USE32 PUBLIC 'CODE'
_TEXT	ENDS
;	COMDAT ?GetAt@CByteArray@@QBEEH@Z
_TEXT	SEGMENT PARA USE32 PUBLIC 'CODE'
_TEXT	ENDS
;	COMDAT ?ElementAt@CByteArray@@QAEAAEH@Z
_TEXT	SEGMENT PARA USE32 PUBLIC 'CODE'
_TEXT	ENDS
;	COMDAT ?GetAt@CWordArray@@QBEGH@Z
_TEXT	SEGMENT PARA USE32 PUBLIC 'CODE'
_TEXT	ENDS
;	COMDAT ?ElementAt@CWordArray@@QAEAAGH@Z
_TEXT	SEGMENT PARA USE32 PUBLIC 'CODE'
_TEXT	ENDS
;	COMDAT ?GetAt@CDWordArray@@QBEKH@Z
_TEXT	SEGMENT PARA USE32 PUBLIC 'CODE'
_TEXT	ENDS
;	COMDAT ?ElementAt@CDWordArray@@QAEAAKH@Z
_TEXT	SEGMENT PARA USE32 PUBLIC 'CODE'
_TEXT	ENDS
;	COMDAT ?GetAt@CUIntArray@@QBEIH@Z
_TEXT	SEGMENT PARA USE32 PUBLIC 'CODE'
_TEXT	ENDS
;	COMDAT ?ElementAt@CUIntArray@@QAEAAIH@Z
_TEXT	SEGMENT PARA USE32 PUBLIC 'CODE'
_TEXT	ENDS
;	COMDAT ?GetAt@CPtrArray@@QBEPAXH@Z
_TEXT	SEGMENT PARA USE32 PUBLIC 'CODE'
_TEXT	ENDS
;	COMDAT ?ElementAt@CPtrArray@@QAEAAPAXH@Z
_TEXT	SEGMENT PARA USE32 PUBLIC 'CODE'
_TEXT	ENDS
;	COMDAT ??ACPtrArray@@QBEPAXH@Z
_TEXT	SEGMENT PARA USE32 PUBLIC 'CODE'
_TEXT	ENDS
;	COMDAT ?GetAt@CObArray@@QBEPAVCObject@@H@Z
_TEXT	SEGMENT PARA USE32 PUBLIC 'CODE'
_TEXT	ENDS
;	COMDAT ?ElementAt@CObArray@@QAEAAPAVCObject@@H@Z
_TEXT	SEGMENT PARA USE32 PUBLIC 'CODE'
_TEXT	ENDS
;	COMDAT ?GetAt@CStringArray@@QBE?AVCString@@H@Z
_TEXT	SEGMENT PARA USE32 PUBLIC 'CODE'
_TEXT	ENDS
;	COMDAT ?ElementAt@CStringArray@@QAEAAVCString@@H@Z
_TEXT	SEGMENT PARA USE32 PUBLIC 'CODE'
_TEXT	ENDS
;	COMDAT ??0CObject@@IAE@XZ
_TEXT	SEGMENT PARA USE32 PUBLIC 'CODE'
_TEXT	ENDS
;	COMDAT ??_GCObject@@UAEPAXI@Z
_TEXT	SEGMENT PARA USE32 PUBLIC 'CODE'
_TEXT	ENDS
;	COMDAT ??1CObject@@UAE@XZ
_TEXT	SEGMENT PARA USE32 PUBLIC 'CODE'
_TEXT	ENDS
;	COMDAT ?Serialize@CObject@@UAEXAAVCArchive@@@Z
_TEXT	SEGMENT PARA USE32 PUBLIC 'CODE'
_TEXT	ENDS
;	COMDAT ??3CObject@@SGXPAX@Z
_TEXT	SEGMENT PARA USE32 PUBLIC 'CODE'
_TEXT	ENDS
;	COMDAT ?AssertValid@CObject@@UBEXXZ
_TEXT	SEGMENT PARA USE32 PUBLIC 'CODE'
_TEXT	ENDS
;	COMDAT ?Dump@CObject@@UBEXAAVCDumpContext@@@Z
_TEXT	SEGMENT PARA USE32 PUBLIC 'CODE'
_TEXT	ENDS
;	COMDAT ??1CException@@UAE@XZ
_TEXT	SEGMENT PARA USE32 PUBLIC 'CODE'
_TEXT	ENDS
;	COMDAT ??_GCException@@UAEPAXI@Z
_TEXT	SEGMENT PARA USE32 PUBLIC 'CODE'
_TEXT	ENDS
;	COMDAT ??0CSimpleException@@QAE@XZ
_TEXT	SEGMENT PARA USE32 PUBLIC 'CODE'
_TEXT	ENDS
;	COMDAT ??_GCSimpleException@@UAEPAXI@Z
_TEXT	SEGMENT PARA USE32 PUBLIC 'CODE'
_TEXT	ENDS
;	COMDAT ??0CSimpleException@@QAE@H@Z
_TEXT	SEGMENT PARA USE32 PUBLIC 'CODE'
_TEXT	ENDS
;	COMDAT ??1CSimpleException@@UAE@XZ
_TEXT	SEGMENT PARA USE32 PUBLIC 'CODE'
_TEXT	ENDS
;	COMDAT ??_GCMemoryException@@UAEPAXI@Z
_TEXT	SEGMENT PARA USE32 PUBLIC 'CODE'
_TEXT	ENDS
;	COMDAT ??1CMemoryException@@UAE@XZ
_TEXT	SEGMENT PARA USE32 PUBLIC 'CODE'
_TEXT	ENDS
;	COMDAT ??_GCNotSupportedException@@UAEPAXI@Z
_TEXT	SEGMENT PARA USE32 PUBLIC 'CODE'
_TEXT	ENDS
;	COMDAT ??1CNotSupportedException@@UAE@XZ
_TEXT	SEGMENT PARA USE32 PUBLIC 'CODE'
_TEXT	ENDS
;	COMDAT ??_GCArchiveException@@UAEPAXI@Z
_TEXT	SEGMENT PARA USE32 PUBLIC 'CODE'
_TEXT	ENDS
;	COMDAT ??1CArchiveException@@UAE@XZ
_TEXT	SEGMENT PARA USE32 PUBLIC 'CODE'
_TEXT	ENDS
;	COMDAT ??_GCFileException@@UAEPAXI@Z
_TEXT	SEGMENT PARA USE32 PUBLIC 'CODE'
_TEXT	ENDS
;	COMDAT ??1CFileException@@UAE@XZ
_TEXT	SEGMENT PARA USE32 PUBLIC 'CODE'
_TEXT	ENDS
;	COMDAT ?SeekToBegin@CFile@@QAEXXZ
_TEXT	SEGMENT PARA USE32 PUBLIC 'CODE'
_TEXT	ENDS
;	COMDAT ?SetFilePath@CFile@@UAEXPBD@Z
_TEXT	SEGMENT PARA USE32 PUBLIC 'CODE'
_TEXT	ENDS
;	COMDAT ?GetData@CString@@IBEPAUCStringData@@XZ
_TEXT	SEGMENT PARA USE32 PUBLIC 'CODE'
_TEXT	ENDS
;	COMDAT ?Init@CString@@IAEXXZ
_TEXT	SEGMENT PARA USE32 PUBLIC 'CODE'
_TEXT	ENDS
;	COMDAT ?GetLength@CString@@QBEHXZ
_TEXT	SEGMENT PARA USE32 PUBLIC 'CODE'
_TEXT	ENDS
;	COMDAT ??BCString@@QBEPBDXZ
_TEXT	SEGMENT PARA USE32 PUBLIC 'CODE'
_TEXT	ENDS
;	COMDAT ?Compare@CString@@QBEHPBD@Z
_TEXT	SEGMENT PARA USE32 PUBLIC 'CODE'
_TEXT	ENDS
;	COMDAT ??0CTimeSpan@@QAE@J@Z
_TEXT	SEGMENT PARA USE32 PUBLIC 'CODE'
_TEXT	ENDS
;	COMDAT ??0CTimeSpan@@QAE@ABV0@@Z
_TEXT	SEGMENT PARA USE32 PUBLIC 'CODE'
_TEXT	ENDS
;	COMDAT ?GetDays@CTimeSpan@@QBEJXZ
_TEXT	SEGMENT PARA USE32 PUBLIC 'CODE'
_TEXT	ENDS
;	COMDAT ?GetTotalHours@CTimeSpan@@QBEJXZ
_TEXT	SEGMENT PARA USE32 PUBLIC 'CODE'
_TEXT	ENDS
;	COMDAT ?GetTotalMinutes@CTimeSpan@@QBEJXZ
_TEXT	SEGMENT PARA USE32 PUBLIC 'CODE'
_TEXT	ENDS
;	COMDAT ?GetTotalSeconds@CTimeSpan@@QBEJXZ
_TEXT	SEGMENT PARA USE32 PUBLIC 'CODE'
_TEXT	ENDS
;	COMDAT ??0CTime@@QAE@XZ
_TEXT	SEGMENT PARA USE32 PUBLIC 'CODE'
_TEXT	ENDS
;	COMDAT ??0CTime@@QAE@J@Z
_TEXT	SEGMENT PARA USE32 PUBLIC 'CODE'
_TEXT	ENDS
;	COMDAT ??0CTime@@QAE@ABV0@@Z
_TEXT	SEGMENT PARA USE32 PUBLIC 'CODE'
_TEXT	ENDS
;	COMDAT ??6CArchive@@QAEAAV0@E@Z
_TEXT	SEGMENT PARA USE32 PUBLIC 'CODE'
_TEXT	ENDS
;	COMDAT ??6CArchive@@QAEAAV0@G@Z
_TEXT	SEGMENT PARA USE32 PUBLIC 'CODE'
_TEXT	ENDS
;	COMDAT ??6CArchive@@QAEAAV0@J@Z
_TEXT	SEGMENT PARA USE32 PUBLIC 'CODE'
_TEXT	ENDS
;	COMDAT ??5CArchive@@QAEAAV0@AAE@Z
_TEXT	SEGMENT PARA USE32 PUBLIC 'CODE'
_TEXT	ENDS
;	COMDAT ??5CArchive@@QAEAAV0@AAG@Z
_TEXT	SEGMENT PARA USE32 PUBLIC 'CODE'
_TEXT	ENDS
;	COMDAT ??5CArchive@@QAEAAV0@AAJ@Z
_TEXT	SEGMENT PARA USE32 PUBLIC 'CODE'
_TEXT	ENDS
;	COMDAT ?AfxGetApp@@YGPAVCWinApp@@XZ
_TEXT	SEGMENT PARA USE32 PUBLIC 'CODE'
_TEXT	ENDS
;	COMDAT ??0CSize@@QAE@XZ
_TEXT	SEGMENT PARA USE32 PUBLIC 'CODE'
_TEXT	ENDS
;	COMDAT ??0CSize@@QAE@HH@Z
_TEXT	SEGMENT PARA USE32 PUBLIC 'CODE'
_TEXT	ENDS
;	COMDAT ??0CSize@@QAE@UtagSIZE@@@Z
_TEXT	SEGMENT PARA USE32 PUBLIC 'CODE'
_TEXT	ENDS
;	COMDAT ??0CSize@@QAE@K@Z
_TEXT	SEGMENT PARA USE32 PUBLIC 'CODE'
_TEXT	ENDS
;	COMDAT ??0CPoint@@QAE@XZ
_TEXT	SEGMENT PARA USE32 PUBLIC 'CODE'
_TEXT	ENDS
;	COMDAT ??0CPoint@@QAE@HH@Z
_TEXT	SEGMENT PARA USE32 PUBLIC 'CODE'
_TEXT	ENDS
;	COMDAT ??0CPoint@@QAE@UtagPOINT@@@Z
_TEXT	SEGMENT PARA USE32 PUBLIC 'CODE'
_TEXT	ENDS
;	COMDAT ??0CPoint@@QAE@K@Z
_TEXT	SEGMENT PARA USE32 PUBLIC 'CODE'
_TEXT	ENDS
;	COMDAT ??0CRect@@QAE@XZ
_TEXT	SEGMENT PARA USE32 PUBLIC 'CODE'
_TEXT	ENDS
;	COMDAT ??0CRect@@QAE@HHHH@Z
_TEXT	SEGMENT PARA USE32 PUBLIC 'CODE'
_TEXT	ENDS
;	COMDAT ??0CRect@@QAE@PBUtagRECT@@@Z
_TEXT	SEGMENT PARA USE32 PUBLIC 'CODE'
_TEXT	ENDS
;	COMDAT ?SwapLeftRight@CRect@@SAXPAUtagRECT@@@Z
_TEXT	SEGMENT PARA USE32 PUBLIC 'CODE'
_TEXT	ENDS
;	COMDAT ??HCRect@@QBE?AV0@UtagPOINT@@@Z
_TEXT	SEGMENT PARA USE32 PUBLIC 'CODE'
_TEXT	ENDS
;	COMDAT ??GCRect@@QBE?AV0@UtagPOINT@@@Z
_TEXT	SEGMENT PARA USE32 PUBLIC 'CODE'
_TEXT	ENDS
;	COMDAT ??HCRect@@QBE?AV0@UtagSIZE@@@Z
_TEXT	SEGMENT PARA USE32 PUBLIC 'CODE'
_TEXT	ENDS
;	COMDAT ??GCRect@@QBE?AV0@UtagSIZE@@@Z
_TEXT	SEGMENT PARA USE32 PUBLIC 'CODE'
_TEXT	ENDS
;	COMDAT ??_GCResourceException@@UAEPAXI@Z
_TEXT	SEGMENT PARA USE32 PUBLIC 'CODE'
_TEXT	ENDS
;	COMDAT ??1CResourceException@@UAE@XZ
_TEXT	SEGMENT PARA USE32 PUBLIC 'CODE'
_TEXT	ENDS
;	COMDAT ??_GCUserException@@UAEPAXI@Z
_TEXT	SEGMENT PARA USE32 PUBLIC 'CODE'
_TEXT	ENDS
;	COMDAT ??1CUserException@@UAE@XZ
_TEXT	SEGMENT PARA USE32 PUBLIC 'CODE'
_TEXT	ENDS
;	COMDAT ??BCGdiObject@@QBEPAXXZ
_TEXT	SEGMENT PARA USE32 PUBLIC 'CODE'
_TEXT	ENDS
;	COMDAT ?GetSafeHandle@CGdiObject@@QBEPAXXZ
_TEXT	SEGMENT PARA USE32 PUBLIC 'CODE'
_TEXT	ENDS
;	COMDAT ??0CGdiObject@@QAE@XZ
_TEXT	SEGMENT PARA USE32 PUBLIC 'CODE'
_TEXT	ENDS
;	COMDAT ??_GCGdiObject@@UAEPAXI@Z
_TEXT	SEGMENT PARA USE32 PUBLIC 'CODE'
_TEXT	ENDS
;	COMDAT ??1CGdiObject@@UAE@XZ
_TEXT	SEGMENT PARA USE32 PUBLIC 'CODE'
_TEXT	ENDS
;	COMDAT ?FromHandle@CPen@@SGPAV1@PAUHPEN__@@@Z
_TEXT	SEGMENT PARA USE32 PUBLIC 'CODE'
_TEXT	ENDS
;	COMDAT ??_GCPen@@UAEPAXI@Z
_TEXT	SEGMENT PARA USE32 PUBLIC 'CODE'
_TEXT	ENDS
;	COMDAT ??1CPen@@UAE@XZ
_TEXT	SEGMENT PARA USE32 PUBLIC 'CODE'
_TEXT	ENDS
;	COMDAT ?FromHandle@CBrush@@SGPAV1@PAUHBRUSH__@@@Z
_TEXT	SEGMENT PARA USE32 PUBLIC 'CODE'
_TEXT	ENDS
;	COMDAT ??_GCBrush@@UAEPAXI@Z
_TEXT	SEGMENT PARA USE32 PUBLIC 'CODE'
_TEXT	ENDS
;	COMDAT ??1CBrush@@UAE@XZ
_TEXT	SEGMENT PARA USE32 PUBLIC 'CODE'
_TEXT	ENDS
;	COMDAT ?FromHandle@CFont@@SGPAV1@PAUHFONT__@@@Z
_TEXT	SEGMENT PARA USE32 PUBLIC 'CODE'
_TEXT	ENDS
;	COMDAT ??_GCFont@@UAEPAXI@Z
_TEXT	SEGMENT PARA USE32 PUBLIC 'CODE'
_TEXT	ENDS
;	COMDAT ??1CFont@@UAE@XZ
_TEXT	SEGMENT PARA USE32 PUBLIC 'CODE'
_TEXT	ENDS
;	COMDAT ?FromHandle@CBitmap@@SGPAV1@PAUHBITMAP__@@@Z
_TEXT	SEGMENT PARA USE32 PUBLIC 'CODE'
_TEXT	ENDS
;	COMDAT ??0CBitmap@@QAE@XZ
_TEXT	SEGMENT PARA USE32 PUBLIC 'CODE'
_TEXT	ENDS
;	COMDAT ??_GCBitmap@@UAEPAXI@Z
_TEXT	SEGMENT PARA USE32 PUBLIC 'CODE'
_TEXT	ENDS
;	COMDAT ??1CBitmap@@UAE@XZ
_TEXT	SEGMENT PARA USE32 PUBLIC 'CODE'
_TEXT	ENDS
;	COMDAT ?FromHandle@CPalette@@SGPAV1@PAUHPALETTE__@@@Z
_TEXT	SEGMENT PARA USE32 PUBLIC 'CODE'
_TEXT	ENDS
;	COMDAT ??_GCPalette@@UAEPAXI@Z
_TEXT	SEGMENT PARA USE32 PUBLIC 'CODE'
_TEXT	ENDS
;	COMDAT ??1CPalette@@UAE@XZ
_TEXT	SEGMENT PARA USE32 PUBLIC 'CODE'
_TEXT	ENDS
;	COMDAT ??_GCRgn@@UAEPAXI@Z
_TEXT	SEGMENT PARA USE32 PUBLIC 'CODE'
_TEXT	ENDS
;	COMDAT ??1CRgn@@UAE@XZ
_TEXT	SEGMENT PARA USE32 PUBLIC 'CODE'
_TEXT	ENDS
;	COMDAT ?GetSafeHdc@CDC@@QBEPAUHDC__@@XZ
_TEXT	SEGMENT PARA USE32 PUBLIC 'CODE'
_TEXT	ENDS
;	COMDAT ??_GCMenu@@UAEPAXI@Z
_TEXT	SEGMENT PARA USE32 PUBLIC 'CODE'
_TEXT	ENDS
;	COMDAT ??1CMenu@@UAE@XZ
_TEXT	SEGMENT PARA USE32 PUBLIC 'CODE'
_TEXT	ENDS
;	COMDAT ??BCMenu@@QBEPAUHMENU__@@XZ
_TEXT	SEGMENT PARA USE32 PUBLIC 'CODE'
_TEXT	ENDS
;	COMDAT ?GetSafeHmenu@CMenu@@QBEPAUHMENU__@@XZ
_TEXT	SEGMENT PARA USE32 PUBLIC 'CODE'
_TEXT	ENDS
;	COMDAT ??BCWnd@@QBEPAUHWND__@@XZ
_TEXT	SEGMENT PARA USE32 PUBLIC 'CODE'
_TEXT	ENDS
;	COMDAT ?GetSafeHwnd@CWnd@@QBEPAUHWND__@@XZ
_TEXT	SEGMENT PARA USE32 PUBLIC 'CODE'
_TEXT	ENDS
;	COMDAT ?GetParent@CWnd@@QBEPAV1@XZ
_TEXT	SEGMENT PARA USE32 PUBLIC 'CODE'
_TEXT	ENDS
;	COMDAT ?DoDataExchange@CWnd@@MAEXPAVCDataExchange@@@Z
_TEXT	SEGMENT PARA USE32 PUBLIC 'CODE'
_TEXT	ENDS
;	COMDAT ?BeginModalState@CWnd@@UAEXXZ
_TEXT	SEGMENT PARA USE32 PUBLIC 'CODE'
_TEXT	ENDS
;	COMDAT ?EndModalState@CWnd@@UAEXXZ
_TEXT	SEGMENT PARA USE32 PUBLIC 'CODE'
_TEXT	ENDS
;	COMDAT ??_GCStatic@@UAEPAXI@Z
_TEXT	SEGMENT PARA USE32 PUBLIC 'CODE'
_TEXT	ENDS
;	COMDAT ??0CButton@@QAE@XZ
_TEXT	SEGMENT PARA USE32 PUBLIC 'CODE'
_TEXT	ENDS
;	COMDAT ??_GCButton@@UAEPAXI@Z
_TEXT	SEGMENT PARA USE32 PUBLIC 'CODE'
_TEXT	ENDS
;	COMDAT ??0CListBox@@QAE@XZ
_TEXT	SEGMENT PARA USE32 PUBLIC 'CODE'
_TEXT	ENDS
;	COMDAT ??_GCListBox@@UAEPAXI@Z
_TEXT	SEGMENT PARA USE32 PUBLIC 'CODE'
_TEXT	ENDS
;	COMDAT ?SetItemData@CListBox@@QAEHHK@Z
_TEXT	SEGMENT PARA USE32 PUBLIC 'CODE'
_TEXT	ENDS
;	COMDAT ??_GCCheckListBox@@UAEPAXI@Z
_TEXT	SEGMENT PARA USE32 PUBLIC 'CODE'
_TEXT	ENDS
;	COMDAT ??1CCheckListBox@@UAE@XZ
_TEXT	SEGMENT PARA USE32 PUBLIC 'CODE'
_TEXT	ENDS
;	COMDAT ??0CComboBox@@QAE@XZ
_TEXT	SEGMENT PARA USE32 PUBLIC 'CODE'
_TEXT	ENDS
;	COMDAT ??_GCComboBox@@UAEPAXI@Z
_TEXT	SEGMENT PARA USE32 PUBLIC 'CODE'
_TEXT	ENDS
;	COMDAT ?GetItemData@CComboBox@@QBEKH@Z
_TEXT	SEGMENT PARA USE32 PUBLIC 'CODE'
_TEXT	ENDS
;	COMDAT ?SetItemData@CComboBox@@QAEHHK@Z
_TEXT	SEGMENT PARA USE32 PUBLIC 'CODE'
_TEXT	ENDS
;	COMDAT ??_GCEdit@@UAEPAXI@Z
_TEXT	SEGMENT PARA USE32 PUBLIC 'CODE'
_TEXT	ENDS
;	COMDAT ??_GCScrollBar@@UAEPAXI@Z
_TEXT	SEGMENT PARA USE32 PUBLIC 'CODE'
_TEXT	ENDS
;	COMDAT ??_GCCommonDialog@@UAEPAXI@Z
_TEXT	SEGMENT PARA USE32 PUBLIC 'CODE'
_TEXT	ENDS
;	COMDAT ??1CCommonDialog@@UAE@XZ
_TEXT	SEGMENT PARA USE32 PUBLIC 'CODE'
_TEXT	ENDS
;	COMDAT ?PrintSelection@CPrintDialog@@QBEHXZ
_TEXT	SEGMENT PARA USE32 PUBLIC 'CODE'
_TEXT	ENDS
;	COMDAT ?PrintRange@CPrintDialog@@QBEHXZ
_TEXT	SEGMENT PARA USE32 PUBLIC 'CODE'
_TEXT	ENDS
;	COMDAT ?SetBorders@CStatusBar@@QAEXHHHH@Z
_TEXT	SEGMENT PARA USE32 PUBLIC 'CODE'
_TEXT	ENDS
;	COMDAT ??_GCRectTracker@@UAEPAXI@Z
_TEXT	SEGMENT PARA USE32 PUBLIC 'CODE'
_TEXT	ENDS
;	COMDAT ??_GCBitmapButton@@UAEPAXI@Z
_TEXT	SEGMENT PARA USE32 PUBLIC 'CODE'
_TEXT	ENDS
;	COMDAT ??1CBitmapButton@@UAE@XZ
_TEXT	SEGMENT PARA USE32 PUBLIC 'CODE'
_TEXT	ENDS
;	COMDAT ?IsEqualGUID@@YAHABU_GUID@@0@Z
_TEXT	SEGMENT PARA USE32 PUBLIC 'CODE'
_TEXT	ENDS
;	COMDAT ??8@YAHABU_GUID@@0@Z
_TEXT	SEGMENT PARA USE32 PUBLIC 'CODE'
_TEXT	ENDS
;	COMDAT ??_GCOleException@@UAEPAXI@Z
_TEXT	SEGMENT PARA USE32 PUBLIC 'CODE'
_TEXT	ENDS
;	COMDAT ??1COleException@@UAE@XZ
_TEXT	SEGMENT PARA USE32 PUBLIC 'CODE'
_TEXT	ENDS
;	COMDAT ?SetStatus@COleCurrency@@QAEXW4CurrencyStatus@1@@Z
_TEXT	SEGMENT PARA USE32 PUBLIC 'CODE'
_TEXT	ENDS
;	COMDAT ??4COleDateTime@@QAEABV0@ABV0@@Z
_TEXT	SEGMENT PARA USE32 PUBLIC 'CODE'
_TEXT	ENDS
;	COMDAT ?SetStatus@COleDateTime@@QAEXW4DateTimeStatus@1@@Z
_TEXT	SEGMENT PARA USE32 PUBLIC 'CODE'
_TEXT	ENDS
;	COMDAT ??0COleDateTimeSpan@@QAE@N@Z
_TEXT	SEGMENT PARA USE32 PUBLIC 'CODE'
_TEXT	ENDS
;	COMDAT ?SetStatus@COleDateTimeSpan@@QAEXW4DateTimeSpanStatus@1@@Z
_TEXT	SEGMENT PARA USE32 PUBLIC 'CODE'
_TEXT	ENDS
;	COMDAT ?Clear@COleSafeArray@@QAEXXZ
_TEXT	SEGMENT PARA USE32 PUBLIC 'CODE'
_TEXT	ENDS
;	COMDAT ??_GCDateTimeCtrl@@UAEPAXI@Z
_TEXT	SEGMENT PARA USE32 PUBLIC 'CODE'
_TEXT	ENDS
;	COMDAT ??_GCMonthCalCtrl@@UAEPAXI@Z
_TEXT	SEGMENT PARA USE32 PUBLIC 'CODE'
_TEXT	ENDS
;	COMDAT ??_GCDragListBox@@UAEPAXI@Z
_TEXT	SEGMENT PARA USE32 PUBLIC 'CODE'
_TEXT	ENDS
;	COMDAT ??_GCToolBarCtrl@@UAEPAXI@Z
_TEXT	SEGMENT PARA USE32 PUBLIC 'CODE'
_TEXT	ENDS
;	COMDAT ??_GCStatusBarCtrl@@UAEPAXI@Z
_TEXT	SEGMENT PARA USE32 PUBLIC 'CODE'
_TEXT	ENDS
;	COMDAT ??_GCListCtrl@@UAEPAXI@Z
_TEXT	SEGMENT PARA USE32 PUBLIC 'CODE'
_TEXT	ENDS
;	COMDAT ?GetNextItem@CListCtrl@@QBEHHH@Z
_TEXT	SEGMENT PARA USE32 PUBLIC 'CODE'
_TEXT	ENDS
;	COMDAT ??_GCTreeCtrl@@UAEPAXI@Z
_TEXT	SEGMENT PARA USE32 PUBLIC 'CODE'
_TEXT	ENDS
;	COMDAT ??_GCHotKeyCtrl@@UAEPAXI@Z
_TEXT	SEGMENT PARA USE32 PUBLIC 'CODE'
_TEXT	ENDS
;	COMDAT ??_GCSpinButtonCtrl@@UAEPAXI@Z
_TEXT	SEGMENT PARA USE32 PUBLIC 'CODE'
_TEXT	ENDS
;	COMDAT ??_GCSliderCtrl@@UAEPAXI@Z
_TEXT	SEGMENT PARA USE32 PUBLIC 'CODE'
_TEXT	ENDS
;	COMDAT ??_GCProgressCtrl@@UAEPAXI@Z
_TEXT	SEGMENT PARA USE32 PUBLIC 'CODE'
_TEXT	ENDS
;	COMDAT ??_GCHeaderCtrl@@UAEPAXI@Z
_TEXT	SEGMENT PARA USE32 PUBLIC 'CODE'
_TEXT	ENDS
;	COMDAT ??BCImageList@@QBEPAU_IMAGELIST@@XZ
_TEXT	SEGMENT PARA USE32 PUBLIC 'CODE'
_TEXT	ENDS
;	COMDAT ?GetSafeHandle@CImageList@@QBEPAU_IMAGELIST@@XZ
_TEXT	SEGMENT PARA USE32 PUBLIC 'CODE'
_TEXT	ENDS
;	COMDAT ??_GCTabCtrl@@UAEPAXI@Z
_TEXT	SEGMENT PARA USE32 PUBLIC 'CODE'
_TEXT	ENDS
;	COMDAT ??_GCAnimateCtrl@@UAEPAXI@Z
_TEXT	SEGMENT PARA USE32 PUBLIC 'CODE'
_TEXT	ENDS
;	COMDAT ??_GCRichEditCtrl@@UAEPAXI@Z
_TEXT	SEGMENT PARA USE32 PUBLIC 'CODE'
_TEXT	ENDS
;	COMDAT ??_GCReBarCtrl@@UAEPAXI@Z
_TEXT	SEGMENT PARA USE32 PUBLIC 'CODE'
_TEXT	ENDS
;	COMDAT ??1CReBarCtrl@@UAE@XZ
_TEXT	SEGMENT PARA USE32 PUBLIC 'CODE'
_TEXT	ENDS
;	COMDAT ??_GCComboBoxEx@@UAEPAXI@Z
_TEXT	SEGMENT PARA USE32 PUBLIC 'CODE'
_TEXT	ENDS
;	COMDAT ??_GCIPAddressCtrl@@UAEPAXI@Z
_TEXT	SEGMENT PARA USE32 PUBLIC 'CODE'
_TEXT	ENDS
;	COMDAT ?AtlA2WHelper@@YGPAGPAGPBDHI@Z
_TEXT	SEGMENT PARA USE32 PUBLIC 'CODE'
_TEXT	ENDS
;	COMDAT ?AtlW2AHelper@@YGPADPADPBGHI@Z
_TEXT	SEGMENT PARA USE32 PUBLIC 'CODE'
_TEXT	ENDS
;	COMDAT ?AtlA2WHelper@@YGPAGPAGPBDH@Z
_TEXT	SEGMENT PARA USE32 PUBLIC 'CODE'
_TEXT	ENDS
;	COMDAT ?AtlW2AHelper@@YGPADPADPBGH@Z
_TEXT	SEGMENT PARA USE32 PUBLIC 'CODE'
_TEXT	ENDS
;	COMDAT ?ocslen@@YAIPBG@Z
_TEXT	SEGMENT PARA USE32 PUBLIC 'CODE'
_TEXT	ENDS
;	COMDAT ?ocscpy@@YAPAGPAGPBG@Z
_TEXT	SEGMENT PARA USE32 PUBLIC 'CODE'
_TEXT	ENDS
;	COMDAT ?CharNextO@@YAPAGPBG@Z
_TEXT	SEGMENT PARA USE32 PUBLIC 'CODE'
_TEXT	ENDS
;	COMDAT ?A2WBSTR@@YAPAGPBDH@Z
_TEXT	SEGMENT PARA USE32 PUBLIC 'CODE'
_TEXT	ENDS
;	COMDAT ?OLE2BSTR@@YAPAGPBG@Z
_TEXT	SEGMENT PARA USE32 PUBLIC 'CODE'
_TEXT	ENDS
;	COMDAT ?T2BSTR@@YAPAGPBD@Z
_TEXT	SEGMENT PARA USE32 PUBLIC 'CODE'
_TEXT	ENDS
;	COMDAT ?RevokeClassObject@_ATL_OBJMAP_ENTRY@ATL@@QAGJXZ
_TEXT	SEGMENT PARA USE32 PUBLIC 'CODE'
_TEXT	ENDS
;	COMDAT ?RegisterClassObject@_ATL_OBJMAP_ENTRY@ATL@@QAGJKK@Z
_TEXT	SEGMENT PARA USE32 PUBLIC 'CODE'
_TEXT	ENDS
;	COMDAT ?AtlTrace2@ATL@@YAXKIPBDZZ
_TEXT	SEGMENT PARA USE32 PUBLIC 'CODE'
_TEXT	ENDS
;	COMDAT ?InlineIsEqualGUID@ATL@@YAHABU_GUID@@0@Z
_TEXT	SEGMENT PARA USE32 PUBLIC 'CODE'
_TEXT	ENDS
;	COMDAT ?InlineIsEqualUnknown@ATL@@YAHABU_GUID@@@Z
_TEXT	SEGMENT PARA USE32 PUBLIC 'CODE'
_TEXT	ENDS
;	COMDAT ?Increment@CComMultiThreadModel@ATL@@SGKPAJ@Z
_TEXT	SEGMENT PARA USE32 PUBLIC 'CODE'
_TEXT	ENDS
;	COMDAT ?Decrement@CComMultiThreadModel@ATL@@SGKPAJ@Z
_TEXT	SEGMENT PARA USE32 PUBLIC 'CODE'
_TEXT	ENDS
;	COMDAT ?ReplaceSingleQuote@CComModule@ATL@@SAXPAGPBG@Z
_TEXT	SEGMENT PARA USE32 PUBLIC 'CODE'
_TEXT	ENDS
;	COMDAT ?Apartment@CComApartment@ATL@@QAEKXZ
_TEXT	SEGMENT PARA USE32 PUBLIC 'CODE'
_TEXT	ENDS
;	COMDAT ??0CComBSTR@ATL@@QAE@XZ
_TEXT	SEGMENT PARA USE32 PUBLIC 'CODE'
_TEXT	ENDS
;	COMDAT ??4CComBSTR@ATL@@QAEAAV01@PBG@Z
_TEXT	SEGMENT PARA USE32 PUBLIC 'CODE'
_TEXT	ENDS
;	COMDAT ??1CComBSTR@ATL@@QAE@XZ
_TEXT	SEGMENT PARA USE32 PUBLIC 'CODE'
_TEXT	ENDS
;	COMDAT ?Length@CComBSTR@ATL@@QBEIXZ
_TEXT	SEGMENT PARA USE32 PUBLIC 'CODE'
_TEXT	ENDS
;	COMDAT ??BCComBSTR@ATL@@QBEPAGXZ
_TEXT	SEGMENT PARA USE32 PUBLIC 'CODE'
_TEXT	ENDS
;	COMDAT ??ICComBSTR@ATL@@QAEPAPAGXZ
_TEXT	SEGMENT PARA USE32 PUBLIC 'CODE'
_TEXT	ENDS
;	COMDAT ?Copy@CComBSTR@ATL@@QBEPAGXZ
_TEXT	SEGMENT PARA USE32 PUBLIC 'CODE'
_TEXT	ENDS
;	COMDAT ?Detach@CComBSTR@ATL@@QAEPAGXZ
_TEXT	SEGMENT PARA USE32 PUBLIC 'CODE'
_TEXT	ENDS
;	COMDAT ?AppendBSTR@CComBSTR@ATL@@QAEJPAG@Z
_TEXT	SEGMENT PARA USE32 PUBLIC 'CODE'
_TEXT	ENDS
;	COMDAT ?Append@CComBSTR@ATL@@QAEJPBGH@Z
_TEXT	SEGMENT PARA USE32 PUBLIC 'CODE'
_TEXT	ENDS
;	COMDAT ?LoadStringA@CComBSTR@ATL@@QAE_NPAUHINSTANCE__@@I@Z
_TEXT	SEGMENT PARA USE32 PUBLIC 'CODE'
_TEXT	ENDS
;	COMDAT ??0CComBSTR@ATL@@QAE@PBD@Z
_TEXT	SEGMENT PARA USE32 PUBLIC 'CODE'
_TEXT	ENDS
;	COMDAT ?WriteToStream@CComBSTR@ATL@@QAEJPAUIStream@@@Z
_TEXT	SEGMENT PARA USE32 PUBLIC 'CODE'
_TEXT	ENDS
;	COMDAT ?ReadFromStream@CComBSTR@ATL@@QAEJPAUIStream@@@Z
_TEXT	SEGMENT PARA USE32 PUBLIC 'CODE'
_TEXT	ENDS
;	COMDAT ??0CComVariant@ATL@@QAE@XZ
_TEXT	SEGMENT PARA USE32 PUBLIC 'CODE'
_TEXT	ENDS
;	COMDAT ??1CComVariant@ATL@@QAE@XZ
_TEXT	SEGMENT PARA USE32 PUBLIC 'CODE'
_TEXT	ENDS
;	COMDAT ??4CComVariant@ATL@@QAEAAV01@PAG@Z
_TEXT	SEGMENT PARA USE32 PUBLIC 'CODE'
_TEXT	ENDS
;	COMDAT ??4CComVariant@ATL@@QAEAAV01@PBG@Z
_TEXT	SEGMENT PARA USE32 PUBLIC 'CODE'
_TEXT	ENDS
;	COMDAT ??4CComVariant@ATL@@QAEAAV01@PBD@Z
_TEXT	SEGMENT PARA USE32 PUBLIC 'CODE'
_TEXT	ENDS
;	COMDAT ??8CComVariant@ATL@@QBE_NABUtagVARIANT@@@Z
_TEXT	SEGMENT PARA USE32 PUBLIC 'CODE'
_TEXT	ENDS
;	COMDAT ?Clear@CComVariant@ATL@@QAEJXZ
_TEXT	SEGMENT PARA USE32 PUBLIC 'CODE'
_TEXT	ENDS
;	COMDAT ?Copy@CComVariant@ATL@@QAEJPBUtagVARIANT@@@Z
_TEXT	SEGMENT PARA USE32 PUBLIC 'CODE'
_TEXT	ENDS
;	COMDAT ?ChangeType@CComVariant@ATL@@QAEJGPBUtagVARIANT@@@Z
_TEXT	SEGMENT PARA USE32 PUBLIC 'CODE'
_TEXT	ENDS
;	COMDAT ?InternalClear@CComVariant@ATL@@QAEJXZ
_TEXT	SEGMENT PARA USE32 PUBLIC 'CODE'
_TEXT	ENDS
;	COMDAT ?InternalCopy@CComVariant@ATL@@QAEXPBUtagVARIANT@@@Z
_TEXT	SEGMENT PARA USE32 PUBLIC 'CODE'
_TEXT	ENDS
;	COMDAT ??0CRegKey@ATL@@QAE@XZ
_TEXT	SEGMENT PARA USE32 PUBLIC 'CODE'
_TEXT	ENDS
;	COMDAT ??1CRegKey@ATL@@QAE@XZ
_TEXT	SEGMENT PARA USE32 PUBLIC 'CODE'
_TEXT	ENDS
;	COMDAT ??BCRegKey@ATL@@QBEPAUHKEY__@@XZ
_TEXT	SEGMENT PARA USE32 PUBLIC 'CODE'
_TEXT	ENDS
;	COMDAT ?Attach@CRegKey@ATL@@QAEXPAUHKEY__@@@Z
_TEXT	SEGMENT PARA USE32 PUBLIC 'CODE'
_TEXT	ENDS
;	COMDAT ?DeleteSubKey@CRegKey@ATL@@QAEJPBD@Z
_TEXT	SEGMENT PARA USE32 PUBLIC 'CODE'
_TEXT	ENDS
;	COMDAT ?Close@CRegKey@ATL@@QAEJXZ
_TEXT	SEGMENT PARA USE32 PUBLIC 'CODE'
_TEXT	ENDS
;	COMDAT ?Create@CRegKey@ATL@@QAEJPAUHKEY__@@PBDPADKKPAU_SECURITY_ATTRIBUTES@@PAK@Z
_TEXT	SEGMENT PARA USE32 PUBLIC 'CODE'
_TEXT	ENDS
;	COMDAT ?Open@CRegKey@ATL@@QAEJPAUHKEY__@@PBDK@Z
_TEXT	SEGMENT PARA USE32 PUBLIC 'CODE'
_TEXT	ENDS
;	COMDAT ?SetKeyValue@CRegKey@ATL@@QAEJPBD00@Z
_TEXT	SEGMENT PARA USE32 PUBLIC 'CODE'
_TEXT	ENDS
;	COMDAT ?SetValue@CRegKey@ATL@@QAEJPBD0@Z
_TEXT	SEGMENT PARA USE32 PUBLIC 'CODE'
_TEXT	ENDS
;	COMDAT ?RecurseDeleteKey@CRegKey@ATL@@QAEJPBD@Z
_TEXT	SEGMENT PARA USE32 PUBLIC 'CODE'
_TEXT	ENDS
;	COMDAT ?RegisterProgID@CComModule@ATL@@SAJPBD00@Z
_TEXT	SEGMENT PARA USE32 PUBLIC 'CODE'
_TEXT	ENDS
;	COMDAT ?RegisterClassHelper@CComModule@ATL@@QAGJABU_GUID@@PBD1IK@Z
_TEXT	SEGMENT PARA USE32 PUBLIC 'CODE'
_TEXT	ENDS
;	COMDAT ?UnregisterClassHelper@CComModule@ATL@@QAGJABU_GUID@@PBD1@Z
_TEXT	SEGMENT PARA USE32 PUBLIC 'CODE'
_TEXT	ENDS
;	COMDAT ?AtlComPtrAssign@ATL@@YGPAUIUnknown@@PAPAU2@PAU2@@Z
_TEXT	SEGMENT PARA USE32 PUBLIC 'CODE'
_TEXT	ENDS
;	COMDAT ?AtlComQIPtrAssign@ATL@@YGPAUIUnknown@@PAPAU2@PAU2@ABU_GUID@@@Z
_TEXT	SEGMENT PARA USE32 PUBLIC 'CODE'
_TEXT	ENDS
;	COMDAT ?AtlAdvise@ATL@@YGJPAUIUnknown@@0ABU_GUID@@PAK@Z
_TEXT	SEGMENT PARA USE32 PUBLIC 'CODE'
_TEXT	ENDS
;	COMDAT ?_NextObjectMapEntry@ATL@@YAPAU_ATL_OBJMAP_ENTRY@1@PAU_ATL_MODULE@1@PAU21@@Z
_TEXT	SEGMENT PARA USE32 PUBLIC 'CODE'
_TEXT	ENDS
;	COMDAT ?AtlModuleInit@ATL@@YGJPAU_ATL_MODULE@1@PAU_ATL_OBJMAP_ENTRY@1@PAUHINSTANCE__@@@Z
_TEXT	SEGMENT PARA USE32 PUBLIC 'CODE'
_TEXT	ENDS
;	COMDAT ?AtlModuleRegisterClassObjects@ATL@@YGJPAU_ATL_MODULE@1@KK@Z
_TEXT	SEGMENT PARA USE32 PUBLIC 'CODE'
_TEXT	ENDS
;	COMDAT ?AtlModuleRevokeClassObjects@ATL@@YGJPAU_ATL_MODULE@1@@Z
_TEXT	SEGMENT PARA USE32 PUBLIC 'CODE'
_TEXT	ENDS
;	COMDAT ?AtlModuleGetClassObject@ATL@@YGJPAU_ATL_MODULE@1@ABU_GUID@@1PAPAX@Z
_TEXT	SEGMENT PARA USE32 PUBLIC 'CODE'
_TEXT	ENDS
;	COMDAT ?AtlModuleTerm@ATL@@YGJPAU_ATL_MODULE@1@@Z
_TEXT	SEGMENT PARA USE32 PUBLIC 'CODE'
_TEXT	ENDS
;	COMDAT ?AtlModuleAddTermFunc@ATL@@YGJPAU_ATL_MODULE@1@P6GXK@ZK@Z
_TEXT	SEGMENT PARA USE32 PUBLIC 'CODE'
_TEXT	ENDS
;	COMDAT ?AtlRegisterClassCategoriesHelper@ATL@@YGJABU_GUID@@PBU_ATL_CATMAP_ENTRY@1@H@Z
_TEXT	SEGMENT PARA USE32 PUBLIC 'CODE'
_TEXT	ENDS
;	COMDAT ?AtlModuleRegisterServer@ATL@@YGJPAU_ATL_MODULE@1@HPBU_GUID@@@Z
_TEXT	SEGMENT PARA USE32 PUBLIC 'CODE'
_TEXT	ENDS
;	COMDAT ?AtlModuleUnregisterServerEx@ATL@@YGJPAU_ATL_MODULE@1@HPBU_GUID@@@Z
_TEXT	SEGMENT PARA USE32 PUBLIC 'CODE'
_TEXT	ENDS
;	COMDAT ?AtlModuleUnregisterServer@ATL@@YGJPAU_ATL_MODULE@1@PBU_GUID@@@Z
_TEXT	SEGMENT PARA USE32 PUBLIC 'CODE'
_TEXT	ENDS
;	COMDAT ?AtlModuleUpdateRegistryFromResourceD@ATL@@YGJPAU_ATL_MODULE@1@PBGHPAU_ATL_REGMAP_ENTRY@1@PAUIRegistrar@@@Z
_TEXT	SEGMENT PARA USE32 PUBLIC 'CODE'
_TEXT	ENDS
;	COMDAT ?AtlModuleLoadTypeLib@ATL@@YGJPAU_ATL_MODULE@1@PBGPAPAGPAPAUITypeLib@@@Z
_TEXT	SEGMENT PARA USE32 PUBLIC 'CODE'
_TEXT	ENDS
;	COMDAT ?AtlModuleUnRegisterTypeLib@ATL@@YGJPAU_ATL_MODULE@1@PBG@Z
_TEXT	SEGMENT PARA USE32 PUBLIC 'CODE'
_TEXT	ENDS
;	COMDAT ?AtlModuleRegisterTypeLib@ATL@@YGJPAU_ATL_MODULE@1@PBG@Z
_TEXT	SEGMENT PARA USE32 PUBLIC 'CODE'
_TEXT	ENDS
;	COMDAT ?AtlModuleAddCreateWndData@ATL@@YGXPAU_ATL_MODULE@1@PAU_AtlCreateWndData@1@PAX@Z
_TEXT	SEGMENT PARA USE32 PUBLIC 'CODE'
_TEXT	ENDS
;	COMDAT ?AtlModuleExtractCreateWndData@ATL@@YGPAXPAU_ATL_MODULE@1@@Z
_TEXT	SEGMENT PARA USE32 PUBLIC 'CODE'
_TEXT	ENDS
;	COMDAT ?AtlGetDllVersion@ATL@@YAJPAUHINSTANCE__@@PAU_DllVersionInfo@@@Z
_TEXT	SEGMENT PARA USE32 PUBLIC 'CODE'
_TEXT	ENDS
;	COMDAT ?AtlGetDllVersion@ATL@@YAJPBDPAU_DllVersionInfo@@@Z
_TEXT	SEGMENT PARA USE32 PUBLIC 'CODE'
_TEXT	ENDS
;	COMDAT _wmemchr
_TEXT	SEGMENT PARA USE32 PUBLIC 'CODE'
_TEXT	ENDS
;	COMDAT _wmemcmp
_TEXT	SEGMENT PARA USE32 PUBLIC 'CODE'
_TEXT	ENDS
;	COMDAT _wmemcpy
_TEXT	SEGMENT PARA USE32 PUBLIC 'CODE'
_TEXT	ENDS
;	COMDAT _wmemmove
_TEXT	SEGMENT PARA USE32 PUBLIC 'CODE'
_TEXT	ENDS
;	COMDAT _wmemset
_TEXT	SEGMENT PARA USE32 PUBLIC 'CODE'
_TEXT	ENDS
;	COMDAT ??1invalid_argument@std@@UAE@XZ
_TEXT	SEGMENT PARA USE32 PUBLIC 'CODE'
_TEXT	ENDS
;	COMDAT ?_Doraise@invalid_argument@std@@MBEXXZ
_TEXT	SEGMENT PARA USE32 PUBLIC 'CODE'
_TEXT	ENDS
;	COMDAT ??_Ginvalid_argument@std@@UAEPAXI@Z
_TEXT	SEGMENT PARA USE32 PUBLIC 'CODE'
_TEXT	ENDS
;	COMDAT ??0invalid_argument@std@@QAE@ABV01@@Z
_TEXT	SEGMENT PARA USE32 PUBLIC 'CODE'
_TEXT	ENDS
;	COMDAT ?_Narrow@std@@YAHG@Z
_TEXT	SEGMENT PARA USE32 PUBLIC 'CODE'
_TEXT	ENDS
;	COMDAT ?_Widen@std@@YAGDPAG@Z
_TEXT	SEGMENT PARA USE32 PUBLIC 'CODE'
_TEXT	ENDS
;	COMDAT ??_G?$ctype@D@std@@UAEPAXI@Z
_TEXT	SEGMENT PARA USE32 PUBLIC 'CODE'
_TEXT	ENDS
;	COMDAT ??1failure@ios_base@std@@UAE@XZ
_TEXT	SEGMENT PARA USE32 PUBLIC 'CODE'
_TEXT	ENDS
;	COMDAT ?_Doraise@failure@ios_base@std@@MBEXXZ
_TEXT	SEGMENT PARA USE32 PUBLIC 'CODE'
_TEXT	ENDS
;	COMDAT ??_Gfailure@ios_base@std@@UAEPAXI@Z
_TEXT	SEGMENT PARA USE32 PUBLIC 'CODE'
_TEXT	ENDS
;	COMDAT ??0failure@ios_base@std@@QAE@ABV012@@Z
_TEXT	SEGMENT PARA USE32 PUBLIC 'CODE'
_TEXT	ENDS
;	COMDAT ?CheckError@_com_util@@YAXJ@Z
_TEXT	SEGMENT PARA USE32 PUBLIC 'CODE'
_TEXT	ENDS
;	COMDAT ??0_bstr_t@@QAE@ABV0@@Z
_TEXT	SEGMENT PARA USE32 PUBLIC 'CODE'
_TEXT	ENDS
;	COMDAT ??0_bstr_t@@QAE@PBD@Z
_TEXT	SEGMENT PARA USE32 PUBLIC 'CODE'
_TEXT	ENDS
;	COMDAT ??0_bstr_t@@QAE@PBG@Z
_TEXT	SEGMENT PARA USE32 PUBLIC 'CODE'
_TEXT	ENDS
;	COMDAT ??0_bstr_t@@QAE@PAG_N@Z
_TEXT	SEGMENT PARA USE32 PUBLIC 'CODE'
_TEXT	ENDS
;	COMDAT ??1_bstr_t@@QAE@XZ
_TEXT	SEGMENT PARA USE32 PUBLIC 'CODE'
_TEXT	ENDS
;	COMDAT ??4_bstr_t@@QAEAAV0@PBG@Z
_TEXT	SEGMENT PARA USE32 PUBLIC 'CODE'
_TEXT	ENDS
;	COMDAT ??Y_bstr_t@@QAEAAV0@ABV0@@Z
_TEXT	SEGMENT PARA USE32 PUBLIC 'CODE'
_TEXT	ENDS
;	COMDAT ??B_bstr_t@@QBEPBGXZ
_TEXT	SEGMENT PARA USE32 PUBLIC 'CODE'
_TEXT	ENDS
;	COMDAT ??B_bstr_t@@QBEPAGXZ
_TEXT	SEGMENT PARA USE32 PUBLIC 'CODE'
_TEXT	ENDS
;	COMDAT ??7_bstr_t@@QBE_NXZ
_TEXT	SEGMENT PARA USE32 PUBLIC 'CODE'
_TEXT	ENDS
;	COMDAT ?length@_bstr_t@@QBEIXZ
_TEXT	SEGMENT PARA USE32 PUBLIC 'CODE'
_TEXT	ENDS
;	COMDAT ?_AddRef@_bstr_t@@AAEXXZ
_TEXT	SEGMENT PARA USE32 PUBLIC 'CODE'
_TEXT	ENDS
;	COMDAT ?_Free@_bstr_t@@AAEXXZ
_TEXT	SEGMENT PARA USE32 PUBLIC 'CODE'
_TEXT	ENDS
;	COMDAT ?_Compare@_bstr_t@@ABEHABV1@@Z
_TEXT	SEGMENT PARA USE32 PUBLIC 'CODE'
_TEXT	ENDS
;	COMDAT ??0Data_t@_bstr_t@@QAE@PBD@Z
_TEXT	SEGMENT PARA USE32 PUBLIC 'CODE'
_TEXT	ENDS
;	COMDAT ??0Data_t@_bstr_t@@QAE@PBG@Z
_TEXT	SEGMENT PARA USE32 PUBLIC 'CODE'
_TEXT	ENDS
;	COMDAT ??0Data_t@_bstr_t@@QAE@PAG_N@Z
_TEXT	SEGMENT PARA USE32 PUBLIC 'CODE'
_TEXT	ENDS
;	COMDAT ??0Data_t@_bstr_t@@QAE@ABV1@0@Z
_TEXT	SEGMENT PARA USE32 PUBLIC 'CODE'
_TEXT	ENDS
;	COMDAT ?AddRef@Data_t@_bstr_t@@QAEKXZ
_TEXT	SEGMENT PARA USE32 PUBLIC 'CODE'
_TEXT	ENDS
;	COMDAT ?Release@Data_t@_bstr_t@@QAEKXZ
_TEXT	SEGMENT PARA USE32 PUBLIC 'CODE'
_TEXT	ENDS
;	COMDAT ??_GData_t@_bstr_t@@AAEPAXI@Z
_TEXT	SEGMENT PARA USE32 PUBLIC 'CODE'
_TEXT	ENDS
;	COMDAT ?GetWString@Data_t@_bstr_t@@QBEPBGXZ
_TEXT	SEGMENT PARA USE32 PUBLIC 'CODE'
_TEXT	ENDS
;	COMDAT ?GetString@Data_t@_bstr_t@@QBEPBDXZ
_TEXT	SEGMENT PARA USE32 PUBLIC 'CODE'
_TEXT	ENDS
;	COMDAT ?Copy@Data_t@_bstr_t@@QBEPAGXZ
_TEXT	SEGMENT PARA USE32 PUBLIC 'CODE'
_TEXT	ENDS
;	COMDAT ?Assign@Data_t@_bstr_t@@QAEXPAG@Z
_TEXT	SEGMENT PARA USE32 PUBLIC 'CODE'
_TEXT	ENDS
;	COMDAT ?Length@Data_t@_bstr_t@@QBEIXZ
_TEXT	SEGMENT PARA USE32 PUBLIC 'CODE'
_TEXT	ENDS
;	COMDAT ?Compare@Data_t@_bstr_t@@QBEHABV12@@Z
_TEXT	SEGMENT PARA USE32 PUBLIC 'CODE'
_TEXT	ENDS
;	COMDAT ??1Data_t@_bstr_t@@AAE@XZ
_TEXT	SEGMENT PARA USE32 PUBLIC 'CODE'
_TEXT	ENDS
;	COMDAT ?_Free@Data_t@_bstr_t@@AAEXXZ
_TEXT	SEGMENT PARA USE32 PUBLIC 'CODE'
_TEXT	ENDS
;	COMDAT ??0_variant_t@@QAE@XZ
_TEXT	SEGMENT PARA USE32 PUBLIC 'CODE'
_TEXT	ENDS
;	COMDAT ??8_variant_t@@QBE_NPBUtagVARIANT@@@Z
_TEXT	SEGMENT PARA USE32 PUBLIC 'CODE'
_TEXT	ENDS
;	COMDAT ?Clear@_variant_t@@QAEXXZ
_TEXT	SEGMENT PARA USE32 PUBLIC 'CODE'
_TEXT	ENDS
;	COMDAT ?ChangeType@_variant_t@@QAEXGPBV1@@Z
_TEXT	SEGMENT PARA USE32 PUBLIC 'CODE'
_TEXT	ENDS
;	COMDAT ??1_variant_t@@QAE@XZ
_TEXT	SEGMENT PARA USE32 PUBLIC 'CODE'
_TEXT	ENDS
;	COMDAT ??_G_com_error@@UAEPAXI@Z
_TEXT	SEGMENT PARA USE32 PUBLIC 'CODE'
_TEXT	ENDS
;	COMDAT ??0_com_error@@QAE@ABV0@@Z
_TEXT	SEGMENT PARA USE32 PUBLIC 'CODE'
_TEXT	ENDS
;	COMDAT ??1_com_error@@UAE@XZ
_TEXT	SEGMENT PARA USE32 PUBLIC 'CODE'
_TEXT	ENDS
;	COMDAT ?WCode@_com_error@@QBEGXZ
_TEXT	SEGMENT PARA USE32 PUBLIC 'CODE'
_TEXT	ENDS
;	COMDAT ?HRESULTToWCode@_com_error@@SAGJ@Z
_TEXT	SEGMENT PARA USE32 PUBLIC 'CODE'
_TEXT	ENDS
;	COMDAT ??_GCMonikerFile@@UAEPAXI@Z
_TEXT	SEGMENT PARA USE32 PUBLIC 'CODE'
_TEXT	ENDS
;	COMDAT ?GetDocument@COleServerItem@@QBEPAVCOleServerDoc@@XZ
_TEXT	SEGMENT PARA USE32 PUBLIC 'CODE'
_TEXT	ENDS
;	COMDAT ??_GCSkinForm@@UAEPAXI@Z
_TEXT	SEGMENT PARA USE32 PUBLIC 'CODE'
_TEXT	ENDS
;	COMDAT ??0CFileStatus@@QAE@XZ
_TEXT	SEGMENT PARA USE32 PUBLIC 'CODE'
_TEXT	ENDS
;	COMDAT ??0CSkinObj@@QAE@ABV0@@Z
_TEXT	SEGMENT PARA USE32 PUBLIC 'CODE'
_TEXT	ENDS
;	COMDAT ??_GCSkinObj@@UAEPAXI@Z
_TEXT	SEGMENT PARA USE32 PUBLIC 'CODE'
_TEXT	ENDS
;	COMDAT ??0?$CComPtr@UIUnknown@@@ATL@@QAE@XZ
_TEXT	SEGMENT PARA USE32 PUBLIC 'CODE'
_TEXT	ENDS
;	COMDAT ??1?$CComPtr@UIUnknown@@@ATL@@QAE@XZ
_TEXT	SEGMENT PARA USE32 PUBLIC 'CODE'
_TEXT	ENDS
;	COMDAT ??B?$CComPtr@UIUnknown@@@ATL@@QBEPAUIUnknown@@XZ
_TEXT	SEGMENT PARA USE32 PUBLIC 'CODE'
_TEXT	ENDS
;	COMDAT ??I?$CComPtr@UIUnknown@@@ATL@@QAEPAPAUIUnknown@@XZ
_TEXT	SEGMENT PARA USE32 PUBLIC 'CODE'
_TEXT	ENDS
;	COMDAT ??8?$CComPtr@UIUnknown@@@ATL@@QBE_NPAUIUnknown@@@Z
_TEXT	SEGMENT PARA USE32 PUBLIC 'CODE'
_TEXT	ENDS
;	COMDAT ??0?$CComPtr@UIPersistStream@@@ATL@@QAE@XZ
_TEXT	SEGMENT PARA USE32 PUBLIC 'CODE'
_TEXT	ENDS
;	COMDAT ??1?$CComPtr@UIPersistStream@@@ATL@@QAE@XZ
_TEXT	SEGMENT PARA USE32 PUBLIC 'CODE'
_TEXT	ENDS
;	COMDAT ??B?$CComPtr@UIPersistStream@@@ATL@@QBEPAUIPersistStream@@XZ
_TEXT	SEGMENT PARA USE32 PUBLIC 'CODE'
_TEXT	ENDS
;	COMDAT ??I?$CComPtr@UIPersistStream@@@ATL@@QAEPAPAUIPersistStream@@XZ
_TEXT	SEGMENT PARA USE32 PUBLIC 'CODE'
_TEXT	ENDS
;	COMDAT ??0?$CComPtr@UIConnectionPointContainer@@@ATL@@QAE@XZ
_TEXT	SEGMENT PARA USE32 PUBLIC 'CODE'
_TEXT	ENDS
;	COMDAT ??1?$CComPtr@UIConnectionPointContainer@@@ATL@@QAE@XZ
_TEXT	SEGMENT PARA USE32 PUBLIC 'CODE'
_TEXT	ENDS
;	COMDAT ??I?$CComPtr@UIConnectionPointContainer@@@ATL@@QAEPAPAUIConnectionPointContainer@@XZ
_TEXT	SEGMENT PARA USE32 PUBLIC 'CODE'
_TEXT	ENDS
;	COMDAT ??C?$CComPtr@UIConnectionPointContainer@@@ATL@@QBEPAV?$_NoAddRefReleaseOnCComPtr@UIConnectionPointContainer@@@1@XZ
_TEXT	SEGMENT PARA USE32 PUBLIC 'CODE'
_TEXT	ENDS
;	COMDAT ??0?$CComPtr@UIConnectionPoint@@@ATL@@QAE@XZ
_TEXT	SEGMENT PARA USE32 PUBLIC 'CODE'
_TEXT	ENDS
;	COMDAT ??1?$CComPtr@UIConnectionPoint@@@ATL@@QAE@XZ
_TEXT	SEGMENT PARA USE32 PUBLIC 'CODE'
_TEXT	ENDS
;	COMDAT ??I?$CComPtr@UIConnectionPoint@@@ATL@@QAEPAPAUIConnectionPoint@@XZ
_TEXT	SEGMENT PARA USE32 PUBLIC 'CODE'
_TEXT	ENDS
;	COMDAT ??C?$CComPtr@UIConnectionPoint@@@ATL@@QBEPAV?$_NoAddRefReleaseOnCComPtr@UIConnectionPoint@@@1@XZ
_TEXT	SEGMENT PARA USE32 PUBLIC 'CODE'
_TEXT	ENDS
;	COMDAT ??0?$CComPtr@UICreateErrorInfo@@@ATL@@QAE@XZ
_TEXT	SEGMENT PARA USE32 PUBLIC 'CODE'
_TEXT	ENDS
;	COMDAT ??1?$CComPtr@UICreateErrorInfo@@@ATL@@QAE@XZ
_TEXT	SEGMENT PARA USE32 PUBLIC 'CODE'
_TEXT	ENDS
;	COMDAT ??I?$CComPtr@UICreateErrorInfo@@@ATL@@QAEPAPAUICreateErrorInfo@@XZ
_TEXT	SEGMENT PARA USE32 PUBLIC 'CODE'
_TEXT	ENDS
;	COMDAT ??C?$CComPtr@UICreateErrorInfo@@@ATL@@QBEPAV?$_NoAddRefReleaseOnCComPtr@UICreateErrorInfo@@@1@XZ
_TEXT	SEGMENT PARA USE32 PUBLIC 'CODE'
_TEXT	ENDS
;	COMDAT ??0?$CComPtr@UIErrorInfo@@@ATL@@QAE@XZ
_TEXT	SEGMENT PARA USE32 PUBLIC 'CODE'
_TEXT	ENDS
;	COMDAT ??1?$CComPtr@UIErrorInfo@@@ATL@@QAE@XZ
_TEXT	SEGMENT PARA USE32 PUBLIC 'CODE'
_TEXT	ENDS
;	COMDAT ??B?$CComPtr@UIErrorInfo@@@ATL@@QBEPAUIErrorInfo@@XZ
_TEXT	SEGMENT PARA USE32 PUBLIC 'CODE'
_TEXT	ENDS
;	COMDAT ??I?$CComPtr@UIErrorInfo@@@ATL@@QAEPAPAUIErrorInfo@@XZ
_TEXT	SEGMENT PARA USE32 PUBLIC 'CODE'
_TEXT	ENDS
;	COMDAT ??0?$CComPtr@UICatRegister@@@ATL@@QAE@XZ
_TEXT	SEGMENT PARA USE32 PUBLIC 'CODE'
_TEXT	ENDS
;	COMDAT ??1?$CComPtr@UICatRegister@@@ATL@@QAE@XZ
_TEXT	SEGMENT PARA USE32 PUBLIC 'CODE'
_TEXT	ENDS
;	COMDAT ??I?$CComPtr@UICatRegister@@@ATL@@QAEPAPAUICatRegister@@XZ
_TEXT	SEGMENT PARA USE32 PUBLIC 'CODE'
_TEXT	ENDS
;	COMDAT ??C?$CComPtr@UICatRegister@@@ATL@@QBEPAV?$_NoAddRefReleaseOnCComPtr@UICatRegister@@@1@XZ
_TEXT	SEGMENT PARA USE32 PUBLIC 'CODE'
_TEXT	ENDS
;	COMDAT ??0?$CComPtr@UIRegistrar@@@ATL@@QAE@XZ
_TEXT	SEGMENT PARA USE32 PUBLIC 'CODE'
_TEXT	ENDS
;	COMDAT ??1?$CComPtr@UIRegistrar@@@ATL@@QAE@XZ
_TEXT	SEGMENT PARA USE32 PUBLIC 'CODE'
_TEXT	ENDS
;	COMDAT ??I?$CComPtr@UIRegistrar@@@ATL@@QAEPAPAUIRegistrar@@XZ
_TEXT	SEGMENT PARA USE32 PUBLIC 'CODE'
_TEXT	ENDS
;	COMDAT ??C?$CComPtr@UIRegistrar@@@ATL@@QBEPAV?$_NoAddRefReleaseOnCComPtr@UIRegistrar@@@1@XZ
_TEXT	SEGMENT PARA USE32 PUBLIC 'CODE'
_TEXT	ENDS
;	COMDAT ??4?$CComPtr@UIRegistrar@@@ATL@@QAEPAUIRegistrar@@PAU2@@Z
_TEXT	SEGMENT PARA USE32 PUBLIC 'CODE'
_TEXT	ENDS
;	COMDAT ??0?$CComPtr@UITypeLib@@@ATL@@QAE@XZ
_TEXT	SEGMENT PARA USE32 PUBLIC 'CODE'
_TEXT	ENDS
;	COMDAT ??1?$CComPtr@UITypeLib@@@ATL@@QAE@XZ
_TEXT	SEGMENT PARA USE32 PUBLIC 'CODE'
_TEXT	ENDS
;	COMDAT ??B?$CComPtr@UITypeLib@@@ATL@@QBEPAUITypeLib@@XZ
_TEXT	SEGMENT PARA USE32 PUBLIC 'CODE'
_TEXT	ENDS
;	COMDAT ??I?$CComPtr@UITypeLib@@@ATL@@QAEPAPAUITypeLib@@XZ
_TEXT	SEGMENT PARA USE32 PUBLIC 'CODE'
_TEXT	ENDS
;	COMDAT ??C?$CComPtr@UITypeLib@@@ATL@@QBEPAV?$_NoAddRefReleaseOnCComPtr@UITypeLib@@@1@XZ
_TEXT	SEGMENT PARA USE32 PUBLIC 'CODE'
_TEXT	ENDS
;	COMDAT ??0sentry@?$basic_istream@DU?$char_traits@D@std@@@std@@QAE@AAV12@_N@Z
_TEXT	SEGMENT PARA USE32 PUBLIC 'CODE'
_TEXT	ENDS
;	COMDAT ??Bsentry@?$basic_istream@DU?$char_traits@D@std@@@std@@QBE_NXZ
_TEXT	SEGMENT PARA USE32 PUBLIC 'CODE'
_TEXT	ENDS
;	COMDAT ??0sentry@?$basic_istream@GU?$char_traits@G@std@@@std@@QAE@AAV12@_N@Z
_TEXT	SEGMENT PARA USE32 PUBLIC 'CODE'
_TEXT	ENDS
;	COMDAT ??Bsentry@?$basic_istream@GU?$char_traits@G@std@@@std@@QBE_NXZ
_TEXT	SEGMENT PARA USE32 PUBLIC 'CODE'
_TEXT	ENDS
;	COMDAT ??0?$_CIP@UIUnknown@@$1?IID_IUnknown@@3U_GUID@@B@@QAE@ABV0@@Z
_TEXT	SEGMENT PARA USE32 PUBLIC 'CODE'
_TEXT	ENDS
;	COMDAT ??0?$_CIP@UIUnknown@@$1?IID_IUnknown@@3U_GUID@@B@@QAE@PAUIUnknown@@@Z
_TEXT	SEGMENT PARA USE32 PUBLIC 'CODE'
_TEXT	ENDS
;	COMDAT ??0?$_CIP@UIUnknown@@$1?IID_IUnknown@@3U_GUID@@B@@QAE@PAUIUnknown@@H@Z
_TEXT	SEGMENT PARA USE32 PUBLIC 'CODE'
_TEXT	ENDS
;	COMDAT ??0?$_CIP@UIUnknown@@$1?IID_IUnknown@@3U_GUID@@B@@QAE@ABU_GUID@@K@Z
_TEXT	SEGMENT PARA USE32 PUBLIC 'CODE'
_TEXT	ENDS
;	COMDAT ??0?$_CIP@UIUnknown@@$1?IID_IUnknown@@3U_GUID@@B@@QAE@PAGK@Z
_TEXT	SEGMENT PARA USE32 PUBLIC 'CODE'
_TEXT	ENDS
;	COMDAT ??4?$_CIP@UIUnknown@@$1?IID_IUnknown@@3U_GUID@@B@@QAEAAV0@PAUIUnknown@@@Z
_TEXT	SEGMENT PARA USE32 PUBLIC 'CODE'
_TEXT	ENDS
;	COMDAT ??4?$_CIP@UIUnknown@@$1?IID_IUnknown@@3U_GUID@@B@@QAEAAV0@ABV0@@Z
_TEXT	SEGMENT PARA USE32 PUBLIC 'CODE'
_TEXT	ENDS
;	COMDAT ??4?$_CIP@UIUnknown@@$1?IID_IUnknown@@3U_GUID@@B@@QAEAAV0@ABU_GUID@@@Z
_TEXT	SEGMENT PARA USE32 PUBLIC 'CODE'
_TEXT	ENDS
;	COMDAT ??4?$_CIP@UIUnknown@@$1?IID_IUnknown@@3U_GUID@@B@@QAEAAV0@PAG@Z
_TEXT	SEGMENT PARA USE32 PUBLIC 'CODE'
_TEXT	ENDS
;	COMDAT ?GetInterfacePtr@?$_CIP@UIUnknown@@$1?IID_IUnknown@@3U_GUID@@B@@QBEPAUIUnknown@@XZ
_TEXT	SEGMENT PARA USE32 PUBLIC 'CODE'
_TEXT	ENDS
;	COMDAT ??0?$CIP@UIMoniker@@$1?IID_IMoniker@@3U_GUID@@B@@QAE@XZ
_TEXT	SEGMENT PARA USE32 PUBLIC 'CODE'
_TEXT	ENDS
;	COMDAT ??B?$_CIP@UIMoniker@@$1?IID_IMoniker@@3U_GUID@@B@@QBEPAUIMoniker@@XZ
_TEXT	SEGMENT PARA USE32 PUBLIC 'CODE'
_TEXT	ENDS
;	COMDAT ??4?$CIP@UIBinding@@$1?IID_IBinding@@3U_GUID@@B@@QAEAAV0@PAUIBinding@@@Z
_TEXT	SEGMENT PARA USE32 PUBLIC 'CODE'
_TEXT	ENDS
;	COMDAT ??B?$_CIP@UIBinding@@$1?IID_IBinding@@3U_GUID@@B@@QBEPAUIBinding@@XZ
_TEXT	SEGMENT PARA USE32 PUBLIC 'CODE'
_TEXT	ENDS
;	COMDAT ??0?$_com_ptr_t@V?$_com_IIID@UISkinForm@@$1?_GUID_972de6c1_8b09_11d2_b652_a1fd6cc34260@@3U__s_GUID@@A@@@@QAE@XZ
_TEXT	SEGMENT PARA USE32 PUBLIC 'CODE'
_TEXT	ENDS
;	COMDAT ??1?$_com_ptr_t@V?$_com_IIID@UISkinForm@@$1?_GUID_972de6c1_8b09_11d2_b652_a1fd6cc34260@@3U__s_GUID@@A@@@@QAE@XZ
_TEXT	SEGMENT PARA USE32 PUBLIC 'CODE'
_TEXT	ENDS
;	COMDAT ??C?$_com_ptr_t@V?$_com_IIID@UISkinForm@@$1?_GUID_972de6c1_8b09_11d2_b652_a1fd6cc34260@@3U__s_GUID@@A@@@@QBEPAUISkinForm@@XZ
_TEXT	SEGMENT PARA USE32 PUBLIC 'CODE'
_TEXT	ENDS
;	COMDAT ??_G?$ctype@G@std@@UAEPAXI@Z
_TEXT	SEGMENT PARA USE32 PUBLIC 'CODE'
_TEXT	ENDS
;	COMDAT ??_G?$numpunct@D@std@@UAEPAXI@Z
_TEXT	SEGMENT PARA USE32 PUBLIC 'CODE'
_TEXT	ENDS
;	COMDAT ??_G?$numpunct@G@std@@UAEPAXI@Z
_TEXT	SEGMENT PARA USE32 PUBLIC 'CODE'
_TEXT	ENDS
;	COMDAT ??D?$istreambuf_iterator@DU?$char_traits@D@std@@@std@@QBEABDXZ
_TEXT	SEGMENT PARA USE32 PUBLIC 'CODE'
_TEXT	ENDS
;	COMDAT ??E?$istreambuf_iterator@DU?$char_traits@D@std@@@std@@QAEAAV01@XZ
_TEXT	SEGMENT PARA USE32 PUBLIC 'CODE'
_TEXT	ENDS
;	COMDAT ??D?$istreambuf_iterator@GU?$char_traits@G@std@@@std@@QBEABGXZ
_TEXT	SEGMENT PARA USE32 PUBLIC 'CODE'
_TEXT	ENDS
;	COMDAT ??E?$istreambuf_iterator@GU?$char_traits@G@std@@@std@@QAEAAV01@XZ
_TEXT	SEGMENT PARA USE32 PUBLIC 'CODE'
_TEXT	ENDS
;	COMDAT ??0?$fpos@H@std@@QAE@J@Z
_TEXT	SEGMENT PARA USE32 PUBLIC 'CODE'
_TEXT	ENDS
;	COMDAT ??0sentry@?$basic_ostream@DU?$char_traits@D@std@@@std@@QAE@AAV12@@Z
_TEXT	SEGMENT PARA USE32 PUBLIC 'CODE'
_TEXT	ENDS
;	COMDAT ??1sentry@?$basic_ostream@DU?$char_traits@D@std@@@std@@QAE@XZ
_TEXT	SEGMENT PARA USE32 PUBLIC 'CODE'
_TEXT	ENDS
;	COMDAT ??Bsentry@?$basic_ostream@DU?$char_traits@D@std@@@std@@QBE_NXZ
_TEXT	SEGMENT PARA USE32 PUBLIC 'CODE'
_TEXT	ENDS
;	COMDAT ??0sentry@?$basic_ostream@GU?$char_traits@G@std@@@std@@QAE@AAV12@@Z
_TEXT	SEGMENT PARA USE32 PUBLIC 'CODE'
_TEXT	ENDS
;	COMDAT ??1sentry@?$basic_ostream@GU?$char_traits@G@std@@@std@@QAE@XZ
_TEXT	SEGMENT PARA USE32 PUBLIC 'CODE'
_TEXT	ENDS
;	COMDAT ??Bsentry@?$basic_ostream@GU?$char_traits@G@std@@@std@@QBE_NXZ
_TEXT	SEGMENT PARA USE32 PUBLIC 'CODE'
_TEXT	ENDS
;	COMDAT ?CreateObject@?$_CIP@UIUnknown@@$1?IID_IUnknown@@3U_GUID@@B@@QAEJABU_GUID@@K@Z
_TEXT	SEGMENT PARA USE32 PUBLIC 'CODE'
_TEXT	ENDS
;	COMDAT ?CreateObject@?$_CIP@UIUnknown@@$1?IID_IUnknown@@3U_GUID@@B@@QAEJPAGK@Z
_TEXT	SEGMENT PARA USE32 PUBLIC 'CODE'
_TEXT	ENDS
;	COMDAT ?_AddRef@?$_CIP@UIUnknown@@$1?IID_IUnknown@@3U_GUID@@B@@AAEXXZ
_TEXT	SEGMENT PARA USE32 PUBLIC 'CODE'
_TEXT	ENDS
;	COMDAT ??4?$_CIP@UIBinding@@$1?IID_IBinding@@3U_GUID@@B@@QAEAAV0@PAUIBinding@@@Z
_TEXT	SEGMENT PARA USE32 PUBLIC 'CODE'
_TEXT	ENDS
;	COMDAT ?_Release@?$_com_ptr_t@V?$_com_IIID@UISkinForm@@$1?_GUID_972de6c1_8b09_11d2_b652_a1fd6cc34260@@3U__s_GUID@@A@@@@AAEXXZ
_TEXT	SEGMENT PARA USE32 PUBLIC 'CODE'
_TEXT	ENDS
;	COMDAT ?deallocate@?$allocator@D@std@@QAEXPAXI@Z
_TEXT	SEGMENT PARA USE32 PUBLIC 'CODE'
_TEXT	ENDS
;	COMDAT ?_Inc@?$istreambuf_iterator@DU?$char_traits@D@std@@@std@@AAEXXZ
_TEXT	SEGMENT PARA USE32 PUBLIC 'CODE'
_TEXT	ENDS
;	COMDAT ?_Peek@?$istreambuf_iterator@DU?$char_traits@D@std@@@std@@AAEDXZ
_TEXT	SEGMENT PARA USE32 PUBLIC 'CODE'
_TEXT	ENDS
;	COMDAT ?_Inc@?$istreambuf_iterator@GU?$char_traits@G@std@@@std@@AAEXXZ
_TEXT	SEGMENT PARA USE32 PUBLIC 'CODE'
_TEXT	ENDS
;	COMDAT ?_Peek@?$istreambuf_iterator@GU?$char_traits@G@std@@@std@@AAEGXZ
_TEXT	SEGMENT PARA USE32 PUBLIC 'CODE'
_TEXT	ENDS
;	COMDAT ??4?$ostreambuf_iterator@DU?$char_traits@D@std@@@std@@QAEAAV01@D@Z
_TEXT	SEGMENT PARA USE32 PUBLIC 'CODE'
_TEXT	ENDS
;	COMDAT ??D?$ostreambuf_iterator@DU?$char_traits@D@std@@@std@@QAEAAV01@XZ
_TEXT	SEGMENT PARA USE32 PUBLIC 'CODE'
_TEXT	ENDS
;	COMDAT ??E?$ostreambuf_iterator@DU?$char_traits@D@std@@@std@@QAEAAV01@XZ
_TEXT	SEGMENT PARA USE32 PUBLIC 'CODE'
_TEXT	ENDS
;	COMDAT ??4?$ostreambuf_iterator@GU?$char_traits@G@std@@@std@@QAEAAV01@G@Z
_TEXT	SEGMENT PARA USE32 PUBLIC 'CODE'
_TEXT	ENDS
;	COMDAT ??D?$ostreambuf_iterator@GU?$char_traits@G@std@@@std@@QAEAAV01@XZ
_TEXT	SEGMENT PARA USE32 PUBLIC 'CODE'
_TEXT	ENDS
;	COMDAT ??E?$ostreambuf_iterator@GU?$char_traits@G@std@@@std@@QAEAAV01@XZ
_TEXT	SEGMENT PARA USE32 PUBLIC 'CODE'
_TEXT	ENDS
;	COMDAT ?GetIID@?$_CIP@UIUnknown@@$1?IID_IUnknown@@3U_GUID@@B@@SAABU_GUID@@XZ
_TEXT	SEGMENT PARA USE32 PUBLIC 'CODE'
_TEXT	ENDS
;	COMDAT ?_Release@?$_CIP@UIUnknown@@$1?IID_IUnknown@@3U_GUID@@B@@AAEXXZ
_TEXT	SEGMENT PARA USE32 PUBLIC 'CODE'
_TEXT	ENDS
;	COMDAT ?_AddRef@?$_CIP@UIBinding@@$1?IID_IBinding@@3U_GUID@@B@@AAEXXZ
_TEXT	SEGMENT PARA USE32 PUBLIC 'CODE'
_TEXT	ENDS
;	COMDAT ?deallocate@?$allocator@G@std@@QAEXPAXI@Z
_TEXT	SEGMENT PARA USE32 PUBLIC 'CODE'
_TEXT	ENDS
;	COMDAT ?allocate@?$allocator@D@std@@QAEPADIPBX@Z
_TEXT	SEGMENT PARA USE32 PUBLIC 'CODE'
_TEXT	ENDS
;	COMDAT ?max_size@?$allocator@D@std@@QBEIXZ
_TEXT	SEGMENT PARA USE32 PUBLIC 'CODE'
_TEXT	ENDS
;	COMDAT ?allocate@?$allocator@G@std@@QAEPAGIPBX@Z
_TEXT	SEGMENT PARA USE32 PUBLIC 'CODE'
_TEXT	ENDS
;	COMDAT ?max_size@?$allocator@G@std@@QBEIXZ
_TEXT	SEGMENT PARA USE32 PUBLIC 'CODE'
_TEXT	ENDS
;	COMDAT ?use_facet@std@@YAABV?$ctype@D@1@ABVlocale@1@PBV21@_N@Z
_TEXT	SEGMENT PARA USE32 PUBLIC 'CODE'
_TEXT	ENDS
;	COMDAT ?use_facet@std@@YAABV?$ctype@G@1@ABVlocale@1@PBV21@_N@Z
_TEXT	SEGMENT PARA USE32 PUBLIC 'CODE'
_TEXT	ENDS
;	COMDAT ??0?$_CIP@UIUnknown@@$1?IID_IUnknown@@3U_GUID@@B@@QAE@XZ
_TEXT	SEGMENT PARA USE32 PUBLIC 'CODE'
_TEXT	ENDS
;	COMDAT ??1?$_CIP@UIUnknown@@$1?IID_IUnknown@@3U_GUID@@B@@QAE@XZ
_TEXT	SEGMENT PARA USE32 PUBLIC 'CODE'
_TEXT	ENDS
;	COMDAT ??0?$_CIP@UIMoniker@@$1?IID_IMoniker@@3U_GUID@@B@@QAE@XZ
_TEXT	SEGMENT PARA USE32 PUBLIC 'CODE'
_TEXT	ENDS
;	COMDAT ??1?$_CIP@UIMoniker@@$1?IID_IMoniker@@3U_GUID@@B@@QAE@XZ
_TEXT	SEGMENT PARA USE32 PUBLIC 'CODE'
_TEXT	ENDS
;	COMDAT ??1?$CIP@UIMoniker@@$1?IID_IMoniker@@3U_GUID@@B@@QAE@XZ
_TEXT	SEGMENT PARA USE32 PUBLIC 'CODE'
_TEXT	ENDS
;	COMDAT ??4?$_com_ptr_t@V?$_com_IIID@UISkinForm@@$1?_GUID_972de6c1_8b09_11d2_b652_a1fd6cc34260@@3U__s_GUID@@A@@@@QAEAAV0@ABQAUIUnknown@@@Z
_TEXT	SEGMENT PARA USE32 PUBLIC 'CODE'
_TEXT	ENDS
;	COMDAT ?use_facet@std@@YAABV?$numpunct@D@1@ABVlocale@1@PBV21@_N@Z
_TEXT	SEGMENT PARA USE32 PUBLIC 'CODE'
_TEXT	ENDS
;	COMDAT ?_Getloctxt@std@@YAHAAV?$istreambuf_iterator@DU?$char_traits@D@std@@@1@0IPBD@Z
_TEXT	SEGMENT PARA USE32 PUBLIC 'CODE'
_TEXT	ENDS
;	COMDAT ??8std@@YA_NABV?$istreambuf_iterator@DU?$char_traits@D@std@@@0@0@Z
_TEXT	SEGMENT PARA USE32 PUBLIC 'CODE'
_TEXT	ENDS
;	COMDAT ?_Widen@std@@YADDPAD@Z
_TEXT	SEGMENT PARA USE32 PUBLIC 'CODE'
_TEXT	ENDS
;	COMDAT ?use_facet@std@@YAABV?$numpunct@G@1@ABVlocale@1@PBV21@_N@Z
_TEXT	SEGMENT PARA USE32 PUBLIC 'CODE'
_TEXT	ENDS
;	COMDAT ?_Getloctxt@std@@YAHAAV?$istreambuf_iterator@GU?$char_traits@G@std@@@1@0IPBG@Z
_TEXT	SEGMENT PARA USE32 PUBLIC 'CODE'
_TEXT	ENDS
;	COMDAT ??8std@@YA_NABV?$istreambuf_iterator@GU?$char_traits@G@std@@@0@0@Z
_TEXT	SEGMENT PARA USE32 PUBLIC 'CODE'
_TEXT	ENDS
;	COMDAT ??8std@@YA_NABV?$allocator@D@0@0@Z
_TEXT	SEGMENT PARA USE32 PUBLIC 'CODE'
_TEXT	ENDS
;	COMDAT ??9std@@YA_NABV?$istreambuf_iterator@DU?$char_traits@D@std@@@0@0@Z
_TEXT	SEGMENT PARA USE32 PUBLIC 'CODE'
_TEXT	ENDS
;	COMDAT ?_Narrow@std@@YAHD@Z
_TEXT	SEGMENT PARA USE32 PUBLIC 'CODE'
_TEXT	ENDS
;	COMDAT ?isdigit@std@@YA_NDABVlocale@1@@Z
_TEXT	SEGMENT PARA USE32 PUBLIC 'CODE'
_TEXT	ENDS
;	COMDAT ??9std@@YA_NABV?$istreambuf_iterator@GU?$char_traits@G@std@@@0@0@Z
_TEXT	SEGMENT PARA USE32 PUBLIC 'CODE'
_TEXT	ENDS
;	COMDAT ??8std@@YA_NABV?$allocator@G@0@0@Z
_TEXT	SEGMENT PARA USE32 PUBLIC 'CODE'
_TEXT	ENDS
;	COMDAT ?_Allocate@std@@YAPADHPAD@Z
_TEXT	SEGMENT PARA USE32 PUBLIC 'CODE'
_TEXT	ENDS
;	COMDAT ?_Allocate@std@@YAPAGHPAG@Z
_TEXT	SEGMENT PARA USE32 PUBLIC 'CODE'
_TEXT	ENDS
;	COMDAT ?equal@?$istreambuf_iterator@DU?$char_traits@D@std@@@std@@QBE_NABV12@@Z
_TEXT	SEGMENT PARA USE32 PUBLIC 'CODE'
_TEXT	ENDS
;	COMDAT ?equal@?$istreambuf_iterator@GU?$char_traits@G@std@@@std@@QBE_NABV12@@Z
_TEXT	SEGMENT PARA USE32 PUBLIC 'CODE'
_TEXT	ENDS
;	COMDAT ?_Release@?$_CIP@UIMoniker@@$1?IID_IMoniker@@3U_GUID@@B@@AAEXXZ
_TEXT	SEGMENT PARA USE32 PUBLIC 'CODE'
_TEXT	ENDS
;	COMDAT ?_Save@?$_Tidyfac@V?$ctype@D@std@@@std@@SAPAV?$ctype@D@2@PAV32@@Z
_TEXT	SEGMENT PARA USE32 PUBLIC 'CODE'
_TEXT	ENDS
;	COMDAT ?_Save@?$_Tidyfac@V?$ctype@G@std@@@std@@SAPAV?$ctype@G@2@PAV32@@Z
_TEXT	SEGMENT PARA USE32 PUBLIC 'CODE'
_TEXT	ENDS
;	COMDAT ?_Save@?$_Tidyfac@V?$numpunct@D@std@@@std@@SAPAV?$numpunct@D@2@PAV32@@Z
_TEXT	SEGMENT PARA USE32 PUBLIC 'CODE'
_TEXT	ENDS
;	COMDAT ?_Save@?$_Tidyfac@V?$numpunct@G@std@@@std@@SAPAV?$numpunct@G@2@PAV32@@Z
_TEXT	SEGMENT PARA USE32 PUBLIC 'CODE'
_TEXT	ENDS
;	COMDAT ?_Tidy@?$_Tidyfac@V?$ctype@D@std@@@std@@SAXXZ
_TEXT	SEGMENT PARA USE32 PUBLIC 'CODE'
_TEXT	ENDS
;	COMDAT ?_Tidy@?$_Tidyfac@V?$ctype@G@std@@@std@@SAXXZ
_TEXT	SEGMENT PARA USE32 PUBLIC 'CODE'
_TEXT	ENDS
;	COMDAT ?_Tidy@?$_Tidyfac@V?$numpunct@D@std@@@std@@SAXXZ
_TEXT	SEGMENT PARA USE32 PUBLIC 'CODE'
_TEXT	ENDS
;	COMDAT ?_Tidy@?$_Tidyfac@V?$numpunct@G@std@@@std@@SAXXZ
_TEXT	SEGMENT PARA USE32 PUBLIC 'CODE'
_TEXT	ENDS
;	COMDAT ?_QueryInterface@?$_com_ptr_t@V?$_com_IIID@UISkinForm@@$1?_GUID_972de6c1_8b09_11d2_b652_a1fd6cc34260@@3U__s_GUID@@A@@@@AAEJABQAUIUnknown@@@Z
_TEXT	SEGMENT PARA USE32 PUBLIC 'CODE'
_TEXT	ENDS
;	COMDAT ?_Maklocstr@std@@YAPADPBDPAD@Z
_TEXT	SEGMENT PARA USE32 PUBLIC 'CODE'
_TEXT	ENDS
;	COMDAT ?_Maklocstr@std@@YAPAGPBDPAG@Z
_TEXT	SEGMENT PARA USE32 PUBLIC 'CODE'
_TEXT	ENDS
;	COMDAT ?GetIID@?$_com_ptr_t@V?$_com_IIID@UISkinForm@@$1?_GUID_972de6c1_8b09_11d2_b652_a1fd6cc34260@@3U__s_GUID@@A@@@@SAABU_GUID@@XZ
_TEXT	SEGMENT PARA USE32 PUBLIC 'CODE'
_TEXT	ENDS
;	COMDAT ??4?$_com_ptr_t@V?$_com_IIID@UISkinForm@@$1?_GUID_972de6c1_8b09_11d2_b652_a1fd6cc34260@@3U__s_GUID@@A@@@@QAEAAV0@PAUISkinForm@@@Z
_TEXT	SEGMENT PARA USE32 PUBLIC 'CODE'
_TEXT	ENDS
;	COMDAT ?Attach@?$_com_ptr_t@V?$_com_IIID@UISkinForm@@$1?_GUID_972de6c1_8b09_11d2_b652_a1fd6cc34260@@3U__s_GUID@@A@@@@QAEXPAUISkinForm@@@Z
_TEXT	SEGMENT PARA USE32 PUBLIC 'CODE'
_TEXT	ENDS
;	COMDAT ?_AddRef@?$_com_ptr_t@V?$_com_IIID@UISkinForm@@$1?_GUID_972de6c1_8b09_11d2_b652_a1fd6cc34260@@3U__s_GUID@@A@@@@AAEXXZ
_TEXT	SEGMENT PARA USE32 PUBLIC 'CODE'
_TEXT	ENDS
;	COMDAT ?GetIID@?$_com_IIID@UISkinForm@@$1?_GUID_972de6c1_8b09_11d2_b652_a1fd6cc34260@@3U__s_GUID@@A@@SAABU_GUID@@XZ
_TEXT	SEGMENT PARA USE32 PUBLIC 'CODE'
_TEXT	ENDS
;	COMDAT __GUID_eab22ac1_30c1_11cf_a7eb_0000c05bae0b
_DATA	SEGMENT DWORD USE32 PUBLIC 'DATA'
_DATA	ENDS
;	COMDAT __GUID_d66d6f98_cdaa_11d0_b822_00c04fc9b31f
_DATA	SEGMENT DWORD USE32 PUBLIC 'DATA'
_DATA	ENDS
;	COMDAT __GUID_0000013b_0000_0000_c000_000000000046
_DATA	SEGMENT DWORD USE32 PUBLIC 'DATA'
_DATA	ENDS
;	COMDAT __GUID_a6ef9860_c720_11d0_9337_00a0c90dcaa9
_DATA	SEGMENT DWORD USE32 PUBLIC 'DATA'
_DATA	ENDS
;	COMDAT __GUID_00000117_0000_0000_c000_000000000046
_DATA	SEGMENT DWORD USE32 PUBLIC 'DATA'
_DATA	ENDS
;	COMDAT __GUID_a6bc3ac0_dbaa_11ce_9de3_00aa004bb851
_DATA	SEGMENT DWORD USE32 PUBLIC 'DATA'
_DATA	ENDS
;	COMDAT __GUID_00000113_0000_0000_c000_000000000046
_DATA	SEGMENT DWORD USE32 PUBLIC 'DATA'
_DATA	ENDS
;	COMDAT __GUID_79eac9d8_bafa_11ce_8c82_00aa004ba90b
_DATA	SEGMENT DWORD USE32 PUBLIC 'DATA'
_DATA	ENDS
;	COMDAT __GUID_1f8352c0_50b0_11cf_960c_0080c7f4ee85
_DATA	SEGMENT DWORD USE32 PUBLIC 'DATA'
_DATA	ENDS
;	COMDAT _CLSID_SkinSource
CONST	SEGMENT DWORD USE32 PUBLIC 'CONST'
CONST	ENDS
;	COMDAT __GUID_3050f2f4_98b5_11cf_bb82_00aa00bdce0b
_DATA	SEGMENT DWORD USE32 PUBLIC 'DATA'
_DATA	ENDS
;	COMDAT ??_7CMonthCalCtrl@@6B@
CONST	SEGMENT DWORD USE32 PUBLIC 'CONST'
CONST	ENDS
;	COMDAT __GUID_3050f220_98b5_11cf_bb82_00aa00bdce0b
_DATA	SEGMENT DWORD USE32 PUBLIC 'DATA'
_DATA	ENDS
;	COMDAT __GUID_3050f208_98b5_11cf_bb82_00aa00bdce0b
_DATA	SEGMENT DWORD USE32 PUBLIC 'DATA'
_DATA	ENDS
;	COMDAT ??_R0?AVruntime_error@std@@@8
_DATA	SEGMENT DWORD USE32 PUBLIC 'DATA'
_DATA	ENDS
;	COMDAT __GUID_b722bcc9_4e68_101b_a2bc_00aa00404770
_DATA	SEGMENT DWORD USE32 PUBLIC 'DATA'
_DATA	ENDS
;	COMDAT __GUID_0000002c_0000_0000_c000_000000000046
_DATA	SEGMENT DWORD USE32 PUBLIC 'DATA'
_DATA	ENDS
;	COMDAT __GUID_feceaaa5_8405_11cf_8ba1_00aa00476da6
_DATA	SEGMENT DWORD USE32 PUBLIC 'DATA'
_DATA	ENDS
;	COMDAT __GUID_0000000f_0000_0000_c000_000000000046
_DATA	SEGMENT DWORD USE32 PUBLIC 'DATA'
_DATA	ENDS
;	COMDAT __GUID_00000192_0000_0000_c000_000000000046
_DATA	SEGMENT DWORD USE32 PUBLIC 'DATA'
_DATA	ENDS
;	COMDAT __GUID_00000128_0000_0000_c000_000000000046
_DATA	SEGMENT DWORD USE32 PUBLIC 'DATA'
_DATA	ENDS
;	COMDAT __GUID_000214f3_0000_0000_c000_000000000046
_DATA	SEGMENT DWORD USE32 PUBLIC 'DATA'
_DATA	ENDS
;	COMDAT __GUID_00000140_0000_0000_c000_000000000046
_DATA	SEGMENT DWORD USE32 PUBLIC 'DATA'
_DATA	ENDS
;	COMDAT __GUID_0000002f_0000_0000_c000_000000000046
_DATA	SEGMENT DWORD USE32 PUBLIC 'DATA'
_DATA	ENDS
;	COMDAT ??_7CEdit@@6B@
CONST	SEGMENT DWORD USE32 PUBLIC 'CONST'
CONST	ENDS
;	COMDAT __GUID_00000116_0000_0000_c000_000000000046
_DATA	SEGMENT DWORD USE32 PUBLIC 'DATA'
_DATA	ENDS
;	COMDAT __GUID_3050f21f_98b5_11cf_bb82_00aa00bdce0b
_DATA	SEGMENT DWORD USE32 PUBLIC 'DATA'
_DATA	ENDS
;	COMDAT __GUID_00000122_0000_0000_c000_000000000046
_DATA	SEGMENT DWORD USE32 PUBLIC 'DATA'
_DATA	ENDS
;	COMDAT __GUID_920ff31f_ca25_451a_9738_3444fc206bcc
_DATA	SEGMENT DWORD USE32 PUBLIC 'DATA'
_DATA	ENDS
;	COMDAT __GUID_b196b283_bab4_101a_b69c_00aa00341d07
_DATA	SEGMENT DWORD USE32 PUBLIC 'DATA'
_DATA	ENDS
;	COMDAT _CLSID_SkinPanel
CONST	SEGMENT DWORD USE32 PUBLIC 'CONST'
CONST	ENDS
;	COMDAT ??_7CScrollBar@@6B@
CONST	SEGMENT DWORD USE32 PUBLIC 'CONST'
CONST	ENDS
;	COMDAT __CTA2?AVlogic_error@std@@
xdata$x	SEGMENT DWORD USE32 PUBLIC 'CONST'
xdata$x	ENDS
;	COMDAT ??_7CProgressCtrl@@6B@
CONST	SEGMENT DWORD USE32 PUBLIC 'CONST'
CONST	ENDS
;	COMDAT _IID_ISkinFormEvents_Sink
CONST	SEGMENT DWORD USE32 PUBLIC 'CONST'
CONST	ENDS
;	COMDAT __GUID_b722bcc7_4e68_101b_a2bc_00aa00404770
_DATA	SEGMENT DWORD USE32 PUBLIC 'DATA'
_DATA	ENDS
;	COMDAT __TI2?AVbad_typeid@std@@
xdata$x	SEGMENT DWORD USE32 PUBLIC 'CONST'
xdata$x	ENDS
;	COMDAT ??_7CTabCtrl@@6B@
CONST	SEGMENT DWORD USE32 PUBLIC 'CONST'
CONST	ENDS
;	COMDAT ??_7CStatic@@6B@
CONST	SEGMENT DWORD USE32 PUBLIC 'CONST'
CONST	ENDS
;	COMDAT __GUID_00000000_0000_0000_c000_000000000046
_DATA	SEGMENT DWORD USE32 PUBLIC 'DATA'
_DATA	ENDS
;	COMDAT _CLSID_SkinPopup
CONST	SEGMENT DWORD USE32 PUBLIC 'CONST'
CONST	ENDS
;	COMDAT __GUID_3050f32a_98b5_11cf_bb82_00aa00bdce0b
_DATA	SEGMENT DWORD USE32 PUBLIC 'DATA'
_DATA	ENDS
;	COMDAT __GUID_b3e7c340_ef97_11ce_9bc9_00aa00608e01
_DATA	SEGMENT DWORD USE32 PUBLIC 'DATA'
_DATA	ENDS
;	COMDAT _IID_ISkinStorage
CONST	SEGMENT DWORD USE32 PUBLIC 'CONST'
CONST	ENDS
;	COMDAT _DIID__ISkinButtonEvents
CONST	SEGMENT DWORD USE32 PUBLIC 'CONST'
CONST	ENDS
;	COMDAT __GUID_53fa8d49_2cdd_11d3_9dd0_d3cd4078982a
_DATA	SEGMENT DWORD USE32 PUBLIC 'DATA'
_DATA	ENDS
;	COMDAT __GUID_85cb6900_4d95_11cf_960c_0080c7f4ee85
_DATA	SEGMENT DWORD USE32 PUBLIC 'DATA'
_DATA	ENDS
;	COMDAT __GUID_4f7ae600_0142_11d3_9dcf_89be4efb591e
_DATA	SEGMENT DWORD USE32 PUBLIC 'DATA'
_DATA	ENDS
;	COMDAT __GUID_0000000b_0000_0000_c000_000000000046
_DATA	SEGMENT DWORD USE32 PUBLIC 'DATA'
_DATA	ENDS
;	COMDAT ??_7CComboBoxEx@@6B@
CONST	SEGMENT DWORD USE32 PUBLIC 'CONST'
CONST	ENDS
;	COMDAT __TI2?AVbad_cast@std@@
xdata$x	SEGMENT DWORD USE32 PUBLIC 'CONST'
xdata$x	ENDS
;	COMDAT __GUID_3050f203_98b5_11cf_bb82_00aa00bdce0b
_DATA	SEGMENT DWORD USE32 PUBLIC 'DATA'
_DATA	ENDS
;	COMDAT __GUID_00000114_0000_0000_c000_000000000046
_DATA	SEGMENT DWORD USE32 PUBLIC 'DATA'
_DATA	ENDS
;	COMDAT __GUID_1ac3d9f0_175c_11d1_95be_00609797ea4f
_DATA	SEGMENT DWORD USE32 PUBLIC 'DATA'
_DATA	ENDS
;	COMDAT __CTA3?AVrange_error@std@@
xdata$x	SEGMENT DWORD USE32 PUBLIC 'CONST'
xdata$x	ENDS
;	COMDAT __GUID_012dd920_7b26_11d0_8ca9_00a0c92dbfe8
_DATA	SEGMENT DWORD USE32 PUBLIC 'DATA'
_DATA	ENDS
;	COMDAT ??_R0?AVout_of_range@std@@@8
_DATA	SEGMENT DWORD USE32 PUBLIC 'DATA'
_DATA	ENDS
;	COMDAT ??_7CHotKeyCtrl@@6B@
CONST	SEGMENT DWORD USE32 PUBLIC 'CONST'
CONST	ENDS
;	COMDAT _IID_ISkinObjectDisp
CONST	SEGMENT DWORD USE32 PUBLIC 'CONST'
CONST	ENDS
;	COMDAT __GUID_000214e2_0000_0000_c000_000000000046
_DATA	SEGMENT DWORD USE32 PUBLIC 'DATA'
_DATA	ENDS
;	COMDAT _CLSID_SkinObject
CONST	SEGMENT DWORD USE32 PUBLIC 'CONST'
CONST	ENDS
;	COMDAT __GUID_00020403_0000_0000_c000_000000000046
_DATA	SEGMENT DWORD USE32 PUBLIC 'DATA'
_DATA	ENDS
;	COMDAT __GUID_3050f311_98b5_11cf_bb82_00aa00bdce0b
_DATA	SEGMENT DWORD USE32 PUBLIC 'DATA'
_DATA	ENDS
;	COMDAT __GUID_1008c4a0_7613_11cf_9af1_0020af6e72f4
_DATA	SEGMENT DWORD USE32 PUBLIC 'DATA'
_DATA	ENDS
;	COMDAT __GUID_0000010a_0000_0000_c000_000000000046
_DATA	SEGMENT DWORD USE32 PUBLIC 'DATA'
_DATA	ENDS
;	COMDAT __GUID_00020410_0000_0000_c000_000000000046
_DATA	SEGMENT DWORD USE32 PUBLIC 'DATA'
_DATA	ENDS
;	COMDAT __GUID_00020404_0000_0000_c000_000000000046
_DATA	SEGMENT DWORD USE32 PUBLIC 'DATA'
_DATA	ENDS
;	COMDAT __CTA3?AVfailure@ios_base@std@@
xdata$x	SEGMENT DWORD USE32 PUBLIC 'CONST'
xdata$x	ENDS
;	COMDAT __CT??_R0?AVoverflow_error@std@@@8??0overflow_error@std@@QAE@ABV01@@Z28
xdata$x	SEGMENT DWORD USE32 PUBLIC 'CONST'
xdata$x	ENDS
;	COMDAT __GUID_3050f23b_98b5_11cf_bb82_00aa00bdce0b
_DATA	SEGMENT DWORD USE32 PUBLIC 'DATA'
_DATA	ENDS
;	COMDAT __GUID_b15b8dc1_c7e1_11d0_8680_00aa00bdcb71
_DATA	SEGMENT DWORD USE32 PUBLIC 'DATA'
_DATA	ENDS
;	COMDAT __GUID_f52e2b61_18a1_11d1_b105_00805f49916b
_DATA	SEGMENT DWORD USE32 PUBLIC 'DATA'
_DATA	ENDS
;	COMDAT __GUID_3050f3d7_98b5_11cf_bb82_00aa00bdce0b
_DATA	SEGMENT DWORD USE32 PUBLIC 'DATA'
_DATA	ENDS
;	COMDAT __GUID_3050f2aa_98b5_11cf_bb82_00aa00bdce0b
_DATA	SEGMENT DWORD USE32 PUBLIC 'DATA'
_DATA	ENDS
;	COMDAT __GUID_3050f1de_98b5_11cf_bb82_00aa00bdce0b
_DATA	SEGMENT DWORD USE32 PUBLIC 'DATA'
_DATA	ENDS
;	COMDAT __CTA2?AVruntime_error@std@@
xdata$x	SEGMENT DWORD USE32 PUBLIC 'CONST'
xdata$x	ENDS
;	COMDAT __GUID_79eac9d5_bafa_11ce_8c82_00aa004ba90b
_DATA	SEGMENT DWORD USE32 PUBLIC 'DATA'
_DATA	ENDS
;	COMDAT __GUID_0002e000_0000_0000_c000_000000000046
_DATA	SEGMENT DWORD USE32 PUBLIC 'DATA'
_DATA	ENDS
;	COMDAT __GUID_00000025_0000_0000_c000_000000000046
_DATA	SEGMENT DWORD USE32 PUBLIC 'DATA'
_DATA	ENDS
;	COMDAT __GUID_00000019_0000_0000_c000_000000000046
_DATA	SEGMENT DWORD USE32 PUBLIC 'DATA'
_DATA	ENDS
;	COMDAT __GUID_3050f2a4_98b5_11cf_bb82_00aa00bdce0b
_DATA	SEGMENT DWORD USE32 PUBLIC 'DATA'
_DATA	ENDS
;	COMDAT __GUID_3050f1d8_98b5_11cf_bb82_00aa00bdce0b
_DATA	SEGMENT DWORD USE32 PUBLIC 'DATA'
_DATA	ENDS
;	COMDAT __GUID_3050f1f0_98b5_11cf_bb82_00aa00bdce0b
_DATA	SEGMENT DWORD USE32 PUBLIC 'DATA'
_DATA	ENDS
;	COMDAT __GUID_948c5ad3_c58d_11d0_9c0b_00c04fc99c8e
_DATA	SEGMENT DWORD USE32 PUBLIC 'DATA'
_DATA	ENDS
;	COMDAT __GUID_00020412_0000_0000_c000_000000000046
_DATA	SEGMENT DWORD USE32 PUBLIC 'DATA'
_DATA	ENDS
;	COMDAT __GUID_00020406_0000_0000_c000_000000000046
_DATA	SEGMENT DWORD USE32 PUBLIC 'DATA'
_DATA	ENDS
;	COMDAT _CLSID_ComProcTextures
CONST	SEGMENT DWORD USE32 PUBLIC 'CONST'
CONST	ENDS
;	COMDAT __GUID_bc40bec1_c493_11d0_831b_00c04fd5ae38
_DATA	SEGMENT DWORD USE32 PUBLIC 'DATA'
_DATA	ENDS
;	COMDAT __GUID_d24acd21_ba72_11d0_b188_00aa0038c969
_DATA	SEGMENT DWORD USE32 PUBLIC 'DATA'
_DATA	ENDS
;	COMDAT __GUID_ee11629b_36df_11d3_9dd0_89d6dbbba800
_DATA	SEGMENT DWORD USE32 PUBLIC 'DATA'
_DATA	ENDS
;	COMDAT __GUID_9bfbbc02_eff1_101a_84ed_00aa00341d07
_DATA	SEGMENT DWORD USE32 PUBLIC 'DATA'
_DATA	ENDS
;	COMDAT __GUID_79eac9c1_baf9_11ce_8c82_00aa004ba90b
_DATA	SEGMENT DWORD USE32 PUBLIC 'DATA'
_DATA	ENDS
;	COMDAT __GUID_22f03340_547d_101b_8e65_08002b2bd119
_DATA	SEGMENT DWORD USE32 PUBLIC 'DATA'
_DATA	ENDS
;	COMDAT __GUID_63cdbcb0_c1b1_11d0_9336_00a0c90dcaa9
_DATA	SEGMENT DWORD USE32 PUBLIC 'DATA'
_DATA	ENDS
;	COMDAT ?szBoth@?1??RegisterClassHelper@CComModule@ATL@@QAGJABU_GUID@@PBD1IK@Z@4QBDB
CONST	SEGMENT DWORD USE32 PUBLIC 'CONST'
CONST	ENDS
;	COMDAT __GUID_0000000a_0000_0000_c000_000000000046
_DATA	SEGMENT DWORD USE32 PUBLIC 'DATA'
_DATA	ENDS
;	COMDAT __TI3?AVunderflow_error@std@@
xdata$x	SEGMENT DWORD USE32 PUBLIC 'CONST'
xdata$x	ENDS
;	COMDAT __GUID_bb1a2ae1_a4f9_11cf_8f20_00805f2cd064
_DATA	SEGMENT DWORD USE32 PUBLIC 'DATA'
_DATA	ENDS
;	COMDAT __GUID_0c733a30_2a1c_11ce_ade5_00aa0044773d
_DATA	SEGMENT DWORD USE32 PUBLIC 'DATA'
_DATA	ENDS
;	COMDAT _IID_IAxWinHostWindow
CONST	SEGMENT DWORD USE32 PUBLIC 'CONST'
CONST	ENDS
;	COMDAT __GUID_c04d65ce_b70d_11d0_b188_00aa0038c969
_DATA	SEGMENT DWORD USE32 PUBLIC 'DATA'
_DATA	ENDS
;	COMDAT __GUID_0002e012_0000_0000_c000_000000000046
_DATA	SEGMENT DWORD USE32 PUBLIC 'DATA'
_DATA	ENDS
;	COMDAT __GUID_cb5bdc81_93c1_11cf_8f20_00805f2cd064
_DATA	SEGMENT DWORD USE32 PUBLIC 'DATA'
_DATA	ENDS
;	COMDAT __GUID_3050f218_98b5_11cf_bb82_00aa00bdce0b
_DATA	SEGMENT DWORD USE32 PUBLIC 'DATA'
_DATA	ENDS
;	COMDAT __GUID_3050f230_98b5_11cf_bb82_00aa00bdce0b
_DATA	SEGMENT DWORD USE32 PUBLIC 'DATA'
_DATA	ENDS
;	COMDAT __GUID_79eac9ef_baf9_11ce_8c82_00aa004ba90b
_DATA	SEGMENT DWORD USE32 PUBLIC 'DATA'
_DATA	ENDS
;	COMDAT ??_7CSimpleException@@6B@
CONST	SEGMENT DWORD USE32 PUBLIC 'CONST'
CONST	ENDS
;	COMDAT __GUID_3050f377_98b5_11cf_bb82_00aa00bdce0b
_DATA	SEGMENT DWORD USE32 PUBLIC 'DATA'
_DATA	ENDS
;	COMDAT __CTA3?AVoverflow_error@std@@
xdata$x	SEGMENT DWORD USE32 PUBLIC 'CONST'
xdata$x	ENDS
;	COMDAT __GUID_000214e1_0000_0000_c000_000000000046
_DATA	SEGMENT DWORD USE32 PUBLIC 'DATA'
_DATA	ENDS
;	COMDAT __GUID_79eac9c3_baf9_11ce_8c82_00aa004ba90b
_DATA	SEGMENT DWORD USE32 PUBLIC 'DATA'
_DATA	ENDS
;	COMDAT _IID_ISkinSource
CONST	SEGMENT DWORD USE32 PUBLIC 'CONST'
CONST	ENDS
;	COMDAT __GUID_0e6d4d92_6738_11cf_9608_00aa00680db4
_DATA	SEGMENT DWORD USE32 PUBLIC 'DATA'
_DATA	ENDS
;	COMDAT __GUID_ca478da0_3920_11d3_9dd0_8067e4a06603
_DATA	SEGMENT DWORD USE32 PUBLIC 'DATA'
_DATA	ENDS
;	COMDAT __GUID_000214e9_0000_0000_c000_000000000046
_DATA	SEGMENT DWORD USE32 PUBLIC 'DATA'
_DATA	ENDS
;	COMDAT __GUID_000214f5_0000_0000_c000_000000000046
_DATA	SEGMENT DWORD USE32 PUBLIC 'DATA'
_DATA	ENDS
;	COMDAT __GUID_eae1ba61_a4ed_11cf_8f20_00805f2cd064
_DATA	SEGMENT DWORD USE32 PUBLIC 'DATA'
_DATA	ENDS
;	COMDAT __GUID_79eac9eb_baf9_11ce_8c82_00aa004ba90b
_DATA	SEGMENT DWORD USE32 PUBLIC 'DATA'
_DATA	ENDS
;	COMDAT __GUID_22f55882_280b_11d0_a8a9_00a0c90c2004
_DATA	SEGMENT DWORD USE32 PUBLIC 'DATA'
_DATA	ENDS
;	COMDAT __CT??_R0?AVrange_error@std@@@8??0range_error@std@@QAE@ABV01@@Z28
xdata$x	SEGMENT DWORD USE32 PUBLIC 'CONST'
xdata$x	ENDS
;	COMDAT __GUID_3050f35f_98b5_11cf_bb82_00aa00bdce0b
_DATA	SEGMENT DWORD USE32 PUBLIC 'DATA'
_DATA	ENDS
;	COMDAT __GUID_3050f3fd_98b5_11cf_bb82_00aa00bdce0b
_DATA	SEGMENT DWORD USE32 PUBLIC 'DATA'
_DATA	ENDS
;	COMDAT ??_R0?AVbad_alloc@std@@@8
_DATA	SEGMENT DWORD USE32 PUBLIC 'DATA'
_DATA	ENDS
;	COMDAT __GUID_d24acd23_ba72_11d0_b188_00aa0038c969
_DATA	SEGMENT DWORD USE32 PUBLIC 'DATA'
_DATA	ENDS
;	COMDAT __GUID_a3ccedf3_2de2_11d0_86f4_00a0c913f750
_DATA	SEGMENT DWORD USE32 PUBLIC 'DATA'
_DATA	ENDS
;	COMDAT __GUID_d10f6761_83e9_11cf_8f20_00805f2cd064
_DATA	SEGMENT DWORD USE32 PUBLIC 'DATA'
_DATA	ENDS
;	COMDAT _CLSID_SkinStorage
CONST	SEGMENT DWORD USE32 PUBLIC 'CONST'
CONST	ENDS
;	COMDAT __GUID_0002e011_0000_0000_c000_000000000046
_DATA	SEGMENT DWORD USE32 PUBLIC 'DATA'
_DATA	ENDS
;	COMDAT __GUID_b196b28d_bab4_101a_b69c_00aa00341d07
_DATA	SEGMENT DWORD USE32 PUBLIC 'DATA'
_DATA	ENDS
;	COMDAT __GUID_3050f1ff_98b5_11cf_bb82_00aa00bdce0b
_DATA	SEGMENT DWORD USE32 PUBLIC 'DATA'
_DATA	ENDS
;	COMDAT __CT??_R0?AVlength_error@std@@@8??0length_error@std@@QAE@ABV01@@Z28
xdata$x	SEGMENT DWORD USE32 PUBLIC 'CONST'
xdata$x	ENDS
;	COMDAT __GUID_3050f240_98b5_11cf_bb82_00aa00bdce0b
_DATA	SEGMENT DWORD USE32 PUBLIC 'DATA'
_DATA	ENDS
;	COMDAT __GUID_3050f1da_98b5_11cf_bb82_00aa00bdce0b
_DATA	SEGMENT DWORD USE32 PUBLIC 'DATA'
_DATA	ENDS
;	COMDAT __GUID_00000146_0000_0000_c000_000000000046
_DATA	SEGMENT DWORD USE32 PUBLIC 'DATA'
_DATA	ENDS
;	COMDAT __GUID_79eac9e5_baf9_11ce_8c82_00aa004ba90b
_DATA	SEGMENT DWORD USE32 PUBLIC 'DATA'
_DATA	ENDS
;	COMDAT __TI3?AVlength_error@std@@
xdata$x	SEGMENT DWORD USE32 PUBLIC 'CONST'
xdata$x	ENDS
;	COMDAT ?_Psave@?1??use_facet@std@@YAABV?$ctype@G@2@ABVlocale@2@PBV32@_N@Z@4PBVfacet@42@B
_DATA	SEGMENT DWORD USE32 PUBLIC 'DATA'
_DATA	ENDS
;	COMDAT ??_7CCommonDialog@@6B@
CONST	SEGMENT DWORD USE32 PUBLIC 'CONST'
CONST	ENDS
;	COMDAT __GUID_00000129_0000_0000_c000_000000000046
_DATA	SEGMENT DWORD USE32 PUBLIC 'DATA'
_DATA	ENDS
;	COMDAT __GUID_3050f38e_98b5_11cf_bb82_00aa00bdce0b
_DATA	SEGMENT DWORD USE32 PUBLIC 'DATA'
_DATA	ENDS
;	COMDAT ??_7CBitmap@@6B@
CONST	SEGMENT DWORD USE32 PUBLIC 'CONST'
CONST	ENDS
;	COMDAT __GUID_3050f32d_98b5_11cf_bb82_00aa00bdce0b
_DATA	SEGMENT DWORD USE32 PUBLIC 'DATA'
_DATA	ENDS
;	COMDAT __GUID_88a05c00_f000_11ce_8350_444553540000
_DATA	SEGMENT DWORD USE32 PUBLIC 'DATA'
_DATA	ENDS
;	COMDAT __GUID_79eac9ee_baf9_11ce_8c82_00aa004ba90b
_DATA	SEGMENT DWORD USE32 PUBLIC 'DATA'
_DATA	ENDS
;	COMDAT __GUID_79eac9e3_baf9_11ce_8c82_00aa004ba90b
_DATA	SEGMENT DWORD USE32 PUBLIC 'DATA'
_DATA	ENDS
;	COMDAT ??_7CGdiObject@@6B@
CONST	SEGMENT DWORD USE32 PUBLIC 'CONST'
CONST	ENDS
;	COMDAT __GUID_d5f56b60_593b_101a_b569_08002b2dbf7a
_DATA	SEGMENT DWORD USE32 PUBLIC 'DATA'
_DATA	ENDS
;	COMDAT __GUID_7fd52380_4e07_101b_ae2d_08002b2ec713
_DATA	SEGMENT DWORD USE32 PUBLIC 'DATA'
_DATA	ENDS
;	COMDAT __GUID_b196b287_bab4_101a_b69c_00aa00341d07
_DATA	SEGMENT DWORD USE32 PUBLIC 'DATA'
_DATA	ENDS
;	COMDAT ??_R0?AVlength_error@std@@@8
_DATA	SEGMENT DWORD USE32 PUBLIC 'DATA'
_DATA	ENDS
;	COMDAT ??_7CToolBarCtrl@@6B@
CONST	SEGMENT DWORD USE32 PUBLIC 'CONST'
CONST	ENDS
;	COMDAT _CLSID_ComTransitions
CONST	SEGMENT DWORD USE32 PUBLIC 'CONST'
CONST	ENDS
;	COMDAT __GUID_08ec3e00_50b0_11cf_960c_0080c7f4ee85
_DATA	SEGMENT DWORD USE32 PUBLIC 'DATA'
_DATA	ENDS
;	COMDAT __GUID_3af280b6_cb3f_11d0_891e_00c04fb6bfc4
_DATA	SEGMENT DWORD USE32 PUBLIC 'DATA'
_DATA	ENDS
;	COMDAT __CTA3?AVdomain_error@std@@
xdata$x	SEGMENT DWORD USE32 PUBLIC 'CONST'
xdata$x	ENDS
;	COMDAT __GUID_79eac9e7_baf9_11ce_8c82_00aa004ba90b
_DATA	SEGMENT DWORD USE32 PUBLIC 'DATA'
_DATA	ENDS
;	COMDAT __GUID_00020d03_0000_0000_c000_000000000046
_DATA	SEGMENT DWORD USE32 PUBLIC 'DATA'
_DATA	ENDS
;	COMDAT _IID_ISkinButton
CONST	SEGMENT DWORD USE32 PUBLIC 'CONST'
CONST	ENDS
;	COMDAT _IID_IAxWinAmbientDispatch
CONST	SEGMENT DWORD USE32 PUBLIC 'CONST'
CONST	ENDS
;	COMDAT __GUID_85bd8e82_0fba_11d1_90c3_00c04fc2f568
_DATA	SEGMENT DWORD USE32 PUBLIC 'DATA'
_DATA	ENDS
;	COMDAT __GUID_0000011d_0000_0000_c000_000000000046
_DATA	SEGMENT DWORD USE32 PUBLIC 'DATA'
_DATA	ENDS
;	COMDAT __GUID_3050f1f5_98b5_11cf_bb82_00aa00bdce0b
_DATA	SEGMENT DWORD USE32 PUBLIC 'DATA'
_DATA	ENDS
;	COMDAT __GUID_3050f2b5_98b5_11cf_bb82_00aa00bdce0b
_DATA	SEGMENT DWORD USE32 PUBLIC 'DATA'
_DATA	ENDS
;	COMDAT ??_7CNotSupportedException@@6B@
CONST	SEGMENT DWORD USE32 PUBLIC 'CONST'
CONST	ENDS
;	COMDAT __GUID_3050f3fc_98b5_11cf_bb82_00aa00bdce0b
_DATA	SEGMENT DWORD USE32 PUBLIC 'DATA'
_DATA	ENDS
;	COMDAT __GUID_53fa8d40_2cdd_11d3_9dd0_d3cd4078982a
_DATA	SEGMENT DWORD USE32 PUBLIC 'DATA'
_DATA	ENDS
;	COMDAT __GUID_359f3441_bd4a_11d0_b188_00aa0038c969
_DATA	SEGMENT DWORD USE32 PUBLIC 'DATA'
_DATA	ENDS
;	COMDAT __CT??_R0?AVfailure@ios_base@std@@@8??0failure@ios_base@std@@QAE@ABV012@@Z28
xdata$x	SEGMENT DWORD USE32 PUBLIC 'CONST'
xdata$x	ENDS
;	COMDAT __GUID_3050f28b_98b5_11cf_bb82_00aa00bdce0b
_DATA	SEGMENT DWORD USE32 PUBLIC 'DATA'
_DATA	ENDS
;	COMDAT __CTA2?AVbad_exception@std@@
xdata$x	SEGMENT DWORD USE32 PUBLIC 'CONST'
xdata$x	ENDS
;	COMDAT __GUID_afa0dc11_c313_11d0_831a_00c04fd5ae38
_DATA	SEGMENT DWORD USE32 PUBLIC 'DATA'
_DATA	ENDS
;	COMDAT __TI2?AVruntime_error@std@@
xdata$x	SEGMENT DWORD USE32 PUBLIC 'CONST'
xdata$x	ENDS
;	COMDAT __TI3?AVout_of_range@std@@
xdata$x	SEGMENT DWORD USE32 PUBLIC 'CONST'
xdata$x	ENDS
;	COMDAT __GUID_00000023_0000_0000_c000_000000000046
_DATA	SEGMENT DWORD USE32 PUBLIC 'DATA'
_DATA	ENDS
;	COMDAT __GUID_e0e270c1_c0be_11d0_8fe4_00a0c90a6341
_DATA	SEGMENT DWORD USE32 PUBLIC 'DATA'
_DATA	ENDS
;	COMDAT __GUID_0000002d_0000_0000_c000_000000000046
_DATA	SEGMENT DWORD USE32 PUBLIC 'DATA'
_DATA	ENDS
;	COMDAT ??_7CComboBox@@6B@
CONST	SEGMENT DWORD USE32 PUBLIC 'CONST'
CONST	ENDS
;	COMDAT ??_R0?AVbad_typeid@std@@@8
_DATA	SEGMENT DWORD USE32 PUBLIC 'DATA'
_DATA	ENDS
;	COMDAT ??_7CListBox@@6B@
CONST	SEGMENT DWORD USE32 PUBLIC 'CONST'
CONST	ENDS
;	COMDAT __GUID_79eac9c9_baf9_11ce_8c82_00aa004ba90b
_DATA	SEGMENT DWORD USE32 PUBLIC 'DATA'
_DATA	ENDS
;	COMDAT __GUID_79eac9e1_baf9_11ce_8c82_00aa004ba90b
_DATA	SEGMENT DWORD USE32 PUBLIC 'DATA'
_DATA	ENDS
;	COMDAT __CTA3?AVunderflow_error@std@@
xdata$x	SEGMENT DWORD USE32 PUBLIC 'CONST'
xdata$x	ENDS
;	COMDAT __GUID_1c2056cc_5ef4_101b_8bc8_00aa003e3b29
_DATA	SEGMENT DWORD USE32 PUBLIC 'DATA'
_DATA	ENDS
;	COMDAT __GUID_79eac9c5_baf9_11ce_8c82_00aa004ba90b
_DATA	SEGMENT DWORD USE32 PUBLIC 'DATA'
_DATA	ENDS
;	COMDAT __GUID_79eac9d1_baf9_11ce_8c82_00aa004ba90b
_DATA	SEGMENT DWORD USE32 PUBLIC 'DATA'
_DATA	ENDS
;	COMDAT _DIID__ISkinFormEvents
CONST	SEGMENT DWORD USE32 PUBLIC 'CONST'
CONST	ENDS
;	COMDAT __GUID_3050f2c2_98b5_11cf_bb82_00aa00bdce0b
_DATA	SEGMENT DWORD USE32 PUBLIC 'DATA'
_DATA	ENDS
;	COMDAT __GUID_3050f1f6_98b5_11cf_bb82_00aa00bdce0b
_DATA	SEGMENT DWORD USE32 PUBLIC 'DATA'
_DATA	ENDS
;	COMDAT __GUID_fbf23b80_e3f0_101b_8488_00aa003e56f8
_DATA	SEGMENT DWORD USE32 PUBLIC 'DATA'
_DATA	ENDS
;	COMDAT __GUID_3050f1d9_98b5_11cf_bb82_00aa00bdce0b
_DATA	SEGMENT DWORD USE32 PUBLIC 'DATA'
_DATA	ENDS
;	COMDAT __GUID_3050f1f1_98b5_11cf_bb82_00aa00bdce0b
_DATA	SEGMENT DWORD USE32 PUBLIC 'DATA'
_DATA	ENDS
;	COMDAT __TI3?AVrange_error@std@@
xdata$x	SEGMENT DWORD USE32 PUBLIC 'CONST'
xdata$x	ENDS
;	COMDAT __GUID_b722bcc5_4e68_101b_a2bc_00aa00404770
_DATA	SEGMENT DWORD USE32 PUBLIC 'DATA'
_DATA	ENDS
;	COMDAT __CTA2?AVbad_cast@std@@
xdata$x	SEGMENT DWORD USE32 PUBLIC 'CONST'
xdata$x	ENDS
;	COMDAT ??_7CSliderCtrl@@6B@
CONST	SEGMENT DWORD USE32 PUBLIC 'CONST'
CONST	ENDS
;	COMDAT ??_R0?AVoverflow_error@std@@@8
_DATA	SEGMENT DWORD USE32 PUBLIC 'DATA'
_DATA	ENDS
;	COMDAT ?_Psave@?1??use_facet@std@@YAABV?$numpunct@D@2@ABVlocale@2@PBV32@_N@Z@4PBVfacet@42@B
_DATA	SEGMENT DWORD USE32 PUBLIC 'DATA'
_DATA	ENDS
;	COMDAT __GUID_0000013a_0000_0000_c000_000000000046
_DATA	SEGMENT DWORD USE32 PUBLIC 'DATA'
_DATA	ENDS
;	COMDAT __GUID_000214e5_0000_0000_c000_000000000046
_DATA	SEGMENT DWORD USE32 PUBLIC 'DATA'
_DATA	ENDS
;	COMDAT __GUID_000214f1_0000_0000_c000_000000000046
_DATA	SEGMENT DWORD USE32 PUBLIC 'DATA'
_DATA	ENDS
;	COMDAT __GUID_3050f3f2_98b5_11cf_bb82_00aa00bdce0b
_DATA	SEGMENT DWORD USE32 PUBLIC 'DATA'
_DATA	ENDS
;	COMDAT _DIID__ISkinPanelEvents
CONST	SEGMENT DWORD USE32 PUBLIC 'CONST'
CONST	ENDS
;	COMDAT __GUID_618736e0_3c3d_11cf_810c_00aa00389b71
_DATA	SEGMENT DWORD USE32 PUBLIC 'DATA'
_DATA	ENDS
;	COMDAT __GUID_3050f3f0_98b5_11cf_bb82_00aa00bdce0b
_DATA	SEGMENT DWORD USE32 PUBLIC 'DATA'
_DATA	ENDS
;	COMDAT __GUID_0000000d_0000_0000_c000_000000000046
_DATA	SEGMENT DWORD USE32 PUBLIC 'DATA'
_DATA	ENDS
;	COMDAT __GUID_00000190_0000_0000_c000_000000000046
_DATA	SEGMENT DWORD USE32 PUBLIC 'DATA'
_DATA	ENDS
;	COMDAT ??_7CDragListBox@@6B@
CONST	SEGMENT DWORD USE32 PUBLIC 'CONST'
CONST	ENDS
;	COMDAT __GUID_3af24292_0c96_11ce_a0cf_00aa00600ab8
_DATA	SEGMENT DWORD USE32 PUBLIC 'DATA'
_DATA	ENDS
;	COMDAT __CTA2?AVbad_alloc@std@@
xdata$x	SEGMENT DWORD USE32 PUBLIC 'CONST'
xdata$x	ENDS
;	COMDAT __GUID_00020d00_0000_0000_c000_000000000046
_DATA	SEGMENT DWORD USE32 PUBLIC 'DATA'
_DATA	ENDS
;	COMDAT __GUID_00000191_0000_0000_c000_000000000046
_DATA	SEGMENT DWORD USE32 PUBLIC 'DATA'
_DATA	ENDS
;	COMDAT __GUID_0000000e_0000_0000_c000_000000000046
_DATA	SEGMENT DWORD USE32 PUBLIC 'DATA'
_DATA	ENDS
;	COMDAT __CT??_R0?AVbad_cast@std@@@8??0bad_cast@std@@QAE@ABV01@@Z12
xdata$x	SEGMENT DWORD USE32 PUBLIC 'CONST'
xdata$x	ENDS
;	COMDAT __GUID_f77459a0_bf9a_11cf_ba4e_00c04fd70816
_DATA	SEGMENT DWORD USE32 PUBLIC 'DATA'
_DATA	ENDS
;	COMDAT __GUID_3050f322_98b5_11cf_bb82_00aa00bdce0b
_DATA	SEGMENT DWORD USE32 PUBLIC 'DATA'
_DATA	ENDS
;	COMDAT __GUID_3050f266_98b5_11cf_bb82_00aa00bdce0b
_DATA	SEGMENT DWORD USE32 PUBLIC 'DATA'
_DATA	ENDS
;	COMDAT __GUID_3c374a41_bae4_11cf_bf7d_00aa006946ee
_DATA	SEGMENT DWORD USE32 PUBLIC 'DATA'
_DATA	ENDS
;	COMDAT __GUID_332c4425_26cb_11d0_b483_00c04fd90119
_DATA	SEGMENT DWORD USE32 PUBLIC 'DATA'
_DATA	ENDS
;	COMDAT __GUID_79eac9cb_baf9_11ce_8c82_00aa004ba90b
_DATA	SEGMENT DWORD USE32 PUBLIC 'DATA'
_DATA	ENDS
;	COMDAT ??_S?$ctype@G@std@@6B@
CONST	SEGMENT DWORD USE32 PUBLIC 'CONST'
CONST	ENDS
;	COMDAT ??_S?$ctype@D@std@@6B@
CONST	SEGMENT DWORD USE32 PUBLIC 'CONST'
CONST	ENDS
;	COMDAT ?_Facsav@?$_Tidyfac@V?$numpunct@D@std@@@std@@0PAV?$numpunct@D@2@A
_DATA	SEGMENT DWORD USE32 PUBLIC 'DATA'
_DATA	ENDS
;	COMDAT ??_7failure@ios_base@std@@6B@
CONST	SEGMENT DWORD USE32 PUBLIC 'CONST'
CONST	ENDS
;	COMDAT ?_Facsav@?$_Tidyfac@V?$numpunct@G@std@@@std@@0PAV?$numpunct@G@2@A
_DATA	SEGMENT DWORD USE32 PUBLIC 'DATA'
_DATA	ENDS
;	COMDAT ??_7invalid_argument@std@@6B@
CONST	SEGMENT DWORD USE32 PUBLIC 'CONST'
CONST	ENDS
;	COMDAT ?_Facsav@?$_Tidyfac@V?$ctype@D@std@@@std@@0PAV?$ctype@D@2@A
_DATA	SEGMENT DWORD USE32 PUBLIC 'DATA'
_DATA	ENDS
;	COMDAT ??_S?$numpunct@D@std@@6B@
CONST	SEGMENT DWORD USE32 PUBLIC 'CONST'
CONST	ENDS
;	COMDAT ??_S?$numpunct@G@std@@6B@
CONST	SEGMENT DWORD USE32 PUBLIC 'CONST'
CONST	ENDS
;	COMDAT ?_Facsav@?$_Tidyfac@V?$ctype@G@std@@@std@@0PAV?$ctype@G@2@A
_DATA	SEGMENT DWORD USE32 PUBLIC 'DATA'
_DATA	ENDS
;	COMDAT __GUID_000214e3_0000_0000_c000_000000000046
_DATA	SEGMENT DWORD USE32 PUBLIC 'DATA'
_DATA	ENDS
;	COMDAT __GUID_3050f29c_98b5_11cf_bb82_00aa00bdce0b
_DATA	SEGMENT DWORD USE32 PUBLIC 'DATA'
_DATA	ENDS
;	COMDAT __GUID_b196b284_bab4_101a_b69c_00aa00341d07
_DATA	SEGMENT DWORD USE32 PUBLIC 'DATA'
_DATA	ENDS
;	COMDAT __TI3?AVfailure@ios_base@std@@
xdata$x	SEGMENT DWORD USE32 PUBLIC 'CONST'
xdata$x	ENDS
;	COMDAT ??_7CNoTrackObject@@6B@
CONST	SEGMENT DWORD USE32 PUBLIC 'CONST'
CONST	ENDS
;	COMDAT __TI3?AVinvalid_argument@std@@
xdata$x	SEGMENT DWORD USE32 PUBLIC 'CONST'
xdata$x	ENDS
;	COMDAT __GUID_359f3443_bd4a_11d0_b188_00aa0038c969
_DATA	SEGMENT DWORD USE32 PUBLIC 'DATA'
_DATA	ENDS
;	COMDAT __GUID_b722bcc8_4e68_101b_a2bc_00aa00404770
_DATA	SEGMENT DWORD USE32 PUBLIC 'DATA'
_DATA	ENDS
;	COMDAT __CT??_R0?AVbad_alloc@std@@@8??0bad_alloc@std@@QAE@ABV01@@Z12
xdata$x	SEGMENT DWORD USE32 PUBLIC 'CONST'
xdata$x	ENDS
;	COMDAT ??_R0?AVlogic_error@std@@@8
_DATA	SEGMENT DWORD USE32 PUBLIC 'DATA'
_DATA	ENDS
;	COMDAT ??_R0?AVexception@@@8
_DATA	SEGMENT DWORD USE32 PUBLIC 'DATA'
_DATA	ENDS
;	COMDAT __GUID_bef6e003_a874_101a_8bba_00aa00300cab
_DATA	SEGMENT DWORD USE32 PUBLIC 'DATA'
_DATA	ENDS
;	COMDAT __GUID_3050f206_98b5_11cf_bb82_00aa00bdce0b
_DATA	SEGMENT DWORD USE32 PUBLIC 'DATA'
_DATA	ENDS
;	COMDAT __GUID_3050f212_98b5_11cf_bb82_00aa00bdce0b
_DATA	SEGMENT DWORD USE32 PUBLIC 'DATA'
_DATA	ENDS
;	COMDAT __GUID_00020402_0000_0000_c000_000000000046
_DATA	SEGMENT DWORD USE32 PUBLIC 'DATA'
_DATA	ENDS
;	COMDAT __GUID_3050f3ed_98b5_11cf_bb82_00aa00bdce0b
_DATA	SEGMENT DWORD USE32 PUBLIC 'DATA'
_DATA	ENDS
;	COMDAT __GUID_f490eb00_1240_11d1_9888_006097deacf9
_DATA	SEGMENT DWORD USE32 PUBLIC 'DATA'
_DATA	ENDS
;	COMDAT __CT??_R0?AVbad_typeid@std@@@8??0bad_typeid@std@@QAE@ABV01@@Z12
xdata$x	SEGMENT DWORD USE32 PUBLIC 'CONST'
xdata$x	ENDS
;	COMDAT ??_7CBitmapButton@@6B@
CONST	SEGMENT DWORD USE32 PUBLIC 'CONST'
CONST	ENDS
;	COMDAT ??_7CObject@@6B@
CONST	SEGMENT DWORD USE32 PUBLIC 'CONST'
CONST	ENDS
;	COMDAT __CT??_R0?AVout_of_range@std@@@8??0out_of_range@std@@QAE@ABV01@@Z28
xdata$x	SEGMENT DWORD USE32 PUBLIC 'CONST'
xdata$x	ENDS
;	COMDAT ?szThreadingModel@?1??RegisterClassHelper@CComModule@ATL@@QAGJABU_GUID@@PBD1IK@Z@4QBDB
CONST	SEGMENT DWORD USE32 PUBLIC 'CONST'
CONST	ENDS
;	COMDAT __GUID_3050f1dd_98b5_11cf_bb82_00aa00bdce0b
_DATA	SEGMENT DWORD USE32 PUBLIC 'DATA'
_DATA	ENDS
;	COMDAT ?m_libid@CComModule@ATL@@2U_GUID@@A
_DATA	SEGMENT DWORD USE32 PUBLIC 'DATA'
_DATA	ENDS
;	COMDAT ?_pModule@ATL@@3PAVCComModule@1@A
_DATA	SEGMENT DWORD USE32 PUBLIC 'DATA'
_DATA	ENDS
;	COMDAT ?ATL_CREATE_OBJECT@CComApartment@ATL@@2IA
_DATA	SEGMENT DWORD USE32 PUBLIC 'DATA'
_DATA	ENDS
;	COMDAT ?GUID_ATLVer30@ATL@@3U_GUID@@A
_DATA	SEGMENT DWORD USE32 PUBLIC 'DATA'
_DATA	ENDS
;	COMDAT __GUID_3050f373_98b5_11cf_bb82_00aa00bdce0b
_DATA	SEGMENT DWORD USE32 PUBLIC 'DATA'
_DATA	ENDS
;	COMDAT __GUID_000214ea_0000_0000_c000_000000000046
_DATA	SEGMENT DWORD USE32 PUBLIC 'DATA'
_DATA	ENDS
;	COMDAT __GUID_79eac9d7_bafa_11ce_8c82_00aa004ba90b
_DATA	SEGMENT DWORD USE32 PUBLIC 'DATA'
_DATA	ENDS
;	COMDAT __GUID_3050f23c_98b5_11cf_bb82_00aa00bdce0b
_DATA	SEGMENT DWORD USE32 PUBLIC 'DATA'
_DATA	ENDS
;	COMDAT __GUID_3050f20c_98b5_11cf_bb82_00aa00bdce0b
_DATA	SEGMENT DWORD USE32 PUBLIC 'DATA'
_DATA	ENDS
;	COMDAT __GUID_fc4801a3_2ba9_11cf_a229_00aa003d7352
_DATA	SEGMENT DWORD USE32 PUBLIC 'DATA'
_DATA	ENDS
;	COMDAT __GUID_79eac9ed_baf9_11ce_8c82_00aa004ba90b
_DATA	SEGMENT DWORD USE32 PUBLIC 'DATA'
_DATA	ENDS
;	COMDAT _CLSID_ComMorph
CONST	SEGMENT DWORD USE32 PUBLIC 'CONST'
CONST	ENDS
;	COMDAT __GUID_00000112_0000_0000_c000_000000000046
_DATA	SEGMENT DWORD USE32 PUBLIC 'DATA'
_DATA	ENDS
;	COMDAT __TI3?AVdomain_error@std@@
xdata$x	SEGMENT DWORD USE32 PUBLIC 'CONST'
xdata$x	ENDS
;	COMDAT ??_R0?AVbad_cast@std@@@8
_DATA	SEGMENT DWORD USE32 PUBLIC 'DATA'
_DATA	ENDS
;	COMDAT __GUID_3f7f31ac_e15f_11d0_9c25_00c04fc99c8e
_DATA	SEGMENT DWORD USE32 PUBLIC 'DATA'
_DATA	ENDS
;	COMDAT __GUID_0000011a_0000_0000_c000_000000000046
_DATA	SEGMENT DWORD USE32 PUBLIC 'DATA'
_DATA	ENDS
;	COMDAT __GUID_0000010e_0000_0000_c000_000000000046
_DATA	SEGMENT DWORD USE32 PUBLIC 'DATA'
_DATA	ENDS
;	COMDAT __GUID_00000118_0000_0000_c000_000000000046
_DATA	SEGMENT DWORD USE32 PUBLIC 'DATA'
_DATA	ENDS
;	COMDAT __GUID_3050f25f_98b5_11cf_bb82_00aa00bdce0b
_DATA	SEGMENT DWORD USE32 PUBLIC 'DATA'
_DATA	ENDS
;	COMDAT __GUID_79eac9c4_baf9_11ce_8c82_00aa004ba90b
_DATA	SEGMENT DWORD USE32 PUBLIC 'DATA'
_DATA	ENDS
;	COMDAT __GUID_79eac9d0_baf9_11ce_8c82_00aa004ba90b
_DATA	SEGMENT DWORD USE32 PUBLIC 'DATA'
_DATA	ENDS
;	COMDAT __GUID_fac32c80_cbe4_11ce_8350_444553540000
_DATA	SEGMENT DWORD USE32 PUBLIC 'DATA'
_DATA	ENDS
;	COMDAT __GUID_7bf80980_bf32_101a_8bbb_00aa00300cab
_DATA	SEGMENT DWORD USE32 PUBLIC 'DATA'
_DATA	ENDS
;	COMDAT __GUID_3050f23d_98b5_11cf_bb82_00aa00bdce0b
_DATA	SEGMENT DWORD USE32 PUBLIC 'DATA'
_DATA	ENDS
;	COMDAT __GUID_3050f2bb_98b5_11cf_bb82_00aa00bdce0b
_DATA	SEGMENT DWORD USE32 PUBLIC 'DATA'
_DATA	ENDS
;	COMDAT __GUID_0000002b_0000_0000_c000_000000000046
_DATA	SEGMENT DWORD USE32 PUBLIC 'DATA'
_DATA	ENDS
;	COMDAT __GUID_eb0fe172_1a3a_11d0_89b3_00a0c90a90ac
_DATA	SEGMENT DWORD USE32 PUBLIC 'DATA'
_DATA	ENDS
;	COMDAT __GUID_729fe2f8_1ea8_11d1_8f85_00c04fc2fbe1
_DATA	SEGMENT DWORD USE32 PUBLIC 'DATA'
_DATA	ENDS
;	COMDAT __GUID_3050f202_98b5_11cf_bb82_00aa00bdce0b
_DATA	SEGMENT DWORD USE32 PUBLIC 'DATA'
_DATA	ENDS
;	COMDAT __GUID_ac60f6a0_0fd9_11d0_99cb_00c04fd64497
_DATA	SEGMENT DWORD USE32 PUBLIC 'DATA'
_DATA	ENDS
;	COMDAT __GUID_3050f2bc_98b5_11cf_bb82_00aa00bdce0b
_DATA	SEGMENT DWORD USE32 PUBLIC 'DATA'
_DATA	ENDS
;	COMDAT __CTA3?AVinvalid_argument@std@@
xdata$x	SEGMENT DWORD USE32 PUBLIC 'CONST'
xdata$x	ENDS
;	COMDAT _IID_ISkinEvent
CONST	SEGMENT DWORD USE32 PUBLIC 'CONST'
CONST	ENDS
;	COMDAT __GUID_79eac9c0_baf9_11ce_8c82_00aa004ba90b
_DATA	SEGMENT DWORD USE32 PUBLIC 'DATA'
_DATA	ENDS
;	COMDAT __GUID_b722bccb_4e68_101b_a2bc_00aa00404770
_DATA	SEGMENT DWORD USE32 PUBLIC 'DATA'
_DATA	ENDS
;	COMDAT __GUID_0000010b_0000_0000_c000_000000000046
_DATA	SEGMENT DWORD USE32 PUBLIC 'DATA'
_DATA	ENDS
;	COMDAT __GUID_3050f216_98b5_11cf_bb82_00aa00bdce0b
_DATA	SEGMENT DWORD USE32 PUBLIC 'DATA'
_DATA	ENDS
;	COMDAT __GUID_04598fc6_866c_11cf_ab7c_00aa00c08fcf
_DATA	SEGMENT DWORD USE32 PUBLIC 'DATA'
_DATA	ENDS
;	COMDAT ??_7COleException@@6B@
CONST	SEGMENT DWORD USE32 PUBLIC 'CONST'
CONST	ENDS
;	COMDAT __GUID_332c4426_26cb_11d0_b483_00c04fd90119
_DATA	SEGMENT DWORD USE32 PUBLIC 'DATA'
_DATA	ENDS
;	COMDAT __GUID_b196b28c_bab4_101a_b69c_00aa00341d07
_DATA	SEGMENT DWORD USE32 PUBLIC 'DATA'
_DATA	ENDS
;	COMDAT __GUID_3050f3ee_98b5_11cf_bb82_00aa00bdce0b
_DATA	SEGMENT DWORD USE32 PUBLIC 'DATA'
_DATA	ENDS
;	COMDAT ?_Psave@?1??use_facet@std@@YAABV?$ctype@D@2@ABVlocale@2@PBV32@_N@Z@4PBVfacet@42@B
_DATA	SEGMENT DWORD USE32 PUBLIC 'DATA'
_DATA	ENDS
;	COMDAT __GUID_3050f3e5_98b5_11cf_bb82_00aa00bdce0b
_DATA	SEGMENT DWORD USE32 PUBLIC 'DATA'
_DATA	ENDS
;	COMDAT __GUID_0002e013_0000_0000_c000_000000000046
_DATA	SEGMENT DWORD USE32 PUBLIC 'DATA'
_DATA	ENDS
;	COMDAT __GUID_594f31d0_7f19_11d0_b194_00a0c90dc8bf
_DATA	SEGMENT DWORD USE32 PUBLIC 'DATA'
_DATA	ENDS
;	COMDAT ??_7_com_error@@6B@
CONST	SEGMENT DWORD USE32 PUBLIC 'CONST'
CONST	ENDS
;	COMDAT _IID_IDocHostUIHandlerDispatch
CONST	SEGMENT DWORD USE32 PUBLIC 'CONST'
CONST	ENDS
;	COMDAT __GUID_6d5140c1_7436_11ce_8034_00aa006009fa
_DATA	SEGMENT DWORD USE32 PUBLIC 'DATA'
_DATA	ENDS
;	COMDAT __GUID_3050f313_98b5_11cf_bb82_00aa00bdce0b
_DATA	SEGMENT DWORD USE32 PUBLIC 'DATA'
_DATA	ENDS
;	COMDAT __GUID_88e39e80_3578_11cf_ae69_08002b2e1262
_DATA	SEGMENT DWORD USE32 PUBLIC 'DATA'
_DATA	ENDS
;	COMDAT __GUID_742b0e01_14e6_101b_914e_00aa00300cab
_DATA	SEGMENT DWORD USE32 PUBLIC 'DATA'
_DATA	ENDS
;	COMDAT __CT??_R0?AVexception@@@8??0exception@@QAE@ABV0@@Z12
xdata$x	SEGMENT DWORD USE32 PUBLIC 'CONST'
xdata$x	ENDS
;	COMDAT _IID_IComMoveSize
CONST	SEGMENT DWORD USE32 PUBLIC 'CONST'
CONST	ENDS
;	COMDAT ??_7CAnimateCtrl@@6B@
CONST	SEGMENT DWORD USE32 PUBLIC 'CONST'
CONST	ENDS
;	COMDAT __GUID_3050f25a_98b5_11cf_bb82_00aa00bdce0b
_DATA	SEGMENT DWORD USE32 PUBLIC 'DATA'
_DATA	ENDS
;	COMDAT __GUID_3050f37e_98b5_11cf_bb82_00aa00bdce0b
_DATA	SEGMENT DWORD USE32 PUBLIC 'DATA'
_DATA	ENDS
;	COMDAT _CLSID_Registrar
CONST	SEGMENT DWORD USE32 PUBLIC 'CONST'
CONST	ENDS
;	COMDAT __CT??_R0?AVunderflow_error@std@@@8??0underflow_error@std@@QAE@ABV01@@Z28
xdata$x	SEGMENT DWORD USE32 PUBLIC 'CONST'
xdata$x	ENDS
;	COMDAT __GUID_79eac9c7_baf9_11ce_8c82_00aa004ba90b
_DATA	SEGMENT DWORD USE32 PUBLIC 'DATA'
_DATA	ENDS
;	COMDAT __GUID_e7a1af80_4d96_11cf_960c_0080c7f4ee85
_DATA	SEGMENT DWORD USE32 PUBLIC 'DATA'
_DATA	ENDS
;	COMDAT __GUID_0000013d_0000_0000_c000_000000000046
_DATA	SEGMENT DWORD USE32 PUBLIC 'DATA'
_DATA	ENDS
;	COMDAT ??_7CSpinButtonCtrl@@6B@
CONST	SEGMENT DWORD USE32 PUBLIC 'CONST'
CONST	ENDS
;	COMDAT _IID_ICOMScript
CONST	SEGMENT DWORD USE32 PUBLIC 'CONST'
CONST	ENDS
;	COMDAT __GUID_ca04b7e6_0d21_11d1_8cc5_00c04fc2b085
_DATA	SEGMENT DWORD USE32 PUBLIC 'DATA'
_DATA	ENDS
;	COMDAT __GUID_b196b288_bab4_101a_b69c_00aa00341d07
_DATA	SEGMENT DWORD USE32 PUBLIC 'DATA'
_DATA	ENDS
;	COMDAT _IID_ISkinPanel
CONST	SEGMENT DWORD USE32 PUBLIC 'CONST'
CONST	ENDS
;	COMDAT ??_R0?AVdomain_error@std@@@8
_DATA	SEGMENT DWORD USE32 PUBLIC 'DATA'
_DATA	ENDS
;	COMDAT __GUID_00000126_0000_0000_c000_000000000046
_DATA	SEGMENT DWORD USE32 PUBLIC 'DATA'
_DATA	ENDS
;	COMDAT __GUID_163bb1e0_6e00_11cf_837a_48dc04c10000
_DATA	SEGMENT DWORD USE32 PUBLIC 'DATA'
_DATA	ENDS
;	COMDAT __GUID_2a342fc2_7b26_11d0_8ca9_00a0c92dbfe8
_DATA	SEGMENT DWORD USE32 PUBLIC 'DATA'
_DATA	ENDS
;	COMDAT __GUID_d8f015c0_c278_11ce_a49e_444553540000
_DATA	SEGMENT DWORD USE32 PUBLIC 'DATA'
_DATA	ENDS
;	COMDAT __GUID_bd3f23c0_d43e_11cf_893b_00aa00bdce1a
_DATA	SEGMENT DWORD USE32 PUBLIC 'DATA'
_DATA	ENDS
;	COMDAT __GUID_0002040e_0000_0000_c000_000000000046
_DATA	SEGMENT DWORD USE32 PUBLIC 'DATA'
_DATA	ENDS
;	COMDAT __CTA3?AVlength_error@std@@
xdata$x	SEGMENT DWORD USE32 PUBLIC 'CONST'
xdata$x	ENDS
;	COMDAT __GUID_df0b3d60_548f_101b_8e65_08002b2bd119
_DATA	SEGMENT DWORD USE32 PUBLIC 'DATA'
_DATA	ENDS
;	COMDAT __GUID_a7aba9c1_8983_11cf_8f20_00805f2cd064
_DATA	SEGMENT DWORD USE32 PUBLIC 'DATA'
_DATA	ENDS
;	COMDAT __GUID_744129e0_cbe5_11ce_8350_444553540000
_DATA	SEGMENT DWORD USE32 PUBLIC 'DATA'
_DATA	ENDS
;	COMDAT __GUID_000214fb_0000_0000_c000_000000000046
_DATA	SEGMENT DWORD USE32 PUBLIC 'DATA'
_DATA	ENDS
;	COMDAT __GUID_0000002e_0000_0000_c000_000000000046
_DATA	SEGMENT DWORD USE32 PUBLIC 'DATA'
_DATA	ENDS
;	COMDAT __GUID_68284faa_6a48_11d0_8c78_00c04fd918b4
_DATA	SEGMENT DWORD USE32 PUBLIC 'DATA'
_DATA	ENDS
;	COMDAT __GUID_00000010_0000_0000_c000_000000000046
_DATA	SEGMENT DWORD USE32 PUBLIC 'DATA'
_DATA	ENDS
;	COMDAT ??_R0?AVunderflow_error@std@@@8
_DATA	SEGMENT DWORD USE32 PUBLIC 'DATA'
_DATA	ENDS
;	COMDAT ??_7CStatusBarCtrl@@6B@
CONST	SEGMENT DWORD USE32 PUBLIC 'CONST'
CONST	ENDS
;	COMDAT __GUID_3050f3d5_98b5_11cf_bb82_00aa00bdce0b
_DATA	SEGMENT DWORD USE32 PUBLIC 'DATA'
_DATA	ENDS
;	COMDAT __GUID_626fc520_a41e_11cf_a731_00a0c9082637
_DATA	SEGMENT DWORD USE32 PUBLIC 'DATA'
_DATA	ENDS
;	COMDAT ?szProgID@?1??RegisterClassHelper@CComModule@ATL@@QAGJABU_GUID@@PBD1IK@Z@4QBDB
CONST	SEGMENT DWORD USE32 PUBLIC 'CONST'
CONST	ENDS
;	COMDAT __GUID_91a565c1_e38f_11d0_94bf_00a0c9055cbf
_DATA	SEGMENT DWORD USE32 PUBLIC 'DATA'
_DATA	ENDS
;	COMDAT __GUID_3050f2e3_98b5_11cf_bb82_00aa00bdce0b
_DATA	SEGMENT DWORD USE32 PUBLIC 'DATA'
_DATA	ENDS
;	COMDAT __GUID_3050f2ad_98b5_11cf_bb82_00aa00bdce0b
_DATA	SEGMENT DWORD USE32 PUBLIC 'DATA'
_DATA	ENDS
;	COMDAT _IID_ISkinScrollBar
CONST	SEGMENT DWORD USE32 PUBLIC 'CONST'
CONST	ENDS
;	COMDAT __GUID_53fa8d31_2cdd_11d3_9dd0_d3cd4078982a
_DATA	SEGMENT DWORD USE32 PUBLIC 'DATA'
_DATA	ENDS
;	COMDAT __GUID_d5f56a34_593b_101a_b569_08002b2dbf7a
_DATA	SEGMENT DWORD USE32 PUBLIC 'DATA'
_DATA	ENDS
;	COMDAT __GUID_0000011e_0000_0000_c000_000000000046
_DATA	SEGMENT DWORD USE32 PUBLIC 'DATA'
_DATA	ENDS
;	COMDAT __GUID_0000012a_0000_0000_c000_000000000046
_DATA	SEGMENT DWORD USE32 PUBLIC 'DATA'
_DATA	ENDS
;	COMDAT __GUID_3af24290_0c96_11ce_a0cf_00aa00600ab8
_DATA	SEGMENT DWORD USE32 PUBLIC 'DATA'
_DATA	ENDS
;	COMDAT __GUID_3050f1e0_98b5_11cf_bb82_00aa00bdce0b
_DATA	SEGMENT DWORD USE32 PUBLIC 'DATA'
_DATA	ENDS
;	COMDAT __GUID_3050f35c_98b5_11cf_bb82_00aa00bdce0b
_DATA	SEGMENT DWORD USE32 PUBLIC 'DATA'
_DATA	ENDS
;	COMDAT __GUID_0000010d_0000_0000_c000_000000000046
_DATA	SEGMENT DWORD USE32 PUBLIC 'DATA'
_DATA	ENDS
;	COMDAT __GUID_a9d758a0_4617_11cf_95fc_00aa00680db4
_DATA	SEGMENT DWORD USE32 PUBLIC 'DATA'
_DATA	ENDS
;	COMDAT __GUID_000214f8_0000_0000_c000_000000000046
_DATA	SEGMENT DWORD USE32 PUBLIC 'DATA'
_DATA	ENDS
;	COMDAT __GUID_0000011b_0000_0000_c000_000000000046
_DATA	SEGMENT DWORD USE32 PUBLIC 'DATA'
_DATA	ENDS
;	COMDAT __GUID_0000010f_0000_0000_c000_000000000046
_DATA	SEGMENT DWORD USE32 PUBLIC 'DATA'
_DATA	ENDS
;	COMDAT __GUID_b8da6310_e19b_11d0_933c_00a0c90dcaa9
_DATA	SEGMENT DWORD USE32 PUBLIC 'DATA'
_DATA	ENDS
;	COMDAT __GUID_db01a1e3_a42b_11cf_8f20_00805f2cd064
_DATA	SEGMENT DWORD USE32 PUBLIC 'DATA'
_DATA	ENDS
;	COMDAT __GUID_65725580_9b5d_11d0_9bfe_00c04fc99c8e
_DATA	SEGMENT DWORD USE32 PUBLIC 'DATA'
_DATA	ENDS
;	COMDAT __GUID_0000010c_0000_0000_c000_000000000046
_DATA	SEGMENT DWORD USE32 PUBLIC 'DATA'
_DATA	ENDS
;	COMDAT __CT??_R0?AVinvalid_argument@std@@@8??0invalid_argument@std@@QAE@ABV01@@Z28
xdata$x	SEGMENT DWORD USE32 PUBLIC 'CONST'
xdata$x	ENDS
;	COMDAT __GUID_539698a0_cdca_11cf_a5eb_00aa0047a063
_DATA	SEGMENT DWORD USE32 PUBLIC 'DATA'
_DATA	ENDS
;	COMDAT __GUID_d30c1661_cdaf_11d0_8a3e_00c04fc9e26e
_DATA	SEGMENT DWORD USE32 PUBLIC 'DATA'
_DATA	ENDS
;	COMDAT __GUID_3dc39d1d_c030_11d0_b81b_00c04fc9b31f
_DATA	SEGMENT DWORD USE32 PUBLIC 'DATA'
_DATA	ENDS
;	COMDAT __GUID_53fa8d46_2cdd_11d3_9dd0_d3cd4078982a
_DATA	SEGMENT DWORD USE32 PUBLIC 'DATA'
_DATA	ENDS
;	COMDAT __GUID_37deb787_2d9b_11d3_9dd0_c423e6542e10
_DATA	SEGMENT DWORD USE32 PUBLIC 'DATA'
_DATA	ENDS
;	COMDAT __GUID_922eada0_3424_11cf_b670_00aa004cd6d8
_DATA	SEGMENT DWORD USE32 PUBLIC 'DATA'
_DATA	ENDS
;	COMDAT __GUID_69d14c80_c18e_11d0_a9ce_006097942311
_DATA	SEGMENT DWORD USE32 PUBLIC 'DATA'
_DATA	ENDS
;	COMDAT ??_7CFileException@@6B@
CONST	SEGMENT DWORD USE32 PUBLIC 'CONST'
CONST	ENDS
;	COMDAT __GUID_00000001_0000_0000_c000_000000000046
_DATA	SEGMENT DWORD USE32 PUBLIC 'DATA'
_DATA	ENDS
;	COMDAT ??_7CReBarCtrl@@6B@
CONST	SEGMENT DWORD USE32 PUBLIC 'CONST'
CONST	ENDS
;	COMDAT __GUID_0000011c_0000_0000_c000_000000000046
_DATA	SEGMENT DWORD USE32 PUBLIC 'DATA'
_DATA	ENDS
;	COMDAT _CLSID_ComMoveSize
CONST	SEGMENT DWORD USE32 PUBLIC 'CONST'
CONST	ENDS
;	COMDAT __GUID_9c2cad80_3424_11cf_b670_00aa004cd6d8
_DATA	SEGMENT DWORD USE32 PUBLIC 'DATA'
_DATA	ENDS
;	COMDAT __GUID_70bdde00_c18e_11d0_a9ce_006097942311
_DATA	SEGMENT DWORD USE32 PUBLIC 'DATA'
_DATA	ENDS
;	COMDAT __CT??_R0?AVbad_exception@std@@@8??0bad_exception@std@@QAE@ABV01@@Z12
xdata$x	SEGMENT DWORD USE32 PUBLIC 'CONST'
xdata$x	ENDS
;	COMDAT __GUID_3050f3cf_98b5_11cf_bb82_00aa00bdce0b
_DATA	SEGMENT DWORD USE32 PUBLIC 'DATA'
_DATA	ENDS
;	COMDAT ??_R0?AVfailure@ios_base@std@@@8
_DATA	SEGMENT DWORD USE32 PUBLIC 'DATA'
_DATA	ENDS
;	COMDAT _LIBID_ATLLib
CONST	SEGMENT DWORD USE32 PUBLIC 'CONST'
CONST	ENDS
;	COMDAT ??_7CArchiveException@@6B@
CONST	SEGMENT DWORD USE32 PUBLIC 'CONST'
CONST	ENDS
;	COMDAT _IID_IRegistrar
CONST	SEGMENT DWORD USE32 PUBLIC 'CONST'
CONST	ENDS
;	COMDAT __GUID_00000109_0000_0000_c000_000000000046
_DATA	SEGMENT DWORD USE32 PUBLIC 'DATA'
_DATA	ENDS
;	COMDAT __GUID_00000115_0000_0000_c000_000000000046
_DATA	SEGMENT DWORD USE32 PUBLIC 'DATA'
_DATA	ENDS
;	COMDAT __GUID_00000121_0000_0000_c000_000000000046
_DATA	SEGMENT DWORD USE32 PUBLIC 'DATA'
_DATA	ENDS
;	COMDAT ??_7CResourceException@@6B@
CONST	SEGMENT DWORD USE32 PUBLIC 'CONST'
CONST	ENDS
;	COMDAT _CLSID_SkinEvent
CONST	SEGMENT DWORD USE32 PUBLIC 'CONST'
CONST	ENDS
;	COMDAT __GUID_00000000_0000_0000_0000_000000000000
_DATA	SEGMENT DWORD USE32 PUBLIC 'DATA'
_DATA	ENDS
;	COMDAT __TI2?AVlogic_error@std@@
xdata$x	SEGMENT DWORD USE32 PUBLIC 'CONST'
xdata$x	ENDS
;	COMDAT __GUID_d9f1e15a_ccdb_11d0_9c0c_00c04fc99c8e
_DATA	SEGMENT DWORD USE32 PUBLIC 'DATA'
_DATA	ENDS
;	COMDAT __GUID_feceaaa2_8405_11cf_8ba1_00aa00476da6
_DATA	SEGMENT DWORD USE32 PUBLIC 'DATA'
_DATA	ENDS
;	COMDAT __GUID_00000100_0000_0000_c000_000000000046
_DATA	SEGMENT DWORD USE32 PUBLIC 'DATA'
_DATA	ENDS
;	COMDAT __GUID_0002df05_0000_0000_c000_000000000046
_DATA	SEGMENT DWORD USE32 PUBLIC 'DATA'
_DATA	ENDS
;	COMDAT ??_7CRectTracker@@6B@
CONST	SEGMENT DWORD USE32 PUBLIC 'CONST'
CONST	ENDS
;	COMDAT ??_7CRgn@@6B@
CONST	SEGMENT DWORD USE32 PUBLIC 'CONST'
CONST	ENDS
;	COMDAT __GUID_3050f209_98b5_11cf_bb82_00aa00bdce0b
_DATA	SEGMENT DWORD USE32 PUBLIC 'DATA'
_DATA	ENDS
;	COMDAT __GUID_00000020_0000_0000_c000_000000000046
_DATA	SEGMENT DWORD USE32 PUBLIC 'DATA'
_DATA	ENDS
;	COMDAT _CLSID_COMScript
CONST	SEGMENT DWORD USE32 PUBLIC 'CONST'
CONST	ENDS
;	COMDAT __GUID_3050f319_98b5_11cf_bb82_00aa00bdce0b
_DATA	SEGMENT DWORD USE32 PUBLIC 'DATA'
_DATA	ENDS
;	COMDAT _IID_ISkinPopup
CONST	SEGMENT DWORD USE32 PUBLIC 'CONST'
CONST	ENDS
;	COMDAT _LIBID_ACTIVESKINLib
CONST	SEGMENT DWORD USE32 PUBLIC 'CONST'
CONST	ENDS
;	COMDAT __GUID_3050f375_98b5_11cf_bb82_00aa00bdce0b
_DATA	SEGMENT DWORD USE32 PUBLIC 'DATA'
_DATA	ENDS
;	COMDAT __GUID_3050f20e_98b5_11cf_bb82_00aa00bdce0b
_DATA	SEGMENT DWORD USE32 PUBLIC 'DATA'
_DATA	ENDS
;	COMDAT __GUID_3050f369_98b5_11cf_bb82_00aa00bdce0b
_DATA	SEGMENT DWORD USE32 PUBLIC 'DATA'
_DATA	ENDS
;	COMDAT __GUID_79eac9e0_baf9_11ce_8c82_00aa004ba90b
_DATA	SEGMENT DWORD USE32 PUBLIC 'DATA'
_DATA	ENDS
;	COMDAT __GUID_cf51ed10_62fe_11cf_bf86_00a0c9034836
_DATA	SEGMENT DWORD USE32 PUBLIC 'DATA'
_DATA	ENDS
;	COMDAT __GUID_3050f3f3_98b5_11cf_bb82_00aa00bdce0b
_DATA	SEGMENT DWORD USE32 PUBLIC 'DATA'
_DATA	ENDS
;	COMDAT __GUID_3050f3e7_98b5_11cf_bb82_00aa00bdce0b
_DATA	SEGMENT DWORD USE32 PUBLIC 'DATA'
_DATA	ENDS
;	COMDAT __GUID_894ad3b0_ef97_11ce_9bc9_00aa00608e01
_DATA	SEGMENT DWORD USE32 PUBLIC 'DATA'
_DATA	ENDS
;	COMDAT ??_7CException@@6B@
CONST	SEGMENT DWORD USE32 PUBLIC 'CONST'
CONST	ENDS
;	COMDAT __GUID_baa342a0_2ded_11d0_86f4_00a0c913f750
_DATA	SEGMENT DWORD USE32 PUBLIC 'DATA'
_DATA	ENDS
;	COMDAT __GUID_3050f23a_98b5_11cf_bb82_00aa00bdce0b
_DATA	SEGMENT DWORD USE32 PUBLIC 'DATA'
_DATA	ENDS
;	COMDAT __GUID_f29f6bc0_5021_11ce_aa15_00006901293f
_DATA	SEGMENT DWORD USE32 PUBLIC 'DATA'
_DATA	ENDS
;	COMDAT __GUID_79eac9e8_baf9_11ce_8c82_00aa004ba90b
_DATA	SEGMENT DWORD USE32 PUBLIC 'DATA'
_DATA	ENDS
;	COMDAT __GUID_3050f315_98b5_11cf_bb82_00aa00bdce0b
_DATA	SEGMENT DWORD USE32 PUBLIC 'DATA'
_DATA	ENDS
;	COMDAT __GUID_3050f265_98b5_11cf_bb82_00aa00bdce0b
_DATA	SEGMENT DWORD USE32 PUBLIC 'DATA'
_DATA	ENDS
;	COMDAT ??_7CMemoryException@@6B@
CONST	SEGMENT DWORD USE32 PUBLIC 'CONST'
CONST	ENDS
;	COMDAT _DIID__ISkinScrollBarEvents
CONST	SEGMENT DWORD USE32 PUBLIC 'CONST'
CONST	ENDS
;	COMDAT __GUID_79eac9cd_baf9_11ce_8c82_00aa004ba90b
_DATA	SEGMENT DWORD USE32 PUBLIC 'DATA'
_DATA	ENDS
;	COMDAT ?szIPS32@?1??RegisterClassHelper@CComModule@ATL@@QAGJABU_GUID@@PBD1IK@Z@4QBDB
CONST	SEGMENT DWORD USE32 PUBLIC 'CONST'
CONST	ENDS
;	COMDAT __GUID_d001f200_ef97_11ce_9bc9_00aa00608e01
_DATA	SEGMENT DWORD USE32 PUBLIC 'DATA'
_DATA	ENDS
;	COMDAT __GUID_bef6e002_a874_101a_8bba_00aa00300cab
_DATA	SEGMENT DWORD USE32 PUBLIC 'DATA'
_DATA	ENDS
;	COMDAT _IID_IComProcTextures
CONST	SEGMENT DWORD USE32 PUBLIC 'CONST'
CONST	ENDS
;	COMDAT _IID_IComTransitions
CONST	SEGMENT DWORD USE32 PUBLIC 'CONST'
CONST	ENDS
;	COMDAT __GUID_085fb2c0_0df8_11d1_8f4b_00a0c905413f
_DATA	SEGMENT DWORD USE32 PUBLIC 'DATA'
_DATA	ENDS
;	COMDAT ?szAUTPRX32@?1??RegisterClassHelper@CComModule@ATL@@QAGJABU_GUID@@PBD1IK@Z@4QBDB
CONST	SEGMENT DWORD USE32 PUBLIC 'CONST'
CONST	ENDS
;	COMDAT __GUID_79eac9e4_baf9_11ce_8c82_00aa004ba90b
_DATA	SEGMENT DWORD USE32 PUBLIC 'DATA'
_DATA	ENDS
;	COMDAT _DIID__ISkinObjectDispEvents
CONST	SEGMENT DWORD USE32 PUBLIC 'CONST'
CONST	ENDS
;	COMDAT __GUID_55dd814e_a1b7_4808_9625_4f75a3fad8a7
_DATA	SEGMENT DWORD USE32 PUBLIC 'DATA'
_DATA	ENDS
;	COMDAT __GUID_d5f569d0_593b_101a_b569_08002b2dbf7a
_DATA	SEGMENT DWORD USE32 PUBLIC 'DATA'
_DATA	ENDS
;	COMDAT __GUID_3050f2e5_98b5_11cf_bb82_00aa00bdce0b
_DATA	SEGMENT DWORD USE32 PUBLIC 'DATA'
_DATA	ENDS
;	COMDAT __GUID_79eac9ec_baf9_11ce_8c82_00aa004ba90b
_DATA	SEGMENT DWORD USE32 PUBLIC 'DATA'
_DATA	ENDS
;	COMDAT ?szApartment@?1??RegisterClassHelper@CComModule@ATL@@QAGJABU_GUID@@PBD1IK@Z@4QBDB
CONST	SEGMENT DWORD USE32 PUBLIC 'CONST'
CONST	ENDS
;	COMDAT __GUID_000214ee_0000_0000_c000_000000000046
_DATA	SEGMENT DWORD USE32 PUBLIC 'DATA'
_DATA	ENDS
;	COMDAT __GUID_000214fa_0000_0000_c000_000000000046
_DATA	SEGMENT DWORD USE32 PUBLIC 'DATA'
_DATA	ENDS
;	COMDAT __GUID_b196b285_bab4_101a_b69c_00aa00341d07
_DATA	SEGMENT DWORD USE32 PUBLIC 'DATA'
_DATA	ENDS
;	COMDAT _CLSID_SkinButton
CONST	SEGMENT DWORD USE32 PUBLIC 'CONST'
CONST	ENDS
;	COMDAT __GUID_3050f361_98b5_11cf_bb82_00aa00bdce0b
_DATA	SEGMENT DWORD USE32 PUBLIC 'DATA'
_DATA	ENDS
;	COMDAT __GUID_000214eb_0000_0000_c000_000000000046
_DATA	SEGMENT DWORD USE32 PUBLIC 'DATA'
_DATA	ENDS
;	COMDAT ??_7CBrush@@6B@
CONST	SEGMENT DWORD USE32 PUBLIC 'CONST'
CONST	ENDS
;	COMDAT __GUID_0c6c4200_c589_11d0_999a_00c04fd655e1
_DATA	SEGMENT DWORD USE32 PUBLIC 'DATA'
_DATA	ENDS
;	COMDAT _IID_ISkinForm
CONST	SEGMENT DWORD USE32 PUBLIC 'CONST'
CONST	ENDS
;	COMDAT __GUID_00000139_0000_0000_c000_000000000046
_DATA	SEGMENT DWORD USE32 PUBLIC 'DATA'
_DATA	ENDS
;	COMDAT __GUID_22f55881_280b_11d0_a8a9_00a0c90c2004
_DATA	SEGMENT DWORD USE32 PUBLIC 'DATA'
_DATA	ENDS
;	COMDAT __GUID_4ef6100a_af88_11d0_9846_00c04fc29993
_DATA	SEGMENT DWORD USE32 PUBLIC 'DATA'
_DATA	ENDS
;	COMDAT __GUID_00000002_0000_0000_c000_000000000046
_DATA	SEGMENT DWORD USE32 PUBLIC 'DATA'
_DATA	ENDS
;	COMDAT _DIID__ISkinSourceEvents
CONST	SEGMENT DWORD USE32 PUBLIC 'CONST'
CONST	ENDS
;	COMDAT __GUID_00000138_0000_0000_c000_000000000046
_DATA	SEGMENT DWORD USE32 PUBLIC 'DATA'
_DATA	ENDS
;	COMDAT __GUID_000214f7_0000_0000_c000_000000000046
_DATA	SEGMENT DWORD USE32 PUBLIC 'DATA'
_DATA	ENDS
;	COMDAT __GUID_3050f372_98b5_11cf_bb82_00aa00bdce0b
_DATA	SEGMENT DWORD USE32 PUBLIC 'DATA'
_DATA	ENDS
;	COMDAT __GUID_f5be2ee1_bfd7_11d0_b188_00aa0038c969
_DATA	SEGMENT DWORD USE32 PUBLIC 'DATA'
_DATA	ENDS
;	COMDAT __GUID_00020411_0000_0000_c000_000000000046
_DATA	SEGMENT DWORD USE32 PUBLIC 'DATA'
_DATA	ENDS
;	COMDAT __GUID_00020405_0000_0000_c000_000000000046
_DATA	SEGMENT DWORD USE32 PUBLIC 'DATA'
_DATA	ENDS
;	COMDAT ??_7CRichEditCtrl@@6B@
CONST	SEGMENT DWORD USE32 PUBLIC 'CONST'
CONST	ENDS
;	COMDAT ??_7CButton@@6B@
CONST	SEGMENT DWORD USE32 PUBLIC 'CONST'
CONST	ENDS
;	COMDAT ??_7CDateTimeCtrl@@6B@
CONST	SEGMENT DWORD USE32 PUBLIC 'CONST'
CONST	ENDS
;	COMDAT __GUID_3050f376_98b5_11cf_bb82_00aa00bdce0b
_DATA	SEGMENT DWORD USE32 PUBLIC 'DATA'
_DATA	ENDS
;	COMDAT __GUID_3050f401_98b5_11cf_bb82_00aa00bdce0b
_DATA	SEGMENT DWORD USE32 PUBLIC 'DATA'
_DATA	ENDS
;	COMDAT __GUID_d9e89500_30fa_11d0_b724_00aa006c1a01
_DATA	SEGMENT DWORD USE32 PUBLIC 'DATA'
_DATA	ENDS
;	COMDAT __GUID_376bd3aa_3845_101b_84ed_08002b2ec713
_DATA	SEGMENT DWORD USE32 PUBLIC 'DATA'
_DATA	ENDS
;	COMDAT __GUID_3050f357_98b5_11cf_bb82_00aa00bdce0b
_DATA	SEGMENT DWORD USE32 PUBLIC 'DATA'
_DATA	ENDS
;	COMDAT __GUID_3050f360_98b5_11cf_bb82_00aa00bdce0b
_DATA	SEGMENT DWORD USE32 PUBLIC 'DATA'
_DATA	ENDS
;	COMDAT __GUID_fc4801a1_2ba9_11cf_a229_00aa003d7352
_DATA	SEGMENT DWORD USE32 PUBLIC 'DATA'
_DATA	ENDS
;	COMDAT __GUID_3c01387a_6ac2_4ef1_bda2_ec5d26e3b065
_DATA	SEGMENT DWORD USE32 PUBLIC 'DATA'
_DATA	ENDS
;	COMDAT _CLSID_SkinScrollBar
CONST	SEGMENT DWORD USE32 PUBLIC 'CONST'
CONST	ENDS
;	COMDAT ?szVIProgID@?1??RegisterClassHelper@CComModule@ATL@@QAGJABU_GUID@@PBD1IK@Z@4QBDB
CONST	SEGMENT DWORD USE32 PUBLIC 'CONST'
CONST	ENDS
;	COMDAT __GUID_37d84f60_42cb_11ce_8135_00aa004bb851
_DATA	SEGMENT DWORD USE32 PUBLIC 'DATA'
_DATA	ENDS
;	COMDAT __GUID_322982e0_0855_11d3_9dcf_ddfb3ab09e18
_DATA	SEGMENT DWORD USE32 PUBLIC 'DATA'
_DATA	ENDS
;	COMDAT __GUID_cabb0da0_da57_11cf_9974_0020afd79762
_DATA	SEGMENT DWORD USE32 PUBLIC 'DATA'
_DATA	ENDS
;	COMDAT __GUID_c04d65d2_b70d_11d0_b188_00aa0038c969
_DATA	SEGMENT DWORD USE32 PUBLIC 'DATA'
_DATA	ENDS
;	COMDAT __TI3?AVoverflow_error@std@@
xdata$x	SEGMENT DWORD USE32 PUBLIC 'CONST'
xdata$x	ENDS
;	COMDAT _CLSID_SkinLabel
CONST	SEGMENT DWORD USE32 PUBLIC 'CONST'
CONST	ENDS
;	COMDAT __GUID_7d688a70_c613_11d0_999b_00c04fd655e1
_DATA	SEGMENT DWORD USE32 PUBLIC 'DATA'
_DATA	ENDS
;	COMDAT ??_7CPen@@6B@
CONST	SEGMENT DWORD USE32 PUBLIC 'CONST'
CONST	ENDS
;	COMDAT __GUID_3050f378_98b5_11cf_bb82_00aa00bdce0b
_DATA	SEGMENT DWORD USE32 PUBLIC 'DATA'
_DATA	ENDS
;	COMDAT __GUID_3050f1f7_98b5_11cf_bb82_00aa00bdce0b
_DATA	SEGMENT DWORD USE32 PUBLIC 'DATA'
_DATA	ENDS
;	COMDAT __GUID_3050f383_98b5_11cf_bb82_00aa00bdce0b
_DATA	SEGMENT DWORD USE32 PUBLIC 'DATA'
_DATA	ENDS
;	COMDAT __GUID_1cff0050_6fdd_11d0_9328_00a0c90dcaa9
_DATA	SEGMENT DWORD USE32 PUBLIC 'DATA'
_DATA	ENDS
;	COMDAT __GUID_bb1a2ae2_a4f9_11cf_8f20_00805f2cd064
_DATA	SEGMENT DWORD USE32 PUBLIC 'DATA'
_DATA	ENDS
;	COMDAT __GUID_00020401_0000_0000_c000_000000000046
_DATA	SEGMENT DWORD USE32 PUBLIC 'DATA'
_DATA	ENDS
;	COMDAT __GUID_01e44665_24ac_101b_84ed_08002b2ec713
_DATA	SEGMENT DWORD USE32 PUBLIC 'DATA'
_DATA	ENDS
;	COMDAT __GUID_79eac9c2_baf9_11ce_8c82_00aa004ba90b
_DATA	SEGMENT DWORD USE32 PUBLIC 'DATA'
_DATA	ENDS
;	COMDAT __GUID_3050f2a6_98b5_11cf_bb82_00aa00bdce0b
_DATA	SEGMENT DWORD USE32 PUBLIC 'DATA'
_DATA	ENDS
;	COMDAT __GUID_3050f2b2_98b5_11cf_bb82_00aa00bdce0b
_DATA	SEGMENT DWORD USE32 PUBLIC 'DATA'
_DATA	ENDS
;	COMDAT __GUID_3050f1f2_98b5_11cf_bb82_00aa00bdce0b
_DATA	SEGMENT DWORD USE32 PUBLIC 'DATA'
_DATA	ENDS
;	COMDAT __GUID_6cfc9ba1_fe87_11d2_9dcf_ed29fafe371d
_DATA	SEGMENT DWORD USE32 PUBLIC 'DATA'
_DATA	ENDS
;	COMDAT __GUID_9ba05970_f6a8_11cf_a442_00a0c90a8f39
_DATA	SEGMENT DWORD USE32 PUBLIC 'DATA'
_DATA	ENDS
;	COMDAT __GUID_b722bcca_4e68_101b_a2bc_00aa00404770
_DATA	SEGMENT DWORD USE32 PUBLIC 'DATA'
_DATA	ENDS
;	COMDAT __GUID_3050f20a_98b5_11cf_bb82_00aa00bdce0b
_DATA	SEGMENT DWORD USE32 PUBLIC 'DATA'
_DATA	ENDS
;	COMDAT __GUID_83c2d7a0_0de6_11d3_9dcf_9423f1b2561c
_DATA	SEGMENT DWORD USE32 PUBLIC 'DATA'
_DATA	ENDS
;	COMDAT ??_7CMonikerFile@@6B@
CONST	SEGMENT DWORD USE32 PUBLIC 'CONST'
CONST	ENDS
;	COMDAT __GUID_3050f25e_98b5_11cf_bb82_00aa00bdce0b
_DATA	SEGMENT DWORD USE32 PUBLIC 'DATA'
_DATA	ENDS
;	COMDAT ?_Psave@?1??use_facet@std@@YAABV?$numpunct@G@2@ABVlocale@2@PBV32@_N@Z@4PBVfacet@42@B
_DATA	SEGMENT DWORD USE32 PUBLIC 'DATA'
_DATA	ENDS
;	COMDAT __GUID_275c23e3_3747_11d0_9fea_00aa003f8646
_DATA	SEGMENT DWORD USE32 PUBLIC 'DATA'
_DATA	ENDS
;	COMDAT __CT??_R0?AVdomain_error@std@@@8??0domain_error@std@@QAE@ABV01@@Z28
xdata$x	SEGMENT DWORD USE32 PUBLIC 'CONST'
xdata$x	ENDS
;	COMDAT __GUID_00020400_0000_0000_c000_000000000046
_DATA	SEGMENT DWORD USE32 PUBLIC 'DATA'
_DATA	ENDS
;	COMDAT __GUID_b196b28f_bab4_101a_b69c_00aa00341d07
_DATA	SEGMENT DWORD USE32 PUBLIC 'DATA'
_DATA	ENDS
;	COMDAT _DIID__ISkinLabelEvents
CONST	SEGMENT DWORD USE32 PUBLIC 'CONST'
CONST	ENDS
;	COMDAT __CT??_R0?AVruntime_error@std@@@8??0runtime_error@std@@QAE@ABV01@@Z28
xdata$x	SEGMENT DWORD USE32 PUBLIC 'CONST'
xdata$x	ENDS
;	COMDAT __CTA2?AVbad_typeid@std@@
xdata$x	SEGMENT DWORD USE32 PUBLIC 'CONST'
xdata$x	ENDS
;	COMDAT __GUID_00000104_0000_0000_c000_000000000046
_DATA	SEGMENT DWORD USE32 PUBLIC 'DATA'
_DATA	ENDS
;	COMDAT __GUID_00000110_0000_0000_c000_000000000046
_DATA	SEGMENT DWORD USE32 PUBLIC 'DATA'
_DATA	ENDS
;	COMDAT __GUID_3050f207_98b5_11cf_bb82_00aa00bdce0b
_DATA	SEGMENT DWORD USE32 PUBLIC 'DATA'
_DATA	ENDS
;	COMDAT ??_7CListCtrl@@6B@
CONST	SEGMENT DWORD USE32 PUBLIC 'CONST'
CONST	ENDS
;	COMDAT ??_R0?AVinvalid_argument@std@@@8
_DATA	SEGMENT DWORD USE32 PUBLIC 'DATA'
_DATA	ENDS
;	COMDAT _IID_IInternalConnection
CONST	SEGMENT DWORD USE32 PUBLIC 'CONST'
CONST	ENDS
;	COMDAT ??_R0?AVrange_error@std@@@8
_DATA	SEGMENT DWORD USE32 PUBLIC 'DATA'
_DATA	ENDS
;	COMDAT __GUID_53fa8d4c_2cdd_11d3_9dd0_d3cd4078982a
_DATA	SEGMENT DWORD USE32 PUBLIC 'DATA'
_DATA	ENDS
;	COMDAT __GUID_25b15600_0115_11d0_bf0d_00aa00b8dfd2
_DATA	SEGMENT DWORD USE32 PUBLIC 'DATA'
_DATA	ENDS
;	COMDAT __GUID_00000127_0000_0000_c000_000000000046
_DATA	SEGMENT DWORD USE32 PUBLIC 'DATA'
_DATA	ENDS
;	COMDAT __GUID_00000022_0000_0000_c000_000000000046
_DATA	SEGMENT DWORD USE32 PUBLIC 'DATA'
_DATA	ENDS
;	COMDAT __GUID_00000016_0000_0000_c000_000000000046
_DATA	SEGMENT DWORD USE32 PUBLIC 'DATA'
_DATA	ENDS
;	COMDAT __GUID_79eac9d2_baf9_11ce_8c82_00aa004ba90b
_DATA	SEGMENT DWORD USE32 PUBLIC 'DATA'
_DATA	ENDS
;	COMDAT __GUID_79eac9c6_baf9_11ce_8c82_00aa004ba90b
_DATA	SEGMENT DWORD USE32 PUBLIC 'DATA'
_DATA	ENDS
;	COMDAT __GUID_3050f1f4_98b5_11cf_bb82_00aa00bdce0b
_DATA	SEGMENT DWORD USE32 PUBLIC 'DATA'
_DATA	ENDS
;	COMDAT __GUID_0002040f_0000_0000_c000_000000000046
_DATA	SEGMENT DWORD USE32 PUBLIC 'DATA'
_DATA	ENDS
;	COMDAT __GUID_3050f21e_98b5_11cf_bb82_00aa00bdce0b
_DATA	SEGMENT DWORD USE32 PUBLIC 'DATA'
_DATA	ENDS
;	COMDAT ??_7CCheckListBox@@6B@
CONST	SEGMENT DWORD USE32 PUBLIC 'CONST'
CONST	ENDS
;	COMDAT __GUID_00000026_0000_0000_c000_000000000046
_DATA	SEGMENT DWORD USE32 PUBLIC 'DATA'
_DATA	ENDS
;	COMDAT __TI2?AVbad_exception@std@@
xdata$x	SEGMENT DWORD USE32 PUBLIC 'CONST'
xdata$x	ENDS
;	COMDAT ??_7CMenu@@6B@
CONST	SEGMENT DWORD USE32 PUBLIC 'CONST'
CONST	ENDS
;	COMDAT __GUID_55272a00_42cb_11ce_8135_00aa004bb851
_DATA	SEGMENT DWORD USE32 PUBLIC 'DATA'
_DATA	ENDS
;	COMDAT __GUID_b196b28b_bab4_101a_b69c_00aa00341d07
_DATA	SEGMENT DWORD USE32 PUBLIC 'DATA'
_DATA	ENDS
;	COMDAT __GUID_332c4427_26cb_11d0_b483_00c04fd90119
_DATA	SEGMENT DWORD USE32 PUBLIC 'DATA'
_DATA	ENDS
;	COMDAT __GUID_aa5b6a80_b834_11d0_932f_00a0c90dcaa9
_DATA	SEGMENT DWORD USE32 PUBLIC 'DATA'
_DATA	ENDS
;	COMDAT ??_7CTreeCtrl@@6B@
CONST	SEGMENT DWORD USE32 PUBLIC 'CONST'
CONST	ENDS
;	COMDAT __CT??_R0?AVlogic_error@std@@@8??0logic_error@std@@QAE@ABV01@@Z28
xdata$x	SEGMENT DWORD USE32 PUBLIC 'CONST'
xdata$x	ENDS
;	COMDAT __GUID_e0e270c0_c0be_11d0_8fe4_00a0c90a6341
_DATA	SEGMENT DWORD USE32 PUBLIC 'DATA'
_DATA	ENDS
;	COMDAT __GUID_000214e6_0000_0000_c000_000000000046
_DATA	SEGMENT DWORD USE32 PUBLIC 'DATA'
_DATA	ENDS
;	COMDAT __GUID_00000101_0000_0000_c000_000000000046
_DATA	SEGMENT DWORD USE32 PUBLIC 'DATA'
_DATA	ENDS
;	COMDAT __GUID_000214f2_0000_0000_c000_000000000046
_DATA	SEGMENT DWORD USE32 PUBLIC 'DATA'
_DATA	ENDS
;	COMDAT __GUID_00000029_0000_0000_c000_000000000046
_DATA	SEGMENT DWORD USE32 PUBLIC 'DATA'
_DATA	ENDS
;	COMDAT __GUID_3127ca40_446e_11ce_8135_00aa004bb851
_DATA	SEGMENT DWORD USE32 PUBLIC 'DATA'
_DATA	ENDS
;	COMDAT _IID_ISkinLabel
CONST	SEGMENT DWORD USE32 PUBLIC 'CONST'
CONST	ENDS
;	COMDAT _CLSID_ComFilters
CONST	SEGMENT DWORD USE32 PUBLIC 'CONST'
CONST	ENDS
;	COMDAT __GUID_1cf2b120_547d_101b_8e65_08002b2bd119
_DATA	SEGMENT DWORD USE32 PUBLIC 'DATA'
_DATA	ENDS
;	COMDAT __GUID_55980ba0_35aa_11cf_b671_00aa004cd6d8
_DATA	SEGMENT DWORD USE32 PUBLIC 'DATA'
_DATA	ENDS
;	COMDAT __GUID_a1faf330_ef97_11ce_9bc9_00aa00608e01
_DATA	SEGMENT DWORD USE32 PUBLIC 'DATA'
_DATA	ENDS
;	COMDAT __GUID_a4c65425_0f82_11d1_90c3_00c04fc2f568
_DATA	SEGMENT DWORD USE32 PUBLIC 'DATA'
_DATA	ENDS
;	COMDAT ??_7CIPAddressCtrl@@6B@
CONST	SEGMENT DWORD USE32 PUBLIC 'CONST'
CONST	ENDS
;	COMDAT ??_7CUserException@@6B@
CONST	SEGMENT DWORD USE32 PUBLIC 'CONST'
CONST	ENDS
;	COMDAT __GUID_a6ef9861_c720_11d0_9337_00a0c90dcaa9
_DATA	SEGMENT DWORD USE32 PUBLIC 'DATA'
_DATA	ENDS
;	COMDAT __GUID_a6ef9862_c720_11d0_9337_00a0c90dcaa9
_DATA	SEGMENT DWORD USE32 PUBLIC 'DATA'
_DATA	ENDS
;	COMDAT __GUID_3050f38c_98b5_11cf_bb82_00aa00bdce0b
_DATA	SEGMENT DWORD USE32 PUBLIC 'DATA'
_DATA	ENDS
;	COMDAT __GUID_00000018_0000_0000_c000_000000000046
_DATA	SEGMENT DWORD USE32 PUBLIC 'DATA'
_DATA	ENDS
;	COMDAT __GUID_00000193_0000_0000_c000_000000000046
_DATA	SEGMENT DWORD USE32 PUBLIC 'DATA'
_DATA	ENDS
;	COMDAT __GUID_00000024_0000_0000_c000_000000000046
_DATA	SEGMENT DWORD USE32 PUBLIC 'DATA'
_DATA	ENDS
;	COMDAT ?szLS32@?1??RegisterClassHelper@CComModule@ATL@@QAGJABU_GUID@@PBD1IK@Z@4QBDB
CONST	SEGMENT DWORD USE32 PUBLIC 'CONST'
CONST	ENDS
;	COMDAT __GUID_3050f200_98b5_11cf_bb82_00aa00bdce0b
_DATA	SEGMENT DWORD USE32 PUBLIC 'DATA'
_DATA	ENDS
;	COMDAT __TI2?AVbad_alloc@std@@
xdata$x	SEGMENT DWORD USE32 PUBLIC 'CONST'
xdata$x	ENDS
;	COMDAT __GUID_dce47f78_8a6c_4c6d_a6f7_8be4427127c4
_DATA	SEGMENT DWORD USE32 PUBLIC 'DATA'
_DATA	ENDS
;	COMDAT __GUID_3050f204_98b5_11cf_bb82_00aa00bdce0b
_DATA	SEGMENT DWORD USE32 PUBLIC 'DATA'
_DATA	ENDS
;	COMDAT __GUID_3050f38a_98b5_11cf_bb82_00aa00bdce0b
_DATA	SEGMENT DWORD USE32 PUBLIC 'DATA'
_DATA	ENDS
;	COMDAT ??_7CSkinObj@@6B@
CONST	SEGMENT DWORD USE32 PUBLIC 'CONST'
CONST	ENDS
;	COMDAT __GUID_0000002a_0000_0000_c000_000000000046
_DATA	SEGMENT DWORD USE32 PUBLIC 'DATA'
_DATA	ENDS
;	COMDAT __GUID_3050f3ea_98b5_11cf_bb82_00aa00bdce0b
_DATA	SEGMENT DWORD USE32 PUBLIC 'DATA'
_DATA	ENDS
;	COMDAT __GUID_bd1ae5e0_a6ae_11ce_bd37_504200c10000
_DATA	SEGMENT DWORD USE32 PUBLIC 'DATA'
_DATA	ENDS
;	COMDAT __GUID_00000102_0000_0000_c000_000000000046
_DATA	SEGMENT DWORD USE32 PUBLIC 'DATA'
_DATA	ENDS
;	COMDAT __GUID_000214f0_0000_0000_c000_000000000046
_DATA	SEGMENT DWORD USE32 PUBLIC 'DATA'
_DATA	ENDS
;	COMDAT __GUID_000214e4_0000_0000_c000_000000000046
_DATA	SEGMENT DWORD USE32 PUBLIC 'DATA'
_DATA	ENDS
;	COMDAT __GUID_3c374a42_bae4_11cf_bf7d_00aa006946ee
_DATA	SEGMENT DWORD USE32 PUBLIC 'DATA'
_DATA	ENDS
;	COMDAT __GUID_3050f24f_98b5_11cf_bb82_00aa00bdce0b
_DATA	SEGMENT DWORD USE32 PUBLIC 'DATA'
_DATA	ENDS
;	COMDAT __GUID_3050f1f3_98b5_11cf_bb82_00aa00bdce0b
_DATA	SEGMENT DWORD USE32 PUBLIC 'DATA'
_DATA	ENDS
;	COMDAT __GUID_000214f9_0000_0000_c000_000000000046
_DATA	SEGMENT DWORD USE32 PUBLIC 'DATA'
_DATA	ENDS
;	COMDAT __GUID_0000001d_0000_0000_c000_000000000046
_DATA	SEGMENT DWORD USE32 PUBLIC 'DATA'
_DATA	ENDS
;	COMDAT __GUID_00000194_0000_0000_c000_000000000046
_DATA	SEGMENT DWORD USE32 PUBLIC 'DATA'
_DATA	ENDS
;	COMDAT ??_7CHeaderCtrl@@6B@
CONST	SEGMENT DWORD USE32 PUBLIC 'CONST'
CONST	ENDS
;	COMDAT _IID_IComMorph
CONST	SEGMENT DWORD USE32 PUBLIC 'CONST'
CONST	ENDS
;	COMDAT __GUID_99caf010_415e_11cf_8814_00aa00b569f5
_DATA	SEGMENT DWORD USE32 PUBLIC 'DATA'
_DATA	ENDS
;	COMDAT __GUID_47d2657a_7b27_11d0_8ca9_00a0c92dbfe8
_DATA	SEGMENT DWORD USE32 PUBLIC 'DATA'
_DATA	ENDS
;	COMDAT __GUID_3050f3ec_98b5_11cf_bb82_00aa00bdce0b
_DATA	SEGMENT DWORD USE32 PUBLIC 'DATA'
_DATA	ENDS
;	COMDAT __GUID_3050f211_98b5_11cf_bb82_00aa00bdce0b
_DATA	SEGMENT DWORD USE32 PUBLIC 'DATA'
_DATA	ENDS
;	COMDAT __GUID_3050f205_98b5_11cf_bb82_00aa00bdce0b
_DATA	SEGMENT DWORD USE32 PUBLIC 'DATA'
_DATA	ENDS
;	COMDAT __GUID_000214e8_0000_0000_c000_000000000046
_DATA	SEGMENT DWORD USE32 PUBLIC 'DATA'
_DATA	ENDS
;	COMDAT __GUID_000214f4_0000_0000_c000_000000000046
_DATA	SEGMENT DWORD USE32 PUBLIC 'DATA'
_DATA	ENDS
;	COMDAT __GUID_0e6d4d90_6738_11cf_9608_00aa00680db4
_DATA	SEGMENT DWORD USE32 PUBLIC 'DATA'
_DATA	ENDS
;	COMDAT __GUID_00021500_0000_0000_c000_000000000046
_DATA	SEGMENT DWORD USE32 PUBLIC 'DATA'
_DATA	ENDS
;	COMDAT __GUID_b722bcc6_4e68_101b_a2bc_00aa00404770
_DATA	SEGMENT DWORD USE32 PUBLIC 'DATA'
_DATA	ENDS
;	COMDAT __GUID_89bcb740_6119_101a_bcb7_00dd010655af
_DATA	SEGMENT DWORD USE32 PUBLIC 'DATA'
_DATA	ENDS
;	COMDAT __GUID_bcfce0a0_ec17_11d0_8d10_00a0c90f2719
_DATA	SEGMENT DWORD USE32 PUBLIC 'DATA'
_DATA	ENDS
;	COMDAT ??_7CSkinForm@@6B@
CONST	SEGMENT DWORD USE32 PUBLIC 'CONST'
CONST	ENDS
;	COMDAT __GUID_79eac9d6_bafa_11ce_8c82_00aa004ba90b
_DATA	SEGMENT DWORD USE32 PUBLIC 'DATA'
_DATA	ENDS
;	COMDAT __GUID_00000119_0000_0000_c000_000000000046
_DATA	SEGMENT DWORD USE32 PUBLIC 'DATA'
_DATA	ENDS
;	COMDAT __GUID_00000111_0000_0000_c000_000000000046
_DATA	SEGMENT DWORD USE32 PUBLIC 'DATA'
_DATA	ENDS
;	COMDAT __GUID_00000105_0000_0000_c000_000000000046
_DATA	SEGMENT DWORD USE32 PUBLIC 'DATA'
_DATA	ENDS
;	COMDAT __GUID_00000125_0000_0000_c000_000000000046
_DATA	SEGMENT DWORD USE32 PUBLIC 'DATA'
_DATA	ENDS
;	COMDAT ??_R0?AVbad_exception@std@@@8
_DATA	SEGMENT DWORD USE32 PUBLIC 'DATA'
_DATA	ENDS
;	COMDAT ??_7CPalette@@6B@
CONST	SEGMENT DWORD USE32 PUBLIC 'CONST'
CONST	ENDS
;	COMDAT __GUID_7bf80981_bf32_101a_8bbb_00aa00300cab
_DATA	SEGMENT DWORD USE32 PUBLIC 'DATA'
_DATA	ENDS
;	COMDAT __GUID_b196b289_bab4_101a_b69c_00aa00341d07
_DATA	SEGMENT DWORD USE32 PUBLIC 'DATA'
_DATA	ENDS
;	COMDAT ??_7CFont@@6B@
CONST	SEGMENT DWORD USE32 PUBLIC 'CONST'
CONST	ENDS
;	COMDAT __GUID_c04d65d0_b70d_11d0_b188_00aa0038c969
_DATA	SEGMENT DWORD USE32 PUBLIC 'DATA'
_DATA	ENDS
;	COMDAT __GUID_972de6c1_8b09_11d2_b652_a1fd6cc34260
_DATA	SEGMENT DWORD USE32 PUBLIC 'DATA'
_DATA	ENDS
;	COMDAT __GUID_3050f244_98b5_11cf_bb82_00aa00bdce0b
_DATA	SEGMENT DWORD USE32 PUBLIC 'DATA'
_DATA	ENDS
;	COMDAT __GUID_d5f56afc_593b_101a_b569_08002b2dbf7a
_DATA	SEGMENT DWORD USE32 PUBLIC 'DATA'
_DATA	ENDS
;	COMDAT __GUID_00000103_0000_0000_c000_000000000046
_DATA	SEGMENT DWORD USE32 PUBLIC 'DATA'
_DATA	ENDS
;	COMDAT __GUID_00000012_0000_0000_c000_000000000046
_DATA	SEGMENT DWORD USE32 PUBLIC 'DATA'
_DATA	ENDS
;	COMDAT _CLSID_SkinForm
CONST	SEGMENT DWORD USE32 PUBLIC 'CONST'
CONST	ENDS
;	COMDAT __GUID_0000013e_0000_0000_c000_000000000046
_DATA	SEGMENT DWORD USE32 PUBLIC 'DATA'
_DATA	ENDS
;	COMDAT __GUID_275c23e1_3747_11d0_9fea_00aa003f8646
_DATA	SEGMENT DWORD USE32 PUBLIC 'DATA'
_DATA	ENDS
;	COMDAT _IID_IComFilters
CONST	SEGMENT DWORD USE32 PUBLIC 'CONST'
CONST	ENDS
;	COMDAT __GUID_0000000c_0000_0000_c000_000000000046
_DATA	SEGMENT DWORD USE32 PUBLIC 'DATA'
_DATA	ENDS
;	COMDAT __GUID_00000003_0000_0000_c000_000000000046
_DATA	SEGMENT DWORD USE32 PUBLIC 'DATA'
_DATA	ENDS
;	COMDAT __GUID_f1db8392_7331_11d0_8c99_00a0c92dbfe8
_DATA	SEGMENT DWORD USE32 PUBLIC 'DATA'
_DATA	ENDS
;	COMDAT __CTA3?AVout_of_range@std@@
xdata$x	SEGMENT DWORD USE32 PUBLIC 'CONST'
xdata$x	ENDS
;	COMDAT __GUID_c4d244b0_d43e_11cf_893b_00aa00bdce1a
_DATA	SEGMENT DWORD USE32 PUBLIC 'DATA'
_DATA	ENDS
;	COMDAT __GUID_3050f2eb_98b5_11cf_bb82_00aa00bdce0b
_DATA	SEGMENT DWORD USE32 PUBLIC 'DATA'
_DATA	ENDS
;	COMDAT __GUID_b196b286_bab4_101a_b69c_00aa00341d07
_DATA	SEGMENT DWORD USE32 PUBLIC 'DATA'
_DATA	ENDS
FLAT	GROUP _DATA, CONST, _BSS, xdata$x
	ASSUME	CS: FLAT, DS: FLAT, SS: FLAT
endif
PUBLIC	?_pModule@ATL@@3PAVCComModule@1@A		; ATL::_pModule
PUBLIC	?GUID_ATLVer30@ATL@@3U_GUID@@A			; ATL::GUID_ATLVer30
PUBLIC	?m_libid@CComModule@ATL@@2U_GUID@@A		; ATL::CComModule::m_libid
PUBLIC	_LIBID_ATLLib
PUBLIC	?ATL_CREATE_OBJECT@CComApartment@ATL@@2IA	; ATL::CComApartment::ATL_CREATE_OBJECT
PUBLIC	_CLSID_Registrar
PUBLIC	_IID_IRegistrar
PUBLIC	_IID_IDocHostUIHandlerDispatch
PUBLIC	_IID_IAxWinHostWindow
PUBLIC	_IID_IAxWinAmbientDispatch
PUBLIC	_LIBID_ACTIVESKINLib
PUBLIC	_IID_ISkinForm
PUBLIC	_IID_ISkinObjectDisp
PUBLIC	_IID_ISkinSource
PUBLIC	_DIID__ISkinFormEvents
PUBLIC	_IID_ISkinFormEvents_Sink
PUBLIC	_CLSID_SkinForm
PUBLIC	_DIID__ISkinObjectDispEvents
PUBLIC	_IID_ICOMScript
PUBLIC	_IID_IComMorph
PUBLIC	_IID_IComMoveSize
PUBLIC	_IID_ISkinButton
PUBLIC	_CLSID_SkinObject
PUBLIC	_CLSID_COMScript
PUBLIC	_CLSID_ComMorph
PUBLIC	_CLSID_ComMoveSize
PUBLIC	_DIID__ISkinButtonEvents
PUBLIC	_CLSID_SkinButton
PUBLIC	_IID_ISkinPanel
PUBLIC	_DIID__ISkinPanelEvents
PUBLIC	_IID_ISkinLabel
PUBLIC	_CLSID_SkinPanel
PUBLIC	_DIID__ISkinLabelEvents
PUBLIC	_IID_ISkinScrollBar
PUBLIC	_CLSID_SkinLabel
PUBLIC	_DIID__ISkinScrollBarEvents
PUBLIC	_CLSID_SkinScrollBar
PUBLIC	_DIID__ISkinSourceEvents
PUBLIC	_IID_ISkinStorage
PUBLIC	_IID_ISkinPopup
PUBLIC	_IID_IComTransitions
PUBLIC	_IID_ISkinEvent
PUBLIC	_IID_IComProcTextures
PUBLIC	_IID_IComFilters
PUBLIC	_CLSID_SkinSource
PUBLIC	_CLSID_SkinStorage
PUBLIC	_CLSID_SkinPopup
PUBLIC	_CLSID_ComTransitions
PUBLIC	_CLSID_SkinEvent
PUBLIC	_CLSID_ComProcTextures
PUBLIC	_CLSID_ComFilters
PUBLIC	_IID_IInternalConnection
;	COMDAT ?_pModule@ATL@@3PAVCComModule@1@A
_BSS	SEGMENT
?_pModule@ATL@@3PAVCComModule@1@A DD 01H DUP (?)	; ATL::_pModule
_BSS	ENDS
;	COMDAT ?m_libid@CComModule@ATL@@2U_GUID@@A
_BSS	SEGMENT
?m_libid@CComModule@ATL@@2U_GUID@@A DB 010H DUP (?)	; ATL::CComModule::m_libid
_BSS	ENDS
;	COMDAT ?ATL_CREATE_OBJECT@CComApartment@ATL@@2IA
_BSS	SEGMENT
?ATL_CREATE_OBJECT@CComApartment@ATL@@2IA DD 01H DUP (?) ; ATL::CComApartment::ATL_CREATE_OBJECT
_BSS	ENDS
;	COMDAT _LIBID_ATLLib
CONST	SEGMENT
_LIBID_ATLLib DD 044ec0535H
	DW	0400fH
	DW	011d0H
	DB	09dH
	DB	0cdH
	DB	00H
	DB	0a0H
	DB	0c9H
	DB	03H
	DB	091H
	DB	0d3H
CONST	ENDS
;	COMDAT _CLSID_Registrar
CONST	SEGMENT
_CLSID_Registrar DD 044ec053aH
	DW	0400fH
	DW	011d0H
	DB	09dH
	DB	0cdH
	DB	00H
	DB	0a0H
	DB	0c9H
	DB	03H
	DB	091H
	DB	0d3H
CONST	ENDS
;	COMDAT _IID_IRegistrar
CONST	SEGMENT
_IID_IRegistrar DD 044ec053bH
	DW	0400fH
	DW	011d0H
	DB	09dH
	DB	0cdH
	DB	00H
	DB	0a0H
	DB	0c9H
	DB	03H
	DB	091H
	DB	0d3H
CONST	ENDS
;	COMDAT _IID_IAxWinHostWindow
CONST	SEGMENT
_IID_IAxWinHostWindow DD 0b6ea2050H
	DW	048aH
	DW	011d1H
	DB	082H
	DB	0b9H
	DB	00H
	DB	0c0H
	DB	04fH
	DB	0b9H
	DB	094H
	DB	02eH
CONST	ENDS
;	COMDAT _IID_IAxWinAmbientDispatch
CONST	SEGMENT
_IID_IAxWinAmbientDispatch DD 0b6ea2051H
	DW	048aH
	DW	011d1H
	DB	082H
	DB	0b9H
	DB	00H
	DB	0c0H
	DB	04fH
	DB	0b9H
	DB	094H
	DB	02eH
CONST	ENDS
;	COMDAT _IID_IInternalConnection
CONST	SEGMENT
_IID_IInternalConnection DD 072ad0770H
	DW	06a9fH
	DW	011d1H
	DB	0bcH
	DB	0ecH
	DB	00H
	DB	060H
	DB	08H
	DB	08fH
	DB	044H
	DB	04eH
CONST	ENDS
;	COMDAT _IID_IDocHostUIHandlerDispatch
CONST	SEGMENT
_IID_IDocHostUIHandlerDispatch DD 0425b5af0H
	DW	065f1H
	DW	011d1H
	DB	096H
	DB	011H
	DB	00H
	DB	00H
	DB	0f8H
	DB	01eH
	DB	0dH
	DB	0dH
CONST	ENDS
;	COMDAT ?GUID_ATLVer30@ATL@@3U_GUID@@A
_DATA	SEGMENT
?GUID_ATLVer30@ATL@@3U_GUID@@A DD 0b62f5910H		; ATL::GUID_ATLVer30
	DW	06528H
	DW	011d1H
	DB	096H
	DB	011H
	DB	00H
	DB	00H
	DB	0f8H
	DB	01eH
	DB	0dH
	DB	0dH
_DATA	ENDS
;	COMDAT _LIBID_ACTIVESKINLib
CONST	SEGMENT
_LIBID_ACTIVESKINLib DD 0972de6b5H
	DW	08b09H
	DW	011d2H
	DB	0b6H
	DB	052H
	DB	0a1H
	DB	0fdH
	DB	06cH
	DB	0c3H
	DB	042H
	DB	060H
CONST	ENDS
;	COMDAT _IID_ISkinForm
CONST	SEGMENT
_IID_ISkinForm DD 0972de6c1H
	DW	08b09H
	DW	011d2H
	DB	0b6H
	DB	052H
	DB	0a1H
	DB	0fdH
	DB	06cH
	DB	0c3H
	DB	042H
	DB	060H
CONST	ENDS
;	COMDAT _IID_ISkinObjectDisp
CONST	SEGMENT
_IID_ISkinObjectDisp DD 06cfc9ba1H
	DW	0fe87H
	DW	011d2H
	DB	09dH
	DB	0cfH
	DB	0edH
	DB	029H
	DB	0faH
	DB	0feH
	DB	037H
	DB	01dH
CONST	ENDS
;	COMDAT _IID_ISkinSource
CONST	SEGMENT
_IID_ISkinSource DD 037deb787H
	DW	02d9bH
	DW	011d3H
	DB	09dH
	DB	0d0H
	DB	0c4H
	DB	023H
	DB	0e6H
	DB	054H
	DB	02eH
	DB	010H
CONST	ENDS
;	COMDAT _DIID__ISkinFormEvents
CONST	SEGMENT
_DIID__ISkinFormEvents DD 0972de6c3H
	DW	08b09H
	DW	011d2H
	DB	0b6H
	DB	052H
	DB	0a1H
	DB	0fdH
	DB	06cH
	DB	0c3H
	DB	042H
	DB	060H
CONST	ENDS
;	COMDAT _IID_ISkinFormEvents_Sink
CONST	SEGMENT
_IID_ISkinFormEvents_Sink DD 053fa8d31H
	DW	02cddH
	DW	011d3H
	DB	09dH
	DB	0d0H
	DB	0d3H
	DB	0cdH
	DB	040H
	DB	078H
	DB	098H
	DB	02aH
CONST	ENDS
;	COMDAT _CLSID_SkinForm
CONST	SEGMENT
_CLSID_SkinForm DD 0972de6c2H
	DW	08b09H
	DW	011d2H
	DB	0b6H
	DB	052H
	DB	0a1H
	DB	0fdH
	DB	06cH
	DB	0c3H
	DB	042H
	DB	060H
CONST	ENDS
;	COMDAT _DIID__ISkinObjectDispEvents
CONST	SEGMENT
_DIID__ISkinObjectDispEvents DD 06cfc9ba3H
	DW	0fe87H
	DW	011d2H
	DB	09dH
	DB	0cfH
	DB	0edH
	DB	029H
	DB	0faH
	DB	0feH
	DB	037H
	DB	01dH
CONST	ENDS
;	COMDAT _IID_ICOMScript
CONST	SEGMENT
_IID_ICOMScript DD 04f7ae600H
	DW	0142H
	DW	011d3H
	DB	09dH
	DB	0cfH
	DB	089H
	DB	0beH
	DB	04eH
	DB	0fbH
	DB	059H
	DB	01eH
CONST	ENDS
;	COMDAT _IID_IComMorph
CONST	SEGMENT
_IID_IComMorph DD 0322982e0H
	DW	0855H
	DW	011d3H
	DB	09dH
	DB	0cfH
	DB	0ddH
	DB	0fbH
	DB	03aH
	DB	0b0H
	DB	09eH
	DB	018H
CONST	ENDS
;	COMDAT _IID_IComMoveSize
CONST	SEGMENT
_IID_IComMoveSize DD 083c2d7a0H
	DW	0de6H
	DW	011d3H
	DB	09dH
	DB	0cfH
	DB	094H
	DB	023H
	DB	0f1H
	DB	0b2H
	DB	056H
	DB	01cH
CONST	ENDS
;	COMDAT _IID_ISkinButton
CONST	SEGMENT
_IID_ISkinButton DD 053fa8d40H
	DW	02cddH
	DW	011d3H
	DB	09dH
	DB	0d0H
	DB	0d3H
	DB	0cdH
	DB	040H
	DB	078H
	DB	098H
	DB	02aH
CONST	ENDS
;	COMDAT _CLSID_SkinObject
CONST	SEGMENT
_CLSID_SkinObject DD 06cfc9ba2H
	DW	0fe87H
	DW	011d2H
	DB	09dH
	DB	0cfH
	DB	0edH
	DB	029H
	DB	0faH
	DB	0feH
	DB	037H
	DB	01dH
CONST	ENDS
;	COMDAT _CLSID_COMScript
CONST	SEGMENT
_CLSID_COMScript DD 04f7ae601H
	DW	0142H
	DW	011d3H
	DB	09dH
	DB	0cfH
	DB	089H
	DB	0beH
	DB	04eH
	DB	0fbH
	DB	059H
	DB	01eH
CONST	ENDS
;	COMDAT _CLSID_ComMorph
CONST	SEGMENT
_CLSID_ComMorph DD 0322982e1H
	DW	0855H
	DW	011d3H
	DB	09dH
	DB	0cfH
	DB	0ddH
	DB	0fbH
	DB	03aH
	DB	0b0H
	DB	09eH
	DB	018H
CONST	ENDS
;	COMDAT _CLSID_ComMoveSize
CONST	SEGMENT
_CLSID_ComMoveSize DD 083c2d7a1H
	DW	0de6H
	DW	011d3H
	DB	09dH
	DB	0cfH
	DB	094H
	DB	023H
	DB	0f1H
	DB	0b2H
	DB	056H
	DB	01cH
CONST	ENDS
;	COMDAT _DIID__ISkinButtonEvents
CONST	SEGMENT
_DIID__ISkinButtonEvents DD 053fa8d42H
	DW	02cddH
	DW	011d3H
	DB	09dH
	DB	0d0H
	DB	0d3H
	DB	0cdH
	DB	040H
	DB	078H
	DB	098H
	DB	02aH
CONST	ENDS
;	COMDAT _CLSID_SkinButton
CONST	SEGMENT
_CLSID_SkinButton DD 053fa8d41H
	DW	02cddH
	DW	011d3H
	DB	09dH
	DB	0d0H
	DB	0d3H
	DB	0cdH
	DB	040H
	DB	078H
	DB	098H
	DB	02aH
CONST	ENDS
;	COMDAT _IID_ISkinPanel
CONST	SEGMENT
_IID_ISkinPanel DD 053fa8d46H
	DW	02cddH
	DW	011d3H
	DB	09dH
	DB	0d0H
	DB	0d3H
	DB	0cdH
	DB	040H
	DB	078H
	DB	098H
	DB	02aH
CONST	ENDS
;	COMDAT _DIID__ISkinPanelEvents
CONST	SEGMENT
_DIID__ISkinPanelEvents DD 053fa8d48H
	DW	02cddH
	DW	011d3H
	DB	09dH
	DB	0d0H
	DB	0d3H
	DB	0cdH
	DB	040H
	DB	078H
	DB	098H
	DB	02aH
CONST	ENDS
;	COMDAT _IID_ISkinLabel
CONST	SEGMENT
_IID_ISkinLabel DD 053fa8d49H
	DW	02cddH
	DW	011d3H
	DB	09dH
	DB	0d0H
	DB	0d3H
	DB	0cdH
	DB	040H
	DB	078H
	DB	098H
	DB	02aH
CONST	ENDS
;	COMDAT _CLSID_SkinPanel
CONST	SEGMENT
_CLSID_SkinPanel DD 053fa8d47H
	DW	02cddH
	DW	011d3H
	DB	09dH
	DB	0d0H
	DB	0d3H
	DB	0cdH
	DB	040H
	DB	078H
	DB	098H
	DB	02aH
CONST	ENDS
;	COMDAT _DIID__ISkinLabelEvents
CONST	SEGMENT
_DIID__ISkinLabelEvents DD 053fa8d4bH
	DW	02cddH
	DW	011d3H
	DB	09dH
	DB	0d0H
	DB	0d3H
	DB	0cdH
	DB	040H
	DB	078H
	DB	098H
	DB	02aH
CONST	ENDS
;	COMDAT _IID_ISkinScrollBar
CONST	SEGMENT
_IID_ISkinScrollBar DD 053fa8d4cH
	DW	02cddH
	DW	011d3H
	DB	09dH
	DB	0d0H
	DB	0d3H
	DB	0cdH
	DB	040H
	DB	078H
	DB	098H
	DB	02aH
CONST	ENDS
;	COMDAT _CLSID_SkinLabel
CONST	SEGMENT
_CLSID_SkinLabel DD 053fa8d4aH
	DW	02cddH
	DW	011d3H
	DB	09dH
	DB	0d0H
	DB	0d3H
	DB	0cdH
	DB	040H
	DB	078H
	DB	098H
	DB	02aH
CONST	ENDS
;	COMDAT _DIID__ISkinScrollBarEvents
CONST	SEGMENT
_DIID__ISkinScrollBarEvents DD 053fa8d4eH
	DW	02cddH
	DW	011d3H
	DB	09dH
	DB	0d0H
	DB	0d3H
	DB	0cdH
	DB	040H
	DB	078H
	DB	098H
	DB	02aH
CONST	ENDS
;	COMDAT _CLSID_SkinScrollBar
CONST	SEGMENT
_CLSID_SkinScrollBar DD 053fa8d4dH
	DW	02cddH
	DW	011d3H
	DB	09dH
	DB	0d0H
	DB	0d3H
	DB	0cdH
	DB	040H
	DB	078H
	DB	098H
	DB	02aH
CONST	ENDS
;	COMDAT _DIID__ISkinSourceEvents
CONST	SEGMENT
_DIID__ISkinSourceEvents DD 037deb788H
	DW	02d9bH
	DW	011d3H
	DB	09dH
	DB	0d0H
	DB	0c4H
	DB	023H
	DB	0e6H
	DB	054H
	DB	02eH
	DB	010H
CONST	ENDS
;	COMDAT _IID_ISkinStorage
CONST	SEGMENT
_IID_ISkinStorage DD 0ee11629bH
	DW	036dfH
	DW	011d3H
	DB	09dH
	DB	0d0H
	DB	089H
	DB	0d6H
	DB	0dbH
	DB	0bbH
	DB	0a8H
	DB	00H
CONST	ENDS
;	COMDAT _IID_ISkinPopup
CONST	SEGMENT
_IID_ISkinPopup DD 0ca478da0H
	DW	03920H
	DW	011d3H
	DB	09dH
	DB	0d0H
	DB	080H
	DB	067H
	DB	0e4H
	DB	0a0H
	DB	066H
	DB	03H
CONST	ENDS
;	COMDAT _IID_IComTransitions
CONST	SEGMENT
_IID_IComTransitions DD 03c01387aH
	DW	06ac2H
	DW	04ef1H
	DB	0bdH
	DB	0a2H
	DB	0ecH
	DB	05dH
	DB	026H
	DB	0e3H
	DB	0b0H
	DB	065H
CONST	ENDS
;	COMDAT _IID_ISkinEvent
CONST	SEGMENT
_IID_ISkinEvent DD 055dd814eH
	DW	0a1b7H
	DW	04808H
	DB	096H
	DB	025H
	DB	04fH
	DB	075H
	DB	0a3H
	DB	0faH
	DB	0d8H
	DB	0a7H
CONST	ENDS
;	COMDAT _IID_IComProcTextures
CONST	SEGMENT
_IID_IComProcTextures DD 0dce47f78H
	DW	08a6cH
	DW	04c6dH
	DB	0a6H
	DB	0f7H
	DB	08bH
	DB	0e4H
	DB	042H
	DB	071H
	DB	027H
	DB	0c4H
CONST	ENDS
;	COMDAT _IID_IComFilters
CONST	SEGMENT
_IID_IComFilters DD 0920ff31fH
	DW	0ca25H
	DW	0451aH
	DB	097H
	DB	038H
	DB	034H
	DB	044H
	DB	0fcH
	DB	020H
	DB	06bH
	DB	0ccH
CONST	ENDS
;	COMDAT _CLSID_SkinSource
CONST	SEGMENT
_CLSID_SkinSource DD 053fa8d44H
	DW	02cddH
	DW	011d3H
	DB	09dH
	DB	0d0H
	DB	0d3H
	DB	0cdH
	DB	040H
	DB	078H
	DB	098H
	DB	02aH
CONST	ENDS
;	COMDAT _CLSID_SkinStorage
CONST	SEGMENT
_CLSID_SkinStorage DD 0ee11629cH
	DW	036dfH
	DW	011d3H
	DB	09dH
	DB	0d0H
	DB	089H
	DB	0d6H
	DB	0dbH
	DB	0bbH
	DB	0a8H
	DB	00H
CONST	ENDS
;	COMDAT _CLSID_SkinPopup
CONST	SEGMENT
_CLSID_SkinPopup DD 0ca478da1H
	DW	03920H
	DW	011d3H
	DB	09dH
	DB	0d0H
	DB	080H
	DB	067H
	DB	0e4H
	DB	0a0H
	DB	066H
	DB	03H
CONST	ENDS
;	COMDAT _CLSID_ComTransitions
CONST	SEGMENT
_CLSID_ComTransitions DD 03c6d21d6H
	DW	07470H
	DW	04555H
	DB	0a8H
	DB	0fbH
	DB	06cH
	DB	022H
	DB	092H
	DB	0b3H
	DB	09cH
	DB	046H
CONST	ENDS
;	COMDAT _CLSID_SkinEvent
CONST	SEGMENT
_CLSID_SkinEvent DD 08f59c2a4H
	DW	04c01H
	DW	04451H
	DB	0beH
	DB	05bH
	DB	09H
	DB	078H
	DB	07bH
	DB	012H
	DB	03aH
	DB	05eH
CONST	ENDS
;	COMDAT _CLSID_ComProcTextures
CONST	SEGMENT
_CLSID_ComProcTextures DD 0bf1b5d50H
	DW	03c5cH
	DW	048ceH
	DB	0b9H
	DB	091H
	DB	0eH
	DB	086H
	DB	0d2H
	DB	06fH
	DB	06fH
	DB	05eH
CONST	ENDS
;	COMDAT _CLSID_ComFilters
CONST	SEGMENT
_CLSID_ComFilters DD 0c4d7e3c7H
	DW	03c26H
	DW	04052H
	DB	0a9H
	DB	093H
	DB	071H
	DB	0e5H
	DB	00H
	DB	0eaH
	DB	08cH
	DB	05H
CONST	ENDS
_DATA	SEGMENT
_?achFormStateData@?1??Create@CSkinForm@@QAEHPBDPAVCWnd@@I@Z@4PADA DB 0c2H
	DB	0e6H
	DB	02dH
	DB	097H
	DB	09H
	DB	08bH
	DB	0d2H
	DB	011H
	DB	0b6H
	DB	052H
	DB	0a1H
	DB	0fdH
	DB	06cH
	DB	0c3H
	DB	042H
	DB	060H
	DB	00H
	DB	03H
	DB	00H
	DB	00H
	DB	04fH
	DB	03H
	DB	00H
	DB	00H
	DB	04fH
	DB	03H
	DB	00H
	DB	00H
	DB	01H
	DB	00H
	DB	00H
	DB	00H
	DB	01H
	DB	08H
	DB	00H
	DB	02H
	DB	00H
	DB	00H
	DB	00H
	DB	00H
	DB	00H
	DB	08H
	DB	00H
	DB	0aH
	DB	00H
	DB	00H
	DB	00H
	DB	066H
	DB	00H
	DB	06fH
	DB	00H
	DB	072H
	DB	00H
	DB	06dH
	DB	00H
	DB	00H
	DB	00H
	DB	08H
	DB	00H
	DB	052H
	DB	00H
	DB	00H
	DB	00H
	DB	04dH
	DB	00H
	DB	061H
	DB	00H
	DB	072H
	DB	00H
	DB	06bH
	DB	00H
	DB	020H
	DB	00H
	DB	05aH
	DB	00H
	DB	065H
	DB	00H
	DB	063H
	DB	00H
	DB	068H
	DB	00H
	DB	069H
	DB	00H
	DB	065H
	DB	00H
	DB	06cH
	DB	00H
	DB	02cH
	DB	00H
	DB	020H
	DB	00H
	DB	043H
	DB	00H
	DB	06fH
	DB	00H
	DB	064H
	DB	00H
	DB	065H
	DB	00H
	DB	06dH
	DB	00H
	DB	061H
	DB	00H
	DB	073H
	DB	00H
	DB	074H
	DB	00H
	DB	065H
	DB	00H
	DB	072H
	DB	00H
	DB	073H
	DB	00H
	DB	020H
	DB	00H
	DB	059H
	DB	00H
	DB	06fH
	DB	00H
	DB	073H
	DB	00H
	DB	065H
	DB	00H
	DB	06dH
	DB	00H
	DB	069H
	DB	00H
	DB	074H
	DB	00H
	DB	065H
	DB	00H
	DB	02cH
	DB	00H
	DB	020H
	DB	00H
	DB	049H
	DB	00H
	DB	06eH
	DB	00H
	DB	063H
	DB	00H
	DB	02eH
	DB	00H
	DB	00H
	DB	00H
	DB	0bH
	DB	00H
	DB	01H
	DB	00H
	DB	0bH
	DB	00H
	DB	01H
	DB	00H
	DB	09H
	DB	00H
	DB	00H
	DB	00H
	DB	00H
	DB	00H
	DB	00H
	DB	00H
	DB	00H
	DB	00H
	DB	00H
	DB	00H
	DB	00H
	DB	00H
	DB	00H
	DB	00H
	DB	00H
	DB	00H
	DB	02H
	DB	00H
	DB	00H
	DB	00H
	DB	087H
	DB	0d6H
	DB	012H
	DB	00H
	DB	00H
	DB	03H
	DB	00H
	DB	00H
	DB	0aH
	DB	00H
	DB	00H
	DB	00H
	DB	04H
	DB	00H
	DB	00H
	DB	00H
	DB	0ffH
	DB	0ffH
	DB	0ffH
	DB	0ffH
	DB	04H
	DB	00H
	DB	00H
	DB	00H
	DB	0ffH
	DB	0ffH
	DB	0ffH
	DB	0ffH
	DB	04H
	DB	00H
	DB	00H
	DB	00H
	DB	00H
	DB	00H
	DB	00H
	DB	00H
	DB	04H
	DB	00H
	DB	00H
	DB	00H
	DB	00H
	DB	00H
	DB	00H
	DB	00H
	DB	04H
	DB	00H
	DB	00H
	DB	00H
	DB	00H
	DB	00H
	DB	00H
	DB	00H
	DB	04H
	DB	00H
	DB	00H
	DB	00H
	DB	01H
	DB	00H
	DB	00H
	DB	00H
	DB	04H
	DB	00H
	DB	00H
	DB	00H
	DB	01H
	DB	00H
	DB	00H
	DB	00H
	DB	04H
	DB	00H
	DB	00H
	DB	00H
	DB	01H
	DB	00H
	DB	00H
	DB	00H
	DB	04H
	DB	00H
	DB	00H
	DB	00H
	DB	00H
	DB	00H
	DB	00H
	DB	00H
	DB	04H
	DB	00H
	DB	00H
	DB	00H
	DB	01H
	DB	00H
	DB	00H
	DB	00H
_DATA	ENDS
PUBLIC	?DoDataExchange@CWnd@@MAEXPAVCDataExchange@@@Z	; CWnd::DoDataExchange
PUBLIC	?BeginModalState@CWnd@@UAEXXZ			; CWnd::BeginModalState
PUBLIC	?EndModalState@CWnd@@UAEXXZ			; CWnd::EndModalState
PUBLIC	??0?$_com_ptr_t@V?$_com_IIID@UISkinForm@@$1?_GUID_972de6c1_8b09_11d2_b652_a1fd6cc34260@@3U__s_GUID@@A@@@@QAE@XZ ; _com_ptr_t<_com_IIID<ISkinForm,&_GUID_972de6c1_8b09_11d2_b652_a1fd6cc34260> >::_com_ptr_t<_com_IIID<ISkinForm,&_GUID_972de6c1_8b09_11d2_b652_a1fd6cc34260> >
PUBLIC	??1?$_com_ptr_t@V?$_com_IIID@UISkinForm@@$1?_GUID_972de6c1_8b09_11d2_b652_a1fd6cc34260@@3U__s_GUID@@A@@@@QAE@XZ ; _com_ptr_t<_com_IIID<ISkinForm,&_GUID_972de6c1_8b09_11d2_b652_a1fd6cc34260> >::~_com_ptr_t<_com_IIID<ISkinForm,&_GUID_972de6c1_8b09_11d2_b652_a1fd6cc34260> >
PUBLIC	?Serialize@CObject@@UAEXAAVCArchive@@@Z		; CObject::Serialize
PUBLIC	?AssertValid@CObject@@UBEXXZ			; CObject::AssertValid
PUBLIC	?Dump@CObject@@UBEXAAVCDumpContext@@@Z		; CObject::Dump
PUBLIC	??0CSkinForm@@QAE@XZ				; CSkinForm::CSkinForm
PUBLIC	??_7CSkinForm@@6B@				; CSkinForm::`vftable'
PUBLIC	??_GCSkinForm@@UAEPAXI@Z			; CSkinForm::`scalar deleting destructor'
PUBLIC	??_ECSkinForm@@UAEPAXI@Z			; CSkinForm::`vector deleting destructor'
EXTRN	?OnCmdMsg@CCmdTarget@@UAEHIHPAXPAUAFX_CMDHANDLERINFO@@@Z:NEAR ; CCmdTarget::OnCmdMsg
EXTRN	?IsInvokeAllowed@CCmdTarget@@UAEHJ@Z:NEAR	; CCmdTarget::IsInvokeAllowed
EXTRN	?GetDispatchIID@CCmdTarget@@UAEHPAU_GUID@@@Z:NEAR ; CCmdTarget::GetDispatchIID
EXTRN	?GetTypeInfoCount@CCmdTarget@@UAEIXZ:NEAR	; CCmdTarget::GetTypeInfoCount
EXTRN	?GetTypeLibCache@CCmdTarget@@UAEPAVCTypeLibCache@@XZ:NEAR ; CCmdTarget::GetTypeLibCache
EXTRN	?GetTypeLib@CCmdTarget@@UAEJKPAPAUITypeLib@@@Z:NEAR ; CCmdTarget::GetTypeLib
EXTRN	?GetCommandMap@CCmdTarget@@MBEPBUAFX_OLECMDMAP@@XZ:NEAR ; CCmdTarget::GetCommandMap
EXTRN	__except_list:DWORD
EXTRN	___CxxFrameHandler:NEAR
EXTRN	?GetDispatchMap@CCmdTarget@@MBEPBUAFX_DISPMAP@@XZ:NEAR ; CCmdTarget::GetDispatchMap
EXTRN	?GetConnectionMap@CCmdTarget@@MBEPBUAFX_CONNECTIONMAP@@XZ:NEAR ; CCmdTarget::GetConnectionMap
EXTRN	?GetInterfaceMap@CCmdTarget@@MBEPBUAFX_INTERFACEMAP@@XZ:NEAR ; CCmdTarget::GetInterfaceMap
EXTRN	?GetEventSinkMap@CCmdTarget@@MBEPBUAFX_EVENTSINKMAP@@XZ:NEAR ; CCmdTarget::GetEventSinkMap
EXTRN	?OnCreateAggregates@CCmdTarget@@UAEHXZ:NEAR	; CCmdTarget::OnCreateAggregates
EXTRN	?GetInterfaceHook@CCmdTarget@@UAEPAUIUnknown@@PBX@Z:NEAR ; CCmdTarget::GetInterfaceHook
EXTRN	?GetSuperWndProcAddr@CWnd@@MAEPAP6GJPAUHWND__@@IIJ@ZXZ:NEAR ; CWnd::GetSuperWndProcAddr
EXTRN	?PreTranslateMessage@CWnd@@UAEHPAUtagMSG@@@Z:NEAR ; CWnd::PreTranslateMessage
EXTRN	?OnAmbientProperty@CWnd@@UAEHPAVCOleControlSite@@JPAUtagVARIANT@@@Z:NEAR ; CWnd::OnAmbientProperty
EXTRN	?WindowProc@CWnd@@MAEJIIJ@Z:NEAR		; CWnd::WindowProc
EXTRN	?OnWndMsg@CWnd@@MAEHIIJPAJ@Z:NEAR		; CWnd::OnWndMsg
EXTRN	?DefWindowProcA@CWnd@@MAEJIIJ@Z:NEAR		; CWnd::DefWindowProcA
EXTRN	?PostNcDestroy@CWnd@@MAEXXZ:NEAR		; CWnd::PostNcDestroy
EXTRN	??0CSkinObj@@QAE@XZ:NEAR			; CSkinObj::CSkinObj
EXTRN	?OnChildNotify@CWnd@@MAEHIIJPAJ@Z:NEAR		; CWnd::OnChildNotify
EXTRN	??1CSkinObj@@UAE@XZ:NEAR			; CSkinObj::~CSkinObj
EXTRN	?GetExtraConnectionPoints@CCmdTarget@@MAEHPAVCPtrArray@@@Z:NEAR ; CCmdTarget::GetExtraConnectionPoints
EXTRN	??1CWnd@@UAE@XZ:NEAR				; CWnd::~CWnd
EXTRN	?CheckAutoCenter@CWnd@@UAEHXZ:NEAR		; CWnd::CheckAutoCenter
EXTRN	?GetConnectionHook@CCmdTarget@@MAEPAUIConnectionPoint@@ABU_GUID@@@Z:NEAR ; CCmdTarget::GetConnectionHook
EXTRN	__imp_??0?$basic_string@DU?$char_traits@D@std@@V?$allocator@D@2@@std@@QAE@ABV?$allocator@D@1@@Z:NEAR
EXTRN	?IsFrameWnd@CWnd@@UBEHXZ:NEAR			; CWnd::IsFrameWnd
EXTRN	?OnFinalRelease@CWnd@@UAEXXZ:NEAR		; CWnd::OnFinalRelease
EXTRN	?SetOccDialogInfo@CWnd@@MAEHPAU_AFX_OCC_DIALOG_INFO@@@Z:NEAR ; CWnd::SetOccDialogInfo
EXTRN	?GetMessageMap@CWnd@@MBEPBUAFX_MSGMAP@@XZ:NEAR	; CWnd::GetMessageMap
EXTRN	?GetRuntimeClass@CWnd@@UBEPAUCRuntimeClass@@XZ:NEAR ; CWnd::GetRuntimeClass
EXTRN	??0CWnd@@QAE@XZ:NEAR				; CWnd::CWnd
EXTRN	?PreSubclassWindow@CWnd@@UAEXXZ:NEAR		; CWnd::PreSubclassWindow
EXTRN	?Create@CWnd@@UAEHPBD0KABUtagRECT@@PAV1@IPAUCCreateContext@@@Z:NEAR ; CWnd::Create
EXTRN	?DestroyWindow@CWnd@@UAEHXZ:NEAR		; CWnd::DestroyWindow
EXTRN	?PreCreateWindow@CWnd@@UAEHAAUtagCREATESTRUCTA@@@Z:NEAR ; CWnd::PreCreateWindow
EXTRN	?CalcWindowRect@CWnd@@UAEXPAUtagRECT@@I@Z:NEAR	; CWnd::CalcWindowRect
EXTRN	?OnToolHitTest@CWnd@@UBEHVCPoint@@PAUtagTOOLINFOA@@@Z:NEAR ; CWnd::OnToolHitTest
EXTRN	?GetScrollBarCtrl@CWnd@@UBEPAVCScrollBar@@H@Z:NEAR ; CWnd::GetScrollBarCtrl
EXTRN	?WinHelpA@CWnd@@UAEXKI@Z:NEAR			; CWnd::WinHelpA
EXTRN	?ContinueModal@CWnd@@UAEHXZ:NEAR		; CWnd::ContinueModal
EXTRN	?EndModalLoop@CWnd@@UAEXH@Z:NEAR		; CWnd::EndModalLoop
EXTRN	?OnCommand@CWnd@@MAEHIJ@Z:NEAR			; CWnd::OnCommand
EXTRN	?OnNotify@CWnd@@MAEHIJPAJ@Z:NEAR		; CWnd::OnNotify
;	COMDAT ??_7CSkinForm@@6B@
; File \\vboxsrv\vagrant\DnGClientSource\clientwork\Interp\skinform.cpp
CONST	SEGMENT
??_7CSkinForm@@6B@ DD FLAT:?GetRuntimeClass@CWnd@@UBEPAUCRuntimeClass@@XZ ; CSkinForm::`vftable'
	DD	FLAT:??_ECSkinForm@@UAEPAXI@Z
	DD	FLAT:?Serialize@CObject@@UAEXAAVCArchive@@@Z
	DD	FLAT:?AssertValid@CObject@@UBEXXZ
	DD	FLAT:?Dump@CObject@@UBEXAAVCDumpContext@@@Z
	DD	FLAT:?OnCmdMsg@CCmdTarget@@UAEHIHPAXPAUAFX_CMDHANDLERINFO@@@Z
	DD	FLAT:?OnFinalRelease@CWnd@@UAEXXZ
	DD	FLAT:?IsInvokeAllowed@CCmdTarget@@UAEHJ@Z
	DD	FLAT:?GetDispatchIID@CCmdTarget@@UAEHPAU_GUID@@@Z
	DD	FLAT:?GetTypeInfoCount@CCmdTarget@@UAEIXZ
	DD	FLAT:?GetTypeLibCache@CCmdTarget@@UAEPAVCTypeLibCache@@XZ
	DD	FLAT:?GetTypeLib@CCmdTarget@@UAEJKPAPAUITypeLib@@@Z
	DD	FLAT:?GetMessageMap@CWnd@@MBEPBUAFX_MSGMAP@@XZ
	DD	FLAT:?GetCommandMap@CCmdTarget@@MBEPBUAFX_OLECMDMAP@@XZ
	DD	FLAT:?GetDispatchMap@CCmdTarget@@MBEPBUAFX_DISPMAP@@XZ
	DD	FLAT:?GetConnectionMap@CCmdTarget@@MBEPBUAFX_CONNECTIONMAP@@XZ
	DD	FLAT:?GetInterfaceMap@CCmdTarget@@MBEPBUAFX_INTERFACEMAP@@XZ
	DD	FLAT:?GetEventSinkMap@CCmdTarget@@MBEPBUAFX_EVENTSINKMAP@@XZ
	DD	FLAT:?OnCreateAggregates@CCmdTarget@@UAEHXZ
	DD	FLAT:?GetInterfaceHook@CCmdTarget@@UAEPAUIUnknown@@PBX@Z
	DD	FLAT:?GetExtraConnectionPoints@CCmdTarget@@MAEHPAVCPtrArray@@@Z
	DD	FLAT:?GetConnectionHook@CCmdTarget@@MAEPAUIConnectionPoint@@ABU_GUID@@@Z
	DD	FLAT:?PreSubclassWindow@CWnd@@UAEXXZ
	DD	FLAT:?Create@CWnd@@UAEHPBD0KABUtagRECT@@PAV1@IPAUCCreateContext@@@Z
	DD	FLAT:?DestroyWindow@CWnd@@UAEHXZ
	DD	FLAT:?PreCreateWindow@CWnd@@UAEHAAUtagCREATESTRUCTA@@@Z
	DD	FLAT:?CalcWindowRect@CWnd@@UAEXPAUtagRECT@@I@Z
	DD	FLAT:?OnToolHitTest@CWnd@@UBEHVCPoint@@PAUtagTOOLINFOA@@@Z
	DD	FLAT:?GetScrollBarCtrl@CWnd@@UBEPAVCScrollBar@@H@Z
	DD	FLAT:?WinHelpA@CWnd@@UAEXKI@Z
	DD	FLAT:?ContinueModal@CWnd@@UAEHXZ
	DD	FLAT:?EndModalLoop@CWnd@@UAEXH@Z
	DD	FLAT:?OnCommand@CWnd@@MAEHIJ@Z
	DD	FLAT:?OnNotify@CWnd@@MAEHIJPAJ@Z
	DD	FLAT:?GetSuperWndProcAddr@CWnd@@MAEPAP6GJPAUHWND__@@IIJ@ZXZ
	DD	FLAT:?DoDataExchange@CWnd@@MAEXPAVCDataExchange@@@Z
	DD	FLAT:?BeginModalState@CWnd@@UAEXXZ
	DD	FLAT:?EndModalState@CWnd@@UAEXXZ
	DD	FLAT:?PreTranslateMessage@CWnd@@UAEHPAUtagMSG@@@Z
	DD	FLAT:?OnAmbientProperty@CWnd@@UAEHPAVCOleControlSite@@JPAUtagVARIANT@@@Z
	DD	FLAT:?WindowProc@CWnd@@MAEJIIJ@Z
	DD	FLAT:?OnWndMsg@CWnd@@MAEHIIJPAJ@Z
	DD	FLAT:?DefWindowProcA@CWnd@@MAEJIIJ@Z
	DD	FLAT:?PostNcDestroy@CWnd@@MAEXXZ
	DD	FLAT:?OnChildNotify@CWnd@@MAEHIIJPAJ@Z
	DD	FLAT:?CheckAutoCenter@CWnd@@UAEHXZ
	DD	FLAT:?IsFrameWnd@CWnd@@UBEHXZ
	DD	FLAT:?SetOccDialogInfo@CWnd@@MAEHPAU_AFX_OCC_DIALOG_INFO@@@Z
CONST	ENDS
xdata$x	SEGMENT
$T118979 DD	019930520H
	DD	03H
	DD	FLAT:$T118982
	DD	2 DUP(00H)
	DD	2 DUP(00H)
	ORG $+4
$T118982 DD	0ffffffffH
	DD	FLAT:$L118972
	DD	00H
	DD	FLAT:$L118973
	DD	01H
	DD	FLAT:$L118974
xdata$x	ENDS
_TEXT	SEGMENT
_this$ = -20
$T118971 = -16
__$EHRec$ = -12
??0CSkinForm@@QAE@XZ PROC NEAR				; CSkinForm::CSkinForm

; 19   : {

  00000	55		 push	 ebp
  00001	8b ec		 mov	 ebp, esp
  00003	6a ff		 push	 -1
  00005	68 00 00 00 00	 push	 $L118980
  0000a	64 a1 00 00 00
	00		 mov	 eax, DWORD PTR fs:__except_list
  00010	50		 push	 eax
  00011	64 89 25 00 00
	00 00		 mov	 DWORD PTR fs:__except_list, esp
  00018	83 ec 08	 sub	 esp, 8
  0001b	89 4d ec	 mov	 DWORD PTR _this$[ebp], ecx
  0001e	8b 4d ec	 mov	 ecx, DWORD PTR _this$[ebp]
  00021	e8 00 00 00 00	 call	 ??0CWnd@@QAE@XZ		; CWnd::CWnd
  00026	c7 45 fc 00 00
	00 00		 mov	 DWORD PTR __$EHRec$[ebp+8], 0
  0002d	8b 4d ec	 mov	 ecx, DWORD PTR _this$[ebp]
  00030	83 c1 40	 add	 ecx, 64			; 00000040H
  00033	e8 00 00 00 00	 call	 ??0?$_com_ptr_t@V?$_com_IIID@UISkinForm@@$1?_GUID_972de6c1_8b09_11d2_b652_a1fd6cc34260@@3U__s_GUID@@A@@@@QAE@XZ ; _com_ptr_t<_com_IIID<ISkinForm,&_GUID_972de6c1_8b09_11d2_b652_a1fd6cc34260> >::_com_ptr_t<_com_IIID<ISkinForm,&_GUID_972de6c1_8b09_11d2_b652_a1fd6cc34260> >
  00038	c6 45 fc 01	 mov	 BYTE PTR __$EHRec$[ebp+8], 1
  0003c	8b 4d ec	 mov	 ecx, DWORD PTR _this$[ebp]
  0003f	83 c1 44	 add	 ecx, 68			; 00000044H
  00042	e8 00 00 00 00	 call	 ??0CSkinObj@@QAE@XZ	; CSkinObj::CSkinObj
  00047	c6 45 fc 02	 mov	 BYTE PTR __$EHRec$[ebp+8], 2
  0004b	8d 45 f0	 lea	 eax, DWORD PTR $T118971[ebp]
  0004e	50		 push	 eax
  0004f	8b 4d ec	 mov	 ecx, DWORD PTR _this$[ebp]
  00052	83 c1 4c	 add	 ecx, 76			; 0000004cH
  00055	ff 15 00 00 00
	00		 call	 DWORD PTR __imp_??0?$basic_string@DU?$char_traits@D@std@@V?$allocator@D@2@@std@@QAE@ABV?$allocator@D@1@@Z
  0005b	8b 4d ec	 mov	 ecx, DWORD PTR _this$[ebp]
  0005e	c7 01 00 00 00
	00		 mov	 DWORD PTR [ecx], OFFSET FLAT:??_7CSkinForm@@6B@ ; CSkinForm::`vftable'

; 20   : }

  00064	c7 45 fc ff ff
	ff ff		 mov	 DWORD PTR __$EHRec$[ebp+8], -1
  0006b	8b 45 ec	 mov	 eax, DWORD PTR _this$[ebp]
  0006e	8b 4d f4	 mov	 ecx, DWORD PTR __$EHRec$[ebp]
  00071	64 89 0d 00 00
	00 00		 mov	 DWORD PTR fs:__except_list, ecx
  00078	8b e5		 mov	 esp, ebp
  0007a	5d		 pop	 ebp
  0007b	c3		 ret	 0
_TEXT	ENDS
text$x	SEGMENT
$L118972:
  00000	8b 4d ec	 mov	 ecx, DWORD PTR _this$[ebp]
  00003	e8 00 00 00 00	 call	 ??1CWnd@@UAE@XZ		; CWnd::~CWnd
  00008	c3		 ret	 0
$L118973:
  00009	8b 4d ec	 mov	 ecx, DWORD PTR _this$[ebp]
  0000c	83 c1 40	 add	 ecx, 64			; 00000040H
  0000f	e8 00 00 00 00	 call	 ??1?$_com_ptr_t@V?$_com_IIID@UISkinForm@@$1?_GUID_972de6c1_8b09_11d2_b652_a1fd6cc34260@@3U__s_GUID@@A@@@@QAE@XZ ; _com_ptr_t<_com_IIID<ISkinForm,&_GUID_972de6c1_8b09_11d2_b652_a1fd6cc34260> >::~_com_ptr_t<_com_IIID<ISkinForm,&_GUID_972de6c1_8b09_11d2_b652_a1fd6cc34260> >
  00014	c3		 ret	 0
$L118974:
  00015	8b 4d ec	 mov	 ecx, DWORD PTR _this$[ebp]
  00018	83 c1 44	 add	 ecx, 68			; 00000044H
  0001b	e8 00 00 00 00	 call	 ??1CSkinObj@@UAE@XZ	; CSkinObj::~CSkinObj
  00020	c3		 ret	 0
$L118980:
  00021	b8 00 00 00 00	 mov	 eax, OFFSET FLAT:$T118979
  00026	e9 00 00 00 00	 jmp	 ___CxxFrameHandler
text$x	ENDS
??0CSkinForm@@QAE@XZ ENDP				; CSkinForm::CSkinForm
PUBLIC	??3CObject@@SGXPAX@Z				; CObject::operator delete
PUBLIC	??1CSkinForm@@UAE@XZ				; CSkinForm::~CSkinForm
;	COMDAT ??_GCSkinForm@@UAEPAXI@Z
_TEXT	SEGMENT
___flags$ = 8
_this$ = -4
??_GCSkinForm@@UAEPAXI@Z PROC NEAR			; CSkinForm::`scalar deleting destructor', COMDAT
  00000	55		 push	 ebp
  00001	8b ec		 mov	 ebp, esp
  00003	51		 push	 ecx
  00004	89 4d fc	 mov	 DWORD PTR _this$[ebp], ecx
  00007	8b 4d fc	 mov	 ecx, DWORD PTR _this$[ebp]
  0000a	e8 00 00 00 00	 call	 ??1CSkinForm@@UAE@XZ	; CSkinForm::~CSkinForm
  0000f	8b 45 08	 mov	 eax, DWORD PTR ___flags$[ebp]
  00012	83 e0 01	 and	 eax, 1
  00015	85 c0		 test	 eax, eax
  00017	74 09		 je	 SHORT $L113721
  00019	8b 4d fc	 mov	 ecx, DWORD PTR _this$[ebp]
  0001c	51		 push	 ecx
  0001d	e8 00 00 00 00	 call	 ??3CObject@@SGXPAX@Z	; CObject::operator delete
$L113721:
  00022	8b 45 fc	 mov	 eax, DWORD PTR _this$[ebp]
  00025	8b e5		 mov	 esp, ebp
  00027	5d		 pop	 ebp
  00028	c2 04 00	 ret	 4
??_GCSkinForm@@UAEPAXI@Z ENDP				; CSkinForm::`scalar deleting destructor'
_TEXT	ENDS
PUBLIC	??0CSkinForm@@QAE@PBDPAVCWnd@@I@Z		; CSkinForm::CSkinForm
PUBLIC	?Create@CSkinForm@@QAEHPBDPAVCWnd@@I@Z		; CSkinForm::Create
EXTRN	__imp_??1?$basic_string@DU?$char_traits@D@std@@V?$allocator@D@2@@std@@QAE@XZ:NEAR
xdata$x	SEGMENT
$T118992 DD	019930520H
	DD	04H
	DD	FLAT:$T118994
	DD	2 DUP(00H)
	DD	2 DUP(00H)
	ORG $+4
$T118994 DD	0ffffffffH
	DD	FLAT:$L118987
	DD	00H
	DD	FLAT:$L118988
	DD	01H
	DD	FLAT:$L118989
	DD	02H
	DD	FLAT:$L118990
xdata$x	ENDS
_TEXT	SEGMENT
_lpszSkinPath$ = 8
_p_parentWnd$ = 12
_n_id$ = 16
_this$ = -20
$T118986 = -16
__$EHRec$ = -12
??0CSkinForm@@QAE@PBDPAVCWnd@@I@Z PROC NEAR		; CSkinForm::CSkinForm

; 23   : {

  0007c	55		 push	 ebp
  0007d	8b ec		 mov	 ebp, esp
  0007f	6a ff		 push	 -1
  00081	68 00 00 00 00	 push	 $L118993
  00086	64 a1 00 00 00
	00		 mov	 eax, DWORD PTR fs:__except_list
  0008c	50		 push	 eax
  0008d	64 89 25 00 00
	00 00		 mov	 DWORD PTR fs:__except_list, esp
  00094	83 ec 08	 sub	 esp, 8
  00097	89 4d ec	 mov	 DWORD PTR _this$[ebp], ecx
  0009a	8b 4d ec	 mov	 ecx, DWORD PTR _this$[ebp]
  0009d	e8 00 00 00 00	 call	 ??0CWnd@@QAE@XZ		; CWnd::CWnd
  000a2	c7 45 fc 00 00
	00 00		 mov	 DWORD PTR __$EHRec$[ebp+8], 0
  000a9	8b 4d ec	 mov	 ecx, DWORD PTR _this$[ebp]
  000ac	83 c1 40	 add	 ecx, 64			; 00000040H
  000af	e8 00 00 00 00	 call	 ??0?$_com_ptr_t@V?$_com_IIID@UISkinForm@@$1?_GUID_972de6c1_8b09_11d2_b652_a1fd6cc34260@@3U__s_GUID@@A@@@@QAE@XZ ; _com_ptr_t<_com_IIID<ISkinForm,&_GUID_972de6c1_8b09_11d2_b652_a1fd6cc34260> >::_com_ptr_t<_com_IIID<ISkinForm,&_GUID_972de6c1_8b09_11d2_b652_a1fd6cc34260> >
  000b4	c6 45 fc 01	 mov	 BYTE PTR __$EHRec$[ebp+8], 1
  000b8	8b 4d ec	 mov	 ecx, DWORD PTR _this$[ebp]
  000bb	83 c1 44	 add	 ecx, 68			; 00000044H
  000be	e8 00 00 00 00	 call	 ??0CSkinObj@@QAE@XZ	; CSkinObj::CSkinObj
  000c3	c6 45 fc 02	 mov	 BYTE PTR __$EHRec$[ebp+8], 2
  000c7	8d 45 f0	 lea	 eax, DWORD PTR $T118986[ebp]
  000ca	50		 push	 eax
  000cb	8b 4d ec	 mov	 ecx, DWORD PTR _this$[ebp]
  000ce	83 c1 4c	 add	 ecx, 76			; 0000004cH
  000d1	ff 15 00 00 00
	00		 call	 DWORD PTR __imp_??0?$basic_string@DU?$char_traits@D@std@@V?$allocator@D@2@@std@@QAE@ABV?$allocator@D@1@@Z
  000d7	c6 45 fc 03	 mov	 BYTE PTR __$EHRec$[ebp+8], 3
  000db	8b 4d ec	 mov	 ecx, DWORD PTR _this$[ebp]
  000de	c7 01 00 00 00
	00		 mov	 DWORD PTR [ecx], OFFSET FLAT:??_7CSkinForm@@6B@ ; CSkinForm::`vftable'

; 24   : 	Create ( lpszSkinPath, p_parentWnd, n_id );

  000e4	8b 55 10	 mov	 edx, DWORD PTR _n_id$[ebp]
  000e7	52		 push	 edx
  000e8	8b 45 0c	 mov	 eax, DWORD PTR _p_parentWnd$[ebp]
  000eb	50		 push	 eax
  000ec	8b 4d 08	 mov	 ecx, DWORD PTR _lpszSkinPath$[ebp]
  000ef	51		 push	 ecx
  000f0	8b 4d ec	 mov	 ecx, DWORD PTR _this$[ebp]
  000f3	e8 00 00 00 00	 call	 ?Create@CSkinForm@@QAEHPBDPAVCWnd@@I@Z ; CSkinForm::Create

; 25   : }

  000f8	c7 45 fc ff ff
	ff ff		 mov	 DWORD PTR __$EHRec$[ebp+8], -1
  000ff	8b 45 ec	 mov	 eax, DWORD PTR _this$[ebp]
  00102	8b 4d f4	 mov	 ecx, DWORD PTR __$EHRec$[ebp]
  00105	64 89 0d 00 00
	00 00		 mov	 DWORD PTR fs:__except_list, ecx
  0010c	8b e5		 mov	 esp, ebp
  0010e	5d		 pop	 ebp
  0010f	c2 0c 00	 ret	 12			; 0000000cH
_TEXT	ENDS
text$x	SEGMENT
$L118987:
  0002b	8b 4d ec	 mov	 ecx, DWORD PTR _this$[ebp]
  0002e	e8 00 00 00 00	 call	 ??1CWnd@@UAE@XZ		; CWnd::~CWnd
  00033	c3		 ret	 0
$L118988:
  00034	8b 4d ec	 mov	 ecx, DWORD PTR _this$[ebp]
  00037	83 c1 40	 add	 ecx, 64			; 00000040H
  0003a	e8 00 00 00 00	 call	 ??1?$_com_ptr_t@V?$_com_IIID@UISkinForm@@$1?_GUID_972de6c1_8b09_11d2_b652_a1fd6cc34260@@3U__s_GUID@@A@@@@QAE@XZ ; _com_ptr_t<_com_IIID<ISkinForm,&_GUID_972de6c1_8b09_11d2_b652_a1fd6cc34260> >::~_com_ptr_t<_com_IIID<ISkinForm,&_GUID_972de6c1_8b09_11d2_b652_a1fd6cc34260> >
  0003f	c3		 ret	 0
$L118989:
  00040	8b 4d ec	 mov	 ecx, DWORD PTR _this$[ebp]
  00043	83 c1 44	 add	 ecx, 68			; 00000044H
  00046	e8 00 00 00 00	 call	 ??1CSkinObj@@UAE@XZ	; CSkinObj::~CSkinObj
  0004b	c3		 ret	 0
$L118990:
  0004c	8b 4d ec	 mov	 ecx, DWORD PTR _this$[ebp]
  0004f	83 c1 4c	 add	 ecx, 76			; 0000004cH
  00052	ff 15 00 00 00
	00		 call	 DWORD PTR __imp_??1?$basic_string@DU?$char_traits@D@std@@V?$allocator@D@2@@std@@QAE@XZ
  00058	c3		 ret	 0
$L118993:
  00059	b8 00 00 00 00	 mov	 eax, OFFSET FLAT:$T118992
  0005e	e9 00 00 00 00	 jmp	 ___CxxFrameHandler
text$x	ENDS
??0CSkinForm@@QAE@PBDPAVCWnd@@I@Z ENDP			; CSkinForm::CSkinForm
xdata$x	SEGMENT
$T119001 DD	019930520H
	DD	03H
	DD	FLAT:$T119003
	DD	2 DUP(00H)
	DD	2 DUP(00H)
	ORG $+4
$T119003 DD	0ffffffffH
	DD	FLAT:$L118996
	DD	00H
	DD	FLAT:$L118997
	DD	01H
	DD	FLAT:$L118998
xdata$x	ENDS
_TEXT	SEGMENT
_this$ = -16
__$EHRec$ = -12
??1CSkinForm@@UAE@XZ PROC NEAR				; CSkinForm::~CSkinForm

; 28   : {

  00112	55		 push	 ebp
  00113	8b ec		 mov	 ebp, esp
  00115	6a ff		 push	 -1
  00117	68 00 00 00 00	 push	 $L119002
  0011c	64 a1 00 00 00
	00		 mov	 eax, DWORD PTR fs:__except_list
  00122	50		 push	 eax
  00123	64 89 25 00 00
	00 00		 mov	 DWORD PTR fs:__except_list, esp
  0012a	51		 push	 ecx
  0012b	89 4d f0	 mov	 DWORD PTR _this$[ebp], ecx
  0012e	8b 45 f0	 mov	 eax, DWORD PTR _this$[ebp]
  00131	c7 00 00 00 00
	00		 mov	 DWORD PTR [eax], OFFSET FLAT:??_7CSkinForm@@6B@ ; CSkinForm::`vftable'
  00137	c7 45 fc 02 00
	00 00		 mov	 DWORD PTR __$EHRec$[ebp+8], 2

; 29   : }

  0013e	8b 4d f0	 mov	 ecx, DWORD PTR _this$[ebp]
  00141	83 c1 4c	 add	 ecx, 76			; 0000004cH
  00144	ff 15 00 00 00
	00		 call	 DWORD PTR __imp_??1?$basic_string@DU?$char_traits@D@std@@V?$allocator@D@2@@std@@QAE@XZ
  0014a	c6 45 fc 01	 mov	 BYTE PTR __$EHRec$[ebp+8], 1
  0014e	8b 4d f0	 mov	 ecx, DWORD PTR _this$[ebp]
  00151	83 c1 44	 add	 ecx, 68			; 00000044H
  00154	e8 00 00 00 00	 call	 ??1CSkinObj@@UAE@XZ	; CSkinObj::~CSkinObj
  00159	c6 45 fc 00	 mov	 BYTE PTR __$EHRec$[ebp+8], 0
  0015d	8b 4d f0	 mov	 ecx, DWORD PTR _this$[ebp]
  00160	83 c1 40	 add	 ecx, 64			; 00000040H
  00163	e8 00 00 00 00	 call	 ??1?$_com_ptr_t@V?$_com_IIID@UISkinForm@@$1?_GUID_972de6c1_8b09_11d2_b652_a1fd6cc34260@@3U__s_GUID@@A@@@@QAE@XZ ; _com_ptr_t<_com_IIID<ISkinForm,&_GUID_972de6c1_8b09_11d2_b652_a1fd6cc34260> >::~_com_ptr_t<_com_IIID<ISkinForm,&_GUID_972de6c1_8b09_11d2_b652_a1fd6cc34260> >
  00168	c7 45 fc ff ff
	ff ff		 mov	 DWORD PTR __$EHRec$[ebp+8], -1
  0016f	8b 4d f0	 mov	 ecx, DWORD PTR _this$[ebp]
  00172	e8 00 00 00 00	 call	 ??1CWnd@@UAE@XZ		; CWnd::~CWnd
  00177	8b 4d f4	 mov	 ecx, DWORD PTR __$EHRec$[ebp]
  0017a	64 89 0d 00 00
	00 00		 mov	 DWORD PTR fs:__except_list, ecx
  00181	8b e5		 mov	 esp, ebp
  00183	5d		 pop	 ebp
  00184	c3		 ret	 0
_TEXT	ENDS
text$x	SEGMENT
$L118996:
  00063	8b 4d f0	 mov	 ecx, DWORD PTR _this$[ebp]
  00066	e8 00 00 00 00	 call	 ??1CWnd@@UAE@XZ		; CWnd::~CWnd
  0006b	c3		 ret	 0
$L118997:
  0006c	8b 4d f0	 mov	 ecx, DWORD PTR _this$[ebp]
  0006f	83 c1 40	 add	 ecx, 64			; 00000040H
  00072	e8 00 00 00 00	 call	 ??1?$_com_ptr_t@V?$_com_IIID@UISkinForm@@$1?_GUID_972de6c1_8b09_11d2_b652_a1fd6cc34260@@3U__s_GUID@@A@@@@QAE@XZ ; _com_ptr_t<_com_IIID<ISkinForm,&_GUID_972de6c1_8b09_11d2_b652_a1fd6cc34260> >::~_com_ptr_t<_com_IIID<ISkinForm,&_GUID_972de6c1_8b09_11d2_b652_a1fd6cc34260> >
  00077	c3		 ret	 0
$L118998:
  00078	8b 4d f0	 mov	 ecx, DWORD PTR _this$[ebp]
  0007b	83 c1 44	 add	 ecx, 68			; 00000044H
  0007e	e8 00 00 00 00	 call	 ??1CSkinObj@@UAE@XZ	; CSkinObj::~CSkinObj
  00083	c3		 ret	 0
$L119002:
  00084	b8 00 00 00 00	 mov	 eax, OFFSET FLAT:$T119001
  00089	e9 00 00 00 00	 jmp	 ___CxxFrameHandler
text$x	ENDS
??1CSkinForm@@UAE@XZ ENDP				; CSkinForm::~CSkinForm
PUBLIC	??0CRect@@QAE@HHHH@Z				; CRect::CRect
PUBLIC	??BCString@@QBEPBDXZ				; CString::operator char const *
PUBLIC	??0CFileStatus@@QAE@XZ				; CFileStatus::CFileStatus
PUBLIC	??4?$_com_ptr_t@V?$_com_IIID@UISkinForm@@$1?_GUID_972de6c1_8b09_11d2_b652_a1fd6cc34260@@3U__s_GUID@@A@@@@QAEAAV0@ABQAUIUnknown@@@Z ; _com_ptr_t<_com_IIID<ISkinForm,&_GUID_972de6c1_8b09_11d2_b652_a1fd6cc34260> >::operator=
PUBLIC	??C?$_com_ptr_t@V?$_com_IIID@UISkinForm@@$1?_GUID_972de6c1_8b09_11d2_b652_a1fd6cc34260@@3U__s_GUID@@A@@@@QBEPAUISkinForm@@XZ ; _com_ptr_t<_com_IIID<ISkinForm,&_GUID_972de6c1_8b09_11d2_b652_a1fd6cc34260> >::operator->
PUBLIC	?SetSkin@CSkinForm@@QAEHPBD@Z			; CSkinForm::SetSkin
PUBLIC	?SeekToBegin@CFile@@QAEXXZ			; CFile::SeekToBegin
EXTRN	??0CString@@QAE@XZ:NEAR				; CString::CString
EXTRN	_atexit:NEAR
EXTRN	?Format@CString@@QAAXPBDZZ:NEAR			; CString::Format
EXTRN	__imp_??4?$basic_string@DU?$char_traits@D@std@@V?$allocator@D@2@@std@@QAEAAV01@PBD@Z:NEAR
EXTRN	??1CString@@QAE@XZ:NEAR				; CString::~CString
EXTRN	?CreateControl@CWnd@@QAEHABU_GUID@@PBDKABUtagRECT@@PAV1@IPAVCFile@@HPAG@Z:NEAR ; CWnd::CreateControl
EXTRN	?GetControlUnknown@CWnd@@QAEPAUIUnknown@@XZ:NEAR ; CWnd::GetControlUnknown
EXTRN	__imp__exit:NEAR
EXTRN	__imp__GetFocus@0:NEAR
EXTRN	__imp__MessageBoxA@16:NEAR
EXTRN	?GetStatus@CFile@@SGHPBDAAUCFileStatus@@@Z:NEAR	; CFile::GetStatus
EXTRN	??0CMemFile@@QAE@PAEII@Z:NEAR			; CMemFile::CMemFile
_BSS	SEGMENT
_?formStateFile@?1??Create@CSkinForm@@QAEHPBDPAVCWnd@@I@Z@4VCMemFile@@A DB 028H DUP (?)
_?$S286@?1??Create@CSkinForm@@QAEHPBDPAVCWnd@@I@Z@4EA DB 01H DUP (?)
_BSS	ENDS
_DATA	SEGMENT
	ORG $+1
$SG114027 DB	'c:\new ui\skins\%s', 00H
	ORG $+1
$SG114029 DB	'skins\user\%s', 00H
	ORG $+2
$SG114031 DB	'skins\default\%s', 00H
	ORG $+3
$SG114033 DB	'Can not locate a required interface skin.  Aborting!', 00H
_DATA	ENDS
xdata$x	SEGMENT
$T119009 DD	019930520H
	DD	01H
	DD	FLAT:$T119011
	DD	2 DUP(00H)
	DD	2 DUP(00H)
	ORG $+4
$T119011 DD	0ffffffffH
	DD	FLAT:$L119007
xdata$x	ENDS
_TEXT	SEGMENT
_lpszSkinPath$ = 8
_p_parentWnd$ = 12
_n_id$ = 16
_this$ = -328
_nFormStateSize$ = -300
$T119005 = -320
$T119006 = -324
__$EHRec$ = -12
_result$ = -16
_status$ = -296
_sStr$114026 = -304
?Create@CSkinForm@@QAEHPBDPAVCWnd@@I@Z PROC NEAR	; CSkinForm::Create

; 33   : {

  00185	55		 push	 ebp
  00186	8b ec		 mov	 ebp, esp
  00188	6a ff		 push	 -1
  0018a	68 00 00 00 00	 push	 $L119010
  0018f	64 a1 00 00 00
	00		 mov	 eax, DWORD PTR fs:__except_list
  00195	50		 push	 eax
  00196	64 89 25 00 00
	00 00		 mov	 DWORD PTR fs:__except_list, esp
  0019d	81 ec 4c 01 00
	00		 sub	 esp, 332		; 0000014cH
  001a3	89 8d b8 fe ff
	ff		 mov	 DWORD PTR _this$[ebp], ecx

; 34   : 	const int nFormStateSize = 267;

  001a9	c7 85 d4 fe ff
	ff 0b 01 00 00	 mov	 DWORD PTR _nFormStateSize$[ebp], 267 ; 0000010bH

; 35   : 	static char achFormStateData[nFormStateSize] = {
; 36   : 		(char)0xC2, (char)0xE6, (char)0x2D, (char)0x97, (char)0x09, (char)0x8B, (char)0xD2, (char)0x11, (char)0xB6, (char)0x52, (char)0xA1, (char)0xFD, (char)0x6C, (char)0xC3, (char)0x42, (char)0x60,
; 37   : 		(char)0x00, (char)0x03, (char)0x00, (char)0x00, (char)0x4F, (char)0x03, (char)0x00, (char)0x00, (char)0x4F, (char)0x03, (char)0x00, (char)0x00, (char)0x01, (char)0x00, (char)0x00, (char)0x00,
; 38   : 		(char)0x01, (char)0x08, (char)0x00, (char)0x02, (char)0x00, (char)0x00, (char)0x00, (char)0x00, (char)0x00, (char)0x08, (char)0x00, (char)0x0A, (char)0x00, (char)0x00, (char)0x00, (char)0x66,
; 39   : 		(char)0x00, (char)0x6F, (char)0x00, (char)0x72, (char)0x00, (char)0x6D, (char)0x00, (char)0x00, (char)0x00, (char)0x08, (char)0x00, (char)0x52, (char)0x00, (char)0x00, (char)0x00, (char)0x4D,
; 40   : 		(char)0x00, (char)0x61, (char)0x00, (char)0x72, (char)0x00, (char)0x6B, (char)0x00, (char)0x20, (char)0x00, (char)0x5A, (char)0x00, (char)0x65, (char)0x00, (char)0x63, (char)0x00, (char)0x68,
; 41   : 		(char)0x00, (char)0x69, (char)0x00, (char)0x65, (char)0x00, (char)0x6C, (char)0x00, (char)0x2C, (char)0x00, (char)0x20, (char)0x00, (char)0x43, (char)0x00, (char)0x6F, (char)0x00, (char)0x64,
; 42   : 		(char)0x00, (char)0x65, (char)0x00, (char)0x6D, (char)0x00, (char)0x61, (char)0x00, (char)0x73, (char)0x00, (char)0x74, (char)0x00, (char)0x65, (char)0x00, (char)0x72, (char)0x00, (char)0x73,
; 43   : 		(char)0x00, (char)0x20, (char)0x00, (char)0x59, (char)0x00, (char)0x6F, (char)0x00, (char)0x73, (char)0x00, (char)0x65, (char)0x00, (char)0x6D, (char)0x00, (char)0x69, (char)0x00, (char)0x74,
; 44   : 		(char)0x00, (char)0x65, (char)0x00, (char)0x2C, (char)0x00, (char)0x20, (char)0x00, (char)0x49, (char)0x00, (char)0x6E, (char)0x00, (char)0x63, (char)0x00, (char)0x2E, (char)0x00, (char)0x00,
; 45   : 		(char)0x00, (char)0x0B, (char)0x00, (char)0x01, (char)0x00, (char)0x0B, (char)0x00, (char)0x01, (char)0x00, (char)0x09, (char)0x00, (char)0x00, (char)0x00, (char)0x00, (char)0x00, (char)0x00,
; 46   : 		(char)0x00, (char)0x00, (char)0x00, (char)0x00, (char)0x00, (char)0x00, (char)0x00, (char)0x00, (char)0x00, (char)0x00, (char)0x00, (char)0x02, (char)0x00, (char)0x00, (char)0x00, (char)0x87,
; 47   : 		(char)0xD6, (char)0x12, (char)0x00, (char)0x00, (char)0x03, (char)0x00, (char)0x00, (char)0x0A, (char)0x00, (char)0x00, (char)0x00, (char)0x04, (char)0x00, (char)0x00, (char)0x00, (char)0xFF,
; 48   : 		(char)0xFF, (char)0xFF, (char)0xFF, (char)0x04, (char)0x00, (char)0x00, (char)0x00, (char)0xFF, (char)0xFF, (char)0xFF, (char)0xFF, (char)0x04, (char)0x00, (char)0x00, (char)0x00, (char)0x00,
; 49   : 		(char)0x00, (char)0x00, (char)0x00, (char)0x04, (char)0x00, (char)0x00, (char)0x00, (char)0x00, (char)0x00, (char)0x00, (char)0x00, (char)0x04, (char)0x00, (char)0x00, (char)0x00, (char)0x00,
; 50   : 		(char)0x00, (char)0x00, (char)0x00, (char)0x04, (char)0x00, (char)0x00, (char)0x00, (char)0x01, (char)0x00, (char)0x00, (char)0x00, (char)0x04, (char)0x00, (char)0x00, (char)0x00, (char)0x01,
; 51   : 		(char)0x00, (char)0x00, (char)0x00, (char)0x04, (char)0x00, (char)0x00, (char)0x00, (char)0x01, (char)0x00, (char)0x00, (char)0x00, (char)0x04, (char)0x00, (char)0x00, (char)0x00, (char)0x00,
; 52   : 		(char)0x00, (char)0x00, (char)0x00, (char)0x04, (char)0x00, (char)0x00, (char)0x00, (char)0x01, (char)0x00, (char)0x00, (char)0x00               
; 53   : 	};
; 54   : 
; 55   : 	static CMemFile formStateFile ( (BYTE *)&achFormStateData, nFormStateSize );

  001b3	33 c0		 xor	 eax, eax
  001b5	a0 00 00 00 00	 mov	 al, BYTE PTR _?$S286@?1??Create@CSkinForm@@QAEHPBDPAVCWnd@@I@Z@4EA
  001ba	83 e0 01	 and	 eax, 1
  001bd	85 c0		 test	 eax, eax
  001bf	75 32		 jne	 SHORT $L114013
  001c1	8a 0d 00 00 00
	00		 mov	 cl, BYTE PTR _?$S286@?1??Create@CSkinForm@@QAEHPBDPAVCWnd@@I@Z@4EA
  001c7	80 c9 01	 or	 cl, 1
  001ca	88 0d 00 00 00
	00		 mov	 BYTE PTR _?$S286@?1??Create@CSkinForm@@QAEHPBDPAVCWnd@@I@Z@4EA, cl
  001d0	6a 00		 push	 0
  001d2	68 0b 01 00 00	 push	 267			; 0000010bH
  001d7	68 00 00 00 00	 push	 OFFSET FLAT:_?achFormStateData@?1??Create@CSkinForm@@QAEHPBDPAVCWnd@@I@Z@4PADA
  001dc	b9 00 00 00 00	 mov	 ecx, OFFSET FLAT:_?formStateFile@?1??Create@CSkinForm@@QAEHPBDPAVCWnd@@I@Z@4VCMemFile@@A
  001e1	e8 00 00 00 00	 call	 ??0CMemFile@@QAE@PAEII@Z ; CMemFile::CMemFile
  001e6	68 00 00 00 00	 push	 OFFSET FLAT:_$E287
  001eb	e8 00 00 00 00	 call	 _atexit
  001f0	83 c4 04	 add	 esp, 4
$L114013:

; 56   : 	formStateFile.SeekToBegin();

  001f3	b9 00 00 00 00	 mov	 ecx, OFFSET FLAT:_?formStateFile@?1??Create@CSkinForm@@QAEHPBDPAVCWnd@@I@Z@4VCMemFile@@A
  001f8	e8 00 00 00 00	 call	 ?SeekToBegin@CFile@@QAEXXZ ; CFile::SeekToBegin

; 57   : 
; 58   : 	BOOL result = CreateControl ( CLSID_SkinForm, NULL, WS_CHILD | WS_VISIBLE, CRect ( 0, 0, 100, 50 ), p_parentWnd, n_id, &formStateFile, FALSE );

  001fd	6a 00		 push	 0
  001ff	6a 00		 push	 0
  00201	68 00 00 00 00	 push	 OFFSET FLAT:_?formStateFile@?1??Create@CSkinForm@@QAEHPBDPAVCWnd@@I@Z@4VCMemFile@@A
  00206	8b 55 10	 mov	 edx, DWORD PTR _n_id$[ebp]
  00209	52		 push	 edx
  0020a	8b 45 0c	 mov	 eax, DWORD PTR _p_parentWnd$[ebp]
  0020d	50		 push	 eax
  0020e	6a 32		 push	 50			; 00000032H
  00210	6a 64		 push	 100			; 00000064H
  00212	6a 00		 push	 0
  00214	6a 00		 push	 0
  00216	8d 8d c0 fe ff
	ff		 lea	 ecx, DWORD PTR $T119005[ebp]
  0021c	e8 00 00 00 00	 call	 ??0CRect@@QAE@HHHH@Z	; CRect::CRect
  00221	50		 push	 eax
  00222	68 00 00 00 50	 push	 1342177280		; 50000000H
  00227	6a 00		 push	 0
  00229	68 00 00 00 00	 push	 OFFSET FLAT:_CLSID_SkinForm
  0022e	8b 8d b8 fe ff
	ff		 mov	 ecx, DWORD PTR _this$[ebp]
  00234	e8 00 00 00 00	 call	 ?CreateControl@CWnd@@QAEHABU_GUID@@PBDKABUtagRECT@@PAV1@IPAVCFile@@HPAG@Z ; CWnd::CreateControl
  00239	89 45 f0	 mov	 DWORD PTR _result$[ebp], eax

; 59   : 
; 60   : 	if ( result == FALSE )

  0023c	83 7d f0 00	 cmp	 DWORD PTR _result$[ebp], 0
  00240	75 07		 jne	 SHORT $L114017

; 61   : 		return FALSE;

  00242	33 c0		 xor	 eax, eax
  00244	e9 2d 02 00 00	 jmp	 $L113737
$L114017:

; 62   : 
; 63   : 	// get the skin form object...
; 64   : 	m_spSkinForm = GetControlUnknown();

  00249	8b 8d b8 fe ff
	ff		 mov	 ecx, DWORD PTR _this$[ebp]
  0024f	e8 00 00 00 00	 call	 ?GetControlUnknown@CWnd@@QAEPAUIUnknown@@XZ ; CWnd::GetControlUnknown
  00254	89 85 bc fe ff
	ff		 mov	 DWORD PTR $T119006[ebp], eax
  0025a	8d 8d bc fe ff
	ff		 lea	 ecx, DWORD PTR $T119006[ebp]
  00260	51		 push	 ecx
  00261	8b 8d b8 fe ff
	ff		 mov	 ecx, DWORD PTR _this$[ebp]
  00267	83 c1 40	 add	 ecx, 64			; 00000040H
  0026a	e8 00 00 00 00	 call	 ??4?$_com_ptr_t@V?$_com_IIID@UISkinForm@@$1?_GUID_972de6c1_8b09_11d2_b652_a1fd6cc34260@@3U__s_GUID@@A@@@@QAEAAV0@ABQAUIUnknown@@@Z ; _com_ptr_t<_com_IIID<ISkinForm,&_GUID_972de6c1_8b09_11d2_b652_a1fd6cc34260> >::operator=

; 65   : 	m_spSkinForm->put_WorkMode ( skRuntimeMode );

  0026f	6a 01		 push	 1
  00271	8b 8d b8 fe ff
	ff		 mov	 ecx, DWORD PTR _this$[ebp]
  00277	83 c1 40	 add	 ecx, 64			; 00000040H
  0027a	e8 00 00 00 00	 call	 ??C?$_com_ptr_t@V?$_com_IIID@UISkinForm@@$1?_GUID_972de6c1_8b09_11d2_b652_a1fd6cc34260@@3U__s_GUID@@A@@@@QBEPAUISkinForm@@XZ ; _com_ptr_t<_com_IIID<ISkinForm,&_GUID_972de6c1_8b09_11d2_b652_a1fd6cc34260> >::operator->
  0027f	89 85 b4 fe ff
	ff		 mov	 DWORD PTR -332+[ebp], eax
  00285	8b 95 b4 fe ff
	ff		 mov	 edx, DWORD PTR -332+[ebp]
  0028b	8b 02		 mov	 eax, DWORD PTR [edx]
  0028d	8b 8d b4 fe ff
	ff		 mov	 ecx, DWORD PTR -332+[ebp]
  00293	51		 push	 ecx
  00294	ff 90 9c 00 00
	00		 call	 DWORD PTR [eax+156]

; 66   : //	m_spSkinForm->put_Performance ( skMinResources );
; 67   : 	m_spSkinForm->put_ShowHints ( TRUE );

  0029a	6a 01		 push	 1
  0029c	8b 8d b8 fe ff
	ff		 mov	 ecx, DWORD PTR _this$[ebp]
  002a2	83 c1 40	 add	 ecx, 64			; 00000040H
  002a5	e8 00 00 00 00	 call	 ??C?$_com_ptr_t@V?$_com_IIID@UISkinForm@@$1?_GUID_972de6c1_8b09_11d2_b652_a1fd6cc34260@@3U__s_GUID@@A@@@@QBEPAUISkinForm@@XZ ; _com_ptr_t<_com_IIID<ISkinForm,&_GUID_972de6c1_8b09_11d2_b652_a1fd6cc34260> >::operator->
  002aa	89 85 b0 fe ff
	ff		 mov	 DWORD PTR -336+[ebp], eax
  002b0	8b 95 b0 fe ff
	ff		 mov	 edx, DWORD PTR -336+[ebp]
  002b6	8b 02		 mov	 eax, DWORD PTR [edx]
  002b8	8b 8d b0 fe ff
	ff		 mov	 ecx, DWORD PTR -336+[ebp]
  002be	51		 push	 ecx
  002bf	ff 90 a4 00 00
	00		 call	 DWORD PTR [eax+164]

; 68   :  
; 69   : 	m_sSkinName = lpszSkinPath;

  002c5	8b 55 08	 mov	 edx, DWORD PTR _lpszSkinPath$[ebp]
  002c8	52		 push	 edx
  002c9	8b 8d b8 fe ff
	ff		 mov	 ecx, DWORD PTR _this$[ebp]
  002cf	83 c1 4c	 add	 ecx, 76			; 0000004cH
  002d2	ff 15 00 00 00
	00		 call	 DWORD PTR __imp_??4?$basic_string@DU?$char_traits@D@std@@V?$allocator@D@2@@std@@QAEAAV01@PBD@Z

; 70   : 
; 71   : 	// BEW To Fix Added the data path stuff in in a FIXED way.  Make it data driven later on.
; 72   : 	CFileStatus status;

  002d8	8d 8d d8 fe ff
	ff		 lea	 ecx, DWORD PTR _status$[ebp]
  002de	e8 00 00 00 00	 call	 ??0CFileStatus@@QAE@XZ	; CFileStatus::CFileStatus

; 73   : 
; 74   : 	if ( CFile::GetStatus( lpszSkinPath, status ) ) {

  002e3	8d 85 d8 fe ff
	ff		 lea	 eax, DWORD PTR _status$[ebp]
  002e9	50		 push	 eax
  002ea	8b 4d 08	 mov	 ecx, DWORD PTR _lpszSkinPath$[ebp]
  002ed	51		 push	 ecx
  002ee	e8 00 00 00 00	 call	 ?GetStatus@CFile@@SGHPBDAAUCFileStatus@@@Z ; CFile::GetStatus
  002f3	85 c0		 test	 eax, eax
  002f5	74 14		 je	 SHORT $L114024

; 75   : 		// apply the skin to the window...
; 76   : 		SetSkin ( lpszSkinPath );

  002f7	8b 55 08	 mov	 edx, DWORD PTR _lpszSkinPath$[ebp]
  002fa	52		 push	 edx
  002fb	8b 8d b8 fe ff
	ff		 mov	 ecx, DWORD PTR _this$[ebp]
  00301	e8 00 00 00 00	 call	 ?SetSkin@CSkinForm@@QAEHPBD@Z ; CSkinForm::SetSkin

; 77   : 	} else {

  00306	e9 16 01 00 00	 jmp	 $L114025
$L114024:

; 78   : 		CString sStr;

  0030b	8d 8d d0 fe ff
	ff		 lea	 ecx, DWORD PTR _sStr$114026[ebp]
  00311	e8 00 00 00 00	 call	 ??0CString@@QAE@XZ	; CString::CString
  00316	c7 45 fc 00 00
	00 00		 mov	 DWORD PTR __$EHRec$[ebp+8], 0

; 79   : 
; 80   : 		// SNTODO: change this to be resource.win based...
; 81   : #if defined(BRYANB)
; 82   : 		sStr.Format( "c:\\newui\\skins\\%s", lpszSkinPath );
; 83   : #else
; 84   : 		sStr.Format( "c:\\new ui\\skins\\%s", lpszSkinPath );

  0031d	8b 45 08	 mov	 eax, DWORD PTR _lpszSkinPath$[ebp]
  00320	50		 push	 eax
  00321	68 00 00 00 00	 push	 OFFSET FLAT:$SG114027
  00326	8d 8d d0 fe ff
	ff		 lea	 ecx, DWORD PTR _sStr$114026[ebp]
  0032c	51		 push	 ecx
  0032d	e8 00 00 00 00	 call	 ?Format@CString@@QAAXPBDZZ ; CString::Format
  00332	83 c4 0c	 add	 esp, 12			; 0000000cH

; 85   : #endif
; 86   : 
; 87   : 		if ( !CFile::GetStatus( sStr, status ) ) {

  00335	8d 95 d8 fe ff
	ff		 lea	 edx, DWORD PTR _status$[ebp]
  0033b	52		 push	 edx
  0033c	8d 8d d0 fe ff
	ff		 lea	 ecx, DWORD PTR _sStr$114026[ebp]
  00342	e8 00 00 00 00	 call	 ??BCString@@QBEPBDXZ	; CString::operator char const *
  00347	50		 push	 eax
  00348	e8 00 00 00 00	 call	 ?GetStatus@CFile@@SGHPBDAAUCFileStatus@@@Z ; CFile::GetStatus
  0034d	85 c0		 test	 eax, eax
  0034f	0f 85 99 00 00
	00		 jne	 $L114028

; 88   : 			// check the user directory...
; 89   : 			sStr.Format ( "skins\\user\\%s", lpszSkinPath );

  00355	8b 45 08	 mov	 eax, DWORD PTR _lpszSkinPath$[ebp]
  00358	50		 push	 eax
  00359	68 00 00 00 00	 push	 OFFSET FLAT:$SG114029
  0035e	8d 8d d0 fe ff
	ff		 lea	 ecx, DWORD PTR _sStr$114026[ebp]
  00364	51		 push	 ecx
  00365	e8 00 00 00 00	 call	 ?Format@CString@@QAAXPBDZZ ; CString::Format
  0036a	83 c4 0c	 add	 esp, 12			; 0000000cH

; 90   : 
; 91   : 			if ( !CFile::GetStatus( sStr, status ) ) {

  0036d	8d 95 d8 fe ff
	ff		 lea	 edx, DWORD PTR _status$[ebp]
  00373	52		 push	 edx
  00374	8d 8d d0 fe ff
	ff		 lea	 ecx, DWORD PTR _sStr$114026[ebp]
  0037a	e8 00 00 00 00	 call	 ??BCString@@QBEPBDXZ	; CString::operator char const *
  0037f	50		 push	 eax
  00380	e8 00 00 00 00	 call	 ?GetStatus@CFile@@SGHPBDAAUCFileStatus@@@Z ; CFile::GetStatus
  00385	85 c0		 test	 eax, eax
  00387	75 59		 jne	 SHORT $L114030

; 92   : 				// check the default directory...
; 93   : 				sStr.Format ( "skins\\default\\%s", lpszSkinPath );

  00389	8b 45 08	 mov	 eax, DWORD PTR _lpszSkinPath$[ebp]
  0038c	50		 push	 eax
  0038d	68 00 00 00 00	 push	 OFFSET FLAT:$SG114031
  00392	8d 8d d0 fe ff
	ff		 lea	 ecx, DWORD PTR _sStr$114026[ebp]
  00398	51		 push	 ecx
  00399	e8 00 00 00 00	 call	 ?Format@CString@@QAAXPBDZZ ; CString::Format
  0039e	83 c4 0c	 add	 esp, 12			; 0000000cH

; 94   : 
; 95   : 				if ( !CFile::GetStatus( sStr, status ) ) {

  003a1	8d 95 d8 fe ff
	ff		 lea	 edx, DWORD PTR _status$[ebp]
  003a7	52		 push	 edx
  003a8	8d 8d d0 fe ff
	ff		 lea	 ecx, DWORD PTR _sStr$114026[ebp]
  003ae	e8 00 00 00 00	 call	 ??BCString@@QBEPBDXZ	; CString::operator char const *
  003b3	50		 push	 eax
  003b4	e8 00 00 00 00	 call	 ?GetStatus@CFile@@SGHPBDAAUCFileStatus@@@Z ; CFile::GetStatus
  003b9	85 c0		 test	 eax, eax
  003bb	75 23		 jne	 SHORT $L114032

; 96   : 					::MessageBox ( ::GetFocus(), "Can not locate a required interface skin.  Aborting!", lpszSkinPath, MB_TASKMODAL );

  003bd	68 00 20 00 00	 push	 8192			; 00002000H
  003c2	8b 45 08	 mov	 eax, DWORD PTR _lpszSkinPath$[ebp]
  003c5	50		 push	 eax
  003c6	68 00 00 00 00	 push	 OFFSET FLAT:$SG114033
  003cb	ff 15 00 00 00
	00		 call	 DWORD PTR __imp__GetFocus@0
  003d1	50		 push	 eax
  003d2	ff 15 00 00 00
	00		 call	 DWORD PTR __imp__MessageBoxA@16

; 97   : 					exit ( 1 );

  003d8	6a 01		 push	 1
  003da	ff 15 00 00 00
	00		 call	 DWORD PTR __imp__exit
$L114032:

; 99   : 			} else m_bIsUserSkin = false; //loaded from skins\default

  003e0	eb 0a		 jmp	 SHORT $L114034
$L114030:
  003e2	8b 8d b8 fe ff
	ff		 mov	 ecx, DWORD PTR _this$[ebp]
  003e8	c6 41 5c 00	 mov	 BYTE PTR [ecx+92], 0
$L114034:

; 100  : 		} else m_bIsUserSkin = true; //loaded from skins\user

  003ec	eb 0a		 jmp	 SHORT $L114035
$L114028:
  003ee	8b 95 b8 fe ff
	ff		 mov	 edx, DWORD PTR _this$[ebp]
  003f4	c6 42 5c 01	 mov	 BYTE PTR [edx+92], 1
$L114035:

; 101  : 
; 102  : 		// apply the skin to the window...
; 103  : 		SetSkin ( sStr );	

  003f8	8d 8d d0 fe ff
	ff		 lea	 ecx, DWORD PTR _sStr$114026[ebp]
  003fe	e8 00 00 00 00	 call	 ??BCString@@QBEPBDXZ	; CString::operator char const *
  00403	50		 push	 eax
  00404	8b 8d b8 fe ff
	ff		 mov	 ecx, DWORD PTR _this$[ebp]
  0040a	e8 00 00 00 00	 call	 ?SetSkin@CSkinForm@@QAEHPBD@Z ; CSkinForm::SetSkin

; 104  : 	}

  0040f	c7 45 fc ff ff
	ff ff		 mov	 DWORD PTR __$EHRec$[ebp+8], -1
  00416	8d 8d d0 fe ff
	ff		 lea	 ecx, DWORD PTR _sStr$114026[ebp]
  0041c	e8 00 00 00 00	 call	 ??1CString@@QAE@XZ	; CString::~CString
$L114025:

; 105  : 
; 106  : 	m_spSkinForm->put_AdjustSize ( 0 );

  00421	6a 00		 push	 0
  00423	8b 8d b8 fe ff
	ff		 mov	 ecx, DWORD PTR _this$[ebp]
  00429	83 c1 40	 add	 ecx, 64			; 00000040H
  0042c	e8 00 00 00 00	 call	 ??C?$_com_ptr_t@V?$_com_IIID@UISkinForm@@$1?_GUID_972de6c1_8b09_11d2_b652_a1fd6cc34260@@3U__s_GUID@@A@@@@QBEPAUISkinForm@@XZ ; _com_ptr_t<_com_IIID<ISkinForm,&_GUID_972de6c1_8b09_11d2_b652_a1fd6cc34260> >::operator->
  00431	89 85 ac fe ff
	ff		 mov	 DWORD PTR -340+[ebp], eax
  00437	8b 85 ac fe ff
	ff		 mov	 eax, DWORD PTR -340+[ebp]
  0043d	8b 08		 mov	 ecx, DWORD PTR [eax]
  0043f	8b 95 ac fe ff
	ff		 mov	 edx, DWORD PTR -340+[ebp]
  00445	52		 push	 edx
  00446	ff 51 48	 call	 DWORD PTR [ecx+72]

; 107  : 	m_spSkinForm->put_ScanControls( 0 );

  00449	6a 00		 push	 0
  0044b	8b 8d b8 fe ff
	ff		 mov	 ecx, DWORD PTR _this$[ebp]
  00451	83 c1 40	 add	 ecx, 64			; 00000040H
  00454	e8 00 00 00 00	 call	 ??C?$_com_ptr_t@V?$_com_IIID@UISkinForm@@$1?_GUID_972de6c1_8b09_11d2_b652_a1fd6cc34260@@3U__s_GUID@@A@@@@QBEPAUISkinForm@@XZ ; _com_ptr_t<_com_IIID<ISkinForm,&_GUID_972de6c1_8b09_11d2_b652_a1fd6cc34260> >::operator->
  00459	89 85 a8 fe ff
	ff		 mov	 DWORD PTR -344+[ebp], eax
  0045f	8b 85 a8 fe ff
	ff		 mov	 eax, DWORD PTR -344+[ebp]
  00465	8b 08		 mov	 ecx, DWORD PTR [eax]
  00467	8b 95 a8 fe ff
	ff		 mov	 edx, DWORD PTR -344+[ebp]
  0046d	52		 push	 edx
  0046e	ff 51 30	 call	 DWORD PTR [ecx+48]

; 108  : 
; 109  : 	return TRUE;

  00471	b8 01 00 00 00	 mov	 eax, 1
$L113737:

; 110  : }

  00476	8b 4d f4	 mov	 ecx, DWORD PTR __$EHRec$[ebp]
  00479	64 89 0d 00 00
	00 00		 mov	 DWORD PTR fs:__except_list, ecx
  00480	8b e5		 mov	 esp, ebp
  00482	5d		 pop	 ebp
  00483	c2 0c 00	 ret	 12			; 0000000cH
_TEXT	ENDS
text$x	SEGMENT
$L119007:
  0008e	8d 8d d0 fe ff
	ff		 lea	 ecx, DWORD PTR _sStr$114026[ebp]
  00094	e8 00 00 00 00	 call	 ??1CString@@QAE@XZ	; CString::~CString
  00099	c3		 ret	 0
$L119010:
  0009a	b8 00 00 00 00	 mov	 eax, OFFSET FLAT:$T119009
  0009f	e9 00 00 00 00	 jmp	 ___CxxFrameHandler
text$x	ENDS
?Create@CSkinForm@@QAEHPBDPAVCWnd@@I@Z ENDP		; CSkinForm::Create
EXTRN	??1CMemFile@@UAE@XZ:NEAR			; CMemFile::~CMemFile
_TEXT	SEGMENT
_$E287	PROC NEAR
  00486	55		 push	 ebp
  00487	8b ec		 mov	 ebp, esp
  00489	b9 00 00 00 00	 mov	 ecx, OFFSET FLAT:_?formStateFile@?1??Create@CSkinForm@@QAEHPBDPAVCWnd@@I@Z@4VCMemFile@@A
  0048e	e8 00 00 00 00	 call	 ??1CMemFile@@UAE@XZ	; CMemFile::~CMemFile
  00493	5d		 pop	 ebp
  00494	c3		 ret	 0
_$E287	ENDP
_TEXT	ENDS
PUBLIC	??0CTime@@QAE@XZ				; CTime::CTime
;	COMDAT ??0CFileStatus@@QAE@XZ
_TEXT	SEGMENT
_this$ = -4
??0CFileStatus@@QAE@XZ PROC NEAR			; CFileStatus::CFileStatus, COMDAT
  00000	55		 push	 ebp
  00001	8b ec		 mov	 ebp, esp
  00003	51		 push	 ecx
  00004	89 4d fc	 mov	 DWORD PTR _this$[ebp], ecx
  00007	8b 4d fc	 mov	 ecx, DWORD PTR _this$[ebp]
  0000a	e8 00 00 00 00	 call	 ??0CTime@@QAE@XZ	; CTime::CTime
  0000f	8b 4d fc	 mov	 ecx, DWORD PTR _this$[ebp]
  00012	83 c1 04	 add	 ecx, 4
  00015	e8 00 00 00 00	 call	 ??0CTime@@QAE@XZ	; CTime::CTime
  0001a	8b 4d fc	 mov	 ecx, DWORD PTR _this$[ebp]
  0001d	83 c1 08	 add	 ecx, 8
  00020	e8 00 00 00 00	 call	 ??0CTime@@QAE@XZ	; CTime::CTime
  00025	8b 45 fc	 mov	 eax, DWORD PTR _this$[ebp]
  00028	8b e5		 mov	 esp, ebp
  0002a	5d		 pop	 ebp
  0002b	c3		 ret	 0
??0CFileStatus@@QAE@XZ ENDP				; CFileStatus::CFileStatus
_TEXT	ENDS
PUBLIC	??1CComBSTR@ATL@@QAE@XZ				; ATL::CComBSTR::~CComBSTR
PUBLIC	??BCComBSTR@ATL@@QBEPAGXZ			; ATL::CComBSTR::operator unsigned short *
PUBLIC	??0CComBSTR@ATL@@QAE@PBD@Z			; ATL::CComBSTR::CComBSTR
EXTRN	?DecRef@CSkinObj@@QAEHXZ:NEAR			; CSkinObj::DecRef
EXTRN	??BCSkinObj@@QAEPAPAUISkinObjectDisp@@XZ:NEAR	; CSkinObj::operator ISkinObjectDisp * *
xdata$x	SEGMENT
$T119018 DD	019930520H
	DD	01H
	DD	FLAT:$T119020
	DD	2 DUP(00H)
	DD	2 DUP(00H)
	ORG $+4
$T119020 DD	0ffffffffH
	DD	FLAT:$L119016
xdata$x	ENDS
_TEXT	SEGMENT
$T119015 = -20
__$EHRec$ = -12
_lpszSkinPath$ = 8
_this$ = -24
_skinPath$ = -16
?SetSkin@CSkinForm@@QAEHPBD@Z PROC NEAR			; CSkinForm::SetSkin

; 114  : {

  00495	55		 push	 ebp
  00496	8b ec		 mov	 ebp, esp
  00498	6a ff		 push	 -1
  0049a	68 00 00 00 00	 push	 $L119019
  0049f	64 a1 00 00 00
	00		 mov	 eax, DWORD PTR fs:__except_list
  004a5	50		 push	 eax
  004a6	64 89 25 00 00
	00 00		 mov	 DWORD PTR fs:__except_list, esp
  004ad	83 ec 14	 sub	 esp, 20			; 00000014H
  004b0	89 4d e8	 mov	 DWORD PTR _this$[ebp], ecx

; 115  : 	// SNTODO: remove the following kludge 
; 116  : //	lpszSkinPath = strrchr ( lpszSkinPath, '\\' ) + 1;
; 117  : 
; 118  : 	CComBSTR skinPath ( lpszSkinPath );

  004b3	8b 45 08	 mov	 eax, DWORD PTR _lpszSkinPath$[ebp]
  004b6	50		 push	 eax
  004b7	8d 4d f0	 lea	 ecx, DWORD PTR _skinPath$[ebp]
  004ba	e8 00 00 00 00	 call	 ??0CComBSTR@ATL@@QAE@PBD@Z ; ATL::CComBSTR::CComBSTR
  004bf	c7 45 fc 00 00
	00 00		 mov	 DWORD PTR __$EHRec$[ebp+8], 0

; 119  : 	m_spSkinForm->put_SkinPath ( skinPath );

  004c6	8d 4d f0	 lea	 ecx, DWORD PTR _skinPath$[ebp]
  004c9	e8 00 00 00 00	 call	 ??BCComBSTR@ATL@@QBEPAGXZ ; ATL::CComBSTR::operator unsigned short *
  004ce	50		 push	 eax
  004cf	8b 4d e8	 mov	 ecx, DWORD PTR _this$[ebp]
  004d2	83 c1 40	 add	 ecx, 64			; 00000040H
  004d5	e8 00 00 00 00	 call	 ??C?$_com_ptr_t@V?$_com_IIID@UISkinForm@@$1?_GUID_972de6c1_8b09_11d2_b652_a1fd6cc34260@@3U__s_GUID@@A@@@@QBEPAUISkinForm@@XZ ; _com_ptr_t<_com_IIID<ISkinForm,&_GUID_972de6c1_8b09_11d2_b652_a1fd6cc34260> >::operator->
  004da	89 45 e4	 mov	 DWORD PTR -28+[ebp], eax
  004dd	8b 4d e4	 mov	 ecx, DWORD PTR -28+[ebp]
  004e0	8b 11		 mov	 edx, DWORD PTR [ecx]
  004e2	8b 45 e4	 mov	 eax, DWORD PTR -28+[ebp]
  004e5	50		 push	 eax
  004e6	ff 52 20	 call	 DWORD PTR [edx+32]

; 120  : 
; 121  : 	// get a pointer to the root skin object for this form
; 122  : 	m_spSkinForm->get_SkinObject ( m_rootSkinObj );

  004e9	8b 4d e8	 mov	 ecx, DWORD PTR _this$[ebp]
  004ec	83 c1 44	 add	 ecx, 68			; 00000044H
  004ef	e8 00 00 00 00	 call	 ??BCSkinObj@@QAEPAPAUISkinObjectDisp@@XZ ; CSkinObj::operator ISkinObjectDisp * *
  004f4	50		 push	 eax
  004f5	8b 4d e8	 mov	 ecx, DWORD PTR _this$[ebp]
  004f8	83 c1 40	 add	 ecx, 64			; 00000040H
  004fb	e8 00 00 00 00	 call	 ??C?$_com_ptr_t@V?$_com_IIID@UISkinForm@@$1?_GUID_972de6c1_8b09_11d2_b652_a1fd6cc34260@@3U__s_GUID@@A@@@@QBEPAUISkinForm@@XZ ; _com_ptr_t<_com_IIID<ISkinForm,&_GUID_972de6c1_8b09_11d2_b652_a1fd6cc34260> >::operator->
  00500	89 45 e0	 mov	 DWORD PTR -32+[ebp], eax
  00503	8b 4d e0	 mov	 ecx, DWORD PTR -32+[ebp]
  00506	8b 11		 mov	 edx, DWORD PTR [ecx]
  00508	8b 45 e0	 mov	 eax, DWORD PTR -32+[ebp]
  0050b	50		 push	 eax
  0050c	ff 52 3c	 call	 DWORD PTR [edx+60]

; 123  : 	m_rootSkinObj.DecRef();

  0050f	8b 4d e8	 mov	 ecx, DWORD PTR _this$[ebp]
  00512	83 c1 44	 add	 ecx, 68			; 00000044H
  00515	e8 00 00 00 00	 call	 ?DecRef@CSkinObj@@QAEHXZ ; CSkinObj::DecRef

; 124  : 
; 125  : 	return TRUE;

  0051a	c7 45 ec 01 00
	00 00		 mov	 DWORD PTR $T119015[ebp], 1
  00521	c7 45 fc ff ff
	ff ff		 mov	 DWORD PTR __$EHRec$[ebp+8], -1
  00528	8d 4d f0	 lea	 ecx, DWORD PTR _skinPath$[ebp]
  0052b	e8 00 00 00 00	 call	 ??1CComBSTR@ATL@@QAE@XZ	; ATL::CComBSTR::~CComBSTR
  00530	8b 45 ec	 mov	 eax, DWORD PTR $T119015[ebp]

; 126  : }

  00533	8b 4d f4	 mov	 ecx, DWORD PTR __$EHRec$[ebp]
  00536	64 89 0d 00 00
	00 00		 mov	 DWORD PTR fs:__except_list, ecx
  0053d	8b e5		 mov	 esp, ebp
  0053f	5d		 pop	 ebp
  00540	c2 04 00	 ret	 4
_TEXT	ENDS
text$x	SEGMENT
$L119016:
  000a4	8d 4d f0	 lea	 ecx, DWORD PTR _skinPath$[ebp]
  000a7	e8 00 00 00 00	 call	 ??1CComBSTR@ATL@@QAE@XZ	; ATL::CComBSTR::~CComBSTR
  000ac	c3		 ret	 0
$L119019:
  000ad	b8 00 00 00 00	 mov	 eax, OFFSET FLAT:$T119018
  000b2	e9 00 00 00 00	 jmp	 ___CxxFrameHandler
text$x	ENDS
?SetSkin@CSkinForm@@QAEHPBD@Z ENDP			; CSkinForm::SetSkin
PUBLIC	?FindObject@CSkinForm@@QAE?AVCSkinObj@@PBD@Z	; CSkinForm::FindObject
EXTRN	?FindObject@CSkinObj@@QAE?AV1@PBD@Z:NEAR	; CSkinObj::FindObject
EXTRN	?IsValid@CSkinObj@@QAEHXZ:NEAR			; CSkinObj::IsValid
_TEXT	SEGMENT
$T119023 = -4
_lpszName$ = 12
___$ReturnUdt$ = 8
_this$ = -8
?FindObject@CSkinForm@@QAE?AVCSkinObj@@PBD@Z PROC NEAR	; CSkinForm::FindObject

; 130  : {

  00543	55		 push	 ebp
  00544	8b ec		 mov	 ebp, esp
  00546	83 ec 08	 sub	 esp, 8
  00549	89 4d f8	 mov	 DWORD PTR _this$[ebp], ecx
  0054c	c7 45 fc 00 00
	00 00		 mov	 DWORD PTR $T119023[ebp], 0

; 131  : 	if ( m_rootSkinObj.IsValid() ) {

  00553	8b 4d f8	 mov	 ecx, DWORD PTR _this$[ebp]
  00556	83 c1 44	 add	 ecx, 68			; 00000044H
  00559	e8 00 00 00 00	 call	 ?IsValid@CSkinObj@@QAEHXZ ; CSkinObj::IsValid
  0055e	85 c0		 test	 eax, eax
  00560	74 21		 je	 SHORT $L114050

; 132  : 		return m_rootSkinObj.FindObject ( lpszName );

  00562	8b 45 0c	 mov	 eax, DWORD PTR _lpszName$[ebp]
  00565	50		 push	 eax
  00566	8b 4d 08	 mov	 ecx, DWORD PTR ___$ReturnUdt$[ebp]
  00569	51		 push	 ecx
  0056a	8b 4d f8	 mov	 ecx, DWORD PTR _this$[ebp]
  0056d	83 c1 44	 add	 ecx, 68			; 00000044H
  00570	e8 00 00 00 00	 call	 ?FindObject@CSkinObj@@QAE?AV1@PBD@Z ; CSkinObj::FindObject
  00575	8b 55 fc	 mov	 edx, DWORD PTR $T119023[ebp]
  00578	83 ca 01	 or	 edx, 1
  0057b	89 55 fc	 mov	 DWORD PTR $T119023[ebp], edx
  0057e	8b 45 08	 mov	 eax, DWORD PTR ___$ReturnUdt$[ebp]
  00581	eb 13		 jmp	 SHORT $L114049
$L114050:

; 134  : 
; 135  : 	return CSkinObj();

  00583	8b 4d 08	 mov	 ecx, DWORD PTR ___$ReturnUdt$[ebp]
  00586	e8 00 00 00 00	 call	 ??0CSkinObj@@QAE@XZ	; CSkinObj::CSkinObj
  0058b	8b 45 fc	 mov	 eax, DWORD PTR $T119023[ebp]
  0058e	0c 01		 or	 al, 1
  00590	89 45 fc	 mov	 DWORD PTR $T119023[ebp], eax
  00593	8b 45 08	 mov	 eax, DWORD PTR ___$ReturnUdt$[ebp]
$L114049:

; 136  : }

  00596	8b e5		 mov	 esp, ebp
  00598	5d		 pop	 ebp
  00599	c2 08 00	 ret	 8
?FindObject@CSkinForm@@QAE?AVCSkinObj@@PBD@Z ENDP	; CSkinForm::FindObject
_TEXT	ENDS
PUBLIC	?GetObjectRect@CSkinForm@@QAEHPBDPAUtagRECT@@@Z	; CSkinForm::GetObjectRect
EXTRN	?GetRect@CSkinObj@@QAEHPAUtagRECT@@@Z:NEAR	; CSkinObj::GetRect
xdata$x	SEGMENT
$T119030 DD	019930520H
	DD	01H
	DD	FLAT:$T119032
	DD	2 DUP(00H)
	DD	2 DUP(00H)
	ORG $+4
$T119032 DD	0ffffffffH
	DD	FLAT:$L119028
xdata$x	ENDS
_TEXT	SEGMENT
$T119026 = -24
$T119027 = -28
__$EHRec$ = -12
_lpszSkinName$ = 8
_rect$ = 12
_this$ = -32
_obj$ = -20
?GetObjectRect@CSkinForm@@QAEHPBDPAUtagRECT@@@Z PROC NEAR ; CSkinForm::GetObjectRect

; 140  : {

  0059c	55		 push	 ebp
  0059d	8b ec		 mov	 ebp, esp
  0059f	6a ff		 push	 -1
  005a1	68 00 00 00 00	 push	 $L119031
  005a6	64 a1 00 00 00
	00		 mov	 eax, DWORD PTR fs:__except_list
  005ac	50		 push	 eax
  005ad	64 89 25 00 00
	00 00		 mov	 DWORD PTR fs:__except_list, esp
  005b4	83 ec 14	 sub	 esp, 20			; 00000014H
  005b7	89 4d e0	 mov	 DWORD PTR _this$[ebp], ecx

; 141  : 	assert ( lpszSkinName != NULL );
; 142  : 	assert ( rect != NULL );
; 143  : 
; 144  : 	CSkinObj obj = FindObject ( lpszSkinName );

  005ba	8b 45 08	 mov	 eax, DWORD PTR _lpszSkinName$[ebp]
  005bd	50		 push	 eax
  005be	8d 4d ec	 lea	 ecx, DWORD PTR _obj$[ebp]
  005c1	51		 push	 ecx
  005c2	8b 4d e0	 mov	 ecx, DWORD PTR _this$[ebp]
  005c5	e8 00 00 00 00	 call	 ?FindObject@CSkinForm@@QAE?AVCSkinObj@@PBD@Z ; CSkinForm::FindObject
  005ca	c7 45 fc 00 00
	00 00		 mov	 DWORD PTR __$EHRec$[ebp+8], 0

; 145  : 
; 146  : 	if ( obj.IsValid() ) {

  005d1	8d 4d ec	 lea	 ecx, DWORD PTR _obj$[ebp]
  005d4	e8 00 00 00 00	 call	 ?IsValid@CSkinObj@@QAEHXZ ; CSkinObj::IsValid
  005d9	85 c0		 test	 eax, eax
  005db	74 27		 je	 SHORT $L114062

; 147  : 		obj.GetRect ( rect );

  005dd	8b 55 0c	 mov	 edx, DWORD PTR _rect$[ebp]
  005e0	52		 push	 edx
  005e1	8d 4d ec	 lea	 ecx, DWORD PTR _obj$[ebp]
  005e4	e8 00 00 00 00	 call	 ?GetRect@CSkinObj@@QAEHPAUtagRECT@@@Z ; CSkinObj::GetRect

; 148  : 		return TRUE;

  005e9	c7 45 e8 01 00
	00 00		 mov	 DWORD PTR $T119026[ebp], 1
  005f0	c7 45 fc ff ff
	ff ff		 mov	 DWORD PTR __$EHRec$[ebp+8], -1
  005f7	8d 4d ec	 lea	 ecx, DWORD PTR _obj$[ebp]
  005fa	e8 00 00 00 00	 call	 ??1CSkinObj@@UAE@XZ	; CSkinObj::~CSkinObj
  005ff	8b 45 e8	 mov	 eax, DWORD PTR $T119026[ebp]
  00602	eb 19		 jmp	 SHORT $L114057
$L114062:

; 150  : 
; 151  : 	return FALSE;

  00604	c7 45 e4 00 00
	00 00		 mov	 DWORD PTR $T119027[ebp], 0
  0060b	c7 45 fc ff ff
	ff ff		 mov	 DWORD PTR __$EHRec$[ebp+8], -1
  00612	8d 4d ec	 lea	 ecx, DWORD PTR _obj$[ebp]
  00615	e8 00 00 00 00	 call	 ??1CSkinObj@@UAE@XZ	; CSkinObj::~CSkinObj
  0061a	8b 45 e4	 mov	 eax, DWORD PTR $T119027[ebp]
$L114057:

; 152  : }

  0061d	8b 4d f4	 mov	 ecx, DWORD PTR __$EHRec$[ebp]
  00620	64 89 0d 00 00
	00 00		 mov	 DWORD PTR fs:__except_list, ecx
  00627	8b e5		 mov	 esp, ebp
  00629	5d		 pop	 ebp
  0062a	c2 08 00	 ret	 8
_TEXT	ENDS
text$x	SEGMENT
$L119028:
  000b7	8d 4d ec	 lea	 ecx, DWORD PTR _obj$[ebp]
  000ba	e8 00 00 00 00	 call	 ??1CSkinObj@@UAE@XZ	; CSkinObj::~CSkinObj
  000bf	c3		 ret	 0
$L119031:
  000c0	b8 00 00 00 00	 mov	 eax, OFFSET FLAT:$T119030
  000c5	e9 00 00 00 00	 jmp	 ___CxxFrameHandler
text$x	ENDS
?GetObjectRect@CSkinForm@@QAEHPBDPAUtagRECT@@@Z ENDP	; CSkinForm::GetObjectRect
PUBLIC	?SkinClientArea@CSkinForm@@QAEHH@Z		; CSkinForm::SkinClientArea
_TEXT	SEGMENT
_state$ = 8
_this$ = -4
?SkinClientArea@CSkinForm@@QAEHH@Z PROC NEAR		; CSkinForm::SkinClientArea

; 156  : {

  0062d	55		 push	 ebp
  0062e	8b ec		 mov	 ebp, esp
  00630	83 ec 08	 sub	 esp, 8
  00633	89 4d fc	 mov	 DWORD PTR _this$[ebp], ecx

; 157  : 	m_spSkinForm->put_SkinClientArea ( state );

  00636	66 8b 45 08	 mov	 ax, WORD PTR _state$[ebp]
  0063a	50		 push	 eax
  0063b	8b 4d fc	 mov	 ecx, DWORD PTR _this$[ebp]
  0063e	83 c1 40	 add	 ecx, 64			; 00000040H
  00641	e8 00 00 00 00	 call	 ??C?$_com_ptr_t@V?$_com_IIID@UISkinForm@@$1?_GUID_972de6c1_8b09_11d2_b652_a1fd6cc34260@@3U__s_GUID@@A@@@@QBEPAUISkinForm@@XZ ; _com_ptr_t<_com_IIID<ISkinForm,&_GUID_972de6c1_8b09_11d2_b652_a1fd6cc34260> >::operator->
  00646	89 45 f8	 mov	 DWORD PTR -8+[ebp], eax
  00649	8b 4d f8	 mov	 ecx, DWORD PTR -8+[ebp]
  0064c	8b 11		 mov	 edx, DWORD PTR [ecx]
  0064e	8b 45 f8	 mov	 eax, DWORD PTR -8+[ebp]
  00651	50		 push	 eax
  00652	ff 92 94 00 00
	00		 call	 DWORD PTR [edx+148]

; 158  : 	return TRUE;

  00658	b8 01 00 00 00	 mov	 eax, 1

; 159  : }

  0065d	8b e5		 mov	 esp, ebp
  0065f	5d		 pop	 ebp
  00660	c2 04 00	 ret	 4
?SkinClientArea@CSkinForm@@QAEHH@Z ENDP			; CSkinForm::SkinClientArea
_TEXT	ENDS
PUBLIC	?SetScanControls@CSkinForm@@QAEHH@Z		; CSkinForm::SetScanControls
_TEXT	SEGMENT
_state$ = 8
_this$ = -4
?SetScanControls@CSkinForm@@QAEHH@Z PROC NEAR		; CSkinForm::SetScanControls

; 163  : {

  00663	55		 push	 ebp
  00664	8b ec		 mov	 ebp, esp
  00666	83 ec 08	 sub	 esp, 8
  00669	89 4d fc	 mov	 DWORD PTR _this$[ebp], ecx

; 164  : 	m_spSkinForm->put_ScanControls ( state );

  0066c	66 8b 45 08	 mov	 ax, WORD PTR _state$[ebp]
  00670	50		 push	 eax
  00671	8b 4d fc	 mov	 ecx, DWORD PTR _this$[ebp]
  00674	83 c1 40	 add	 ecx, 64			; 00000040H
  00677	e8 00 00 00 00	 call	 ??C?$_com_ptr_t@V?$_com_IIID@UISkinForm@@$1?_GUID_972de6c1_8b09_11d2_b652_a1fd6cc34260@@3U__s_GUID@@A@@@@QBEPAUISkinForm@@XZ ; _com_ptr_t<_com_IIID<ISkinForm,&_GUID_972de6c1_8b09_11d2_b652_a1fd6cc34260> >::operator->
  0067c	89 45 f8	 mov	 DWORD PTR -8+[ebp], eax
  0067f	8b 4d f8	 mov	 ecx, DWORD PTR -8+[ebp]
  00682	8b 11		 mov	 edx, DWORD PTR [ecx]
  00684	8b 45 f8	 mov	 eax, DWORD PTR -8+[ebp]
  00687	50		 push	 eax
  00688	ff 52 30	 call	 DWORD PTR [edx+48]

; 165  : 	return TRUE;

  0068b	b8 01 00 00 00	 mov	 eax, 1

; 166  : }

  00690	8b e5		 mov	 esp, ebp
  00692	5d		 pop	 ebp
  00693	c2 04 00	 ret	 4
?SetScanControls@CSkinForm@@QAEHH@Z ENDP		; CSkinForm::SetScanControls
_TEXT	ENDS
PUBLIC	?GetSkinFormPtr@CSkinForm@@QAEAAV?$_com_ptr_t@V?$_com_IIID@UISkinForm@@$1?_GUID_972de6c1_8b09_11d2_b652_a1fd6cc34260@@3U__s_GUID@@A@@@@XZ ; CSkinForm::GetSkinFormPtr
_TEXT	SEGMENT
_this$ = -4
?GetSkinFormPtr@CSkinForm@@QAEAAV?$_com_ptr_t@V?$_com_IIID@UISkinForm@@$1?_GUID_972de6c1_8b09_11d2_b652_a1fd6cc34260@@3U__s_GUID@@A@@@@XZ PROC NEAR ; CSkinForm::GetSkinFormPtr

; 170  : {

  00696	55		 push	 ebp
  00697	8b ec		 mov	 ebp, esp
  00699	51		 push	 ecx
  0069a	89 4d fc	 mov	 DWORD PTR _this$[ebp], ecx

; 171  : 	return m_spSkinForm;

  0069d	8b 45 fc	 mov	 eax, DWORD PTR _this$[ebp]
  006a0	83 c0 40	 add	 eax, 64			; 00000040H

; 172  : }

  006a3	8b e5		 mov	 esp, ebp
  006a5	5d		 pop	 ebp
  006a6	c3		 ret	 0
?GetSkinFormPtr@CSkinForm@@QAEAAV?$_com_ptr_t@V?$_com_IIID@UISkinForm@@$1?_GUID_972de6c1_8b09_11d2_b652_a1fd6cc34260@@3U__s_GUID@@A@@@@XZ ENDP ; CSkinForm::GetSkinFormPtr
_TEXT	ENDS
PUBLIC	??0CSkinObj@@QAE@ABV0@@Z			; CSkinObj::CSkinObj
PUBLIC	?GetRootSkinObj@CSkinForm@@QAE?AVCSkinObj@@XZ	; CSkinForm::GetRootSkinObj
_TEXT	SEGMENT
$T119038 = -4
___$ReturnUdt$ = 8
_this$ = -8
?GetRootSkinObj@CSkinForm@@QAE?AVCSkinObj@@XZ PROC NEAR	; CSkinForm::GetRootSkinObj

; 176  : {

  006a7	55		 push	 ebp
  006a8	8b ec		 mov	 ebp, esp
  006aa	83 ec 08	 sub	 esp, 8
  006ad	89 4d f8	 mov	 DWORD PTR _this$[ebp], ecx
  006b0	c7 45 fc 00 00
	00 00		 mov	 DWORD PTR $T119038[ebp], 0

; 177  : 	return CSkinObj ( m_rootSkinObj );

  006b7	8b 45 f8	 mov	 eax, DWORD PTR _this$[ebp]
  006ba	83 c0 44	 add	 eax, 68			; 00000044H
  006bd	50		 push	 eax
  006be	8b 4d 08	 mov	 ecx, DWORD PTR ___$ReturnUdt$[ebp]
  006c1	e8 00 00 00 00	 call	 ??0CSkinObj@@QAE@ABV0@@Z ; CSkinObj::CSkinObj
  006c6	8b 4d fc	 mov	 ecx, DWORD PTR $T119038[ebp]
  006c9	83 c9 01	 or	 ecx, 1
  006cc	89 4d fc	 mov	 DWORD PTR $T119038[ebp], ecx
  006cf	8b 45 08	 mov	 eax, DWORD PTR ___$ReturnUdt$[ebp]

; 178  : }

  006d2	8b e5		 mov	 esp, ebp
  006d4	5d		 pop	 ebp
  006d5	c2 04 00	 ret	 4
?GetRootSkinObj@CSkinForm@@QAE?AVCSkinObj@@XZ ENDP	; CSkinForm::GetRootSkinObj
_TEXT	ENDS
PUBLIC	??_7CSkinObj@@6B@				; CSkinObj::`vftable'
PUBLIC	??_GCSkinObj@@UAEPAXI@Z				; CSkinObj::`scalar deleting destructor'
PUBLIC	??_ECSkinObj@@UAEPAXI@Z				; CSkinObj::`vector deleting destructor'
;	COMDAT ??_7CSkinObj@@6B@
CONST	SEGMENT
??_7CSkinObj@@6B@ DD FLAT:??_ECSkinObj@@UAEPAXI@Z	; CSkinObj::`vftable'
CONST	ENDS
;	COMDAT ??0CSkinObj@@QAE@ABV0@@Z
_TEXT	SEGMENT
___that$ = 8
_this$ = -4
??0CSkinObj@@QAE@ABV0@@Z PROC NEAR			; CSkinObj::CSkinObj, COMDAT
  00000	55		 push	 ebp
  00001	8b ec		 mov	 ebp, esp
  00003	51		 push	 ecx
  00004	89 4d fc	 mov	 DWORD PTR _this$[ebp], ecx
  00007	8b 45 fc	 mov	 eax, DWORD PTR _this$[ebp]
  0000a	8b 4d 08	 mov	 ecx, DWORD PTR ___that$[ebp]
  0000d	8b 51 04	 mov	 edx, DWORD PTR [ecx+4]
  00010	89 50 04	 mov	 DWORD PTR [eax+4], edx
  00013	8b 45 fc	 mov	 eax, DWORD PTR _this$[ebp]
  00016	c7 00 00 00 00
	00		 mov	 DWORD PTR [eax], OFFSET FLAT:??_7CSkinObj@@6B@ ; CSkinObj::`vftable'
  0001c	8b 45 fc	 mov	 eax, DWORD PTR _this$[ebp]
  0001f	8b e5		 mov	 esp, ebp
  00021	5d		 pop	 ebp
  00022	c2 04 00	 ret	 4
??0CSkinObj@@QAE@ABV0@@Z ENDP				; CSkinObj::CSkinObj
_TEXT	ENDS
EXTRN	??3@YAXPAX@Z:NEAR				; operator delete
;	COMDAT ??_GCSkinObj@@UAEPAXI@Z
_TEXT	SEGMENT
___flags$ = 8
_this$ = -4
??_GCSkinObj@@UAEPAXI@Z PROC NEAR			; CSkinObj::`scalar deleting destructor', COMDAT
  00000	55		 push	 ebp
  00001	8b ec		 mov	 ebp, esp
  00003	51		 push	 ecx
  00004	89 4d fc	 mov	 DWORD PTR _this$[ebp], ecx
  00007	8b 4d fc	 mov	 ecx, DWORD PTR _this$[ebp]
  0000a	e8 00 00 00 00	 call	 ??1CSkinObj@@UAE@XZ	; CSkinObj::~CSkinObj
  0000f	8b 45 08	 mov	 eax, DWORD PTR ___flags$[ebp]
  00012	83 e0 01	 and	 eax, 1
  00015	85 c0		 test	 eax, eax
  00017	74 0c		 je	 SHORT $L114089
  00019	8b 4d fc	 mov	 ecx, DWORD PTR _this$[ebp]
  0001c	51		 push	 ecx
  0001d	e8 00 00 00 00	 call	 ??3@YAXPAX@Z		; operator delete
  00022	83 c4 04	 add	 esp, 4
$L114089:
  00025	8b 45 fc	 mov	 eax, DWORD PTR _this$[ebp]
  00028	8b e5		 mov	 esp, ebp
  0002a	5d		 pop	 ebp
  0002b	c2 04 00	 ret	 4
??_GCSkinObj@@UAEPAXI@Z ENDP				; CSkinObj::`scalar deleting destructor'
_TEXT	ENDS
PUBLIC	?GetSkinName@CSkinForm@@QAE?AV?$basic_string@DU?$char_traits@D@std@@V?$allocator@D@2@@std@@XZ ; CSkinForm::GetSkinName
EXTRN	__imp_??0?$basic_string@DU?$char_traits@D@std@@V?$allocator@D@2@@std@@QAE@ABV01@@Z:NEAR
_TEXT	SEGMENT
$T119044 = -4
___$ReturnUdt$ = 8
_this$ = -8
?GetSkinName@CSkinForm@@QAE?AV?$basic_string@DU?$char_traits@D@std@@V?$allocator@D@2@@std@@XZ PROC NEAR ; CSkinForm::GetSkinName

; 182  : {

  006d8	55		 push	 ebp
  006d9	8b ec		 mov	 ebp, esp
  006db	83 ec 08	 sub	 esp, 8
  006de	89 4d f8	 mov	 DWORD PTR _this$[ebp], ecx
  006e1	c7 45 fc 00 00
	00 00		 mov	 DWORD PTR $T119044[ebp], 0

; 183  : 	return m_sSkinName;

  006e8	8b 45 f8	 mov	 eax, DWORD PTR _this$[ebp]
  006eb	83 c0 4c	 add	 eax, 76			; 0000004cH
  006ee	50		 push	 eax
  006ef	8b 4d 08	 mov	 ecx, DWORD PTR ___$ReturnUdt$[ebp]
  006f2	ff 15 00 00 00
	00		 call	 DWORD PTR __imp_??0?$basic_string@DU?$char_traits@D@std@@V?$allocator@D@2@@std@@QAE@ABV01@@Z
  006f8	8b 4d fc	 mov	 ecx, DWORD PTR $T119044[ebp]
  006fb	83 c9 01	 or	 ecx, 1
  006fe	89 4d fc	 mov	 DWORD PTR $T119044[ebp], ecx
  00701	8b 45 08	 mov	 eax, DWORD PTR ___$ReturnUdt$[ebp]

; 184  : }

  00704	8b e5		 mov	 esp, ebp
  00706	5d		 pop	 ebp
  00707	c2 04 00	 ret	 4
?GetSkinName@CSkinForm@@QAE?AV?$basic_string@DU?$char_traits@D@std@@V?$allocator@D@2@@std@@XZ ENDP ; CSkinForm::GetSkinName
_TEXT	ENDS
;	COMDAT ?Serialize@CObject@@UAEXAAVCArchive@@@Z
_TEXT	SEGMENT
_this$ = -4
?Serialize@CObject@@UAEXAAVCArchive@@@Z PROC NEAR	; CObject::Serialize, COMDAT

; 21   : 	{ /* CObject does not serialize anything by default */ }

  00000	55		 push	 ebp
  00001	8b ec		 mov	 ebp, esp
  00003	51		 push	 ecx
  00004	89 4d fc	 mov	 DWORD PTR _this$[ebp], ecx
  00007	8b e5		 mov	 esp, ebp
  00009	5d		 pop	 ebp
  0000a	c2 04 00	 ret	 4
?Serialize@CObject@@UAEXAAVCArchive@@@Z ENDP		; CObject::Serialize
_TEXT	ENDS
;	COMDAT ??3CObject@@SGXPAX@Z
_TEXT	SEGMENT
_p$ = 8
??3CObject@@SGXPAX@Z PROC NEAR				; CObject::operator delete, COMDAT

; 27   : 	{ ::operator delete(p); }

  00000	55		 push	 ebp
  00001	8b ec		 mov	 ebp, esp
  00003	8b 45 08	 mov	 eax, DWORD PTR _p$[ebp]
  00006	50		 push	 eax
  00007	e8 00 00 00 00	 call	 ??3@YAXPAX@Z		; operator delete
  0000c	83 c4 04	 add	 esp, 4
  0000f	5d		 pop	 ebp
  00010	c2 04 00	 ret	 4
??3CObject@@SGXPAX@Z ENDP				; CObject::operator delete
_TEXT	ENDS
;	COMDAT ?AssertValid@CObject@@UBEXXZ
_TEXT	SEGMENT
_this$ = -4
?AssertValid@CObject@@UBEXXZ PROC NEAR			; CObject::AssertValid, COMDAT

; 37   : 	{ /* no asserts in release builds */ }

  00000	55		 push	 ebp
  00001	8b ec		 mov	 ebp, esp
  00003	51		 push	 ecx
  00004	89 4d fc	 mov	 DWORD PTR _this$[ebp], ecx
  00007	8b e5		 mov	 esp, ebp
  00009	5d		 pop	 ebp
  0000a	c3		 ret	 0
?AssertValid@CObject@@UBEXXZ ENDP			; CObject::AssertValid
_TEXT	ENDS
;	COMDAT ?Dump@CObject@@UBEXAAVCDumpContext@@@Z
_TEXT	SEGMENT
_this$ = -4
?Dump@CObject@@UBEXAAVCDumpContext@@@Z PROC NEAR	; CObject::Dump, COMDAT

; 39   : 	{ /* no dumping in release builds */ }

  00000	55		 push	 ebp
  00001	8b ec		 mov	 ebp, esp
  00003	51		 push	 ecx
  00004	89 4d fc	 mov	 DWORD PTR _this$[ebp], ecx
  00007	8b e5		 mov	 esp, ebp
  00009	5d		 pop	 ebp
  0000a	c2 04 00	 ret	 4
?Dump@CObject@@UBEXAAVCDumpContext@@@Z ENDP		; CObject::Dump
_TEXT	ENDS
;	COMDAT ?SeekToBegin@CFile@@QAEXXZ
_TEXT	SEGMENT
_this$ = -4
?SeekToBegin@CFile@@QAEXXZ PROC NEAR			; CFile::SeekToBegin, COMDAT

; 94   : 	{ Seek(0, CFile::begin); }

  00000	55		 push	 ebp
  00001	8b ec		 mov	 ebp, esp
  00003	51		 push	 ecx
  00004	89 4d fc	 mov	 DWORD PTR _this$[ebp], ecx
  00007	6a 00		 push	 0
  00009	6a 00		 push	 0
  0000b	8b 45 fc	 mov	 eax, DWORD PTR _this$[ebp]
  0000e	8b 10		 mov	 edx, DWORD PTR [eax]
  00010	8b 4d fc	 mov	 ecx, DWORD PTR _this$[ebp]
  00013	ff 52 30	 call	 DWORD PTR [edx+48]
  00016	8b e5		 mov	 esp, ebp
  00018	5d		 pop	 ebp
  00019	c3		 ret	 0
?SeekToBegin@CFile@@QAEXXZ ENDP				; CFile::SeekToBegin
_TEXT	ENDS
;	COMDAT ??BCString@@QBEPBDXZ
_TEXT	SEGMENT
_this$ = -4
??BCString@@QBEPBDXZ PROC NEAR				; CString::operator char const *, COMDAT

; 151  : 	{ return m_pchData; }

  00000	55		 push	 ebp
  00001	8b ec		 mov	 ebp, esp
  00003	51		 push	 ecx
  00004	89 4d fc	 mov	 DWORD PTR _this$[ebp], ecx
  00007	8b 45 fc	 mov	 eax, DWORD PTR _this$[ebp]
  0000a	8b 00		 mov	 eax, DWORD PTR [eax]
  0000c	8b e5		 mov	 esp, ebp
  0000e	5d		 pop	 ebp
  0000f	c3		 ret	 0
??BCString@@QBEPBDXZ ENDP				; CString::operator char const *
_TEXT	ENDS
;	COMDAT ??0CTime@@QAE@XZ
_TEXT	SEGMENT
_this$ = -4
??0CTime@@QAE@XZ PROC NEAR				; CTime::CTime, COMDAT

; 268  : 	{ }

  00000	55		 push	 ebp
  00001	8b ec		 mov	 ebp, esp
  00003	51		 push	 ecx
  00004	89 4d fc	 mov	 DWORD PTR _this$[ebp], ecx
  00007	8b 45 fc	 mov	 eax, DWORD PTR _this$[ebp]
  0000a	8b e5		 mov	 esp, ebp
  0000c	5d		 pop	 ebp
  0000d	c3		 ret	 0
??0CTime@@QAE@XZ ENDP					; CTime::CTime
_TEXT	ENDS
;	COMDAT ??0?$_com_ptr_t@V?$_com_IIID@UISkinForm@@$1?_GUID_972de6c1_8b09_11d2_b652_a1fd6cc34260@@3U__s_GUID@@A@@@@QAE@XZ
_TEXT	SEGMENT
_this$ = -4
??0?$_com_ptr_t@V?$_com_IIID@UISkinForm@@$1?_GUID_972de6c1_8b09_11d2_b652_a1fd6cc34260@@3U__s_GUID@@A@@@@QAE@XZ PROC NEAR ; _com_ptr_t<_com_IIID<ISkinForm,&_GUID_972de6c1_8b09_11d2_b652_a1fd6cc34260> >::_com_ptr_t<_com_IIID<ISkinForm,&_GUID_972de6c1_8b09_11d2_b652_a1fd6cc34260> >, COMDAT

; 100  : 	{

  00000	55		 push	 ebp
  00001	8b ec		 mov	 ebp, esp
  00003	51		 push	 ecx
  00004	89 4d fc	 mov	 DWORD PTR _this$[ebp], ecx
  00007	8b 45 fc	 mov	 eax, DWORD PTR _this$[ebp]
  0000a	c7 00 00 00 00
	00		 mov	 DWORD PTR [eax], 0

; 101  : 	}

  00010	8b 45 fc	 mov	 eax, DWORD PTR _this$[ebp]
  00013	8b e5		 mov	 esp, ebp
  00015	5d		 pop	 ebp
  00016	c3		 ret	 0
??0?$_com_ptr_t@V?$_com_IIID@UISkinForm@@$1?_GUID_972de6c1_8b09_11d2_b652_a1fd6cc34260@@3U__s_GUID@@A@@@@QAE@XZ ENDP ; _com_ptr_t<_com_IIID<ISkinForm,&_GUID_972de6c1_8b09_11d2_b652_a1fd6cc34260> >::_com_ptr_t<_com_IIID<ISkinForm,&_GUID_972de6c1_8b09_11d2_b652_a1fd6cc34260> >
_TEXT	ENDS
PUBLIC	?_Release@?$_com_ptr_t@V?$_com_IIID@UISkinForm@@$1?_GUID_972de6c1_8b09_11d2_b652_a1fd6cc34260@@3U__s_GUID@@A@@@@AAEXXZ ; _com_ptr_t<_com_IIID<ISkinForm,&_GUID_972de6c1_8b09_11d2_b652_a1fd6cc34260> >::_Release
;	COMDAT ??1?$_com_ptr_t@V?$_com_IIID@UISkinForm@@$1?_GUID_972de6c1_8b09_11d2_b652_a1fd6cc34260@@3U__s_GUID@@A@@@@QAE@XZ
_TEXT	SEGMENT
_this$ = -4
??1?$_com_ptr_t@V?$_com_IIID@UISkinForm@@$1?_GUID_972de6c1_8b09_11d2_b652_a1fd6cc34260@@3U__s_GUID@@A@@@@QAE@XZ PROC NEAR ; _com_ptr_t<_com_IIID<ISkinForm,&_GUID_972de6c1_8b09_11d2_b652_a1fd6cc34260> >::~_com_ptr_t<_com_IIID<ISkinForm,&_GUID_972de6c1_8b09_11d2_b652_a1fd6cc34260> >, COMDAT

; 260  : 	{ 

  00000	55		 push	 ebp
  00001	8b ec		 mov	 ebp, esp
  00003	51		 push	 ecx
  00004	89 4d fc	 mov	 DWORD PTR _this$[ebp], ecx

; 261  : 		_Release(); 

  00007	8b 4d fc	 mov	 ecx, DWORD PTR _this$[ebp]
  0000a	e8 00 00 00 00	 call	 ?_Release@?$_com_ptr_t@V?$_com_IIID@UISkinForm@@$1?_GUID_972de6c1_8b09_11d2_b652_a1fd6cc34260@@3U__s_GUID@@A@@@@AAEXXZ ; _com_ptr_t<_com_IIID<ISkinForm,&_GUID_972de6c1_8b09_11d2_b652_a1fd6cc34260> >::_Release

; 262  : 	}

  0000f	8b e5		 mov	 esp, ebp
  00011	5d		 pop	 ebp
  00012	c3		 ret	 0
??1?$_com_ptr_t@V?$_com_IIID@UISkinForm@@$1?_GUID_972de6c1_8b09_11d2_b652_a1fd6cc34260@@3U__s_GUID@@A@@@@QAE@XZ ENDP ; _com_ptr_t<_com_IIID<ISkinForm,&_GUID_972de6c1_8b09_11d2_b652_a1fd6cc34260> >::~_com_ptr_t<_com_IIID<ISkinForm,&_GUID_972de6c1_8b09_11d2_b652_a1fd6cc34260> >
_TEXT	ENDS
EXTRN	?_com_issue_error@@YGXJ@Z:NEAR			; _com_issue_error
;	COMDAT ??C?$_com_ptr_t@V?$_com_IIID@UISkinForm@@$1?_GUID_972de6c1_8b09_11d2_b652_a1fd6cc34260@@3U__s_GUID@@A@@@@QBEPAUISkinForm@@XZ
_TEXT	SEGMENT
_this$ = -4
??C?$_com_ptr_t@V?$_com_IIID@UISkinForm@@$1?_GUID_972de6c1_8b09_11d2_b652_a1fd6cc34260@@3U__s_GUID@@A@@@@QBEPAUISkinForm@@XZ PROC NEAR ; _com_ptr_t<_com_IIID<ISkinForm,&_GUID_972de6c1_8b09_11d2_b652_a1fd6cc34260> >::operator->, COMDAT

; 343  : 	{ 

  00000	55		 push	 ebp
  00001	8b ec		 mov	 ebp, esp
  00003	51		 push	 ecx
  00004	89 4d fc	 mov	 DWORD PTR _this$[ebp], ecx

; 344  : 		if (m_pInterface == NULL) {

  00007	8b 45 fc	 mov	 eax, DWORD PTR _this$[ebp]
  0000a	83 38 00	 cmp	 DWORD PTR [eax], 0
  0000d	75 0a		 jne	 SHORT $L115164

; 345  : 			_com_issue_error(E_POINTER);

  0000f	68 03 40 00 80	 push	 -2147467261		; 80004003H
  00014	e8 00 00 00 00	 call	 ?_com_issue_error@@YGXJ@Z ; _com_issue_error
$L115164:

; 347  : 
; 348  : 		return m_pInterface; 

  00019	8b 4d fc	 mov	 ecx, DWORD PTR _this$[ebp]
  0001c	8b 01		 mov	 eax, DWORD PTR [ecx]

; 349  : 	}

  0001e	8b e5		 mov	 esp, ebp
  00020	5d		 pop	 ebp
  00021	c3		 ret	 0
??C?$_com_ptr_t@V?$_com_IIID@UISkinForm@@$1?_GUID_972de6c1_8b09_11d2_b652_a1fd6cc34260@@3U__s_GUID@@A@@@@QBEPAUISkinForm@@XZ ENDP ; _com_ptr_t<_com_IIID<ISkinForm,&_GUID_972de6c1_8b09_11d2_b652_a1fd6cc34260> >::operator->
_TEXT	ENDS
;	COMDAT ??0CRect@@QAE@HHHH@Z
_TEXT	SEGMENT
_l$ = 8
_t$ = 12
_r$ = 16
_b$ = 20
_this$ = -4
??0CRect@@QAE@HHHH@Z PROC NEAR				; CRect::CRect, COMDAT

; 134  : 	{ left = l; top = t; right = r; bottom = b; }

  00000	55		 push	 ebp
  00001	8b ec		 mov	 ebp, esp
  00003	51		 push	 ecx
  00004	89 4d fc	 mov	 DWORD PTR _this$[ebp], ecx
  00007	8b 45 fc	 mov	 eax, DWORD PTR _this$[ebp]
  0000a	8b 4d 08	 mov	 ecx, DWORD PTR _l$[ebp]
  0000d	89 08		 mov	 DWORD PTR [eax], ecx
  0000f	8b 55 fc	 mov	 edx, DWORD PTR _this$[ebp]
  00012	8b 45 0c	 mov	 eax, DWORD PTR _t$[ebp]
  00015	89 42 04	 mov	 DWORD PTR [edx+4], eax
  00018	8b 4d fc	 mov	 ecx, DWORD PTR _this$[ebp]
  0001b	8b 55 10	 mov	 edx, DWORD PTR _r$[ebp]
  0001e	89 51 08	 mov	 DWORD PTR [ecx+8], edx
  00021	8b 45 fc	 mov	 eax, DWORD PTR _this$[ebp]
  00024	8b 4d 14	 mov	 ecx, DWORD PTR _b$[ebp]
  00027	89 48 0c	 mov	 DWORD PTR [eax+12], ecx
  0002a	8b 45 fc	 mov	 eax, DWORD PTR _this$[ebp]
  0002d	8b e5		 mov	 esp, ebp
  0002f	5d		 pop	 ebp
  00030	c2 10 00	 ret	 16			; 00000010H
??0CRect@@QAE@HHHH@Z ENDP				; CRect::CRect
_TEXT	ENDS
;	COMDAT ?_Release@?$_com_ptr_t@V?$_com_IIID@UISkinForm@@$1?_GUID_972de6c1_8b09_11d2_b652_a1fd6cc34260@@3U__s_GUID@@A@@@@AAEXXZ
_TEXT	SEGMENT
_this$ = -4
?_Release@?$_com_ptr_t@V?$_com_IIID@UISkinForm@@$1?_GUID_972de6c1_8b09_11d2_b652_a1fd6cc34260@@3U__s_GUID@@A@@@@AAEXXZ PROC NEAR ; _com_ptr_t<_com_IIID<ISkinForm,&_GUID_972de6c1_8b09_11d2_b652_a1fd6cc34260> >::_Release, COMDAT

; 660  : 	{

  00000	55		 push	 ebp
  00001	8b ec		 mov	 ebp, esp
  00003	51		 push	 ecx
  00004	89 4d fc	 mov	 DWORD PTR _this$[ebp], ecx

; 661  : 		if (m_pInterface != NULL) {

  00007	8b 45 fc	 mov	 eax, DWORD PTR _this$[ebp]
  0000a	83 38 00	 cmp	 DWORD PTR [eax], 0
  0000d	74 10		 je	 SHORT $L116289

; 662  : 			m_pInterface->Release();

  0000f	8b 4d fc	 mov	 ecx, DWORD PTR _this$[ebp]
  00012	8b 11		 mov	 edx, DWORD PTR [ecx]
  00014	8b 45 fc	 mov	 eax, DWORD PTR _this$[ebp]
  00017	8b 08		 mov	 ecx, DWORD PTR [eax]
  00019	8b 01		 mov	 eax, DWORD PTR [ecx]
  0001b	52		 push	 edx
  0001c	ff 50 08	 call	 DWORD PTR [eax+8]
$L116289:

; 664  : 	}

  0001f	8b e5		 mov	 esp, ebp
  00021	5d		 pop	 ebp
  00022	c3		 ret	 0
?_Release@?$_com_ptr_t@V?$_com_IIID@UISkinForm@@$1?_GUID_972de6c1_8b09_11d2_b652_a1fd6cc34260@@3U__s_GUID@@A@@@@AAEXXZ ENDP ; _com_ptr_t<_com_IIID<ISkinForm,&_GUID_972de6c1_8b09_11d2_b652_a1fd6cc34260> >::_Release
_TEXT	ENDS
PUBLIC	?_QueryInterface@?$_com_ptr_t@V?$_com_IIID@UISkinForm@@$1?_GUID_972de6c1_8b09_11d2_b652_a1fd6cc34260@@3U__s_GUID@@A@@@@AAEJABQAUIUnknown@@@Z ; _com_ptr_t<_com_IIID<ISkinForm,&_GUID_972de6c1_8b09_11d2_b652_a1fd6cc34260> >::_QueryInterface
;	COMDAT ??4?$_com_ptr_t@V?$_com_IIID@UISkinForm@@$1?_GUID_972de6c1_8b09_11d2_b652_a1fd6cc34260@@3U__s_GUID@@A@@@@QAEAAV0@ABQAUIUnknown@@@Z
_TEXT	SEGMENT
_p$ = 8
_this$ = -8
_hr$ = -4
??4?$_com_ptr_t@V?$_com_IIID@UISkinForm@@$1?_GUID_972de6c1_8b09_11d2_b652_a1fd6cc34260@@3U__s_GUID@@A@@@@QAEAAV0@ABQAUIUnknown@@@Z PROC NEAR ; _com_ptr_t<_com_IIID<ISkinForm,&_GUID_972de6c1_8b09_11d2_b652_a1fd6cc34260> >::operator=, COMDAT

; 193  : 	template<typename _InterfacePtr> _com_ptr_t& operator=(const _InterfacePtr& p) throw(_com_error)

  00000	55		 push	 ebp
  00001	8b ec		 mov	 ebp, esp
  00003	83 ec 08	 sub	 esp, 8
  00006	89 4d f8	 mov	 DWORD PTR _this$[ebp], ecx

; 194  : 	{
; 195  : 		HRESULT hr = _QueryInterface(p);

  00009	8b 45 08	 mov	 eax, DWORD PTR _p$[ebp]
  0000c	50		 push	 eax
  0000d	8b 4d f8	 mov	 ecx, DWORD PTR _this$[ebp]
  00010	e8 00 00 00 00	 call	 ?_QueryInterface@?$_com_ptr_t@V?$_com_IIID@UISkinForm@@$1?_GUID_972de6c1_8b09_11d2_b652_a1fd6cc34260@@3U__s_GUID@@A@@@@AAEJABQAUIUnknown@@@Z ; _com_ptr_t<_com_IIID<ISkinForm,&_GUID_972de6c1_8b09_11d2_b652_a1fd6cc34260> >::_QueryInterface
  00015	89 45 fc	 mov	 DWORD PTR _hr$[ebp], eax

; 196  : 
; 197  : 		if (FAILED(hr) && (hr != E_NOINTERFACE)) {

  00018	83 7d fc 00	 cmp	 DWORD PTR _hr$[ebp], 0
  0001c	7d 12		 jge	 SHORT $L116679
  0001e	81 7d fc 02 40
	00 80		 cmp	 DWORD PTR _hr$[ebp], -2147467262 ; 80004002H
  00025	74 09		 je	 SHORT $L116679

; 198  : 			_com_issue_error(hr);

  00027	8b 4d fc	 mov	 ecx, DWORD PTR _hr$[ebp]
  0002a	51		 push	 ecx
  0002b	e8 00 00 00 00	 call	 ?_com_issue_error@@YGXJ@Z ; _com_issue_error
$L116679:

; 200  : 
; 201  : 		return *this;

  00030	8b 45 f8	 mov	 eax, DWORD PTR _this$[ebp]

; 202  : 	}

  00033	8b e5		 mov	 esp, ebp
  00035	5d		 pop	 ebp
  00036	c2 04 00	 ret	 4
??4?$_com_ptr_t@V?$_com_IIID@UISkinForm@@$1?_GUID_972de6c1_8b09_11d2_b652_a1fd6cc34260@@3U__s_GUID@@A@@@@QAEAAV0@ABQAUIUnknown@@@Z ENDP ; _com_ptr_t<_com_IIID<ISkinForm,&_GUID_972de6c1_8b09_11d2_b652_a1fd6cc34260> >::operator=
_TEXT	ENDS
PUBLIC	?GetIID@?$_com_ptr_t@V?$_com_IIID@UISkinForm@@$1?_GUID_972de6c1_8b09_11d2_b652_a1fd6cc34260@@3U__s_GUID@@A@@@@SAABU_GUID@@XZ ; _com_ptr_t<_com_IIID<ISkinForm,&_GUID_972de6c1_8b09_11d2_b652_a1fd6cc34260> >::GetIID
PUBLIC	??4?$_com_ptr_t@V?$_com_IIID@UISkinForm@@$1?_GUID_972de6c1_8b09_11d2_b652_a1fd6cc34260@@3U__s_GUID@@A@@@@QAEAAV0@PAUISkinForm@@@Z ; _com_ptr_t<_com_IIID<ISkinForm,&_GUID_972de6c1_8b09_11d2_b652_a1fd6cc34260> >::operator=
PUBLIC	?Attach@?$_com_ptr_t@V?$_com_IIID@UISkinForm@@$1?_GUID_972de6c1_8b09_11d2_b652_a1fd6cc34260@@3U__s_GUID@@A@@@@QAEXPAUISkinForm@@@Z ; _com_ptr_t<_com_IIID<ISkinForm,&_GUID_972de6c1_8b09_11d2_b652_a1fd6cc34260> >::Attach
;	COMDAT ?_QueryInterface@?$_com_ptr_t@V?$_com_IIID@UISkinForm@@$1?_GUID_972de6c1_8b09_11d2_b652_a1fd6cc34260@@3U__s_GUID@@A@@@@AAEJABQAUIUnknown@@@Z
_TEXT	SEGMENT
_this$ = -12
_hr$ = -4
_pInterface$116996 = -8
_p$ = 8
?_QueryInterface@?$_com_ptr_t@V?$_com_IIID@UISkinForm@@$1?_GUID_972de6c1_8b09_11d2_b652_a1fd6cc34260@@3U__s_GUID@@A@@@@AAEJABQAUIUnknown@@@Z PROC NEAR ; _com_ptr_t<_com_IIID<ISkinForm,&_GUID_972de6c1_8b09_11d2_b652_a1fd6cc34260> >::_QueryInterface, COMDAT

; 680  : 	template<typename _InterfacePtr> HRESULT _QueryInterface(const _InterfacePtr& p) throw()

  00000	55		 push	 ebp
  00001	8b ec		 mov	 ebp, esp
  00003	83 ec 0c	 sub	 esp, 12			; 0000000cH
  00006	89 4d f4	 mov	 DWORD PTR _this$[ebp], ecx

; 681  : 	{
; 682  : 		HRESULT hr;
; 683  : 
; 684  : 		// Can't QI NULL
; 685  : 		//
; 686  : 		if (p) {

  00009	8b 45 08	 mov	 eax, DWORD PTR _p$[ebp]
  0000c	83 38 00	 cmp	 DWORD PTR [eax], 0
  0000f	74 3f		 je	 SHORT $L116995

; 687  : 			// Query for this interface
; 688  : 			//
; 689  : 			Interface* pInterface;
; 690  : 			hr = p->QueryInterface(GetIID(), reinterpret_cast<void**>(&pInterface));

  00011	8d 4d f8	 lea	 ecx, DWORD PTR _pInterface$116996[ebp]
  00014	51		 push	 ecx
  00015	e8 00 00 00 00	 call	 ?GetIID@?$_com_ptr_t@V?$_com_IIID@UISkinForm@@$1?_GUID_972de6c1_8b09_11d2_b652_a1fd6cc34260@@3U__s_GUID@@A@@@@SAABU_GUID@@XZ ; _com_ptr_t<_com_IIID<ISkinForm,&_GUID_972de6c1_8b09_11d2_b652_a1fd6cc34260> >::GetIID
  0001a	50		 push	 eax
  0001b	8b 55 08	 mov	 edx, DWORD PTR _p$[ebp]
  0001e	8b 02		 mov	 eax, DWORD PTR [edx]
  00020	8b 4d 08	 mov	 ecx, DWORD PTR _p$[ebp]
  00023	8b 11		 mov	 edx, DWORD PTR [ecx]
  00025	8b 0a		 mov	 ecx, DWORD PTR [edx]
  00027	50		 push	 eax
  00028	ff 11		 call	 DWORD PTR [ecx]
  0002a	89 45 fc	 mov	 DWORD PTR _hr$[ebp], eax

; 691  : 
; 692  : 			if (FAILED(hr)) {

  0002d	83 7d fc 00	 cmp	 DWORD PTR _hr$[ebp], 0
  00031	7d 0f		 jge	 SHORT $L116999

; 693  : 				// If failed initialize interface to NULL and return HRESULT.
; 694  : 				//
; 695  : 				Attach(NULL);

  00033	6a 00		 push	 0
  00035	8b 4d f4	 mov	 ecx, DWORD PTR _this$[ebp]
  00038	e8 00 00 00 00	 call	 ?Attach@?$_com_ptr_t@V?$_com_IIID@UISkinForm@@$1?_GUID_972de6c1_8b09_11d2_b652_a1fd6cc34260@@3U__s_GUID@@A@@@@QAEXPAUISkinForm@@@Z ; _com_ptr_t<_com_IIID<ISkinForm,&_GUID_972de6c1_8b09_11d2_b652_a1fd6cc34260> >::Attach

; 696  : 				return hr;

  0003d	8b 45 fc	 mov	 eax, DWORD PTR _hr$[ebp]
  00040	eb 22		 jmp	 SHORT $L116993
$L116999:

; 698  : 
; 699  : 			// Save the interface without AddRef()ing.
; 700  : 			//
; 701  : 			Attach(pInterface);

  00042	8b 55 f8	 mov	 edx, DWORD PTR _pInterface$116996[ebp]
  00045	52		 push	 edx
  00046	8b 4d f4	 mov	 ecx, DWORD PTR _this$[ebp]
  00049	e8 00 00 00 00	 call	 ?Attach@?$_com_ptr_t@V?$_com_IIID@UISkinForm@@$1?_GUID_972de6c1_8b09_11d2_b652_a1fd6cc34260@@3U__s_GUID@@A@@@@QAEXPAUISkinForm@@@Z ; _com_ptr_t<_com_IIID<ISkinForm,&_GUID_972de6c1_8b09_11d2_b652_a1fd6cc34260> >::Attach

; 703  : 		else {

  0004e	eb 11		 jmp	 SHORT $L117000
$L116995:

; 704  : 			operator=(static_cast<Interface*>(NULL));

  00050	6a 00		 push	 0
  00052	8b 4d f4	 mov	 ecx, DWORD PTR _this$[ebp]
  00055	e8 00 00 00 00	 call	 ??4?$_com_ptr_t@V?$_com_IIID@UISkinForm@@$1?_GUID_972de6c1_8b09_11d2_b652_a1fd6cc34260@@3U__s_GUID@@A@@@@QAEAAV0@PAUISkinForm@@@Z ; _com_ptr_t<_com_IIID<ISkinForm,&_GUID_972de6c1_8b09_11d2_b652_a1fd6cc34260> >::operator=

; 705  : 			hr = E_NOINTERFACE;

  0005a	c7 45 fc 02 40
	00 80		 mov	 DWORD PTR _hr$[ebp], -2147467262 ; 80004002H
$L117000:

; 707  : 
; 708  : 		return hr;

  00061	8b 45 fc	 mov	 eax, DWORD PTR _hr$[ebp]
$L116993:

; 709  : 	}

  00064	8b e5		 mov	 esp, ebp
  00066	5d		 pop	 ebp
  00067	c2 04 00	 ret	 4
?_QueryInterface@?$_com_ptr_t@V?$_com_IIID@UISkinForm@@$1?_GUID_972de6c1_8b09_11d2_b652_a1fd6cc34260@@3U__s_GUID@@A@@@@AAEJABQAUIUnknown@@@Z ENDP ; _com_ptr_t<_com_IIID<ISkinForm,&_GUID_972de6c1_8b09_11d2_b652_a1fd6cc34260> >::_QueryInterface
_TEXT	ENDS
PUBLIC	?GetIID@?$_com_IIID@UISkinForm@@$1?_GUID_972de6c1_8b09_11d2_b652_a1fd6cc34260@@3U__s_GUID@@A@@SAABU_GUID@@XZ ; _com_IIID<ISkinForm,&_GUID_972de6c1_8b09_11d2_b652_a1fd6cc34260>::GetIID
;	COMDAT ?GetIID@?$_com_ptr_t@V?$_com_IIID@UISkinForm@@$1?_GUID_972de6c1_8b09_11d2_b652_a1fd6cc34260@@3U__s_GUID@@A@@@@SAABU_GUID@@XZ
_TEXT	SEGMENT
?GetIID@?$_com_ptr_t@V?$_com_IIID@UISkinForm@@$1?_GUID_972de6c1_8b09_11d2_b652_a1fd6cc34260@@3U__s_GUID@@A@@@@SAABU_GUID@@XZ PROC NEAR ; _com_ptr_t<_com_IIID<ISkinForm,&_GUID_972de6c1_8b09_11d2_b652_a1fd6cc34260> >::GetIID, COMDAT

; 65   : 	{ 

  00000	55		 push	 ebp
  00001	8b ec		 mov	 ebp, esp

; 66   : 		return ThisIIID::GetIID(); 

  00003	e8 00 00 00 00	 call	 ?GetIID@?$_com_IIID@UISkinForm@@$1?_GUID_972de6c1_8b09_11d2_b652_a1fd6cc34260@@3U__s_GUID@@A@@SAABU_GUID@@XZ ; _com_IIID<ISkinForm,&_GUID_972de6c1_8b09_11d2_b652_a1fd6cc34260>::GetIID

; 67   : 	}

  00008	5d		 pop	 ebp
  00009	c3		 ret	 0
?GetIID@?$_com_ptr_t@V?$_com_IIID@UISkinForm@@$1?_GUID_972de6c1_8b09_11d2_b652_a1fd6cc34260@@3U__s_GUID@@A@@@@SAABU_GUID@@XZ ENDP ; _com_ptr_t<_com_IIID<ISkinForm,&_GUID_972de6c1_8b09_11d2_b652_a1fd6cc34260> >::GetIID
_TEXT	ENDS
PUBLIC	?_AddRef@?$_com_ptr_t@V?$_com_IIID@UISkinForm@@$1?_GUID_972de6c1_8b09_11d2_b652_a1fd6cc34260@@3U__s_GUID@@A@@@@AAEXXZ ; _com_ptr_t<_com_IIID<ISkinForm,&_GUID_972de6c1_8b09_11d2_b652_a1fd6cc34260> >::_AddRef
;	COMDAT ??4?$_com_ptr_t@V?$_com_IIID@UISkinForm@@$1?_GUID_972de6c1_8b09_11d2_b652_a1fd6cc34260@@3U__s_GUID@@A@@@@QAEAAV0@PAUISkinForm@@@Z
_TEXT	SEGMENT
_this$ = -8
_pOldInterface$117039 = -4
_pInterface$ = 8
??4?$_com_ptr_t@V?$_com_IIID@UISkinForm@@$1?_GUID_972de6c1_8b09_11d2_b652_a1fd6cc34260@@3U__s_GUID@@A@@@@QAEAAV0@PAUISkinForm@@@Z PROC NEAR ; _com_ptr_t<_com_IIID<ISkinForm,&_GUID_972de6c1_8b09_11d2_b652_a1fd6cc34260> >::operator=, COMDAT

; 207  : 	{

  00000	55		 push	 ebp
  00001	8b ec		 mov	 ebp, esp
  00003	83 ec 08	 sub	 esp, 8
  00006	89 4d f8	 mov	 DWORD PTR _this$[ebp], ecx

; 208  : 		if (m_pInterface != pInterface) {

  00009	8b 45 f8	 mov	 eax, DWORD PTR _this$[ebp]
  0000c	8b 08		 mov	 ecx, DWORD PTR [eax]
  0000e	3b 4d 08	 cmp	 ecx, DWORD PTR _pInterface$[ebp]
  00011	74 2a		 je	 SHORT $L117040

; 209  : 			Interface* pOldInterface = m_pInterface;

  00013	8b 55 f8	 mov	 edx, DWORD PTR _this$[ebp]
  00016	8b 02		 mov	 eax, DWORD PTR [edx]
  00018	89 45 fc	 mov	 DWORD PTR _pOldInterface$117039[ebp], eax

; 210  : 
; 211  : 			m_pInterface = pInterface;

  0001b	8b 4d f8	 mov	 ecx, DWORD PTR _this$[ebp]
  0001e	8b 55 08	 mov	 edx, DWORD PTR _pInterface$[ebp]
  00021	89 11		 mov	 DWORD PTR [ecx], edx

; 212  : 
; 213  : 			_AddRef();

  00023	8b 4d f8	 mov	 ecx, DWORD PTR _this$[ebp]
  00026	e8 00 00 00 00	 call	 ?_AddRef@?$_com_ptr_t@V?$_com_IIID@UISkinForm@@$1?_GUID_972de6c1_8b09_11d2_b652_a1fd6cc34260@@3U__s_GUID@@A@@@@AAEXXZ ; _com_ptr_t<_com_IIID<ISkinForm,&_GUID_972de6c1_8b09_11d2_b652_a1fd6cc34260> >::_AddRef

; 214  : 
; 215  : 			if (pOldInterface != NULL) {

  0002b	83 7d fc 00	 cmp	 DWORD PTR _pOldInterface$117039[ebp], 0
  0002f	74 0c		 je	 SHORT $L117040

; 216  : 				pOldInterface->Release();

  00031	8b 45 fc	 mov	 eax, DWORD PTR _pOldInterface$117039[ebp]
  00034	8b 08		 mov	 ecx, DWORD PTR [eax]
  00036	8b 55 fc	 mov	 edx, DWORD PTR _pOldInterface$117039[ebp]
  00039	52		 push	 edx
  0003a	ff 51 08	 call	 DWORD PTR [ecx+8]
$L117040:

; 219  : 
; 220  : 		return *this;

  0003d	8b 45 f8	 mov	 eax, DWORD PTR _this$[ebp]

; 221  : 	}

  00040	8b e5		 mov	 esp, ebp
  00042	5d		 pop	 ebp
  00043	c2 04 00	 ret	 4
??4?$_com_ptr_t@V?$_com_IIID@UISkinForm@@$1?_GUID_972de6c1_8b09_11d2_b652_a1fd6cc34260@@3U__s_GUID@@A@@@@QAEAAV0@PAUISkinForm@@@Z ENDP ; _com_ptr_t<_com_IIID<ISkinForm,&_GUID_972de6c1_8b09_11d2_b652_a1fd6cc34260> >::operator=
_TEXT	ENDS
;	COMDAT ?Attach@?$_com_ptr_t@V?$_com_IIID@UISkinForm@@$1?_GUID_972de6c1_8b09_11d2_b652_a1fd6cc34260@@3U__s_GUID@@A@@@@QAEXPAUISkinForm@@@Z
_TEXT	SEGMENT
_this$ = -4
_pInterface$ = 8
?Attach@?$_com_ptr_t@V?$_com_IIID@UISkinForm@@$1?_GUID_972de6c1_8b09_11d2_b652_a1fd6cc34260@@3U__s_GUID@@A@@@@QAEXPAUISkinForm@@@Z PROC NEAR ; _com_ptr_t<_com_IIID<ISkinForm,&_GUID_972de6c1_8b09_11d2_b652_a1fd6cc34260> >::Attach, COMDAT

; 268  : 	{

  00000	55		 push	 ebp
  00001	8b ec		 mov	 ebp, esp
  00003	51		 push	 ecx
  00004	89 4d fc	 mov	 DWORD PTR _this$[ebp], ecx

; 269  : 		_Release();

  00007	8b 4d fc	 mov	 ecx, DWORD PTR _this$[ebp]
  0000a	e8 00 00 00 00	 call	 ?_Release@?$_com_ptr_t@V?$_com_IIID@UISkinForm@@$1?_GUID_972de6c1_8b09_11d2_b652_a1fd6cc34260@@3U__s_GUID@@A@@@@AAEXXZ ; _com_ptr_t<_com_IIID<ISkinForm,&_GUID_972de6c1_8b09_11d2_b652_a1fd6cc34260> >::_Release

; 270  : 		m_pInterface = pInterface;

  0000f	8b 45 fc	 mov	 eax, DWORD PTR _this$[ebp]
  00012	8b 4d 08	 mov	 ecx, DWORD PTR _pInterface$[ebp]
  00015	89 08		 mov	 DWORD PTR [eax], ecx

; 271  : 	}

  00017	8b e5		 mov	 esp, ebp
  00019	5d		 pop	 ebp
  0001a	c2 04 00	 ret	 4
?Attach@?$_com_ptr_t@V?$_com_IIID@UISkinForm@@$1?_GUID_972de6c1_8b09_11d2_b652_a1fd6cc34260@@3U__s_GUID@@A@@@@QAEXPAUISkinForm@@@Z ENDP ; _com_ptr_t<_com_IIID<ISkinForm,&_GUID_972de6c1_8b09_11d2_b652_a1fd6cc34260> >::Attach
_TEXT	ENDS
;	COMDAT ?_AddRef@?$_com_ptr_t@V?$_com_IIID@UISkinForm@@$1?_GUID_972de6c1_8b09_11d2_b652_a1fd6cc34260@@3U__s_GUID@@A@@@@AAEXXZ
_TEXT	SEGMENT
_this$ = -4
?_AddRef@?$_com_ptr_t@V?$_com_IIID@UISkinForm@@$1?_GUID_972de6c1_8b09_11d2_b652_a1fd6cc34260@@3U__s_GUID@@A@@@@AAEXXZ PROC NEAR ; _com_ptr_t<_com_IIID<ISkinForm,&_GUID_972de6c1_8b09_11d2_b652_a1fd6cc34260> >::_AddRef, COMDAT

; 669  : 	{

  00000	55		 push	 ebp
  00001	8b ec		 mov	 ebp, esp
  00003	51		 push	 ecx
  00004	89 4d fc	 mov	 DWORD PTR _this$[ebp], ecx

; 670  : 		if (m_pInterface != NULL) {

  00007	8b 45 fc	 mov	 eax, DWORD PTR _this$[ebp]
  0000a	83 38 00	 cmp	 DWORD PTR [eax], 0
  0000d	74 10		 je	 SHORT $L117045

; 671  : 			m_pInterface->AddRef();

  0000f	8b 4d fc	 mov	 ecx, DWORD PTR _this$[ebp]
  00012	8b 11		 mov	 edx, DWORD PTR [ecx]
  00014	8b 45 fc	 mov	 eax, DWORD PTR _this$[ebp]
  00017	8b 08		 mov	 ecx, DWORD PTR [eax]
  00019	8b 01		 mov	 eax, DWORD PTR [ecx]
  0001b	52		 push	 edx
  0001c	ff 50 04	 call	 DWORD PTR [eax+4]
$L117045:

; 673  : 	}

  0001f	8b e5		 mov	 esp, ebp
  00021	5d		 pop	 ebp
  00022	c3		 ret	 0
?_AddRef@?$_com_ptr_t@V?$_com_IIID@UISkinForm@@$1?_GUID_972de6c1_8b09_11d2_b652_a1fd6cc34260@@3U__s_GUID@@A@@@@AAEXXZ ENDP ; _com_ptr_t<_com_IIID<ISkinForm,&_GUID_972de6c1_8b09_11d2_b652_a1fd6cc34260> >::_AddRef
_TEXT	ENDS
PUBLIC	__GUID_972de6c1_8b09_11d2_b652_a1fd6cc34260
;	COMDAT __GUID_972de6c1_8b09_11d2_b652_a1fd6cc34260
; File C:\Program Files (x86)\Microsoft Visual Studio\VC98\INCLUDE\comip.h
_DATA	SEGMENT
__GUID_972de6c1_8b09_11d2_b652_a1fd6cc34260 DD 0972de6c1H
	DW	08b09H
	DW	011d2H
	DB	0b6H
	DB	052H
	DB	0a1H
	DB	0fdH
	DB	06cH
	DB	0c3H
	DB	042H
	DB	060H
_DATA	ENDS
;	COMDAT ?GetIID@?$_com_IIID@UISkinForm@@$1?_GUID_972de6c1_8b09_11d2_b652_a1fd6cc34260@@3U__s_GUID@@A@@SAABU_GUID@@XZ
_TEXT	SEGMENT
?GetIID@?$_com_IIID@UISkinForm@@$1?_GUID_972de6c1_8b09_11d2_b652_a1fd6cc34260@@3U__s_GUID@@A@@SAABU_GUID@@XZ PROC NEAR ; _com_IIID<ISkinForm,&_GUID_972de6c1_8b09_11d2_b652_a1fd6cc34260>::GetIID, COMDAT

; 46   : 	{

  00000	55		 push	 ebp
  00001	8b ec		 mov	 ebp, esp

; 47   : 		return *_IID;

  00003	b8 00 00 00 00	 mov	 eax, OFFSET FLAT:__GUID_972de6c1_8b09_11d2_b652_a1fd6cc34260

; 48   : 	}

  00008	5d		 pop	 ebp
  00009	c3		 ret	 0
?GetIID@?$_com_IIID@UISkinForm@@$1?_GUID_972de6c1_8b09_11d2_b652_a1fd6cc34260@@3U__s_GUID@@A@@SAABU_GUID@@XZ ENDP ; _com_IIID<ISkinForm,&_GUID_972de6c1_8b09_11d2_b652_a1fd6cc34260>::GetIID
_TEXT	ENDS
;	COMDAT ?DoDataExchange@CWnd@@MAEXPAVCDataExchange@@@Z
_TEXT	SEGMENT
_this$ = -4
?DoDataExchange@CWnd@@MAEXPAVCDataExchange@@@Z PROC NEAR ; CWnd::DoDataExchange, COMDAT

; 519  : 	{ } // default does nothing

  00000	55		 push	 ebp
  00001	8b ec		 mov	 ebp, esp
  00003	51		 push	 ecx
  00004	89 4d fc	 mov	 DWORD PTR _this$[ebp], ecx
  00007	8b e5		 mov	 esp, ebp
  00009	5d		 pop	 ebp
  0000a	c2 04 00	 ret	 4
?DoDataExchange@CWnd@@MAEXPAVCDataExchange@@@Z ENDP	; CWnd::DoDataExchange
_TEXT	ENDS
EXTRN	__imp__EnableWindow@8:NEAR
;	COMDAT ?BeginModalState@CWnd@@UAEXXZ
_TEXT	SEGMENT
_this$ = -4
?BeginModalState@CWnd@@UAEXXZ PROC NEAR			; CWnd::BeginModalState, COMDAT

; 523  : 	{ ::EnableWindow(m_hWnd, FALSE); }

  00000	55		 push	 ebp
  00001	8b ec		 mov	 ebp, esp
  00003	51		 push	 ecx
  00004	89 4d fc	 mov	 DWORD PTR _this$[ebp], ecx
  00007	6a 00		 push	 0
  00009	8b 45 fc	 mov	 eax, DWORD PTR _this$[ebp]
  0000c	8b 48 20	 mov	 ecx, DWORD PTR [eax+32]
  0000f	51		 push	 ecx
  00010	ff 15 00 00 00
	00		 call	 DWORD PTR __imp__EnableWindow@8
  00016	8b e5		 mov	 esp, ebp
  00018	5d		 pop	 ebp
  00019	c3		 ret	 0
?BeginModalState@CWnd@@UAEXXZ ENDP			; CWnd::BeginModalState
_TEXT	ENDS
;	COMDAT ?EndModalState@CWnd@@UAEXXZ
_TEXT	SEGMENT
_this$ = -4
?EndModalState@CWnd@@UAEXXZ PROC NEAR			; CWnd::EndModalState, COMDAT

; 525  : 	{ ::EnableWindow(m_hWnd, TRUE); }

  00000	55		 push	 ebp
  00001	8b ec		 mov	 ebp, esp
  00003	51		 push	 ecx
  00004	89 4d fc	 mov	 DWORD PTR _this$[ebp], ecx
  00007	6a 01		 push	 1
  00009	8b 45 fc	 mov	 eax, DWORD PTR _this$[ebp]
  0000c	8b 48 20	 mov	 ecx, DWORD PTR [eax+32]
  0000f	51		 push	 ecx
  00010	ff 15 00 00 00
	00		 call	 DWORD PTR __imp__EnableWindow@8
  00016	8b e5		 mov	 esp, ebp
  00018	5d		 pop	 ebp
  00019	c3		 ret	 0
?EndModalState@CWnd@@UAEXXZ ENDP			; CWnd::EndModalState
_TEXT	ENDS
EXTRN	__imp__SysFreeString@4:NEAR
;	COMDAT ??1CComBSTR@ATL@@QAE@XZ
_TEXT	SEGMENT
_this$ = -4
??1CComBSTR@ATL@@QAE@XZ PROC NEAR			; ATL::CComBSTR::~CComBSTR, COMDAT

; 3938 : 	{

  00000	55		 push	 ebp
  00001	8b ec		 mov	 ebp, esp
  00003	51		 push	 ecx
  00004	89 4d fc	 mov	 DWORD PTR _this$[ebp], ecx

; 3939 : 		::SysFreeString(m_str);

  00007	8b 45 fc	 mov	 eax, DWORD PTR _this$[ebp]
  0000a	8b 08		 mov	 ecx, DWORD PTR [eax]
  0000c	51		 push	 ecx
  0000d	ff 15 00 00 00
	00		 call	 DWORD PTR __imp__SysFreeString@4

; 3940 : 	}

  00013	8b e5		 mov	 esp, ebp
  00015	5d		 pop	 ebp
  00016	c3		 ret	 0
??1CComBSTR@ATL@@QAE@XZ ENDP				; ATL::CComBSTR::~CComBSTR
_TEXT	ENDS
;	COMDAT ??BCComBSTR@ATL@@QBEPAGXZ
_TEXT	SEGMENT
_this$ = -4
??BCComBSTR@ATL@@QBEPAGXZ PROC NEAR			; ATL::CComBSTR::operator unsigned short *, COMDAT

; 3946 : 	{

  00000	55		 push	 ebp
  00001	8b ec		 mov	 ebp, esp
  00003	51		 push	 ecx
  00004	89 4d fc	 mov	 DWORD PTR _this$[ebp], ecx

; 3947 : 		return m_str;

  00007	8b 45 fc	 mov	 eax, DWORD PTR _this$[ebp]
  0000a	8b 00		 mov	 eax, DWORD PTR [eax]

; 3948 : 	}

  0000c	8b e5		 mov	 esp, ebp
  0000e	5d		 pop	 ebp
  0000f	c3		 ret	 0
??BCComBSTR@ATL@@QBEPAGXZ ENDP				; ATL::CComBSTR::operator unsigned short *
_TEXT	ENDS
PUBLIC	?A2WBSTR@@YAPAGPBDH@Z				; A2WBSTR
;	COMDAT ??0CComBSTR@ATL@@QAE@PBD@Z
_TEXT	SEGMENT
_pSrc$ = 8
_this$ = -4
??0CComBSTR@ATL@@QAE@PBD@Z PROC NEAR			; ATL::CComBSTR::CComBSTR, COMDAT

; 4102 : 	CComBSTR(LPCSTR pSrc)

  00000	55		 push	 ebp
  00001	8b ec		 mov	 ebp, esp
  00003	51		 push	 ecx
  00004	89 4d fc	 mov	 DWORD PTR _this$[ebp], ecx

; 4103 : 	{
; 4104 : 		m_str = A2WBSTR(pSrc);

  00007	6a ff		 push	 -1
  00009	8b 45 08	 mov	 eax, DWORD PTR _pSrc$[ebp]
  0000c	50		 push	 eax
  0000d	e8 00 00 00 00	 call	 ?A2WBSTR@@YAPAGPBDH@Z	; A2WBSTR
  00012	83 c4 08	 add	 esp, 8
  00015	8b 4d fc	 mov	 ecx, DWORD PTR _this$[ebp]
  00018	89 01		 mov	 DWORD PTR [ecx], eax

; 4105 : 	}

  0001a	8b 45 fc	 mov	 eax, DWORD PTR _this$[ebp]
  0001d	8b e5		 mov	 esp, ebp
  0001f	5d		 pop	 ebp
  00020	c2 04 00	 ret	 4
??0CComBSTR@ATL@@QAE@PBD@Z ENDP				; ATL::CComBSTR::CComBSTR
_TEXT	ENDS
EXTRN	__imp__MultiByteToWideChar@24:NEAR
EXTRN	__imp__SysAllocStringLen@8:NEAR
;	COMDAT ?A2WBSTR@@YAPAGPBDH@Z
_TEXT	SEGMENT
_lp$ = 8
_nLen$ = 12
__acp$ = -12
_str$ = -4
_nConvertedLen$ = -16
?A2WBSTR@@YAPAGPBDH@Z PROC NEAR				; A2WBSTR, COMDAT

; 195  : {

  00000	55		 push	 ebp
  00001	8b ec		 mov	 ebp, esp
  00003	83 ec 18	 sub	 esp, 24			; 00000018H

; 196  : 	USES_CONVERSION;

  00006	c7 45 f4 00 00
	00 00		 mov	 DWORD PTR __acp$[ebp], 0

; 197  : 	BSTR str = NULL;

  0000d	c7 45 fc 00 00
	00 00		 mov	 DWORD PTR _str$[ebp], 0

; 198  : 	int nConvertedLen = MultiByteToWideChar(_acp, 0, lp,
; 199  : 		nLen, NULL, NULL)-1;

  00014	6a 00		 push	 0
  00016	6a 00		 push	 0
  00018	8b 45 0c	 mov	 eax, DWORD PTR _nLen$[ebp]
  0001b	50		 push	 eax
  0001c	8b 4d 08	 mov	 ecx, DWORD PTR _lp$[ebp]
  0001f	51		 push	 ecx
  00020	6a 00		 push	 0
  00022	8b 55 f4	 mov	 edx, DWORD PTR __acp$[ebp]
  00025	52		 push	 edx
  00026	ff 15 00 00 00
	00		 call	 DWORD PTR __imp__MultiByteToWideChar@24
  0002c	83 e8 01	 sub	 eax, 1
  0002f	89 45 f0	 mov	 DWORD PTR _nConvertedLen$[ebp], eax

; 200  : 	str = ::SysAllocStringLen(NULL, nConvertedLen);

  00032	8b 45 f0	 mov	 eax, DWORD PTR _nConvertedLen$[ebp]
  00035	50		 push	 eax
  00036	6a 00		 push	 0
  00038	ff 15 00 00 00
	00		 call	 DWORD PTR __imp__SysAllocStringLen@8
  0003e	89 45 fc	 mov	 DWORD PTR _str$[ebp], eax

; 201  : 	if (str != NULL)

  00041	83 7d fc 00	 cmp	 DWORD PTR _str$[ebp], 0
  00045	74 1a		 je	 SHORT $L87242

; 203  : 		MultiByteToWideChar(_acp, 0, lp, -1,
; 204  : 			str, nConvertedLen);

  00047	8b 4d f0	 mov	 ecx, DWORD PTR _nConvertedLen$[ebp]
  0004a	51		 push	 ecx
  0004b	8b 55 fc	 mov	 edx, DWORD PTR _str$[ebp]
  0004e	52		 push	 edx
  0004f	6a ff		 push	 -1
  00051	8b 45 08	 mov	 eax, DWORD PTR _lp$[ebp]
  00054	50		 push	 eax
  00055	6a 00		 push	 0
  00057	8b 4d f4	 mov	 ecx, DWORD PTR __acp$[ebp]
  0005a	51		 push	 ecx
  0005b	ff 15 00 00 00
	00		 call	 DWORD PTR __imp__MultiByteToWideChar@24
$L87242:

; 206  : 	return str;

  00061	8b 45 fc	 mov	 eax, DWORD PTR _str$[ebp]

; 207  : }

  00064	8b e5		 mov	 esp, ebp
  00066	5d		 pop	 ebp
  00067	c3		 ret	 0
?A2WBSTR@@YAPAGPBDH@Z ENDP				; A2WBSTR
_TEXT	ENDS
END
